P_HDR Event: Idx:64794 (Pattern: EEEEEEEEEEEEEEE, Function: HighPrioTask)
Executed Assembly Steps:
  1. 700a1008: 4620         	mov	r0, r4
  2. 700a100a: f00e fea9    	bl	0x700afd60 <tm_pmu_profile_start> @ imm = #0xed52
  3. 700afd60: f7f9 bb3e    	b.w	0x700a93e0 <PMU_profileStart> @ imm = #-0x6984
  4. 700a93e0: b580         	push	{r7, lr}
  5. 700a93e2: b088         	sub	sp, #0x20
  6. 700a93e4: 9006         	str	r0, [sp, #0x18]
  7. 700a93e6: f243 0080    	movw	r0, #0x3080
  8. 700a93ea: f2c7 0008    	movt	r0, #0x7008
  9. 700a93ee: 6800         	ldr	r0, [r0]
  10. 700a93f0: 2840         	cmp	r0, #0x40
  11. 700a93f2: d304         	blo	0x700a93fe <PMU_profileStart+0x1e> @ imm = #0x8
  12. 700a93fe: f243 0280    	movw	r2, #0x3080
  13. 700a9402: f2c7 0208    	movt	r2, #0x7008
  14. 700a9406: 6810         	ldr	r0, [r2]
  15. 700a9408: 9005         	str	r0, [sp, #0x14]

P_HDR Event: Idx:64795 (Pattern: EEEEEEEEEEEEEEE, Function: PMU_profileStart)
Executed Assembly Steps:
  1. 700a940a: 6890         	ldr	r0, [r2, #0x8]
  2. 700a940c: 9003         	str	r0, [sp, #0xc]
  3. 700a940e: 6850         	ldr	r0, [r2, #0x4]
  4. 700a9410: 9002         	str	r0, [sp, #0x8]
  5. 700a9412: 9805         	ldr	r0, [sp, #0x14]
  6. 700a9414: 2134         	movs	r1, #0x34
  7. 700a9416: fb00 2001    	mla	r0, r0, r1, r2
  8. 700a941a: 300c         	adds	r0, #0xc
  9. 700a941c: 9001         	str	r0, [sp, #0x4]
  10. 700a941e: 9806         	ldr	r0, [sp, #0x18]
  11. 700a9420: 9901         	ldr	r1, [sp, #0x4]
  12. 700a9422: 6308         	str	r0, [r1, #0x30]
  13. 700a9424: f006 fbfc    	bl	0x700afc20 <PMU_resetCounters> @ imm = #0x67f8
  14. 700afc20: b580         	push	{r7, lr}
  15. 700afc22: f7f2 ea48    	blx	0x700a20b4 <CSL_armR5PmuResetCycleCnt> @ imm = #-0xdb70

Sync: Idx:64796; ID:10;	BRANCH_ADDRESS : Branch address.; Addr=0x700A20B4 ~[0x700A20B4]; ISA=ARM(32);

P_HDR Event: Idx:64802 (Pattern: EEEE, Function: CSL_armR5PmuResetCycleCnt)
Executed Assembly Steps:
  1. 700a20b4: ee190f1c     	mrc	p15, #0x0, r0, c9, c12, #0x0
  2. 700a20b8: e3800004     	orr	r0, r0, #4
  3. 700a20bc: ee090f1c     	mcr	p15, #0x0, r0, c9, c12, #0x0
  4. 700a20c0: e12fff1e     	bx	lr

Sync: Idx:64803; ID:10;	BRANCH_ADDRESS : Branch address.; Addr=0x700AFC26 ~[0x700AFC26]; ISA=Thumb2;

P_HDR Event: Idx:64814 (Pattern: E, Function: PMU_resetCounters)
Executed Assembly Steps:
  1. 700afc26: f7f2 ea4e    	blx	0x700a20c4 <CSL_armR5PmuResetCntrs> @ imm = #-0xdb64

Sync: Idx:64816; ID:10;	BRANCH_ADDRESS : Branch address.; Addr=0x700A20C4 ~[0x700A20C4]; ISA=ARM(32);

P_HDR Event: Idx:64821 (Pattern: EEEE, Function: CSL_armR5PmuResetCntrs)
Executed Assembly Steps:
  1. 700a20c4: ee190f1c     	mrc	p15, #0x0, r0, c9, c12, #0x0
  2. 700a20c8: e3800002     	orr	r0, r0, #2
  3. 700a20cc: ee090f1c     	mcr	p15, #0x0, r0, c9, c12, #0x0
  4. 700a20d0: e12fff1e     	bx	lr

Sync: Idx:64822; ID:10;	BRANCH_ADDRESS : Branch address.; Addr=0x700AFC2A ~[0x700AFC2A]; ISA=Thumb2;

P_HDR Event: Idx:64827 (Pattern: E, Function: PMU_resetCounters)
Executed Assembly Steps:
  1. 700afc2a: bd80         	pop	{r7, pc}

Sync: Idx:64828; ID:10;	BRANCH_ADDRESS : Branch address.; Addr=0x700A9428 ~[0xA9428];

P_HDR Event: Idx:64832 (Pattern: EEN, Function: PMU_profileStart)
Executed Assembly Steps:
  1. 700a9428: 9802         	ldr	r0, [sp, #0x8]
  2. 700a942a: 2801         	cmp	r0, #0x1
  3. 700a942c: d106         	bne	0x700a943c <PMU_profileStart+0x5c> @ imm = #0xc

P_HDR Event: Idx:64833 (Pattern: EEE, Function: PMU_profileStart)
Executed Assembly Steps:
  1. 700a942e: e7ff         	b	0x700a9430 <PMU_profileStart+0x50> @ imm = #-0x2
  2. 700a9430: 201f         	movs	r0, #0x1f
  3. 700a9432: f7f8 ee14    	blx	0x700a205c <CSL_armR5PmuReadCntr> @ imm = #-0x73d8

Sync: Idx:64834; ID:10;	BRANCH_ADDRESS : Branch address.; Addr=0x700A205C ~[0x700A205C]; ISA=ARM(32);

P_HDR Event: Idx:64839 (Pattern: EEEEEE, Function: CSL_armR5PmuReadCntr)
Executed Assembly Steps:
  1. 700a205c: e52de004     	str	lr, [sp, #-0x4]!
  2. 700a2060: e350001f     	cmp	r0, #31
  3. 700a2064: 0a000002     	beq	0x700a2074 <armR5PmuReadCntr_cycles> @ imm = #0x8
  4. 700a2074: ee190f1d     	mrc	p15, #0x0, r0, c9, c13, #0x0
  5. 700a2078: e49de004     	ldr	lr, [sp], #4
  6. 700a207c: e12fff1e     	bx	lr

Sync: Idx:64840; ID:10;	BRANCH_ADDRESS : Branch address.; Addr=0x700A9436 ~[0x700A9436]; ISA=Thumb2;

P_HDR Event: Idx:64845 (Pattern: EEEEEEEEEN, Function: PMU_profileStart)
Executed Assembly Steps:
  1. 700a9436: 9901         	ldr	r1, [sp, #0x4]
  2. 700a9438: 62c8         	str	r0, [r1, #0x2c]
  3. 700a943a: e7ff         	b	0x700a943c <PMU_profileStart+0x5c> @ imm = #-0x2
  4. 700a943c: 2000         	movs	r0, #0x0
  5. 700a943e: 9004         	str	r0, [sp, #0x10]
  6. 700a9440: e7ff         	b	0x700a9442 <PMU_profileStart+0x62> @ imm = #-0x2
  7. 700a9442: 9804         	ldr	r0, [sp, #0x10]
  8. 700a9444: 9903         	ldr	r1, [sp, #0xc]
  9. 700a9446: 4288         	cmp	r0, r1
  10. 700a9448: d20f         	bhs	0x700a946a <PMU_profileStart+0x8a> @ imm = #0x1e

P_HDR Event: Idx:64846 (Pattern: EEE, Function: PMU_profileStart)
Executed Assembly Steps:
  1. 700a944a: e7ff         	b	0x700a944c <PMU_profileStart+0x6c> @ imm = #-0x2
  2. 700a944c: 9804         	ldr	r0, [sp, #0x10]
  3. 700a944e: f7f8 ee06    	blx	0x700a205c <CSL_armR5PmuReadCntr> @ imm = #-0x73f4

Sync: Idx:64848; ID:10;	BRANCH_ADDRESS : Branch address.; Addr=0x700A205C ~[0x700A205C]; ISA=ARM(32);

P_HDR Event: Idx:64853 (Pattern: EEN, Function: CSL_armR5PmuReadCntr)
Executed Assembly Steps:
  1. 700a205c: e52de004     	str	lr, [sp, #-0x4]!
  2. 700a2060: e350001f     	cmp	r0, #31
  3. 700a2064: 0a000002     	beq	0x700a2074 <armR5PmuReadCntr_cycles> @ imm = #0x8

P_HDR Event: Idx:64854 (Pattern: EEEE, Function: CSL_armR5PmuReadCntr)
Executed Assembly Steps:
  1. 700a2068: ebffffc5     	bl	0x700a1f84 <CSL_armR5PmuSelectCntr> @ imm = #-0xec
  2. 700a1f84: e200001f     	and	r0, r0, #31
  3. 700a1f88: ee090fbc     	mcr	p15, #0x0, r0, c9, c12, #0x5
  4. 700a1f8c: e12fff1e     	bx	lr

Sync: Idx:64855; ID:10;	BRANCH_ADDRESS : Branch address.; Addr=0x700A206C ~[0x6C];

P_HDR Event: Idx:64856 (Pattern: EEEE, Function: CSL_armR5PmuReadCntr)
Executed Assembly Steps:
  1. 700a206c: ee190f5d     	mrc	p15, #0x0, r0, c9, c13, #0x2
  2. 700a2070: ea000000     	b	0x700a2078 <armR5PmuReadCntr_00> @ imm = #0x0
  3. 700a2078: e49de004     	ldr	lr, [sp], #4
  4. 700a207c: e12fff1e     	bx	lr

Sync: Idx:64857; ID:10;	BRANCH_ADDRESS : Branch address.; Addr=0x700A9452 ~[0x700A9452]; ISA=Thumb2;

P_HDR Event: Idx:64862 (Pattern: EEEEEEEEEEEEEN, Function: PMU_profileStart)
Executed Assembly Steps:
  1. 700a9452: 9901         	ldr	r1, [sp, #0x4]
  2. 700a9454: 9a04         	ldr	r2, [sp, #0x10]
  3. 700a9456: eb02 0242    	add.w	r2, r2, r2, lsl #1
  4. 700a945a: eb01 0182    	add.w	r1, r1, r2, lsl #2
  5. 700a945e: 6088         	str	r0, [r1, #0x8]
  6. 700a9460: e7ff         	b	0x700a9462 <PMU_profileStart+0x82> @ imm = #-0x2
  7. 700a9462: 9804         	ldr	r0, [sp, #0x10]
  8. 700a9464: 3001         	adds	r0, #0x1
  9. 700a9466: 9004         	str	r0, [sp, #0x10]
  10. 700a9468: e7eb         	b	0x700a9442 <PMU_profileStart+0x62> @ imm = #-0x2a
  11. 700a9442: 9804         	ldr	r0, [sp, #0x10]
  12. 700a9444: 9903         	ldr	r1, [sp, #0xc]
  13. 700a9446: 4288         	cmp	r0, r1
  14. 700a9448: d20f         	bhs	0x700a946a <PMU_profileStart+0x8a> @ imm = #0x1e

P_HDR Event: Idx:64864 (Pattern: EEE, Function: PMU_profileStart)
Executed Assembly Steps:
  1. 700a944a: e7ff         	b	0x700a944c <PMU_profileStart+0x6c> @ imm = #-0x2
  2. 700a944c: 9804         	ldr	r0, [sp, #0x10]
  3. 700a944e: f7f8 ee06    	blx	0x700a205c <CSL_armR5PmuReadCntr> @ imm = #-0x73f4

Sync: Idx:64865; ID:10;	BRANCH_ADDRESS : Branch address.; Addr=0x700A205C ~[0x700A205C]; ISA=ARM(32);

P_HDR Event: Idx:64870 (Pattern: EEN, Function: CSL_armR5PmuReadCntr)
Executed Assembly Steps:
  1. 700a205c: e52de004     	str	lr, [sp, #-0x4]!
  2. 700a2060: e350001f     	cmp	r0, #31
  3. 700a2064: 0a000002     	beq	0x700a2074 <armR5PmuReadCntr_cycles> @ imm = #0x8

P_HDR Event: Idx:64871 (Pattern: EEEE, Function: CSL_armR5PmuReadCntr)
Executed Assembly Steps:
  1. 700a2068: ebffffc5     	bl	0x700a1f84 <CSL_armR5PmuSelectCntr> @ imm = #-0xec
  2. 700a1f84: e200001f     	and	r0, r0, #31
  3. 700a1f88: ee090fbc     	mcr	p15, #0x0, r0, c9, c12, #0x5
  4. 700a1f8c: e12fff1e     	bx	lr

Sync: Idx:64872; ID:10;	BRANCH_ADDRESS : Branch address.; Addr=0x700A206C ~[0x6C];

P_HDR Event: Idx:64873 (Pattern: EEEE, Function: CSL_armR5PmuReadCntr)
Executed Assembly Steps:
  1. 700a206c: ee190f5d     	mrc	p15, #0x0, r0, c9, c13, #0x2
  2. 700a2070: ea000000     	b	0x700a2078 <armR5PmuReadCntr_00> @ imm = #0x0
  3. 700a2078: e49de004     	ldr	lr, [sp], #4
  4. 700a207c: e12fff1e     	bx	lr

Sync: Idx:64874; ID:10;	BRANCH_ADDRESS : Branch address.; Addr=0x700A9452 ~[0x700A9452]; ISA=Thumb2;

P_HDR Event: Idx:64880 (Pattern: EEEEEEEEEEEEEN, Function: PMU_profileStart)
Executed Assembly Steps:
  1. 700a9452: 9901         	ldr	r1, [sp, #0x4]
  2. 700a9454: 9a04         	ldr	r2, [sp, #0x10]
  3. 700a9456: eb02 0242    	add.w	r2, r2, r2, lsl #1
  4. 700a945a: eb01 0182    	add.w	r1, r1, r2, lsl #2
  5. 700a945e: 6088         	str	r0, [r1, #0x8]
  6. 700a9460: e7ff         	b	0x700a9462 <PMU_profileStart+0x82> @ imm = #-0x2
  7. 700a9462: 9804         	ldr	r0, [sp, #0x10]
  8. 700a9464: 3001         	adds	r0, #0x1
  9. 700a9466: 9004         	str	r0, [sp, #0x10]
  10. 700a9468: e7eb         	b	0x700a9442 <PMU_profileStart+0x62> @ imm = #-0x2a
  11. 700a9442: 9804         	ldr	r0, [sp, #0x10]
  12. 700a9444: 9903         	ldr	r1, [sp, #0xc]
  13. 700a9446: 4288         	cmp	r0, r1
  14. 700a9448: d20f         	bhs	0x700a946a <PMU_profileStart+0x8a> @ imm = #0x1e

P_HDR Event: Idx:64881 (Pattern: EEE, Function: PMU_profileStart)
Executed Assembly Steps:
  1. 700a944a: e7ff         	b	0x700a944c <PMU_profileStart+0x6c> @ imm = #-0x2
  2. 700a944c: 9804         	ldr	r0, [sp, #0x10]
  3. 700a944e: f7f8 ee06    	blx	0x700a205c <CSL_armR5PmuReadCntr> @ imm = #-0x73f4

Sync: Idx:64882; ID:10;	BRANCH_ADDRESS : Branch address.; Addr=0x700A205C ~[0x700A205C]; ISA=ARM(32);

P_HDR Event: Idx:64887 (Pattern: EEN, Function: CSL_armR5PmuReadCntr)
Executed Assembly Steps:
  1. 700a205c: e52de004     	str	lr, [sp, #-0x4]!
  2. 700a2060: e350001f     	cmp	r0, #31
  3. 700a2064: 0a000002     	beq	0x700a2074 <armR5PmuReadCntr_cycles> @ imm = #0x8

P_HDR Event: Idx:64888 (Pattern: EEEE, Function: CSL_armR5PmuReadCntr)
Executed Assembly Steps:
  1. 700a2068: ebffffc5     	bl	0x700a1f84 <CSL_armR5PmuSelectCntr> @ imm = #-0xec
  2. 700a1f84: e200001f     	and	r0, r0, #31
  3. 700a1f88: ee090fbc     	mcr	p15, #0x0, r0, c9, c12, #0x5
  4. 700a1f8c: e12fff1e     	bx	lr

Sync: Idx:64889; ID:10;	BRANCH_ADDRESS : Branch address.; Addr=0x700A206C ~[0x6C];

P_HDR Event: Idx:64890 (Pattern: EEEE, Function: CSL_armR5PmuReadCntr)
Executed Assembly Steps:
  1. 700a206c: ee190f5d     	mrc	p15, #0x0, r0, c9, c13, #0x2
  2. 700a2070: ea000000     	b	0x700a2078 <armR5PmuReadCntr_00> @ imm = #0x0
  3. 700a2078: e49de004     	ldr	lr, [sp], #4
  4. 700a207c: e12fff1e     	bx	lr

Sync: Idx:64891; ID:10;	BRANCH_ADDRESS : Branch address.; Addr=0x700A9452 ~[0x700A9452]; ISA=Thumb2;

P_HDR Event: Idx:64897 (Pattern: EEEEEEEEEEEEEEE, Function: PMU_profileStart)
Executed Assembly Steps:
  1. 700a9452: 9901         	ldr	r1, [sp, #0x4]
  2. 700a9454: 9a04         	ldr	r2, [sp, #0x10]
  3. 700a9456: eb02 0242    	add.w	r2, r2, r2, lsl #1
  4. 700a945a: eb01 0182    	add.w	r1, r1, r2, lsl #2
  5. 700a945e: 6088         	str	r0, [r1, #0x8]
  6. 700a9460: e7ff         	b	0x700a9462 <PMU_profileStart+0x82> @ imm = #-0x2
  7. 700a9462: 9804         	ldr	r0, [sp, #0x10]
  8. 700a9464: 3001         	adds	r0, #0x1
  9. 700a9466: 9004         	str	r0, [sp, #0x10]
  10. 700a9468: e7eb         	b	0x700a9442 <PMU_profileStart+0x62> @ imm = #-0x2a
  11. 700a9442: 9804         	ldr	r0, [sp, #0x10]
  12. 700a9444: 9903         	ldr	r1, [sp, #0xc]
  13. 700a9446: 4288         	cmp	r0, r1
  14. 700a9448: d20f         	bhs	0x700a946a <PMU_profileStart+0x8a> @ imm = #0x1e
  15. 700a946a: 2000         	movs	r0, #0x0

P_HDR Event: Idx:64898 (Pattern: EEEEE, Function: PMU_profileStart)
Executed Assembly Steps:
  1. 700a946c: 9007         	str	r0, [sp, #0x1c]
  2. 700a946e: e7ff         	b	0x700a9470 <PMU_profileStart+0x90> @ imm = #-0x2
  3. 700a9470: 9807         	ldr	r0, [sp, #0x1c]
  4. 700a9472: b008         	add	sp, #0x20
  5. 700a9474: bd80         	pop	{r7, pc}

Sync: Idx:64899; ID:10;	BRANCH_ADDRESS : Branch address.; Addr=0x700A100E ~[0xA100E];

P_HDR Event: Idx:64904 (Pattern: EEEEEEEEEEEEEEE, Function: HighPrioTask)
Executed Assembly Steps:
  1. 700a100e: 2001         	movs	r0, #0x1
  2. 700a1010: f00e fa46    	bl	0x700af4a0 <tm_mutex_get> @ imm = #0xe48c
  3. 700af4a0: b580         	push	{r7, lr}
  4. 700af4a2: f245 111c    	movw	r1, #0x511c
  5. 700af4a6: f2c7 0108    	movt	r1, #0x7008
  6. 700af4aa: f851 0020    	ldr.w	r0, [r1, r0, lsl #2]
  7. 700af4ae: f04f 31ff    	mov.w	r1, #0xffffffff
  8. 700af4b2: f7f1 fe55    	bl	0x700a1160 <xQueueSemaphoreTake> @ imm = #-0xe356
  9. 700a1160: b580         	push	{r7, lr}
  10. 700a1162: b08a         	sub	sp, #0x28
  11. 700a1164: 9008         	str	r0, [sp, #0x20]
  12. 700a1166: 9107         	str	r1, [sp, #0x1c]
  13. 700a1168: 2000         	movs	r0, #0x0
  14. 700a116a: 9006         	str	r0, [sp, #0x18]
  15. 700a116c: 9908         	ldr	r1, [sp, #0x20]

P_HDR Event: Idx:64905 (Pattern: EEEEEEEEN, Function: xQueueSemaphoreTake)
Executed Assembly Steps:
  1. 700a116e: 9103         	str	r1, [sp, #0xc]
  2. 700a1170: 9002         	str	r0, [sp, #0x8]
  3. 700a1172: e7ff         	b	0x700a1174 <xQueueSemaphoreTake+0x14> @ imm = #-0x2
  4. 700a1174: f00d faa4    	bl	0x700ae6c0 <vTaskEnterCritical> @ imm = #0xd548
  5. 700ae6c0: b672         	cpsid i
  6. 700ae6c2: f642 2040    	movw	r0, #0x2a40
  7. 700ae6c6: f2c7 000b    	movt	r0, #0x700b
  8. 700ae6ca: 6800         	ldr	r0, [r0]
  9. 700ae6cc: b178         	cbz	r0, 0x700ae6ee <vTaskEnterCritical+0x2e> @ imm = #0x1e

P_HDR Event: Idx:64906 (Pattern: EEEEEEEEEEN, Function: vTaskEnterCritical)
Executed Assembly Steps:
  1. 700ae6ce: e7ff         	b	0x700ae6d0 <vTaskEnterCritical+0x10> @ imm = #-0x2
  2. 700ae6d0: f642 2000    	movw	r0, #0x2a00
  3. 700ae6d4: f2c7 000b    	movt	r0, #0x700b
  4. 700ae6d8: 6802         	ldr	r2, [r0]
  5. 700ae6da: 6d51         	ldr	r1, [r2, #0x54]
  6. 700ae6dc: 3101         	adds	r1, #0x1
  7. 700ae6de: 6551         	str	r1, [r2, #0x54]
  8. 700ae6e0: 6800         	ldr	r0, [r0]
  9. 700ae6e2: 6d40         	ldr	r0, [r0, #0x54]
  10. 700ae6e4: 2801         	cmp	r0, #0x1
  11. 700ae6e6: d101         	bne	0x700ae6ec <vTaskEnterCritical+0x2c> @ imm = #0x2

P_HDR Event: Idx:64907 (Pattern: EEEE, Function: vTaskEnterCritical)
Executed Assembly Steps:
  1. 700ae6e8: e7ff         	b	0x700ae6ea <vTaskEnterCritical+0x2a> @ imm = #-0x2
  2. 700ae6ea: e7ff         	b	0x700ae6ec <vTaskEnterCritical+0x2c> @ imm = #-0x2
  3. 700ae6ec: e000         	b	0x700ae6f0 <vTaskEnterCritical+0x30> @ imm = #0x0
  4. 700ae6f0: 4770         	bx	lr

Sync: Idx:64908; ID:10;	BRANCH_ADDRESS : Branch address.; Addr=0x700A1178 ~[0x1178];

P_HDR Event: Idx:64912 (Pattern: EEEEEEEEN, Function: xQueueSemaphoreTake)
Executed Assembly Steps:
  1. 700a1178: 9803         	ldr	r0, [sp, #0xc]
  2. 700a117a: 6b80         	ldr	r0, [r0, #0x38]
  3. 700a117c: 9001         	str	r0, [sp, #0x4]
  4. 700a117e: 9801         	ldr	r0, [sp, #0x4]
  5. 700a1180: b310         	cbz	r0, 0x700a11c8 <xQueueSemaphoreTake+0x68> @ imm = #0x44
  6. 700a11c8: 9807         	ldr	r0, [sp, #0x1c]
  7. 700a11ca: b928         	cbnz	r0, 0x700a11d8 <xQueueSemaphoreTake+0x78> @ imm = #0xa
  8. 700a11d8: 9806         	ldr	r0, [sp, #0x18]
  9. 700a11da: b930         	cbnz	r0, 0x700a11ea <xQueueSemaphoreTake+0x8a> @ imm = #0xc

P_HDR Event: Idx:64913 (Pattern: EEEEEEEEEEEEEE, Function: xQueueSemaphoreTake)
Executed Assembly Steps:
  1. 700a11dc: e7ff         	b	0x700a11de <xQueueSemaphoreTake+0x7e> @ imm = #-0x2
  2. 700a11de: a804         	add	r0, sp, #0x10
  3. 700a11e0: f00d ffe6    	bl	0x700af1b0 <vTaskInternalSetTimeOutState> @ imm = #0xdfcc
  4. 700af1b0: b081         	sub	sp, #0x4
  5. 700af1b2: 9000         	str	r0, [sp]
  6. 700af1b4: f642 2038    	movw	r0, #0x2a38
  7. 700af1b8: f2c7 000b    	movt	r0, #0x700b
  8. 700af1bc: 6800         	ldr	r0, [r0]
  9. 700af1be: 9900         	ldr	r1, [sp]
  10. 700af1c0: 6008         	str	r0, [r1]
  11. 700af1c2: f642 2044    	movw	r0, #0x2a44
  12. 700af1c6: f2c7 000b    	movt	r0, #0x700b
  13. 700af1ca: 6800         	ldr	r0, [r0]
  14. 700af1cc: 9900         	ldr	r1, [sp]

P_HDR Event: Idx:64914 (Pattern: EEE, Function: vTaskInternalSetTimeOutState)
Executed Assembly Steps:
  1. 700af1ce: 6048         	str	r0, [r1, #0x4]
  2. 700af1d0: b001         	add	sp, #0x4
  3. 700af1d2: 4770         	bx	lr

Sync: Idx:64915; ID:10;	BRANCH_ADDRESS : Branch address.; Addr=0x700A11E4 ~[0x11E4];

P_HDR Event: Idx:64917 (Pattern: EEEEEEEEEN, Function: xQueueSemaphoreTake)
Executed Assembly Steps:
  1. 700a11e4: 2001         	movs	r0, #0x1
  2. 700a11e6: 9006         	str	r0, [sp, #0x18]
  3. 700a11e8: e000         	b	0x700a11ec <xQueueSemaphoreTake+0x8c> @ imm = #0x0
  4. 700a11ec: e7ff         	b	0x700a11ee <xQueueSemaphoreTake+0x8e> @ imm = #-0x2
  5. 700a11ee: e7ff         	b	0x700a11f0 <xQueueSemaphoreTake+0x90> @ imm = #-0x2
  6. 700a11f0: f00c fb06    	bl	0x700ad800 <vTaskExitCritical> @ imm = #0xc60c
  7. 700ad800: f642 2040    	movw	r0, #0x2a40
  8. 700ad804: f2c7 000b    	movt	r0, #0x700b
  9. 700ad808: 6800         	ldr	r0, [r0]
  10. 700ad80a: b1d0         	cbz	r0, 0x700ad842 <vTaskExitCritical+0x42> @ imm = #0x34

P_HDR Event: Idx:64918 (Pattern: EEEEEN, Function: vTaskExitCritical)
Executed Assembly Steps:
  1. 700ad80c: e7ff         	b	0x700ad80e <vTaskExitCritical+0xe> @ imm = #-0x2
  2. 700ad80e: f642 2000    	movw	r0, #0x2a00
  3. 700ad812: f2c7 000b    	movt	r0, #0x700b
  4. 700ad816: 6800         	ldr	r0, [r0]
  5. 700ad818: 6d40         	ldr	r0, [r0, #0x54]
  6. 700ad81a: b180         	cbz	r0, 0x700ad83e <vTaskExitCritical+0x3e> @ imm = #0x20

P_HDR Event: Idx:64919 (Pattern: EEEEEEEEEN, Function: vTaskExitCritical)
Executed Assembly Steps:
  1. 700ad81c: e7ff         	b	0x700ad81e <vTaskExitCritical+0x1e> @ imm = #-0x2
  2. 700ad81e: f642 2000    	movw	r0, #0x2a00
  3. 700ad822: f2c7 000b    	movt	r0, #0x700b
  4. 700ad826: 6802         	ldr	r2, [r0]
  5. 700ad828: 6d51         	ldr	r1, [r2, #0x54]
  6. 700ad82a: 3901         	subs	r1, #0x1
  7. 700ad82c: 6551         	str	r1, [r2, #0x54]
  8. 700ad82e: 6800         	ldr	r0, [r0]
  9. 700ad830: 6d40         	ldr	r0, [r0, #0x54]
  10. 700ad832: b910         	cbnz	r0, 0x700ad83a <vTaskExitCritical+0x3a> @ imm = #0x4

P_HDR Event: Idx:64920 (Pattern: EEEEEE, Function: vTaskExitCritical)
Executed Assembly Steps:
  1. 700ad834: e7ff         	b	0x700ad836 <vTaskExitCritical+0x36> @ imm = #-0x2
  2. 700ad836: b662         	cpsie i
  3. 700ad838: e000         	b	0x700ad83c <vTaskExitCritical+0x3c> @ imm = #0x0
  4. 700ad83c: e000         	b	0x700ad840 <vTaskExitCritical+0x40> @ imm = #0x0
  5. 700ad840: e000         	b	0x700ad844 <vTaskExitCritical+0x44> @ imm = #0x0
  6. 700ad844: 4770         	bx	lr

Sync: Idx:64921; ID:10;	BRANCH_ADDRESS : Branch address.; Addr=0x700A11F4 ~[0x74];

P_HDR Event: Idx:64922 (Pattern: EEEEEEE, Function: xQueueSemaphoreTake)
Executed Assembly Steps:
  1. 700a11f4: f00e fcc4    	bl	0x700afb80 <vTaskSuspendAll> @ imm = #0xe988
  2. 700afb80: f642 2124    	movw	r1, #0x2a24
  3. 700afb84: f2c7 010b    	movt	r1, #0x700b
  4. 700afb88: 6808         	ldr	r0, [r1]
  5. 700afb8a: 3001         	adds	r0, #0x1
  6. 700afb8c: 6008         	str	r0, [r1]
  7. 700afb8e: 4770         	bx	lr

Sync: Idx:64923; ID:10;	BRANCH_ADDRESS : Branch address.; Addr=0x700A11F8 ~[0x78];

P_HDR Event: Idx:64924 (Pattern: EEEEEN, Function: xQueueSemaphoreTake)
Executed Assembly Steps:
  1. 700a11f8: f00d fa62    	bl	0x700ae6c0 <vTaskEnterCritical> @ imm = #0xd4c4
  2. 700ae6c0: b672         	cpsid i
  3. 700ae6c2: f642 2040    	movw	r0, #0x2a40
  4. 700ae6c6: f2c7 000b    	movt	r0, #0x700b
  5. 700ae6ca: 6800         	ldr	r0, [r0]
  6. 700ae6cc: b178         	cbz	r0, 0x700ae6ee <vTaskEnterCritical+0x2e> @ imm = #0x1e

P_HDR Event: Idx:64925 (Pattern: EEEEEEEEEEN, Function: vTaskEnterCritical)
Executed Assembly Steps:
  1. 700ae6ce: e7ff         	b	0x700ae6d0 <vTaskEnterCritical+0x10> @ imm = #-0x2
  2. 700ae6d0: f642 2000    	movw	r0, #0x2a00
  3. 700ae6d4: f2c7 000b    	movt	r0, #0x700b
  4. 700ae6d8: 6802         	ldr	r2, [r0]
  5. 700ae6da: 6d51         	ldr	r1, [r2, #0x54]
  6. 700ae6dc: 3101         	adds	r1, #0x1
  7. 700ae6de: 6551         	str	r1, [r2, #0x54]
  8. 700ae6e0: 6800         	ldr	r0, [r0]
  9. 700ae6e2: 6d40         	ldr	r0, [r0, #0x54]
  10. 700ae6e4: 2801         	cmp	r0, #0x1
  11. 700ae6e6: d101         	bne	0x700ae6ec <vTaskEnterCritical+0x2c> @ imm = #0x2

P_HDR Event: Idx:64926 (Pattern: EEEE, Function: vTaskEnterCritical)
Executed Assembly Steps:
  1. 700ae6e8: e7ff         	b	0x700ae6ea <vTaskEnterCritical+0x2a> @ imm = #-0x2
  2. 700ae6ea: e7ff         	b	0x700ae6ec <vTaskEnterCritical+0x2c> @ imm = #-0x2
  3. 700ae6ec: e000         	b	0x700ae6f0 <vTaskEnterCritical+0x30> @ imm = #0x0
  4. 700ae6f0: 4770         	bx	lr

Sync: Idx:64928; ID:10;	BRANCH_ADDRESS : Branch address.; Addr=0x700A11FC ~[0x7C];

P_HDR Event: Idx:64929 (Pattern: EEEN, Function: xQueueSemaphoreTake)
Executed Assembly Steps:
  1. 700a11fc: 9803         	ldr	r0, [sp, #0xc]
  2. 700a11fe: f990 0044    	ldrsb.w	r0, [r0, #0x44]
  3. 700a1202: 3001         	adds	r0, #0x1
  4. 700a1204: b928         	cbnz	r0, 0x700a1212 <xQueueSemaphoreTake+0xb2> @ imm = #0xa

P_HDR Event: Idx:64930 (Pattern: EEEEEEEEN, Function: xQueueSemaphoreTake)
Executed Assembly Steps:
  1. 700a1206: e7ff         	b	0x700a1208 <xQueueSemaphoreTake+0xa8> @ imm = #-0x2
  2. 700a1208: 9903         	ldr	r1, [sp, #0xc]
  3. 700a120a: 2000         	movs	r0, #0x0
  4. 700a120c: f881 0044    	strb.w	r0, [r1, #0x44]
  5. 700a1210: e7ff         	b	0x700a1212 <xQueueSemaphoreTake+0xb2> @ imm = #-0x2
  6. 700a1212: 9803         	ldr	r0, [sp, #0xc]
  7. 700a1214: f990 0045    	ldrsb.w	r0, [r0, #0x45]
  8. 700a1218: 3001         	adds	r0, #0x1
  9. 700a121a: b928         	cbnz	r0, 0x700a1228 <xQueueSemaphoreTake+0xc8> @ imm = #0xa

P_HDR Event: Idx:64931 (Pattern: EEEEEEEEEN, Function: xQueueSemaphoreTake)
Executed Assembly Steps:
  1. 700a121c: e7ff         	b	0x700a121e <xQueueSemaphoreTake+0xbe> @ imm = #-0x2
  2. 700a121e: 9903         	ldr	r1, [sp, #0xc]
  3. 700a1220: 2000         	movs	r0, #0x0
  4. 700a1222: f881 0045    	strb.w	r0, [r1, #0x45]
  5. 700a1226: e7ff         	b	0x700a1228 <xQueueSemaphoreTake+0xc8> @ imm = #-0x2
  6. 700a1228: f00c faea    	bl	0x700ad800 <vTaskExitCritical> @ imm = #0xc5d4
  7. 700ad800: f642 2040    	movw	r0, #0x2a40
  8. 700ad804: f2c7 000b    	movt	r0, #0x700b
  9. 700ad808: 6800         	ldr	r0, [r0]
  10. 700ad80a: b1d0         	cbz	r0, 0x700ad842 <vTaskExitCritical+0x42> @ imm = #0x34

P_HDR Event: Idx:64932 (Pattern: EEEEEN, Function: vTaskExitCritical)
Executed Assembly Steps:
  1. 700ad80c: e7ff         	b	0x700ad80e <vTaskExitCritical+0xe> @ imm = #-0x2
  2. 700ad80e: f642 2000    	movw	r0, #0x2a00
  3. 700ad812: f2c7 000b    	movt	r0, #0x700b
  4. 700ad816: 6800         	ldr	r0, [r0]
  5. 700ad818: 6d40         	ldr	r0, [r0, #0x54]
  6. 700ad81a: b180         	cbz	r0, 0x700ad83e <vTaskExitCritical+0x3e> @ imm = #0x20

P_HDR Event: Idx:64933 (Pattern: EEEEEEEEEN, Function: vTaskExitCritical)
Executed Assembly Steps:
  1. 700ad81c: e7ff         	b	0x700ad81e <vTaskExitCritical+0x1e> @ imm = #-0x2
  2. 700ad81e: f642 2000    	movw	r0, #0x2a00
  3. 700ad822: f2c7 000b    	movt	r0, #0x700b
  4. 700ad826: 6802         	ldr	r2, [r0]
  5. 700ad828: 6d51         	ldr	r1, [r2, #0x54]
  6. 700ad82a: 3901         	subs	r1, #0x1
  7. 700ad82c: 6551         	str	r1, [r2, #0x54]
  8. 700ad82e: 6800         	ldr	r0, [r0]
  9. 700ad830: 6d40         	ldr	r0, [r0, #0x54]
  10. 700ad832: b910         	cbnz	r0, 0x700ad83a <vTaskExitCritical+0x3a> @ imm = #0x4

P_HDR Event: Idx:64934 (Pattern: EEEEEE, Function: vTaskExitCritical)
Executed Assembly Steps:
  1. 700ad834: e7ff         	b	0x700ad836 <vTaskExitCritical+0x36> @ imm = #-0x2
  2. 700ad836: b662         	cpsie i
  3. 700ad838: e000         	b	0x700ad83c <vTaskExitCritical+0x3c> @ imm = #0x0
  4. 700ad83c: e000         	b	0x700ad840 <vTaskExitCritical+0x40> @ imm = #0x0
  5. 700ad840: e000         	b	0x700ad844 <vTaskExitCritical+0x44> @ imm = #0x0
  6. 700ad844: 4770         	bx	lr

Sync: Idx:64935; ID:10;	BRANCH_ADDRESS : Branch address.; Addr=0x700A122C ~[0x122C];

P_HDR Event: Idx:64937 (Pattern: EEEEEEEEEEEEN, Function: xQueueSemaphoreTake)
Executed Assembly Steps:
  1. 700a122c: a804         	add	r0, sp, #0x10
  2. 700a122e: a907         	add	r1, sp, #0x1c
  3. 700a1230: f007 ff46    	bl	0x700a90c0 <xTaskCheckForTimeOut> @ imm = #0x7e8c
  4. 700a90c0: b580         	push	{r7, lr}
  5. 700a90c2: b086         	sub	sp, #0x18
  6. 700a90c4: 9005         	str	r0, [sp, #0x14]
  7. 700a90c6: 9104         	str	r1, [sp, #0x10]
  8. 700a90c8: f005 fafa    	bl	0x700ae6c0 <vTaskEnterCritical> @ imm = #0x55f4
  9. 700ae6c0: b672         	cpsid i
  10. 700ae6c2: f642 2040    	movw	r0, #0x2a40
  11. 700ae6c6: f2c7 000b    	movt	r0, #0x700b
  12. 700ae6ca: 6800         	ldr	r0, [r0]
  13. 700ae6cc: b178         	cbz	r0, 0x700ae6ee <vTaskEnterCritical+0x2e> @ imm = #0x1e

P_HDR Event: Idx:64938 (Pattern: EEEEEEEEEEN, Function: vTaskEnterCritical)
Executed Assembly Steps:
  1. 700ae6ce: e7ff         	b	0x700ae6d0 <vTaskEnterCritical+0x10> @ imm = #-0x2
  2. 700ae6d0: f642 2000    	movw	r0, #0x2a00
  3. 700ae6d4: f2c7 000b    	movt	r0, #0x700b
  4. 700ae6d8: 6802         	ldr	r2, [r0]
  5. 700ae6da: 6d51         	ldr	r1, [r2, #0x54]
  6. 700ae6dc: 3101         	adds	r1, #0x1
  7. 700ae6de: 6551         	str	r1, [r2, #0x54]
  8. 700ae6e0: 6800         	ldr	r0, [r0]
  9. 700ae6e2: 6d40         	ldr	r0, [r0, #0x54]
  10. 700ae6e4: 2801         	cmp	r0, #0x1
  11. 700ae6e6: d101         	bne	0x700ae6ec <vTaskEnterCritical+0x2c> @ imm = #0x2

P_HDR Event: Idx:64939 (Pattern: EEEE, Function: vTaskEnterCritical)
Executed Assembly Steps:
  1. 700ae6e8: e7ff         	b	0x700ae6ea <vTaskEnterCritical+0x2a> @ imm = #-0x2
  2. 700ae6ea: e7ff         	b	0x700ae6ec <vTaskEnterCritical+0x2c> @ imm = #-0x2
  3. 700ae6ec: e000         	b	0x700ae6f0 <vTaskEnterCritical+0x30> @ imm = #0x0
  4. 700ae6f0: 4770         	bx	lr

Sync: Idx:64940; ID:10;	BRANCH_ADDRESS : Branch address.; Addr=0x700A90CC ~[0xA90CC];

P_HDR Event: Idx:64944 (Pattern: EEEEEEEEEEEEN, Function: xTaskCheckForTimeOut)
Executed Assembly Steps:
  1. 700a90cc: f642 2044    	movw	r0, #0x2a44
  2. 700a90d0: f2c7 000b    	movt	r0, #0x700b
  3. 700a90d4: 6800         	ldr	r0, [r0]
  4. 700a90d6: 9002         	str	r0, [sp, #0x8]
  5. 700a90d8: 9802         	ldr	r0, [sp, #0x8]
  6. 700a90da: 9905         	ldr	r1, [sp, #0x14]
  7. 700a90dc: 6849         	ldr	r1, [r1, #0x4]
  8. 700a90de: 1a40         	subs	r0, r0, r1
  9. 700a90e0: 9001         	str	r0, [sp, #0x4]
  10. 700a90e2: 9804         	ldr	r0, [sp, #0x10]
  11. 700a90e4: 6800         	ldr	r0, [r0]
  12. 700a90e6: 3001         	adds	r0, #0x1
  13. 700a90e8: b918         	cbnz	r0, 0x700a90f2 <xTaskCheckForTimeOut+0x32> @ imm = #0x6

P_HDR Event: Idx:64945 (Pattern: EEEEEEEEN, Function: xTaskCheckForTimeOut)
Executed Assembly Steps:
  1. 700a90ea: e7ff         	b	0x700a90ec <xTaskCheckForTimeOut+0x2c> @ imm = #-0x2
  2. 700a90ec: 2000         	movs	r0, #0x0
  3. 700a90ee: 9003         	str	r0, [sp, #0xc]
  4. 700a90f0: e02e         	b	0x700a9150 <xTaskCheckForTimeOut+0x90> @ imm = #0x5c
  5. 700a9150: f004 fb56    	bl	0x700ad800 <vTaskExitCritical> @ imm = #0x46ac
  6. 700ad800: f642 2040    	movw	r0, #0x2a40
  7. 700ad804: f2c7 000b    	movt	r0, #0x700b
  8. 700ad808: 6800         	ldr	r0, [r0]
  9. 700ad80a: b1d0         	cbz	r0, 0x700ad842 <vTaskExitCritical+0x42> @ imm = #0x34

P_HDR Event: Idx:64946 (Pattern: EEEEEN, Function: vTaskExitCritical)
Executed Assembly Steps:
  1. 700ad80c: e7ff         	b	0x700ad80e <vTaskExitCritical+0xe> @ imm = #-0x2
  2. 700ad80e: f642 2000    	movw	r0, #0x2a00
  3. 700ad812: f2c7 000b    	movt	r0, #0x700b
  4. 700ad816: 6800         	ldr	r0, [r0]
  5. 700ad818: 6d40         	ldr	r0, [r0, #0x54]
  6. 700ad81a: b180         	cbz	r0, 0x700ad83e <vTaskExitCritical+0x3e> @ imm = #0x20

P_HDR Event: Idx:64947 (Pattern: EEEEEEEEEN, Function: vTaskExitCritical)
Executed Assembly Steps:
  1. 700ad81c: e7ff         	b	0x700ad81e <vTaskExitCritical+0x1e> @ imm = #-0x2
  2. 700ad81e: f642 2000    	movw	r0, #0x2a00
  3. 700ad822: f2c7 000b    	movt	r0, #0x700b
  4. 700ad826: 6802         	ldr	r2, [r0]
  5. 700ad828: 6d51         	ldr	r1, [r2, #0x54]
  6. 700ad82a: 3901         	subs	r1, #0x1
  7. 700ad82c: 6551         	str	r1, [r2, #0x54]
  8. 700ad82e: 6800         	ldr	r0, [r0]
  9. 700ad830: 6d40         	ldr	r0, [r0, #0x54]
  10. 700ad832: b910         	cbnz	r0, 0x700ad83a <vTaskExitCritical+0x3a> @ imm = #0x4

P_HDR Event: Idx:64948 (Pattern: EEEEEE, Function: vTaskExitCritical)
Executed Assembly Steps:
  1. 700ad834: e7ff         	b	0x700ad836 <vTaskExitCritical+0x36> @ imm = #-0x2
  2. 700ad836: b662         	cpsie i
  3. 700ad838: e000         	b	0x700ad83c <vTaskExitCritical+0x3c> @ imm = #0x0
  4. 700ad83c: e000         	b	0x700ad840 <vTaskExitCritical+0x40> @ imm = #0x0
  5. 700ad840: e000         	b	0x700ad844 <vTaskExitCritical+0x44> @ imm = #0x0
  6. 700ad844: 4770         	bx	lr

Sync: Idx:64949; ID:10;	BRANCH_ADDRESS : Branch address.; Addr=0x700A9154 ~[0x1154];

P_HDR Event: Idx:64951 (Pattern: EEE, Function: xTaskCheckForTimeOut)
Executed Assembly Steps:
  1. 700a9154: 9803         	ldr	r0, [sp, #0xc]
  2. 700a9156: b006         	add	sp, #0x18
  3. 700a9158: bd80         	pop	{r7, pc}

Sync: Idx:64952; ID:10;	BRANCH_ADDRESS : Branch address.; Addr=0x700A1234 ~[0xA1234];

P_HDR Event: Idx:64955 (Pattern: N, Function: xQueueSemaphoreTake)
Executed Assembly Steps:
  1. 700a1234: bb58         	cbnz	r0, 0x700a128e <xQueueSemaphoreTake+0x12e> @ imm = #0x56

P_HDR Event: Idx:64956 (Pattern: EEEEEEEEEEEN, Function: xQueueSemaphoreTake)
Executed Assembly Steps:
  1. 700a1236: e7ff         	b	0x700a1238 <xQueueSemaphoreTake+0xd8> @ imm = #-0x2
  2. 700a1238: 9803         	ldr	r0, [sp, #0xc]
  3. 700a123a: f00d fdf9    	bl	0x700aee30 <prvIsQueueEmpty> @ imm = #0xdbf2
  4. 700aee30: b580         	push	{r7, lr}
  5. 700aee32: b082         	sub	sp, #0x8
  6. 700aee34: 9001         	str	r0, [sp, #0x4]
  7. 700aee36: f7ff fc43    	bl	0x700ae6c0 <vTaskEnterCritical> @ imm = #-0x77a
  8. 700ae6c0: b672         	cpsid i
  9. 700ae6c2: f642 2040    	movw	r0, #0x2a40
  10. 700ae6c6: f2c7 000b    	movt	r0, #0x700b
  11. 700ae6ca: 6800         	ldr	r0, [r0]
  12. 700ae6cc: b178         	cbz	r0, 0x700ae6ee <vTaskEnterCritical+0x2e> @ imm = #0x1e

P_HDR Event: Idx:64957 (Pattern: EEEEEEEEEEN, Function: vTaskEnterCritical)
Executed Assembly Steps:
  1. 700ae6ce: e7ff         	b	0x700ae6d0 <vTaskEnterCritical+0x10> @ imm = #-0x2
  2. 700ae6d0: f642 2000    	movw	r0, #0x2a00
  3. 700ae6d4: f2c7 000b    	movt	r0, #0x700b
  4. 700ae6d8: 6802         	ldr	r2, [r0]
  5. 700ae6da: 6d51         	ldr	r1, [r2, #0x54]
  6. 700ae6dc: 3101         	adds	r1, #0x1
  7. 700ae6de: 6551         	str	r1, [r2, #0x54]
  8. 700ae6e0: 6800         	ldr	r0, [r0]
  9. 700ae6e2: 6d40         	ldr	r0, [r0, #0x54]
  10. 700ae6e4: 2801         	cmp	r0, #0x1
  11. 700ae6e6: d101         	bne	0x700ae6ec <vTaskEnterCritical+0x2c> @ imm = #0x2

P_HDR Event: Idx:64958 (Pattern: EEEE, Function: vTaskEnterCritical)
Executed Assembly Steps:
  1. 700ae6e8: e7ff         	b	0x700ae6ea <vTaskEnterCritical+0x2a> @ imm = #-0x2
  2. 700ae6ea: e7ff         	b	0x700ae6ec <vTaskEnterCritical+0x2c> @ imm = #-0x2
  3. 700ae6ec: e000         	b	0x700ae6f0 <vTaskEnterCritical+0x30> @ imm = #0x0
  4. 700ae6f0: 4770         	bx	lr

Sync: Idx:64960; ID:10;	BRANCH_ADDRESS : Branch address.; Addr=0x700AEE3A ~[0xAEE3A];

P_HDR Event: Idx:64963 (Pattern: EEN, Function: prvIsQueueEmpty)
Executed Assembly Steps:
  1. 700aee3a: 9801         	ldr	r0, [sp, #0x4]
  2. 700aee3c: 6b80         	ldr	r0, [r0, #0x38]
  3. 700aee3e: b918         	cbnz	r0, 0x700aee48 <prvIsQueueEmpty+0x18> @ imm = #0x6

P_HDR Event: Idx:64964 (Pattern: EEEEEEEEN, Function: prvIsQueueEmpty)
Executed Assembly Steps:
  1. 700aee40: e7ff         	b	0x700aee42 <prvIsQueueEmpty+0x12> @ imm = #-0x2
  2. 700aee42: 2001         	movs	r0, #0x1
  3. 700aee44: 9000         	str	r0, [sp]
  4. 700aee46: e002         	b	0x700aee4e <prvIsQueueEmpty+0x1e> @ imm = #0x4
  5. 700aee4e: f7fe fcd7    	bl	0x700ad800 <vTaskExitCritical> @ imm = #-0x1652
  6. 700ad800: f642 2040    	movw	r0, #0x2a40
  7. 700ad804: f2c7 000b    	movt	r0, #0x700b
  8. 700ad808: 6800         	ldr	r0, [r0]
  9. 700ad80a: b1d0         	cbz	r0, 0x700ad842 <vTaskExitCritical+0x42> @ imm = #0x34

P_HDR Event: Idx:64965 (Pattern: EEEEEN, Function: vTaskExitCritical)
Executed Assembly Steps:
  1. 700ad80c: e7ff         	b	0x700ad80e <vTaskExitCritical+0xe> @ imm = #-0x2
  2. 700ad80e: f642 2000    	movw	r0, #0x2a00
  3. 700ad812: f2c7 000b    	movt	r0, #0x700b
  4. 700ad816: 6800         	ldr	r0, [r0]
  5. 700ad818: 6d40         	ldr	r0, [r0, #0x54]
  6. 700ad81a: b180         	cbz	r0, 0x700ad83e <vTaskExitCritical+0x3e> @ imm = #0x20

P_HDR Event: Idx:64966 (Pattern: EEEEEEEEEN, Function: vTaskExitCritical)
Executed Assembly Steps:
  1. 700ad81c: e7ff         	b	0x700ad81e <vTaskExitCritical+0x1e> @ imm = #-0x2
  2. 700ad81e: f642 2000    	movw	r0, #0x2a00
  3. 700ad822: f2c7 000b    	movt	r0, #0x700b
  4. 700ad826: 6802         	ldr	r2, [r0]
  5. 700ad828: 6d51         	ldr	r1, [r2, #0x54]
  6. 700ad82a: 3901         	subs	r1, #0x1
  7. 700ad82c: 6551         	str	r1, [r2, #0x54]
  8. 700ad82e: 6800         	ldr	r0, [r0]
  9. 700ad830: 6d40         	ldr	r0, [r0, #0x54]
  10. 700ad832: b910         	cbnz	r0, 0x700ad83a <vTaskExitCritical+0x3a> @ imm = #0x4

P_HDR Event: Idx:64967 (Pattern: EEEEEE, Function: vTaskExitCritical)
Executed Assembly Steps:
  1. 700ad834: e7ff         	b	0x700ad836 <vTaskExitCritical+0x36> @ imm = #-0x2
  2. 700ad836: b662         	cpsie i
  3. 700ad838: e000         	b	0x700ad83c <vTaskExitCritical+0x3c> @ imm = #0x0
  4. 700ad83c: e000         	b	0x700ad840 <vTaskExitCritical+0x40> @ imm = #0x0
  5. 700ad840: e000         	b	0x700ad844 <vTaskExitCritical+0x44> @ imm = #0x0
  6. 700ad844: 4770         	bx	lr

Sync: Idx:64968; ID:10;	BRANCH_ADDRESS : Branch address.; Addr=0x700AEE52 ~[0x52];

P_HDR Event: Idx:64969 (Pattern: EEE, Function: prvIsQueueEmpty)
Executed Assembly Steps:
  1. 700aee52: 9800         	ldr	r0, [sp]
  2. 700aee54: b002         	add	sp, #0x8
  3. 700aee56: bd80         	pop	{r7, pc}

Sync: Idx:64970; ID:10;	BRANCH_ADDRESS : Branch address.; Addr=0x700A123E ~[0xA123E];

P_HDR Event: Idx:64973 (Pattern: N, Function: xQueueSemaphoreTake)
Executed Assembly Steps:
  1. 700a123e: b1f8         	cbz	r0, 0x700a1280 <xQueueSemaphoreTake+0x120> @ imm = #0x3e

P_HDR Event: Idx:64974 (Pattern: EEEN, Function: xQueueSemaphoreTake)
Executed Assembly Steps:
  1. 700a1240: e7ff         	b	0x700a1242 <xQueueSemaphoreTake+0xe2> @ imm = #-0x2
  2. 700a1242: 9803         	ldr	r0, [sp, #0xc]
  3. 700a1244: 6800         	ldr	r0, [r0]
  4. 700a1246: b950         	cbnz	r0, 0x700a125e <xQueueSemaphoreTake+0xfe> @ imm = #0x14

P_HDR Event: Idx:64976 (Pattern: EEEEEEN, Function: xQueueSemaphoreTake)
Executed Assembly Steps:
  1. 700a1248: e7ff         	b	0x700a124a <xQueueSemaphoreTake+0xea> @ imm = #-0x2
  2. 700a124a: f00d fa39    	bl	0x700ae6c0 <vTaskEnterCritical> @ imm = #0xd472
  3. 700ae6c0: b672         	cpsid i
  4. 700ae6c2: f642 2040    	movw	r0, #0x2a40
  5. 700ae6c6: f2c7 000b    	movt	r0, #0x700b
  6. 700ae6ca: 6800         	ldr	r0, [r0]
  7. 700ae6cc: b178         	cbz	r0, 0x700ae6ee <vTaskEnterCritical+0x2e> @ imm = #0x1e

P_HDR Event: Idx:64977 (Pattern: EEEEEEEEEEN, Function: vTaskEnterCritical)
Executed Assembly Steps:
  1. 700ae6ce: e7ff         	b	0x700ae6d0 <vTaskEnterCritical+0x10> @ imm = #-0x2
  2. 700ae6d0: f642 2000    	movw	r0, #0x2a00
  3. 700ae6d4: f2c7 000b    	movt	r0, #0x700b
  4. 700ae6d8: 6802         	ldr	r2, [r0]
  5. 700ae6da: 6d51         	ldr	r1, [r2, #0x54]
  6. 700ae6dc: 3101         	adds	r1, #0x1
  7. 700ae6de: 6551         	str	r1, [r2, #0x54]
  8. 700ae6e0: 6800         	ldr	r0, [r0]
  9. 700ae6e2: 6d40         	ldr	r0, [r0, #0x54]
  10. 700ae6e4: 2801         	cmp	r0, #0x1
  11. 700ae6e6: d101         	bne	0x700ae6ec <vTaskEnterCritical+0x2c> @ imm = #0x2

P_HDR Event: Idx:64978 (Pattern: EEEE, Function: vTaskEnterCritical)
Executed Assembly Steps:
  1. 700ae6e8: e7ff         	b	0x700ae6ea <vTaskEnterCritical+0x2a> @ imm = #-0x2
  2. 700ae6ea: e7ff         	b	0x700ae6ec <vTaskEnterCritical+0x2c> @ imm = #-0x2
  3. 700ae6ec: e000         	b	0x700ae6f0 <vTaskEnterCritical+0x30> @ imm = #0x0
  4. 700ae6f0: 4770         	bx	lr

Sync: Idx:64979; ID:10;	BRANCH_ADDRESS : Branch address.; Addr=0x700A124E ~[0x4E];

P_HDR Event: Idx:64980 (Pattern: EEEEEEEEEEEEN, Function: xQueueSemaphoreTake)
Executed Assembly Steps:
  1. 700a124e: 9803         	ldr	r0, [sp, #0xc]
  2. 700a1250: 6880         	ldr	r0, [r0, #0x8]
  3. 700a1252: f003 fef5    	bl	0x700a5040 <xTaskPriorityInherit> @ imm = #0x3dea
  4. 700a5040: b580         	push	{r7, lr}
  5. 700a5042: b084         	sub	sp, #0x10
  6. 700a5044: 9003         	str	r0, [sp, #0xc]
  7. 700a5046: 9803         	ldr	r0, [sp, #0xc]
  8. 700a5048: 9002         	str	r0, [sp, #0x8]
  9. 700a504a: 2000         	movs	r0, #0x0
  10. 700a504c: 9001         	str	r0, [sp, #0x4]
  11. 700a504e: 9803         	ldr	r0, [sp, #0xc]
  12. 700a5050: 2800         	cmp	r0, #0x0
  13. 700a5052: d078         	beq	0x700a5146 <xTaskPriorityInherit+0x106> @ imm = #0xf0

P_HDR Event: Idx:64981 (Pattern: EEEEEEEEN, Function: xTaskPriorityInherit)
Executed Assembly Steps:
  1. 700a5054: e7ff         	b	0x700a5056 <xTaskPriorityInherit+0x16> @ imm = #-0x2
  2. 700a5056: 9802         	ldr	r0, [sp, #0x8]
  3. 700a5058: 6ac0         	ldr	r0, [r0, #0x2c]
  4. 700a505a: f642 2100    	movw	r1, #0x2a00
  5. 700a505e: f2c7 010b    	movt	r1, #0x700b
  6. 700a5062: 6809         	ldr	r1, [r1]
  7. 700a5064: 6ac9         	ldr	r1, [r1, #0x2c]
  8. 700a5066: 4288         	cmp	r0, r1
  9. 700a5068: d25c         	bhs	0x700a5124 <xTaskPriorityInherit+0xe4> @ imm = #0xb8

P_HDR Event: Idx:64982 (Pattern: EEEEEN, Function: xTaskPriorityInherit)
Executed Assembly Steps:
  1. 700a506a: e7ff         	b	0x700a506c <xTaskPriorityInherit+0x2c> @ imm = #-0x2
  2. 700a506c: 9802         	ldr	r0, [sp, #0x8]
  3. 700a506e: 7ec0         	ldrb	r0, [r0, #0x1b]
  4. 700a5070: 0600         	lsls	r0, r0, #0x18
  5. 700a5072: 2800         	cmp	r0, #0x0
  6. 700a5074: d40b         	bmi	0x700a508e <xTaskPriorityInherit+0x4e> @ imm = #0x16

P_HDR Event: Idx:64983 (Pattern: EEEEEEEEEEEEEEE, Function: xTaskPriorityInherit)
Executed Assembly Steps:
  1. 700a5076: e7ff         	b	0x700a5078 <xTaskPriorityInherit+0x38> @ imm = #-0x2
  2. 700a5078: f642 2000    	movw	r0, #0x2a00
  3. 700a507c: f2c7 000b    	movt	r0, #0x700b
  4. 700a5080: 6800         	ldr	r0, [r0]
  5. 700a5082: 6ac0         	ldr	r0, [r0, #0x2c]
  6. 700a5084: f1c0 0020    	rsb.w	r0, r0, #0x20
  7. 700a5088: 9902         	ldr	r1, [sp, #0x8]
  8. 700a508a: 6188         	str	r0, [r1, #0x18]
  9. 700a508c: e000         	b	0x700a5090 <xTaskPriorityInherit+0x50> @ imm = #0x0
  10. 700a5090: 9902         	ldr	r1, [sp, #0x8]
  11. 700a5092: 6948         	ldr	r0, [r1, #0x14]
  12. 700a5094: 6ac9         	ldr	r1, [r1, #0x2c]
  13. 700a5096: eb01 0281    	add.w	r2, r1, r1, lsl #2
  14. 700a509a: f244 41f8    	movw	r1, #0x44f8
  15. 700a509e: f2c7 0108    	movt	r1, #0x7008

P_HDR Event: Idx:64984 (Pattern: EEN, Function: xTaskPriorityInherit)
Executed Assembly Steps:
  1. 700a50a2: eb01 0182    	add.w	r1, r1, r2, lsl #2
  2. 700a50a6: 4288         	cmp	r0, r1
  3. 700a50a8: d130         	bne	0x700a510c <xTaskPriorityInherit+0xcc> @ imm = #0x60

P_HDR Event: Idx:64985 (Pattern: EEEEEEEEEEEEEEE, Function: xTaskPriorityInherit)
Executed Assembly Steps:
  1. 700a50aa: e7ff         	b	0x700a50ac <xTaskPriorityInherit+0x6c> @ imm = #-0x2
  2. 700a50ac: 9802         	ldr	r0, [sp, #0x8]
  3. 700a50ae: 3004         	adds	r0, #0x4
  4. 700a50b0: f008 fab6    	bl	0x700ad620 <uxListRemove> @ imm = #0x856c
  5. 700ad620: b082         	sub	sp, #0x8
  6. 700ad622: 9001         	str	r0, [sp, #0x4]
  7. 700ad624: 9801         	ldr	r0, [sp, #0x4]
  8. 700ad626: 6900         	ldr	r0, [r0, #0x10]
  9. 700ad628: 9000         	str	r0, [sp]
  10. 700ad62a: 9801         	ldr	r0, [sp, #0x4]
  11. 700ad62c: 6841         	ldr	r1, [r0, #0x4]
  12. 700ad62e: 6880         	ldr	r0, [r0, #0x8]
  13. 700ad630: 6088         	str	r0, [r1, #0x8]
  14. 700ad632: 9901         	ldr	r1, [sp, #0x4]
  15. 700ad634: 6848         	ldr	r0, [r1, #0x4]

P_HDR Event: Idx:64986 (Pattern: EEEEEEN, Function: uxListRemove)
Executed Assembly Steps:
  1. 700ad636: 6889         	ldr	r1, [r1, #0x8]
  2. 700ad638: 6048         	str	r0, [r1, #0x4]
  3. 700ad63a: 9800         	ldr	r0, [sp]
  4. 700ad63c: 6840         	ldr	r0, [r0, #0x4]
  5. 700ad63e: 9901         	ldr	r1, [sp, #0x4]
  6. 700ad640: 4288         	cmp	r0, r1
  7. 700ad642: d105         	bne	0x700ad650 <uxListRemove+0x30> @ imm = #0xa

P_HDR Event: Idx:64987 (Pattern: EEEEEEEEEEEEEE, Function: uxListRemove)
Executed Assembly Steps:
  1. 700ad644: e7ff         	b	0x700ad646 <uxListRemove+0x26> @ imm = #-0x2
  2. 700ad646: 9801         	ldr	r0, [sp, #0x4]
  3. 700ad648: 6880         	ldr	r0, [r0, #0x8]
  4. 700ad64a: 9900         	ldr	r1, [sp]
  5. 700ad64c: 6048         	str	r0, [r1, #0x4]
  6. 700ad64e: e000         	b	0x700ad652 <uxListRemove+0x32> @ imm = #0x0
  7. 700ad652: 9901         	ldr	r1, [sp, #0x4]
  8. 700ad654: 2000         	movs	r0, #0x0
  9. 700ad656: 6108         	str	r0, [r1, #0x10]
  10. 700ad658: 9900         	ldr	r1, [sp]
  11. 700ad65a: 6808         	ldr	r0, [r1]
  12. 700ad65c: 3801         	subs	r0, #0x1
  13. 700ad65e: 6008         	str	r0, [r1]
  14. 700ad660: 9800         	ldr	r0, [sp]

P_HDR Event: Idx:64988 (Pattern: EEE, Function: uxListRemove)
Executed Assembly Steps:
  1. 700ad662: 6800         	ldr	r0, [r0]
  2. 700ad664: b002         	add	sp, #0x8
  3. 700ad666: 4770         	bx	lr

Sync: Idx:64989; ID:10;	BRANCH_ADDRESS : Branch address.; Addr=0x700A50B4 ~[0xA50B4];

P_HDR Event: Idx:64993 (Pattern: N, Function: xTaskPriorityInherit)
Executed Assembly Steps:
  1. 700a50b4: b908         	cbnz	r0, 0x700a50ba <xTaskPriorityInherit+0x7a> @ imm = #0x2

P_HDR Event: Idx:64994 (Pattern: EEEEEEEEEEEEEEE, Function: xTaskPriorityInherit)
Executed Assembly Steps:
  1. 700a50b6: e7ff         	b	0x700a50b8 <xTaskPriorityInherit+0x78> @ imm = #-0x2
  2. 700a50b8: e000         	b	0x700a50bc <xTaskPriorityInherit+0x7c> @ imm = #0x0
  3. 700a50bc: f642 2000    	movw	r0, #0x2a00
  4. 700a50c0: f2c7 000b    	movt	r0, #0x700b
  5. 700a50c4: 6800         	ldr	r0, [r0]
  6. 700a50c6: 6ac0         	ldr	r0, [r0, #0x2c]
  7. 700a50c8: 9902         	ldr	r1, [sp, #0x8]
  8. 700a50ca: 62c8         	str	r0, [r1, #0x2c]
  9. 700a50cc: 9802         	ldr	r0, [sp, #0x8]
  10. 700a50ce: 6ac0         	ldr	r0, [r0, #0x2c]
  11. 700a50d0: f642 212c    	movw	r1, #0x2a2c
  12. 700a50d4: f2c7 010b    	movt	r1, #0x700b
  13. 700a50d8: 6809         	ldr	r1, [r1]
  14. 700a50da: 4288         	cmp	r0, r1
  15. 700a50dc: d908         	bls	0x700a50f0 <xTaskPriorityInherit+0xb0> @ imm = #0x10

P_HDR Event: Idx:64995 (Pattern: EEEEEEEEEEEEEEE, Function: xTaskPriorityInherit)
Executed Assembly Steps:
  1. 700a50f0: 9902         	ldr	r1, [sp, #0x8]
  2. 700a50f2: 6ac8         	ldr	r0, [r1, #0x2c]
  3. 700a50f4: eb00 0280    	add.w	r2, r0, r0, lsl #2
  4. 700a50f8: f244 40f8    	movw	r0, #0x44f8
  5. 700a50fc: f2c7 0008    	movt	r0, #0x7008
  6. 700a5100: eb00 0082    	add.w	r0, r0, r2, lsl #2
  7. 700a5104: 3104         	adds	r1, #0x4
  8. 700a5106: f009 f843    	bl	0x700ae190 <vListInsertEnd> @ imm = #0x9086
  9. 700ae190: b083         	sub	sp, #0xc
  10. 700ae192: 9002         	str	r0, [sp, #0x8]
  11. 700ae194: 9101         	str	r1, [sp, #0x4]
  12. 700ae196: 9802         	ldr	r0, [sp, #0x8]
  13. 700ae198: 6840         	ldr	r0, [r0, #0x4]
  14. 700ae19a: 9000         	str	r0, [sp]
  15. 700ae19c: 9800         	ldr	r0, [sp]

P_HDR Event: Idx:64996 (Pattern: EEEEEEEEEEEEEEE, Function: vListInsertEnd)
Executed Assembly Steps:
  1. 700ae19e: 9901         	ldr	r1, [sp, #0x4]
  2. 700ae1a0: 6048         	str	r0, [r1, #0x4]
  3. 700ae1a2: 9800         	ldr	r0, [sp]
  4. 700ae1a4: 6880         	ldr	r0, [r0, #0x8]
  5. 700ae1a6: 9901         	ldr	r1, [sp, #0x4]
  6. 700ae1a8: 6088         	str	r0, [r1, #0x8]
  7. 700ae1aa: 9801         	ldr	r0, [sp, #0x4]
  8. 700ae1ac: 9900         	ldr	r1, [sp]
  9. 700ae1ae: 6889         	ldr	r1, [r1, #0x8]
  10. 700ae1b0: 6048         	str	r0, [r1, #0x4]
  11. 700ae1b2: 9801         	ldr	r0, [sp, #0x4]
  12. 700ae1b4: 9900         	ldr	r1, [sp]
  13. 700ae1b6: 6088         	str	r0, [r1, #0x8]
  14. 700ae1b8: 9802         	ldr	r0, [sp, #0x8]
  15. 700ae1ba: 9901         	ldr	r1, [sp, #0x4]

P_HDR Event: Idx:64997 (Pattern: EEEEEEE, Function: vListInsertEnd)
Executed Assembly Steps:
  1. 700ae1bc: 6108         	str	r0, [r1, #0x10]
  2. 700ae1be: 9902         	ldr	r1, [sp, #0x8]
  3. 700ae1c0: 6808         	ldr	r0, [r1]
  4. 700ae1c2: 3001         	adds	r0, #0x1
  5. 700ae1c4: 6008         	str	r0, [r1]
  6. 700ae1c6: b003         	add	sp, #0xc
  7. 700ae1c8: 4770         	bx	lr

Sync: Idx:64998; ID:10;	BRANCH_ADDRESS : Branch address.; Addr=0x700A510A ~[0x110A];

P_HDR Event: Idx:65000 (Pattern: EEEEEEEE, Function: xTaskPriorityInherit)
Executed Assembly Steps:
  1. 700a510a: e008         	b	0x700a511e <xTaskPriorityInherit+0xde> @ imm = #0x10
  2. 700a511e: 2001         	movs	r0, #0x1
  3. 700a5120: 9001         	str	r0, [sp, #0x4]
  4. 700a5122: e00f         	b	0x700a5144 <xTaskPriorityInherit+0x104> @ imm = #0x1e
  5. 700a5144: e000         	b	0x700a5148 <xTaskPriorityInherit+0x108> @ imm = #0x0
  6. 700a5148: 9801         	ldr	r0, [sp, #0x4]
  7. 700a514a: b004         	add	sp, #0x10
  8. 700a514c: bd80         	pop	{r7, pc}

Sync: Idx:65001; ID:10;	BRANCH_ADDRESS : Branch address.; Addr=0x700A1256 ~[0xA1256];

P_HDR Event: Idx:65004 (Pattern: EEEEEN, Function: xQueueSemaphoreTake)
Executed Assembly Steps:
  1. 700a1256: 9002         	str	r0, [sp, #0x8]
  2. 700a1258: f00c fad2    	bl	0x700ad800 <vTaskExitCritical> @ imm = #0xc5a4
  3. 700ad800: f642 2040    	movw	r0, #0x2a40
  4. 700ad804: f2c7 000b    	movt	r0, #0x700b
  5. 700ad808: 6800         	ldr	r0, [r0]
  6. 700ad80a: b1d0         	cbz	r0, 0x700ad842 <vTaskExitCritical+0x42> @ imm = #0x34

P_HDR Event: Idx:65005 (Pattern: EEEEEN, Function: vTaskExitCritical)
Executed Assembly Steps:
  1. 700ad80c: e7ff         	b	0x700ad80e <vTaskExitCritical+0xe> @ imm = #-0x2
  2. 700ad80e: f642 2000    	movw	r0, #0x2a00
  3. 700ad812: f2c7 000b    	movt	r0, #0x700b
  4. 700ad816: 6800         	ldr	r0, [r0]
  5. 700ad818: 6d40         	ldr	r0, [r0, #0x54]
  6. 700ad81a: b180         	cbz	r0, 0x700ad83e <vTaskExitCritical+0x3e> @ imm = #0x20

P_HDR Event: Idx:65006 (Pattern: EEEEEEEEEN, Function: vTaskExitCritical)
Executed Assembly Steps:
  1. 700ad81c: e7ff         	b	0x700ad81e <vTaskExitCritical+0x1e> @ imm = #-0x2
  2. 700ad81e: f642 2000    	movw	r0, #0x2a00
  3. 700ad822: f2c7 000b    	movt	r0, #0x700b
  4. 700ad826: 6802         	ldr	r2, [r0]
  5. 700ad828: 6d51         	ldr	r1, [r2, #0x54]
  6. 700ad82a: 3901         	subs	r1, #0x1
  7. 700ad82c: 6551         	str	r1, [r2, #0x54]
  8. 700ad82e: 6800         	ldr	r0, [r0]
  9. 700ad830: 6d40         	ldr	r0, [r0, #0x54]
  10. 700ad832: b910         	cbnz	r0, 0x700ad83a <vTaskExitCritical+0x3a> @ imm = #0x4

P_HDR Event: Idx:65008 (Pattern: EEEEEE, Function: vTaskExitCritical)
Executed Assembly Steps:
  1. 700ad834: e7ff         	b	0x700ad836 <vTaskExitCritical+0x36> @ imm = #-0x2
  2. 700ad836: b662         	cpsie i
  3. 700ad838: e000         	b	0x700ad83c <vTaskExitCritical+0x3c> @ imm = #0x0
  4. 700ad83c: e000         	b	0x700ad840 <vTaskExitCritical+0x40> @ imm = #0x0
  5. 700ad840: e000         	b	0x700ad844 <vTaskExitCritical+0x44> @ imm = #0x0
  6. 700ad844: 4770         	bx	lr

Sync: Idx:65009; ID:10;	BRANCH_ADDRESS : Branch address.; Addr=0x700A125C ~[0x5C];

P_HDR Event: Idx:65010 (Pattern: EEEEEEEEEEEEEEE, Function: xQueueSemaphoreTake)
Executed Assembly Steps:
  1. 700a125c: e000         	b	0x700a1260 <xQueueSemaphoreTake+0x100> @ imm = #0x0
  2. 700a1260: 9803         	ldr	r0, [sp, #0xc]
  3. 700a1262: 3024         	adds	r0, #0x24
  4. 700a1264: 9907         	ldr	r1, [sp, #0x1c]
  5. 700a1266: f00d fea3    	bl	0x700aefb0 <vTaskPlaceOnEventList> @ imm = #0xdd46
  6. 700aefb0: b580         	push	{r7, lr}
  7. 700aefb2: b082         	sub	sp, #0x8
  8. 700aefb4: 9001         	str	r0, [sp, #0x4]
  9. 700aefb6: 9100         	str	r1, [sp]
  10. 700aefb8: 9801         	ldr	r0, [sp, #0x4]
  11. 700aefba: f642 2100    	movw	r1, #0x2a00
  12. 700aefbe: f2c7 010b    	movt	r1, #0x700b
  13. 700aefc2: 6809         	ldr	r1, [r1]
  14. 700aefc4: 3118         	adds	r1, #0x18
  15. 700aefc6: f7fc fb73    	bl	0x700ab6b0 <vListInsert> @ imm = #-0x391a

P_HDR Event: Idx:65011 (Pattern: EEEEEEEEEEEEEEE, Function: vListInsert)
Executed Assembly Steps:
  1. 700ab6b0: b084         	sub	sp, #0x10
  2. 700ab6b2: 9003         	str	r0, [sp, #0xc]
  3. 700ab6b4: 9102         	str	r1, [sp, #0x8]
  4. 700ab6b6: 9802         	ldr	r0, [sp, #0x8]
  5. 700ab6b8: 6800         	ldr	r0, [r0]
  6. 700ab6ba: 9000         	str	r0, [sp]
  7. 700ab6bc: 9800         	ldr	r0, [sp]
  8. 700ab6be: 3001         	adds	r0, #0x1
  9. 700ab6c0: b920         	cbnz	r0, 0x700ab6cc <vListInsert+0x1c> @ imm = #0x8
  10. 700ab6cc: 9803         	ldr	r0, [sp, #0xc]
  11. 700ab6ce: 3008         	adds	r0, #0x8
  12. 700ab6d0: 9001         	str	r0, [sp, #0x4]
  13. 700ab6d2: e7ff         	b	0x700ab6d4 <vListInsert+0x24> @ imm = #-0x2
  14. 700ab6d4: 9801         	ldr	r0, [sp, #0x4]
  15. 700ab6d6: 6840         	ldr	r0, [r0, #0x4]

P_HDR Event: Idx:65012 (Pattern: EEEEEEEEEEEEEEE, Function: vListInsert)
Executed Assembly Steps:
  1. 700ab6d8: 6800         	ldr	r0, [r0]
  2. 700ab6da: 9900         	ldr	r1, [sp]
  3. 700ab6dc: 4288         	cmp	r0, r1
  4. 700ab6de: d805         	bhi	0x700ab6ec <vListInsert+0x3c> @ imm = #0xa
  5. 700ab6ec: e7ff         	b	0x700ab6ee <vListInsert+0x3e> @ imm = #-0x2
  6. 700ab6ee: 9801         	ldr	r0, [sp, #0x4]
  7. 700ab6f0: 6840         	ldr	r0, [r0, #0x4]
  8. 700ab6f2: 9902         	ldr	r1, [sp, #0x8]
  9. 700ab6f4: 6048         	str	r0, [r1, #0x4]
  10. 700ab6f6: 9802         	ldr	r0, [sp, #0x8]
  11. 700ab6f8: 6841         	ldr	r1, [r0, #0x4]
  12. 700ab6fa: 6088         	str	r0, [r1, #0x8]
  13. 700ab6fc: 9801         	ldr	r0, [sp, #0x4]
  14. 700ab6fe: 9902         	ldr	r1, [sp, #0x8]
  15. 700ab700: 6088         	str	r0, [r1, #0x8]

P_HDR Event: Idx:65013 (Pattern: EEEEEEEEEEEE, Function: vListInsert)
Executed Assembly Steps:
  1. 700ab702: 9802         	ldr	r0, [sp, #0x8]
  2. 700ab704: 9901         	ldr	r1, [sp, #0x4]
  3. 700ab706: 6048         	str	r0, [r1, #0x4]
  4. 700ab708: 9803         	ldr	r0, [sp, #0xc]
  5. 700ab70a: 9902         	ldr	r1, [sp, #0x8]
  6. 700ab70c: 6108         	str	r0, [r1, #0x10]
  7. 700ab70e: 9903         	ldr	r1, [sp, #0xc]
  8. 700ab710: 6808         	ldr	r0, [r1]
  9. 700ab712: 3001         	adds	r0, #0x1
  10. 700ab714: 6008         	str	r0, [r1]
  11. 700ab716: b004         	add	sp, #0x10
  12. 700ab718: 4770         	bx	lr

Sync: Idx:65014; ID:10;	BRANCH_ADDRESS : Branch address.; Addr=0x700AEFCA ~[0xAEFCA];

P_HDR Event: Idx:65017 (Pattern: EEEEEEEEEEEEEEE, Function: vTaskPlaceOnEventList)
Executed Assembly Steps:
  1. 700aefca: 9800         	ldr	r0, [sp]
  2. 700aefcc: 2101         	movs	r1, #0x1
  3. 700aefce: f7f7 fb17    	bl	0x700a6600 <prvAddCurrentTaskToDelayedList> @ imm = #-0x89d2
  4. 700a6600: b580         	push	{r7, lr}
  5. 700a6602: b084         	sub	sp, #0x10
  6. 700a6604: 9003         	str	r0, [sp, #0xc]
  7. 700a6606: 9102         	str	r1, [sp, #0x8]
  8. 700a6608: f642 2044    	movw	r0, #0x2a44
  9. 700a660c: f2c7 000b    	movt	r0, #0x700b
  10. 700a6610: 6800         	ldr	r0, [r0]
  11. 700a6612: 9000         	str	r0, [sp]
  12. 700a6614: f642 2000    	movw	r0, #0x2a00
  13. 700a6618: f2c7 000b    	movt	r0, #0x700b
  14. 700a661c: 6800         	ldr	r0, [r0]
  15. 700a661e: 3004         	adds	r0, #0x4

P_HDR Event: Idx:65018 (Pattern: EEEEEEEEEEEEEEE, Function: prvAddCurrentTaskToDelayedList)
Executed Assembly Steps:
  1. 700a6620: f006 fffe    	bl	0x700ad620 <uxListRemove> @ imm = #0x6ffc
  2. 700ad620: b082         	sub	sp, #0x8
  3. 700ad622: 9001         	str	r0, [sp, #0x4]
  4. 700ad624: 9801         	ldr	r0, [sp, #0x4]
  5. 700ad626: 6900         	ldr	r0, [r0, #0x10]
  6. 700ad628: 9000         	str	r0, [sp]
  7. 700ad62a: 9801         	ldr	r0, [sp, #0x4]
  8. 700ad62c: 6841         	ldr	r1, [r0, #0x4]
  9. 700ad62e: 6880         	ldr	r0, [r0, #0x8]
  10. 700ad630: 6088         	str	r0, [r1, #0x8]
  11. 700ad632: 9901         	ldr	r1, [sp, #0x4]
  12. 700ad634: 6848         	ldr	r0, [r1, #0x4]
  13. 700ad636: 6889         	ldr	r1, [r1, #0x8]
  14. 700ad638: 6048         	str	r0, [r1, #0x4]
  15. 700ad63a: 9800         	ldr	r0, [sp]

P_HDR Event: Idx:65019 (Pattern: EEEN, Function: uxListRemove)
Executed Assembly Steps:
  1. 700ad63c: 6840         	ldr	r0, [r0, #0x4]
  2. 700ad63e: 9901         	ldr	r1, [sp, #0x4]
  3. 700ad640: 4288         	cmp	r0, r1
  4. 700ad642: d105         	bne	0x700ad650 <uxListRemove+0x30> @ imm = #0xa

P_HDR Event: Idx:65020 (Pattern: EEEEEEEEEEEEEE, Function: uxListRemove)
Executed Assembly Steps:
  1. 700ad644: e7ff         	b	0x700ad646 <uxListRemove+0x26> @ imm = #-0x2
  2. 700ad646: 9801         	ldr	r0, [sp, #0x4]
  3. 700ad648: 6880         	ldr	r0, [r0, #0x8]
  4. 700ad64a: 9900         	ldr	r1, [sp]
  5. 700ad64c: 6048         	str	r0, [r1, #0x4]
  6. 700ad64e: e000         	b	0x700ad652 <uxListRemove+0x32> @ imm = #0x0
  7. 700ad652: 9901         	ldr	r1, [sp, #0x4]
  8. 700ad654: 2000         	movs	r0, #0x0
  9. 700ad656: 6108         	str	r0, [r1, #0x10]
  10. 700ad658: 9900         	ldr	r1, [sp]
  11. 700ad65a: 6808         	ldr	r0, [r1]
  12. 700ad65c: 3801         	subs	r0, #0x1
  13. 700ad65e: 6008         	str	r0, [r1]
  14. 700ad660: 9800         	ldr	r0, [sp]

P_HDR Event: Idx:65021 (Pattern: EEE, Function: uxListRemove)
Executed Assembly Steps:
  1. 700ad662: 6800         	ldr	r0, [r0]
  2. 700ad664: b002         	add	sp, #0x8
  3. 700ad666: 4770         	bx	lr

Sync: Idx:65022; ID:10;	BRANCH_ADDRESS : Branch address.; Addr=0x700A6624 ~[0xA6624];

P_HDR Event: Idx:65026 (Pattern: EEEEN, Function: prvAddCurrentTaskToDelayedList)
Executed Assembly Steps:
  1. 700a6624: b908         	cbnz	r0, 0x700a662a <prvAddCurrentTaskToDelayedList+0x2a> @ imm = #0x2
  2. 700a662a: e7ff         	b	0x700a662c <prvAddCurrentTaskToDelayedList+0x2c> @ imm = #-0x2
  3. 700a662c: 9803         	ldr	r0, [sp, #0xc]
  4. 700a662e: 3001         	adds	r0, #0x1
  5. 700a6630: b980         	cbnz	r0, 0x700a6654 <prvAddCurrentTaskToDelayedList+0x54> @ imm = #0x20

P_HDR Event: Idx:65027 (Pattern: EEN, Function: prvAddCurrentTaskToDelayedList)
Executed Assembly Steps:
  1. 700a6632: e7ff         	b	0x700a6634 <prvAddCurrentTaskToDelayedList+0x34> @ imm = #-0x2
  2. 700a6634: 9802         	ldr	r0, [sp, #0x8]
  3. 700a6636: b168         	cbz	r0, 0x700a6654 <prvAddCurrentTaskToDelayedList+0x54> @ imm = #0x1a

P_HDR Event: Idx:65028 (Pattern: EEEEEEEEEEEEEEE, Function: prvAddCurrentTaskToDelayedList)
Executed Assembly Steps:
  1. 700a6638: e7ff         	b	0x700a663a <prvAddCurrentTaskToDelayedList+0x3a> @ imm = #-0x2
  2. 700a663a: f642 2000    	movw	r0, #0x2a00
  3. 700a663e: f2c7 000b    	movt	r0, #0x700b
  4. 700a6642: 6800         	ldr	r0, [r0]
  5. 700a6644: 1d01         	adds	r1, r0, #0x4
  6. 700a6646: f245 00f4    	movw	r0, #0x50f4
  7. 700a664a: f2c7 0008    	movt	r0, #0x7008
  8. 700a664e: f007 fd9f    	bl	0x700ae190 <vListInsertEnd> @ imm = #0x7b3e
  9. 700ae190: b083         	sub	sp, #0xc
  10. 700ae192: 9002         	str	r0, [sp, #0x8]
  11. 700ae194: 9101         	str	r1, [sp, #0x4]
  12. 700ae196: 9802         	ldr	r0, [sp, #0x8]
  13. 700ae198: 6840         	ldr	r0, [r0, #0x4]
  14. 700ae19a: 9000         	str	r0, [sp]
  15. 700ae19c: 9800         	ldr	r0, [sp]

P_HDR Event: Idx:65029 (Pattern: EEEEEEEEEEEEEEE, Function: vListInsertEnd)
Executed Assembly Steps:
  1. 700ae19e: 9901         	ldr	r1, [sp, #0x4]
  2. 700ae1a0: 6048         	str	r0, [r1, #0x4]
  3. 700ae1a2: 9800         	ldr	r0, [sp]
  4. 700ae1a4: 6880         	ldr	r0, [r0, #0x8]
  5. 700ae1a6: 9901         	ldr	r1, [sp, #0x4]
  6. 700ae1a8: 6088         	str	r0, [r1, #0x8]
  7. 700ae1aa: 9801         	ldr	r0, [sp, #0x4]
  8. 700ae1ac: 9900         	ldr	r1, [sp]
  9. 700ae1ae: 6889         	ldr	r1, [r1, #0x8]
  10. 700ae1b0: 6048         	str	r0, [r1, #0x4]
  11. 700ae1b2: 9801         	ldr	r0, [sp, #0x4]
  12. 700ae1b4: 9900         	ldr	r1, [sp]
  13. 700ae1b6: 6088         	str	r0, [r1, #0x8]
  14. 700ae1b8: 9802         	ldr	r0, [sp, #0x8]
  15. 700ae1ba: 9901         	ldr	r1, [sp, #0x4]

P_HDR Event: Idx:65030 (Pattern: EEEEEEE, Function: vListInsertEnd)
Executed Assembly Steps:
  1. 700ae1bc: 6108         	str	r0, [r1, #0x10]
  2. 700ae1be: 9902         	ldr	r1, [sp, #0x8]
  3. 700ae1c0: 6808         	ldr	r0, [r1]
  4. 700ae1c2: 3001         	adds	r0, #0x1
  5. 700ae1c4: 6008         	str	r0, [r1]
  6. 700ae1c6: b003         	add	sp, #0xc
  7. 700ae1c8: 4770         	bx	lr

Sync: Idx:65031; ID:10;	BRANCH_ADDRESS : Branch address.; Addr=0x700A6652 ~[0x52];

P_HDR Event: Idx:65032 (Pattern: EEE, Function: prvAddCurrentTaskToDelayedList)
Executed Assembly Steps:
  1. 700a6652: e03d         	b	0x700a66d0 <prvAddCurrentTaskToDelayedList+0xd0> @ imm = #0x7a
  2. 700a66d0: b004         	add	sp, #0x10
  3. 700a66d2: bd80         	pop	{r7, pc}

Sync: Idx:65033; ID:10;	BRANCH_ADDRESS : Branch address.; Addr=0x700AEFD2 ~[0xAEFD2];

P_HDR Event: Idx:65036 (Pattern: EE, Function: vTaskPlaceOnEventList)
Executed Assembly Steps:
  1. 700aefd2: b002         	add	sp, #0x8
  2. 700aefd4: bd80         	pop	{r7, pc}

Sync: Idx:65037; ID:10;	BRANCH_ADDRESS : Branch address.; Addr=0x700A126A ~[0xA126A];

P_HDR Event: Idx:65041 (Pattern: EEEEEEEEEEN, Function: xQueueSemaphoreTake)
Executed Assembly Steps:
  1. 700a126a: 9803         	ldr	r0, [sp, #0xc]
  2. 700a126c: f006 fd38    	bl	0x700a7ce0 <prvUnlockQueue> @ imm = #0x6a70
  3. 700a7ce0: b580         	push	{r7, lr}
  4. 700a7ce2: b082         	sub	sp, #0x8
  5. 700a7ce4: 9001         	str	r0, [sp, #0x4]
  6. 700a7ce6: f006 fceb    	bl	0x700ae6c0 <vTaskEnterCritical> @ imm = #0x69d6
  7. 700ae6c0: b672         	cpsid i
  8. 700ae6c2: f642 2040    	movw	r0, #0x2a40
  9. 700ae6c6: f2c7 000b    	movt	r0, #0x700b
  10. 700ae6ca: 6800         	ldr	r0, [r0]
  11. 700ae6cc: b178         	cbz	r0, 0x700ae6ee <vTaskEnterCritical+0x2e> @ imm = #0x1e

P_HDR Event: Idx:65042 (Pattern: EEEEEEEEEEN, Function: vTaskEnterCritical)
Executed Assembly Steps:
  1. 700ae6ce: e7ff         	b	0x700ae6d0 <vTaskEnterCritical+0x10> @ imm = #-0x2
  2. 700ae6d0: f642 2000    	movw	r0, #0x2a00
  3. 700ae6d4: f2c7 000b    	movt	r0, #0x700b
  4. 700ae6d8: 6802         	ldr	r2, [r0]
  5. 700ae6da: 6d51         	ldr	r1, [r2, #0x54]
  6. 700ae6dc: 3101         	adds	r1, #0x1
  7. 700ae6de: 6551         	str	r1, [r2, #0x54]
  8. 700ae6e0: 6800         	ldr	r0, [r0]
  9. 700ae6e2: 6d40         	ldr	r0, [r0, #0x54]
  10. 700ae6e4: 2801         	cmp	r0, #0x1
  11. 700ae6e6: d101         	bne	0x700ae6ec <vTaskEnterCritical+0x2c> @ imm = #0x2

P_HDR Event: Idx:65043 (Pattern: EEEE, Function: vTaskEnterCritical)
Executed Assembly Steps:
  1. 700ae6e8: e7ff         	b	0x700ae6ea <vTaskEnterCritical+0x2a> @ imm = #-0x2
  2. 700ae6ea: e7ff         	b	0x700ae6ec <vTaskEnterCritical+0x2c> @ imm = #-0x2
  3. 700ae6ec: e000         	b	0x700ae6f0 <vTaskEnterCritical+0x30> @ imm = #0x0
  4. 700ae6f0: 4770         	bx	lr

Sync: Idx:65044; ID:10;	BRANCH_ADDRESS : Branch address.; Addr=0x700A7CEA ~[0xA7CEA];

P_HDR Event: Idx:65047 (Pattern: EEEEEEEEEEEEEEN, Function: prvUnlockQueue)
Executed Assembly Steps:
  1. 700a7cea: 9801         	ldr	r0, [sp, #0x4]
  2. 700a7cec: f890 0045    	ldrb.w	r0, [r0, #0x45]
  3. 700a7cf0: f88d 0003    	strb.w	r0, [sp, #0x3]
  4. 700a7cf4: e7ff         	b	0x700a7cf6 <prvUnlockQueue+0x16> @ imm = #-0x2
  5. 700a7cf6: f99d 0003    	ldrsb.w	r0, [sp, #0x3]
  6. 700a7cfa: 2801         	cmp	r0, #0x1
  7. 700a7cfc: db16         	blt	0x700a7d2c <prvUnlockQueue+0x4c> @ imm = #0x2c
  8. 700a7d2c: 9901         	ldr	r1, [sp, #0x4]
  9. 700a7d2e: 20ff         	movs	r0, #0xff
  10. 700a7d30: f881 0045    	strb.w	r0, [r1, #0x45]
  11. 700a7d34: f005 fd64    	bl	0x700ad800 <vTaskExitCritical> @ imm = #0x5ac8
  12. 700ad800: f642 2040    	movw	r0, #0x2a40
  13. 700ad804: f2c7 000b    	movt	r0, #0x700b
  14. 700ad808: 6800         	ldr	r0, [r0]
  15. 700ad80a: b1d0         	cbz	r0, 0x700ad842 <vTaskExitCritical+0x42> @ imm = #0x34

P_HDR Event: Idx:65048 (Pattern: EEEEEN, Function: vTaskExitCritical)
Executed Assembly Steps:
  1. 700ad80c: e7ff         	b	0x700ad80e <vTaskExitCritical+0xe> @ imm = #-0x2
  2. 700ad80e: f642 2000    	movw	r0, #0x2a00
  3. 700ad812: f2c7 000b    	movt	r0, #0x700b
  4. 700ad816: 6800         	ldr	r0, [r0]
  5. 700ad818: 6d40         	ldr	r0, [r0, #0x54]
  6. 700ad81a: b180         	cbz	r0, 0x700ad83e <vTaskExitCritical+0x3e> @ imm = #0x20

P_HDR Event: Idx:65049 (Pattern: EEEEEEEEEN, Function: vTaskExitCritical)
Executed Assembly Steps:
  1. 700ad81c: e7ff         	b	0x700ad81e <vTaskExitCritical+0x1e> @ imm = #-0x2
  2. 700ad81e: f642 2000    	movw	r0, #0x2a00
  3. 700ad822: f2c7 000b    	movt	r0, #0x700b
  4. 700ad826: 6802         	ldr	r2, [r0]
  5. 700ad828: 6d51         	ldr	r1, [r2, #0x54]
  6. 700ad82a: 3901         	subs	r1, #0x1
  7. 700ad82c: 6551         	str	r1, [r2, #0x54]
  8. 700ad82e: 6800         	ldr	r0, [r0]
  9. 700ad830: 6d40         	ldr	r0, [r0, #0x54]
  10. 700ad832: b910         	cbnz	r0, 0x700ad83a <vTaskExitCritical+0x3a> @ imm = #0x4

P_HDR Event: Idx:65050 (Pattern: EEEEEE, Function: vTaskExitCritical)
Executed Assembly Steps:
  1. 700ad834: e7ff         	b	0x700ad836 <vTaskExitCritical+0x36> @ imm = #-0x2
  2. 700ad836: b662         	cpsie i
  3. 700ad838: e000         	b	0x700ad83c <vTaskExitCritical+0x3c> @ imm = #0x0
  4. 700ad83c: e000         	b	0x700ad840 <vTaskExitCritical+0x40> @ imm = #0x0
  5. 700ad840: e000         	b	0x700ad844 <vTaskExitCritical+0x44> @ imm = #0x0
  6. 700ad844: 4770         	bx	lr

Sync: Idx:65051; ID:10;	BRANCH_ADDRESS : Branch address.; Addr=0x700A7D38 ~[0x3D38];

P_HDR Event: Idx:65053 (Pattern: EEEEEN, Function: prvUnlockQueue)
Executed Assembly Steps:
  1. 700a7d38: f006 fcc2    	bl	0x700ae6c0 <vTaskEnterCritical> @ imm = #0x6984
  2. 700ae6c0: b672         	cpsid i
  3. 700ae6c2: f642 2040    	movw	r0, #0x2a40
  4. 700ae6c6: f2c7 000b    	movt	r0, #0x700b
  5. 700ae6ca: 6800         	ldr	r0, [r0]
  6. 700ae6cc: b178         	cbz	r0, 0x700ae6ee <vTaskEnterCritical+0x2e> @ imm = #0x1e

P_HDR Event: Idx:65054 (Pattern: EEEEEEEEEEN, Function: vTaskEnterCritical)
Executed Assembly Steps:
  1. 700ae6ce: e7ff         	b	0x700ae6d0 <vTaskEnterCritical+0x10> @ imm = #-0x2
  2. 700ae6d0: f642 2000    	movw	r0, #0x2a00
  3. 700ae6d4: f2c7 000b    	movt	r0, #0x700b
  4. 700ae6d8: 6802         	ldr	r2, [r0]
  5. 700ae6da: 6d51         	ldr	r1, [r2, #0x54]
  6. 700ae6dc: 3101         	adds	r1, #0x1
  7. 700ae6de: 6551         	str	r1, [r2, #0x54]
  8. 700ae6e0: 6800         	ldr	r0, [r0]
  9. 700ae6e2: 6d40         	ldr	r0, [r0, #0x54]
  10. 700ae6e4: 2801         	cmp	r0, #0x1
  11. 700ae6e6: d101         	bne	0x700ae6ec <vTaskEnterCritical+0x2c> @ imm = #0x2

P_HDR Event: Idx:65056 (Pattern: EEEE, Function: vTaskEnterCritical)
Executed Assembly Steps:
  1. 700ae6e8: e7ff         	b	0x700ae6ea <vTaskEnterCritical+0x2a> @ imm = #-0x2
  2. 700ae6ea: e7ff         	b	0x700ae6ec <vTaskEnterCritical+0x2c> @ imm = #-0x2
  3. 700ae6ec: e000         	b	0x700ae6f0 <vTaskEnterCritical+0x30> @ imm = #0x0
  4. 700ae6f0: 4770         	bx	lr

Sync: Idx:65057; ID:10;	BRANCH_ADDRESS : Branch address.; Addr=0x700A7D3C ~[0x3C];

P_HDR Event: Idx:65058 (Pattern: EEEEEEEEEEEEEEN, Function: prvUnlockQueue)
Executed Assembly Steps:
  1. 700a7d3c: 9801         	ldr	r0, [sp, #0x4]
  2. 700a7d3e: f890 0044    	ldrb.w	r0, [r0, #0x44]
  3. 700a7d42: f88d 0002    	strb.w	r0, [sp, #0x2]
  4. 700a7d46: e7ff         	b	0x700a7d48 <prvUnlockQueue+0x68> @ imm = #-0x2
  5. 700a7d48: f99d 0002    	ldrsb.w	r0, [sp, #0x2]
  6. 700a7d4c: 2801         	cmp	r0, #0x1
  7. 700a7d4e: db16         	blt	0x700a7d7e <prvUnlockQueue+0x9e> @ imm = #0x2c
  8. 700a7d7e: 9901         	ldr	r1, [sp, #0x4]
  9. 700a7d80: 20ff         	movs	r0, #0xff
  10. 700a7d82: f881 0044    	strb.w	r0, [r1, #0x44]
  11. 700a7d86: f005 fd3b    	bl	0x700ad800 <vTaskExitCritical> @ imm = #0x5a76
  12. 700ad800: f642 2040    	movw	r0, #0x2a40
  13. 700ad804: f2c7 000b    	movt	r0, #0x700b
  14. 700ad808: 6800         	ldr	r0, [r0]
  15. 700ad80a: b1d0         	cbz	r0, 0x700ad842 <vTaskExitCritical+0x42> @ imm = #0x34

P_HDR Event: Idx:65059 (Pattern: EEEEEN, Function: vTaskExitCritical)
Executed Assembly Steps:
  1. 700ad80c: e7ff         	b	0x700ad80e <vTaskExitCritical+0xe> @ imm = #-0x2
  2. 700ad80e: f642 2000    	movw	r0, #0x2a00
  3. 700ad812: f2c7 000b    	movt	r0, #0x700b
  4. 700ad816: 6800         	ldr	r0, [r0]
  5. 700ad818: 6d40         	ldr	r0, [r0, #0x54]
  6. 700ad81a: b180         	cbz	r0, 0x700ad83e <vTaskExitCritical+0x3e> @ imm = #0x20

P_HDR Event: Idx:65060 (Pattern: EEEEEEEEEN, Function: vTaskExitCritical)
Executed Assembly Steps:
  1. 700ad81c: e7ff         	b	0x700ad81e <vTaskExitCritical+0x1e> @ imm = #-0x2
  2. 700ad81e: f642 2000    	movw	r0, #0x2a00
  3. 700ad822: f2c7 000b    	movt	r0, #0x700b
  4. 700ad826: 6802         	ldr	r2, [r0]
  5. 700ad828: 6d51         	ldr	r1, [r2, #0x54]
  6. 700ad82a: 3901         	subs	r1, #0x1
  7. 700ad82c: 6551         	str	r1, [r2, #0x54]
  8. 700ad82e: 6800         	ldr	r0, [r0]
  9. 700ad830: 6d40         	ldr	r0, [r0, #0x54]
  10. 700ad832: b910         	cbnz	r0, 0x700ad83a <vTaskExitCritical+0x3a> @ imm = #0x4

P_HDR Event: Idx:65061 (Pattern: EEEEEE, Function: vTaskExitCritical)
Executed Assembly Steps:
  1. 700ad834: e7ff         	b	0x700ad836 <vTaskExitCritical+0x36> @ imm = #-0x2
  2. 700ad836: b662         	cpsie i
  3. 700ad838: e000         	b	0x700ad83c <vTaskExitCritical+0x3c> @ imm = #0x0
  4. 700ad83c: e000         	b	0x700ad840 <vTaskExitCritical+0x40> @ imm = #0x0
  5. 700ad840: e000         	b	0x700ad844 <vTaskExitCritical+0x44> @ imm = #0x0
  6. 700ad844: 4770         	bx	lr

Sync: Idx:65062; ID:10;	BRANCH_ADDRESS : Branch address.; Addr=0x700A7D8A ~[0x3D8A];

P_HDR Event: Idx:65064 (Pattern: EE, Function: prvUnlockQueue)
Executed Assembly Steps:
  1. 700a7d8a: b002         	add	sp, #0x8
  2. 700a7d8c: bd80         	pop	{r7, pc}

Sync: Idx:65065; ID:10;	BRANCH_ADDRESS : Branch address.; Addr=0x700A1270 ~[0xA1270];

P_HDR Event: Idx:65068 (Pattern: EEEEEEEEEEEN, Function: xQueueSemaphoreTake)
Executed Assembly Steps:
  1. 700a1270: f000 ff36    	bl	0x700a20e0 <xTaskResumeAll> @ imm = #0xe6c
  2. 700a20e0: b580         	push	{r7, lr}
  3. 700a20e2: b084         	sub	sp, #0x10
  4. 700a20e4: 2000         	movs	r0, #0x0
  5. 700a20e6: 9003         	str	r0, [sp, #0xc]
  6. 700a20e8: 9002         	str	r0, [sp, #0x8]
  7. 700a20ea: f00c fae9    	bl	0x700ae6c0 <vTaskEnterCritical> @ imm = #0xc5d2
  8. 700ae6c0: b672         	cpsid i
  9. 700ae6c2: f642 2040    	movw	r0, #0x2a40
  10. 700ae6c6: f2c7 000b    	movt	r0, #0x700b
  11. 700ae6ca: 6800         	ldr	r0, [r0]
  12. 700ae6cc: b178         	cbz	r0, 0x700ae6ee <vTaskEnterCritical+0x2e> @ imm = #0x1e

P_HDR Event: Idx:65069 (Pattern: EEEEEEEEEEN, Function: vTaskEnterCritical)
Executed Assembly Steps:
  1. 700ae6ce: e7ff         	b	0x700ae6d0 <vTaskEnterCritical+0x10> @ imm = #-0x2
  2. 700ae6d0: f642 2000    	movw	r0, #0x2a00
  3. 700ae6d4: f2c7 000b    	movt	r0, #0x700b
  4. 700ae6d8: 6802         	ldr	r2, [r0]
  5. 700ae6da: 6d51         	ldr	r1, [r2, #0x54]
  6. 700ae6dc: 3101         	adds	r1, #0x1
  7. 700ae6de: 6551         	str	r1, [r2, #0x54]
  8. 700ae6e0: 6800         	ldr	r0, [r0]
  9. 700ae6e2: 6d40         	ldr	r0, [r0, #0x54]
  10. 700ae6e4: 2801         	cmp	r0, #0x1
  11. 700ae6e6: d101         	bne	0x700ae6ec <vTaskEnterCritical+0x2c> @ imm = #0x2

P_HDR Event: Idx:65070 (Pattern: EEEE, Function: vTaskEnterCritical)
Executed Assembly Steps:
  1. 700ae6e8: e7ff         	b	0x700ae6ea <vTaskEnterCritical+0x2a> @ imm = #-0x2
  2. 700ae6ea: e7ff         	b	0x700ae6ec <vTaskEnterCritical+0x2c> @ imm = #-0x2
  3. 700ae6ec: e000         	b	0x700ae6f0 <vTaskEnterCritical+0x30> @ imm = #0x0
  4. 700ae6f0: 4770         	bx	lr

Sync: Idx:65072; ID:10;	BRANCH_ADDRESS : Branch address.; Addr=0x700A20EE ~[0x20EE];

P_HDR Event: Idx:65074 (Pattern: EEEEEEEN, Function: xTaskResumeAll)
Executed Assembly Steps:
  1. 700a20ee: f642 2024    	movw	r0, #0x2a24
  2. 700a20f2: f2c7 000b    	movt	r0, #0x700b
  3. 700a20f6: 6801         	ldr	r1, [r0]
  4. 700a20f8: 3901         	subs	r1, #0x1
  5. 700a20fa: 6001         	str	r1, [r0]
  6. 700a20fc: 6800         	ldr	r0, [r0]
  7. 700a20fe: 2800         	cmp	r0, #0x0
  8. 700a2100: f040 808f    	bne.w	0x700a2222 <xTaskResumeAll+0x142> @ imm = #0x11e

P_HDR Event: Idx:65075 (Pattern: EEEEEN, Function: xTaskResumeAll)
Executed Assembly Steps:
  1. 700a2104: e7ff         	b	0x700a2106 <xTaskResumeAll+0x26> @ imm = #-0x2
  2. 700a2106: f642 201c    	movw	r0, #0x2a1c
  3. 700a210a: f2c7 000b    	movt	r0, #0x700b
  4. 700a210e: 6800         	ldr	r0, [r0]
  5. 700a2110: 2800         	cmp	r0, #0x0
  6. 700a2112: f000 8085    	beq.w	0x700a2220 <xTaskResumeAll+0x140> @ imm = #0x10a

P_HDR Event: Idx:65076 (Pattern: EEEEEEEEEEEEEEE, Function: xTaskResumeAll)
Executed Assembly Steps:
  1. 700a2116: e7ff         	b	0x700a2118 <xTaskResumeAll+0x38> @ imm = #-0x2
  2. 700a2118: e7ff         	b	0x700a211a <xTaskResumeAll+0x3a> @ imm = #-0x2
  3. 700a211a: f245 00e0    	movw	r0, #0x50e0
  4. 700a211e: f2c7 0008    	movt	r0, #0x7008
  5. 700a2122: 6800         	ldr	r0, [r0]
  6. 700a2124: 2800         	cmp	r0, #0x0
  7. 700a2126: d042         	beq	0x700a21ae <xTaskResumeAll+0xce> @ imm = #0x84
  8. 700a21ae: 9803         	ldr	r0, [sp, #0xc]
  9. 700a21b0: b118         	cbz	r0, 0x700a21ba <xTaskResumeAll+0xda> @ imm = #0x6
  10. 700a21ba: f642 203c    	movw	r0, #0x2a3c
  11. 700a21be: f2c7 000b    	movt	r0, #0x700b
  12. 700a21c2: 6800         	ldr	r0, [r0]
  13. 700a21c4: 9001         	str	r0, [sp, #0x4]
  14. 700a21c6: 9801         	ldr	r0, [sp, #0x4]
  15. 700a21c8: b1e0         	cbz	r0, 0x700a2204 <xTaskResumeAll+0x124> @ imm = #0x38

P_HDR Event: Idx:65077 (Pattern: EEEEEEEEEEEEN, Function: xTaskResumeAll)
Executed Assembly Steps:
  1. 700a2204: e7ff         	b	0x700a2206 <xTaskResumeAll+0x126> @ imm = #-0x2
  2. 700a2206: f642 2050    	movw	r0, #0x2a50
  3. 700a220a: f2c7 000b    	movt	r0, #0x700b
  4. 700a220e: 6800         	ldr	r0, [r0]
  5. 700a2210: b120         	cbz	r0, 0x700a221c <xTaskResumeAll+0x13c> @ imm = #0x8
  6. 700a221c: e7ff         	b	0x700a221e <xTaskResumeAll+0x13e> @ imm = #-0x2
  7. 700a221e: e7ff         	b	0x700a2220 <xTaskResumeAll+0x140> @ imm = #-0x2
  8. 700a2220: e000         	b	0x700a2224 <xTaskResumeAll+0x144> @ imm = #0x0
  9. 700a2224: f00b faec    	bl	0x700ad800 <vTaskExitCritical> @ imm = #0xb5d8
  10. 700ad800: f642 2040    	movw	r0, #0x2a40
  11. 700ad804: f2c7 000b    	movt	r0, #0x700b
  12. 700ad808: 6800         	ldr	r0, [r0]
  13. 700ad80a: b1d0         	cbz	r0, 0x700ad842 <vTaskExitCritical+0x42> @ imm = #0x34

P_HDR Event: Idx:65078 (Pattern: EEEEEN, Function: vTaskExitCritical)
Executed Assembly Steps:
  1. 700ad80c: e7ff         	b	0x700ad80e <vTaskExitCritical+0xe> @ imm = #-0x2
  2. 700ad80e: f642 2000    	movw	r0, #0x2a00
  3. 700ad812: f2c7 000b    	movt	r0, #0x700b
  4. 700ad816: 6800         	ldr	r0, [r0]
  5. 700ad818: 6d40         	ldr	r0, [r0, #0x54]
  6. 700ad81a: b180         	cbz	r0, 0x700ad83e <vTaskExitCritical+0x3e> @ imm = #0x20

P_HDR Event: Idx:65079 (Pattern: EEEEEEEEEN, Function: vTaskExitCritical)
Executed Assembly Steps:
  1. 700ad81c: e7ff         	b	0x700ad81e <vTaskExitCritical+0x1e> @ imm = #-0x2
  2. 700ad81e: f642 2000    	movw	r0, #0x2a00
  3. 700ad822: f2c7 000b    	movt	r0, #0x700b
  4. 700ad826: 6802         	ldr	r2, [r0]
  5. 700ad828: 6d51         	ldr	r1, [r2, #0x54]
  6. 700ad82a: 3901         	subs	r1, #0x1
  7. 700ad82c: 6551         	str	r1, [r2, #0x54]
  8. 700ad82e: 6800         	ldr	r0, [r0]
  9. 700ad830: 6d40         	ldr	r0, [r0, #0x54]
  10. 700ad832: b910         	cbnz	r0, 0x700ad83a <vTaskExitCritical+0x3a> @ imm = #0x4

P_HDR Event: Idx:65080 (Pattern: EEEEEE, Function: vTaskExitCritical)
Executed Assembly Steps:
  1. 700ad834: e7ff         	b	0x700ad836 <vTaskExitCritical+0x36> @ imm = #-0x2
  2. 700ad836: b662         	cpsie i
  3. 700ad838: e000         	b	0x700ad83c <vTaskExitCritical+0x3c> @ imm = #0x0
  4. 700ad83c: e000         	b	0x700ad840 <vTaskExitCritical+0x40> @ imm = #0x0
  5. 700ad840: e000         	b	0x700ad844 <vTaskExitCritical+0x44> @ imm = #0x0
  6. 700ad844: 4770         	bx	lr

Sync: Idx:65081; ID:10;	BRANCH_ADDRESS : Branch address.; Addr=0x700A2228 ~[0x2228];

P_HDR Event: Idx:65083 (Pattern: EEE, Function: xTaskResumeAll)
Executed Assembly Steps:
  1. 700a2228: 9802         	ldr	r0, [sp, #0x8]
  2. 700a222a: b004         	add	sp, #0x10
  3. 700a222c: bd80         	pop	{r7, pc}

Sync: Idx:65084; ID:10;	BRANCH_ADDRESS : Branch address.; Addr=0x700A1274 ~[0x1274];

P_HDR Event: Idx:65086 (Pattern: N, Function: xQueueSemaphoreTake)
Executed Assembly Steps:
  1. 700a1274: b910         	cbnz	r0, 0x700a127c <xQueueSemaphoreTake+0x11c> @ imm = #0x4

P_HDR Event: Idx:65088 (Pattern: EE, Function: xQueueSemaphoreTake)
Executed Assembly Steps:
  1. 700a1276: e7ff         	b	0x700a1278 <xQueueSemaphoreTake+0x118> @ imm = #-0x2
  2. 700a1278: df00         	svc	#0x0

Sync: Idx:65089; ID:10;	BRANCH_ADDRESS : Branch address.; Addr=0x00000008 ~[0x8]; ISA=ARM(32); S; Exception=SVC;

P_HDR Event: Idx:65095 (Pattern: E, Function: xQueueSemaphoreTake)
Executed Assembly Steps:
  1. 700a127a: e000         	b	0x700a127e <xQueueSemaphoreTake+0x11e> @ imm = #0x0

Sync: Idx:65096; ID:10;	BRANCH_ADDRESS : Branch address.; Addr=0x700B076C ~[0x700B076C];

P_HDR Event: Idx:65101 (Pattern: EEEEEEN, Function: HwiP_svc_handler)
Executed Assembly Steps:
  1. 700b076c: f96d051f     	srsdb	sp!, #0x1f
  2. 700b0770: f102001f     	cps	#0x1f
  3. 700b0774: e92d5fff     	push	{r0, r1, r2, r3, r4, r5, r6, r7, r8, r9, r10, r11, r12, lr}
  4. 700b0778: e59f218c     	ldr	r2, [pc, #0x18c]        @ 0x700b090c <ulPortTaskHasFPUContextConst>
  5. 700b077c: e5923000     	ldr	r3, [r2]
  6. 700b0780: e3530000     	cmp	r3, #0
  7. 700b0784: 1ef11a10     	vmrsne	r1, fpscr

P_HDR Event: Idx:65102 (Pattern: N, Function: HwiP_svc_handler)
Executed Assembly Steps:
  1. 700b0788: 1d2d0b20     	vpushne	{d0, d1, d2, d3, d4, d5, d6, d7, d8, d9, d10, d11, d12, d13, d14, d15}

P_HDR Event: Idx:65104 (Pattern: N, Function: HwiP_svc_handler)
Executed Assembly Steps:
  1. 700b078c: 152d1004     	strne	r1, [sp, #-0x4]!

P_HDR Event: Idx:65105 (Pattern: EEEEEE, Function: HwiP_svc_handler)
Executed Assembly Steps:
  1. 700b0790: e52d3004     	str	r3, [sp, #-0x4]!
  2. 700b0794: e59f016c     	ldr	r0, [pc, #0x16c]        @ 0x700b0908 <pxCurrentTCBConst>
  3. 700b0798: e5901000     	ldr	r1, [r0]
  4. 700b079c: e581d000     	str	sp, [r1]
  5. 700b07a0: e59f0168     	ldr	r0, [pc, #0x168]        @ 0x700b0910 <vTaskSwitchContextConst>
  6. 700b07a4: e12fff30     	blx	r0

Sync: Idx:65106; ID:10;	BRANCH_ADDRESS : Branch address.; Addr=0x700A68A0 ~[0x700A68A0]; ISA=Thumb2;

P_HDR Event: Idx:65111 (Pattern: EEEEEEEEEEEEEEE, Function: vTaskSwitchContext)
Executed Assembly Steps:
  1. 700a68a0: b082         	sub	sp, #0x8
  2. 700a68a2: f642 2024    	movw	r0, #0x2a24
  3. 700a68a6: f2c7 000b    	movt	r0, #0x700b
  4. 700a68aa: 6800         	ldr	r0, [r0]
  5. 700a68ac: b138         	cbz	r0, 0x700a68be <vTaskSwitchContext+0x1e> @ imm = #0xe
  6. 700a68be: f642 2150    	movw	r1, #0x2a50
  7. 700a68c2: f2c7 010b    	movt	r1, #0x700b
  8. 700a68c6: 2000         	movs	r0, #0x0
  9. 700a68c8: 6008         	str	r0, [r1]
  10. 700a68ca: f642 10ac    	movw	r0, #0x29ac
  11. 700a68ce: f2c7 000b    	movt	r0, #0x700b
  12. 700a68d2: 6800         	ldr	r0, [r0]
  13. 700a68d4: f642 2100    	movw	r1, #0x2a00
  14. 700a68d8: f2c7 010b    	movt	r1, #0x700b
  15. 700a68dc: 6809         	ldr	r1, [r1]

P_HDR Event: Idx:65112 (Pattern: EEEEEEEEEEEEEEE, Function: vTaskSwitchContext)
Executed Assembly Steps:
  1. 700a68de: f8c1 0084    	str.w	r0, [r1, #0x84]
  2. 700a68e2: f642 202c    	movw	r0, #0x2a2c
  3. 700a68e6: f2c7 000b    	movt	r0, #0x700b
  4. 700a68ea: 6800         	ldr	r0, [r0]
  5. 700a68ec: 9001         	str	r0, [sp, #0x4]
  6. 700a68ee: e7ff         	b	0x700a68f0 <vTaskSwitchContext+0x50> @ imm = #-0x2
  7. 700a68f0: 9801         	ldr	r0, [sp, #0x4]
  8. 700a68f2: eb00 0180    	add.w	r1, r0, r0, lsl #2
  9. 700a68f6: f244 40f8    	movw	r0, #0x44f8
  10. 700a68fa: f2c7 0008    	movt	r0, #0x7008
  11. 700a68fe: f850 0021    	ldr.w	r0, [r0, r1, lsl #2]
  12. 700a6902: b920         	cbnz	r0, 0x700a690e <vTaskSwitchContext+0x6e> @ imm = #0x8
  13. 700a690e: 9801         	ldr	r0, [sp, #0x4]
  14. 700a6910: eb00 0180    	add.w	r1, r0, r0, lsl #2
  15. 700a6914: f244 40f8    	movw	r0, #0x44f8

P_HDR Event: Idx:65113 (Pattern: EEEEEEEEEEEN, Function: vTaskSwitchContext)
Executed Assembly Steps:
  1. 700a6918: f2c7 0008    	movt	r0, #0x7008
  2. 700a691c: eb00 0081    	add.w	r0, r0, r1, lsl #2
  3. 700a6920: 9000         	str	r0, [sp]
  4. 700a6922: 9900         	ldr	r1, [sp]
  5. 700a6924: 6848         	ldr	r0, [r1, #0x4]
  6. 700a6926: 6840         	ldr	r0, [r0, #0x4]
  7. 700a6928: 6048         	str	r0, [r1, #0x4]
  8. 700a692a: 9900         	ldr	r1, [sp]
  9. 700a692c: 6848         	ldr	r0, [r1, #0x4]
  10. 700a692e: 3108         	adds	r1, #0x8
  11. 700a6930: 4288         	cmp	r0, r1
  12. 700a6932: d105         	bne	0x700a6940 <vTaskSwitchContext+0xa0> @ imm = #0xa

P_HDR Event: Idx:65114 (Pattern: EEEEEEEEEEEEEEE, Function: vTaskSwitchContext)
Executed Assembly Steps:
  1. 700a6934: e7ff         	b	0x700a6936 <vTaskSwitchContext+0x96> @ imm = #-0x2
  2. 700a6936: 9900         	ldr	r1, [sp]
  3. 700a6938: 6848         	ldr	r0, [r1, #0x4]
  4. 700a693a: 6840         	ldr	r0, [r0, #0x4]
  5. 700a693c: 6048         	str	r0, [r1, #0x4]
  6. 700a693e: e7ff         	b	0x700a6940 <vTaskSwitchContext+0xa0> @ imm = #-0x2
  7. 700a6940: 9800         	ldr	r0, [sp]
  8. 700a6942: 6840         	ldr	r0, [r0, #0x4]
  9. 700a6944: 68c1         	ldr	r1, [r0, #0xc]
  10. 700a6946: f642 2000    	movw	r0, #0x2a00
  11. 700a694a: f2c7 000b    	movt	r0, #0x700b
  12. 700a694e: 6001         	str	r1, [r0]
  13. 700a6950: 9901         	ldr	r1, [sp, #0x4]
  14. 700a6952: f642 222c    	movw	r2, #0x2a2c
  15. 700a6956: f2c7 020b    	movt	r2, #0x700b

P_HDR Event: Idx:65115 (Pattern: EEEEEEEEE, Function: vTaskSwitchContext)
Executed Assembly Steps:
  1. 700a695a: 6011         	str	r1, [r2]
  2. 700a695c: 6800         	ldr	r0, [r0]
  3. 700a695e: f8d0 0084    	ldr.w	r0, [r0, #0x84]
  4. 700a6962: f642 11ac    	movw	r1, #0x29ac
  5. 700a6966: f2c7 010b    	movt	r1, #0x700b
  6. 700a696a: 6008         	str	r0, [r1]
  7. 700a696c: e7ff         	b	0x700a696e <vTaskSwitchContext+0xce> @ imm = #-0x2
  8. 700a696e: b002         	add	sp, #0x8
  9. 700a6970: 4770         	bx	lr

Sync: Idx:65116; ID:10;	BRANCH_ADDRESS : Branch address.; Addr=0x700B07A8 ~[0x700B07A8]; ISA=ARM(32);

P_HDR Event: Idx:65122 (Pattern: EEEEEEEN, Function: HwiP_svc_handler)
Executed Assembly Steps:
  1. 700b07a8: e59f0158     	ldr	r0, [pc, #0x158]        @ 0x700b0908 <pxCurrentTCBConst>
  2. 700b07ac: e5901000     	ldr	r1, [r0]
  3. 700b07b0: e591d000     	ldr	sp, [r1]
  4. 700b07b4: e59f0150     	ldr	r0, [pc, #0x150]        @ 0x700b090c <ulPortTaskHasFPUContextConst>
  5. 700b07b8: e49d1004     	ldr	r1, [sp], #4
  6. 700b07bc: e5801000     	str	r1, [r0]
  7. 700b07c0: e3510000     	cmp	r1, #0
  8. 700b07c4: 149d0004     	ldrne	r0, [sp], #4

P_HDR Event: Idx:65123 (Pattern: N, Function: HwiP_svc_handler)
Executed Assembly Steps:
  1. 700b07c8: 1cbd0b20     	vpopne	{d0, d1, d2, d3, d4, d5, d6, d7, d8, d9, d10, d11, d12, d13, d14, d15}

P_HDR Event: Idx:65124 (Pattern: N, Function: HwiP_svc_handler)
Executed Assembly Steps:
  1. 700b07cc: 1ee10a10     	vmsrne	fpscr, r0

P_HDR Event: Idx:65125 (Pattern: EEE, Function: HwiP_svc_handler)
Executed Assembly Steps:
  1. 700b07d0: f57ff01f     	clrex
  2. 700b07d4: e8bd5fff     	pop	{r0, r1, r2, r3, r4, r5, r6, r7, r8, r9, r10, r11, r12, lr}
  3. 700b07d8: f8bd0a00     	rfeia	sp!

Sync: Idx:65126; ID:10;	BRANCH_ADDRESS : Branch address.; Addr=0x700AF736 ~[0x700AF736]; ISA=Thumb2;

P_HDR Event: Idx:65131 (Pattern: E, Function: tm_task_priority_get)
Executed Assembly Steps:
  1. 700af736: bd80         	pop	{r7, pc}

Sync: Idx:65132; ID:10;	BRANCH_ADDRESS : Branch address.; Addr=0x700AB314 ~[0xAB314];

P_HDR Event: Idx:65136 (Pattern: EN, Function: LowPrioTask)
Executed Assembly Steps:
  1. 700ab314: 2814         	cmp	r0, #0x14
  2. 700ab316: d1db         	bne	0x700ab2d0 <LowPrioTask+0x10> @ imm = #-0x4a

P_HDR Event: Idx:65137 (Pattern: EEEEEEEEEEEEEEE, Function: LowPrioTask)
Executed Assembly Steps:
  1. 700ab318: 2002         	movs	r0, #0x2
  2. 700ab31a: bf00         	nop
  3. 700ab31c: f004 fa00    	bl	0x700af720 <tm_task_priority_get> @ imm = #0x4400
  4. 700af720: b580         	push	{r7, lr}
  5. 700af722: f245 0148    	movw	r1, #0x5048
  6. 700af726: f2c7 0108    	movt	r1, #0x7008
  7. 700af72a: f851 0020    	ldr.w	r0, [r1, r0, lsl #2]
  8. 700af72e: f7fe fdcf    	bl	0x700ae2d0 <uxTaskPriorityGet> @ imm = #-0x1462
  9. 700ae2d0: b580         	push	{r7, lr}
  10. 700ae2d2: b084         	sub	sp, #0x10
  11. 700ae2d4: 9003         	str	r0, [sp, #0xc]
  12. 700ae2d6: f000 f9f3    	bl	0x700ae6c0 <vTaskEnterCritical> @ imm = #0x3e6
  13. 700ae6c0: b672         	cpsid i
  14. 700ae6c2: f642 2040    	movw	r0, #0x2a40
  15. 700ae6c6: f2c7 000b    	movt	r0, #0x700b

P_HDR Event: Idx:65138 (Pattern: EN, Function: vTaskEnterCritical)
Executed Assembly Steps:
  1. 700ae6ca: 6800         	ldr	r0, [r0]
  2. 700ae6cc: b178         	cbz	r0, 0x700ae6ee <vTaskEnterCritical+0x2e> @ imm = #0x1e

P_HDR Event: Idx:65139 (Pattern: EEEEEEEEEEN, Function: vTaskEnterCritical)
Executed Assembly Steps:
  1. 700ae6ce: e7ff         	b	0x700ae6d0 <vTaskEnterCritical+0x10> @ imm = #-0x2
  2. 700ae6d0: f642 2000    	movw	r0, #0x2a00
  3. 700ae6d4: f2c7 000b    	movt	r0, #0x700b
  4. 700ae6d8: 6802         	ldr	r2, [r0]
  5. 700ae6da: 6d51         	ldr	r1, [r2, #0x54]
  6. 700ae6dc: 3101         	adds	r1, #0x1
  7. 700ae6de: 6551         	str	r1, [r2, #0x54]
  8. 700ae6e0: 6800         	ldr	r0, [r0]
  9. 700ae6e2: 6d40         	ldr	r0, [r0, #0x54]
  10. 700ae6e4: 2801         	cmp	r0, #0x1
  11. 700ae6e6: d101         	bne	0x700ae6ec <vTaskEnterCritical+0x2c> @ imm = #0x2

P_HDR Event: Idx:65140 (Pattern: EEEE, Function: vTaskEnterCritical)
Executed Assembly Steps:
  1. 700ae6e8: e7ff         	b	0x700ae6ea <vTaskEnterCritical+0x2a> @ imm = #-0x2
  2. 700ae6ea: e7ff         	b	0x700ae6ec <vTaskEnterCritical+0x2c> @ imm = #-0x2
  3. 700ae6ec: e000         	b	0x700ae6f0 <vTaskEnterCritical+0x30> @ imm = #0x0
  4. 700ae6f0: 4770         	bx	lr

Sync: Idx:65141; ID:10;	BRANCH_ADDRESS : Branch address.; Addr=0x700AE2DA ~[0xAE2DA];

P_HDR Event: Idx:65144 (Pattern: EEEEEEEEEEEEEEN, Function: uxTaskPriorityGet)
Executed Assembly Steps:
  1. 700ae2da: 9803         	ldr	r0, [sp, #0xc]
  2. 700ae2dc: b938         	cbnz	r0, 0x700ae2ee <uxTaskPriorityGet+0x1e> @ imm = #0xe
  3. 700ae2ee: 9803         	ldr	r0, [sp, #0xc]
  4. 700ae2f0: 9000         	str	r0, [sp]
  5. 700ae2f2: e7ff         	b	0x700ae2f4 <uxTaskPriorityGet+0x24> @ imm = #-0x2
  6. 700ae2f4: 9800         	ldr	r0, [sp]
  7. 700ae2f6: 9002         	str	r0, [sp, #0x8]
  8. 700ae2f8: 9802         	ldr	r0, [sp, #0x8]
  9. 700ae2fa: 6ac0         	ldr	r0, [r0, #0x2c]
  10. 700ae2fc: 9001         	str	r0, [sp, #0x4]
  11. 700ae2fe: f7ff fa7f    	bl	0x700ad800 <vTaskExitCritical> @ imm = #-0xb02
  12. 700ad800: f642 2040    	movw	r0, #0x2a40
  13. 700ad804: f2c7 000b    	movt	r0, #0x700b
  14. 700ad808: 6800         	ldr	r0, [r0]
  15. 700ad80a: b1d0         	cbz	r0, 0x700ad842 <vTaskExitCritical+0x42> @ imm = #0x34

P_HDR Event: Idx:65145 (Pattern: EEEEEN, Function: vTaskExitCritical)
Executed Assembly Steps:
  1. 700ad80c: e7ff         	b	0x700ad80e <vTaskExitCritical+0xe> @ imm = #-0x2
  2. 700ad80e: f642 2000    	movw	r0, #0x2a00
  3. 700ad812: f2c7 000b    	movt	r0, #0x700b
  4. 700ad816: 6800         	ldr	r0, [r0]
  5. 700ad818: 6d40         	ldr	r0, [r0, #0x54]
  6. 700ad81a: b180         	cbz	r0, 0x700ad83e <vTaskExitCritical+0x3e> @ imm = #0x20

P_HDR Event: Idx:65146 (Pattern: EEEEEEEEEN, Function: vTaskExitCritical)
Executed Assembly Steps:
  1. 700ad81c: e7ff         	b	0x700ad81e <vTaskExitCritical+0x1e> @ imm = #-0x2
  2. 700ad81e: f642 2000    	movw	r0, #0x2a00
  3. 700ad822: f2c7 000b    	movt	r0, #0x700b
  4. 700ad826: 6802         	ldr	r2, [r0]
  5. 700ad828: 6d51         	ldr	r1, [r2, #0x54]
  6. 700ad82a: 3901         	subs	r1, #0x1
  7. 700ad82c: 6551         	str	r1, [r2, #0x54]
  8. 700ad82e: 6800         	ldr	r0, [r0]
  9. 700ad830: 6d40         	ldr	r0, [r0, #0x54]
  10. 700ad832: b910         	cbnz	r0, 0x700ad83a <vTaskExitCritical+0x3a> @ imm = #0x4

P_HDR Event: Idx:65147 (Pattern: EEEEEE, Function: vTaskExitCritical)
Executed Assembly Steps:
  1. 700ad834: e7ff         	b	0x700ad836 <vTaskExitCritical+0x36> @ imm = #-0x2
  2. 700ad836: b662         	cpsie i
  3. 700ad838: e000         	b	0x700ad83c <vTaskExitCritical+0x3c> @ imm = #0x0
  4. 700ad83c: e000         	b	0x700ad840 <vTaskExitCritical+0x40> @ imm = #0x0
  5. 700ad840: e000         	b	0x700ad844 <vTaskExitCritical+0x44> @ imm = #0x0
  6. 700ad844: 4770         	bx	lr

Sync: Idx:65148; ID:10;	BRANCH_ADDRESS : Branch address.; Addr=0x700AE302 ~[0x2302];

P_HDR Event: Idx:65150 (Pattern: EEE, Function: uxTaskPriorityGet)
Executed Assembly Steps:
  1. 700ae302: 9801         	ldr	r0, [sp, #0x4]
  2. 700ae304: b004         	add	sp, #0x10
  3. 700ae306: bd80         	pop	{r7, pc}

Sync: Idx:65152; ID:10;	BRANCH_ADDRESS : Branch address.; Addr=0x700AF732 ~[0x3732];

P_HDR Event: Idx:65154 (Pattern: EE, Function: tm_task_priority_get)
Executed Assembly Steps:
  1. 700af732: f1c0 0021    	rsb.w	r0, r0, #0x21
  2. 700af736: bd80         	pop	{r7, pc}

Sync: Idx:65155; ID:10;	BRANCH_ADDRESS : Branch address.; Addr=0x700AB320 ~[0xAB320];

P_HDR Event: Idx:65158 (Pattern: EN, Function: LowPrioTask)
Executed Assembly Steps:
  1. 700ab320: 2814         	cmp	r0, #0x14
  2. 700ab322: d0ed         	beq	0x700ab300 <LowPrioTask+0x40> @ imm = #-0x26

P_HDR Event: Idx:65160 (Pattern: EEEEEEEEEEEEEEE, Function: LowPrioTask)
Executed Assembly Steps:
  1. 700ab324: e7d4         	b	0x700ab2d0 <LowPrioTask+0x10> @ imm = #-0x58
  2. 700ab2d0: 2001         	movs	r0, #0x1
  3. 700ab2d2: f004 f825    	bl	0x700af320 <tm_mutex_put> @ imm = #0x404a
  4. 700af320: b580         	push	{r7, lr}
  5. 700af322: f245 111c    	movw	r1, #0x511c
  6. 700af326: 2200         	movs	r2, #0x0
  7. 700af328: f2c7 0108    	movt	r1, #0x7008
  8. 700af32c: 2300         	movs	r3, #0x0
  9. 700af32e: f851 0020    	ldr.w	r0, [r1, r0, lsl #2]
  10. 700af332: 2100         	movs	r1, #0x0
  11. 700af334: f7f3 ff04    	bl	0x700a3140 <xQueueGenericSend> @ imm = #-0xc1f8
  12. 700a3140: b580         	push	{r7, lr}
  13. 700a3142: b08a         	sub	sp, #0x28
  14. 700a3144: 9008         	str	r0, [sp, #0x20]
  15. 700a3146: 9107         	str	r1, [sp, #0x1c]

P_HDR Event: Idx:65161 (Pattern: EEEEEEEEEEEEN, Function: xQueueGenericSend)
Executed Assembly Steps:
  1. 700a3148: 9206         	str	r2, [sp, #0x18]
  2. 700a314a: 9305         	str	r3, [sp, #0x14]
  3. 700a314c: 2000         	movs	r0, #0x0
  4. 700a314e: 9004         	str	r0, [sp, #0x10]
  5. 700a3150: 9808         	ldr	r0, [sp, #0x20]
  6. 700a3152: 9000         	str	r0, [sp]
  7. 700a3154: e7ff         	b	0x700a3156 <xQueueGenericSend+0x16> @ imm = #-0x2
  8. 700a3156: f00b fab3    	bl	0x700ae6c0 <vTaskEnterCritical> @ imm = #0xb566
  9. 700ae6c0: b672         	cpsid i
  10. 700ae6c2: f642 2040    	movw	r0, #0x2a40
  11. 700ae6c6: f2c7 000b    	movt	r0, #0x700b
  12. 700ae6ca: 6800         	ldr	r0, [r0]
  13. 700ae6cc: b178         	cbz	r0, 0x700ae6ee <vTaskEnterCritical+0x2e> @ imm = #0x1e

P_HDR Event: Idx:65162 (Pattern: EEEEEEEEEEN, Function: vTaskEnterCritical)
Executed Assembly Steps:
  1. 700ae6ce: e7ff         	b	0x700ae6d0 <vTaskEnterCritical+0x10> @ imm = #-0x2
  2. 700ae6d0: f642 2000    	movw	r0, #0x2a00
  3. 700ae6d4: f2c7 000b    	movt	r0, #0x700b
  4. 700ae6d8: 6802         	ldr	r2, [r0]
  5. 700ae6da: 6d51         	ldr	r1, [r2, #0x54]
  6. 700ae6dc: 3101         	adds	r1, #0x1
  7. 700ae6de: 6551         	str	r1, [r2, #0x54]
  8. 700ae6e0: 6800         	ldr	r0, [r0]
  9. 700ae6e2: 6d40         	ldr	r0, [r0, #0x54]
  10. 700ae6e4: 2801         	cmp	r0, #0x1
  11. 700ae6e6: d101         	bne	0x700ae6ec <vTaskEnterCritical+0x2c> @ imm = #0x2

P_HDR Event: Idx:65163 (Pattern: EEEE, Function: vTaskEnterCritical)
Executed Assembly Steps:
  1. 700ae6e8: e7ff         	b	0x700ae6ea <vTaskEnterCritical+0x2a> @ imm = #-0x2
  2. 700ae6ea: e7ff         	b	0x700ae6ec <vTaskEnterCritical+0x2c> @ imm = #-0x2
  3. 700ae6ec: e000         	b	0x700ae6f0 <vTaskEnterCritical+0x30> @ imm = #0x0
  4. 700ae6f0: 4770         	bx	lr

Sync: Idx:65164; ID:10;	BRANCH_ADDRESS : Branch address.; Addr=0x700A315A ~[0xA315A];

P_HDR Event: Idx:65170 (Pattern: EEEEEEEEEEEEEE, Function: xQueueGenericSend)
Executed Assembly Steps:
  1. 700a315a: 9800         	ldr	r0, [sp]
  2. 700a315c: 6b80         	ldr	r0, [r0, #0x38]
  3. 700a315e: 9900         	ldr	r1, [sp]
  4. 700a3160: 6bc9         	ldr	r1, [r1, #0x3c]
  5. 700a3162: 4288         	cmp	r0, r1
  6. 700a3164: d304         	blo	0x700a3170 <xQueueGenericSend+0x30> @ imm = #0x8
  7. 700a3170: 9800         	ldr	r0, [sp]
  8. 700a3172: 9907         	ldr	r1, [sp, #0x1c]
  9. 700a3174: 9a05         	ldr	r2, [sp, #0x14]
  10. 700a3176: f003 fc6b    	bl	0x700a6a50 <prvCopyDataToQueue> @ imm = #0x38d6
  11. 700a6a50: b580         	push	{r7, lr}
  12. 700a6a52: b086         	sub	sp, #0x18
  13. 700a6a54: 9005         	str	r0, [sp, #0x14]
  14. 700a6a56: 9104         	str	r1, [sp, #0x10]

P_HDR Event: Idx:65171 (Pattern: EEEEEEEEN, Function: prvCopyDataToQueue)
Executed Assembly Steps:
  1. 700a6a58: 9203         	str	r2, [sp, #0xc]
  2. 700a6a5a: 2000         	movs	r0, #0x0
  3. 700a6a5c: 9002         	str	r0, [sp, #0x8]
  4. 700a6a5e: 9805         	ldr	r0, [sp, #0x14]
  5. 700a6a60: 6b80         	ldr	r0, [r0, #0x38]
  6. 700a6a62: 9001         	str	r0, [sp, #0x4]
  7. 700a6a64: 9805         	ldr	r0, [sp, #0x14]
  8. 700a6a66: 6c00         	ldr	r0, [r0, #0x40]
  9. 700a6a68: b978         	cbnz	r0, 0x700a6a8a <prvCopyDataToQueue+0x3a> @ imm = #0x1e

P_HDR Event: Idx:65172 (Pattern: EEEN, Function: prvCopyDataToQueue)
Executed Assembly Steps:
  1. 700a6a6a: e7ff         	b	0x700a6a6c <prvCopyDataToQueue+0x1c> @ imm = #-0x2
  2. 700a6a6c: 9805         	ldr	r0, [sp, #0x14]
  3. 700a6a6e: 6800         	ldr	r0, [r0]
  4. 700a6a70: b948         	cbnz	r0, 0x700a6a86 <prvCopyDataToQueue+0x36> @ imm = #0x12

P_HDR Event: Idx:65173 (Pattern: EEEEEEEEEEEEEN, Function: prvCopyDataToQueue)
Executed Assembly Steps:
  1. 700a6a72: e7ff         	b	0x700a6a74 <prvCopyDataToQueue+0x24> @ imm = #-0x2
  2. 700a6a74: 9805         	ldr	r0, [sp, #0x14]
  3. 700a6a76: 6880         	ldr	r0, [r0, #0x8]
  4. 700a6a78: f001 fcfa    	bl	0x700a8470 <xTaskPriorityDisinherit> @ imm = #0x19f4
  5. 700a8470: b580         	push	{r7, lr}
  6. 700a8472: b084         	sub	sp, #0x10
  7. 700a8474: 9003         	str	r0, [sp, #0xc]
  8. 700a8476: 9803         	ldr	r0, [sp, #0xc]
  9. 700a8478: 9002         	str	r0, [sp, #0x8]
  10. 700a847a: 2000         	movs	r0, #0x0
  11. 700a847c: 9001         	str	r0, [sp, #0x4]
  12. 700a847e: 9803         	ldr	r0, [sp, #0xc]
  13. 700a8480: 2800         	cmp	r0, #0x0
  14. 700a8482: d044         	beq	0x700a850e <xTaskPriorityDisinherit+0x9e> @ imm = #0x88

P_HDR Event: Idx:65174 (Pattern: EEEEEEEEEN, Function: xTaskPriorityDisinherit)
Executed Assembly Steps:
  1. 700a8484: e7ff         	b	0x700a8486 <xTaskPriorityDisinherit+0x16> @ imm = #-0x2
  2. 700a8486: 9902         	ldr	r1, [sp, #0x8]
  3. 700a8488: 6e48         	ldr	r0, [r1, #0x64]
  4. 700a848a: 3801         	subs	r0, #0x1
  5. 700a848c: 6648         	str	r0, [r1, #0x64]
  6. 700a848e: 9902         	ldr	r1, [sp, #0x8]
  7. 700a8490: 6ac8         	ldr	r0, [r1, #0x2c]
  8. 700a8492: 6e09         	ldr	r1, [r1, #0x60]
  9. 700a8494: 4288         	cmp	r0, r1
  10. 700a8496: d038         	beq	0x700a850a <xTaskPriorityDisinherit+0x9a> @ imm = #0x70

P_HDR Event: Idx:65175 (Pattern: EEEN, Function: xTaskPriorityDisinherit)
Executed Assembly Steps:
  1. 700a8498: e7ff         	b	0x700a849a <xTaskPriorityDisinherit+0x2a> @ imm = #-0x2
  2. 700a849a: 9802         	ldr	r0, [sp, #0x8]
  3. 700a849c: 6e40         	ldr	r0, [r0, #0x64]
  4. 700a849e: bb90         	cbnz	r0, 0x700a8506 <xTaskPriorityDisinherit+0x96> @ imm = #0x64

P_HDR Event: Idx:65176 (Pattern: EEEEEEEEEEEEEEE, Function: xTaskPriorityDisinherit)
Executed Assembly Steps:
  1. 700a84a0: e7ff         	b	0x700a84a2 <xTaskPriorityDisinherit+0x32> @ imm = #-0x2
  2. 700a84a2: 9802         	ldr	r0, [sp, #0x8]
  3. 700a84a4: 3004         	adds	r0, #0x4
  4. 700a84a6: f005 f8bb    	bl	0x700ad620 <uxListRemove> @ imm = #0x5176
  5. 700ad620: b082         	sub	sp, #0x8
  6. 700ad622: 9001         	str	r0, [sp, #0x4]
  7. 700ad624: 9801         	ldr	r0, [sp, #0x4]
  8. 700ad626: 6900         	ldr	r0, [r0, #0x10]
  9. 700ad628: 9000         	str	r0, [sp]
  10. 700ad62a: 9801         	ldr	r0, [sp, #0x4]
  11. 700ad62c: 6841         	ldr	r1, [r0, #0x4]
  12. 700ad62e: 6880         	ldr	r0, [r0, #0x8]
  13. 700ad630: 6088         	str	r0, [r1, #0x8]
  14. 700ad632: 9901         	ldr	r1, [sp, #0x4]
  15. 700ad634: 6848         	ldr	r0, [r1, #0x4]

P_HDR Event: Idx:65177 (Pattern: EEEEEEN, Function: uxListRemove)
Executed Assembly Steps:
  1. 700ad636: 6889         	ldr	r1, [r1, #0x8]
  2. 700ad638: 6048         	str	r0, [r1, #0x4]
  3. 700ad63a: 9800         	ldr	r0, [sp]
  4. 700ad63c: 6840         	ldr	r0, [r0, #0x4]
  5. 700ad63e: 9901         	ldr	r1, [sp, #0x4]
  6. 700ad640: 4288         	cmp	r0, r1
  7. 700ad642: d105         	bne	0x700ad650 <uxListRemove+0x30> @ imm = #0xa

P_HDR Event: Idx:65178 (Pattern: EEEEEEEEEEEEEE, Function: uxListRemove)
Executed Assembly Steps:
  1. 700ad644: e7ff         	b	0x700ad646 <uxListRemove+0x26> @ imm = #-0x2
  2. 700ad646: 9801         	ldr	r0, [sp, #0x4]
  3. 700ad648: 6880         	ldr	r0, [r0, #0x8]
  4. 700ad64a: 9900         	ldr	r1, [sp]
  5. 700ad64c: 6048         	str	r0, [r1, #0x4]
  6. 700ad64e: e000         	b	0x700ad652 <uxListRemove+0x32> @ imm = #0x0
  7. 700ad652: 9901         	ldr	r1, [sp, #0x4]
  8. 700ad654: 2000         	movs	r0, #0x0
  9. 700ad656: 6108         	str	r0, [r1, #0x10]
  10. 700ad658: 9900         	ldr	r1, [sp]
  11. 700ad65a: 6808         	ldr	r0, [r1]
  12. 700ad65c: 3801         	subs	r0, #0x1
  13. 700ad65e: 6008         	str	r0, [r1]
  14. 700ad660: 9800         	ldr	r0, [sp]

P_HDR Event: Idx:65179 (Pattern: EEE, Function: uxListRemove)
Executed Assembly Steps:
  1. 700ad662: 6800         	ldr	r0, [r0]
  2. 700ad664: b002         	add	sp, #0x8
  3. 700ad666: 4770         	bx	lr

Sync: Idx:65180; ID:10;	BRANCH_ADDRESS : Branch address.; Addr=0x700A84AA ~[0xA84AA];

P_HDR Event: Idx:65184 (Pattern: N, Function: xTaskPriorityDisinherit)
Executed Assembly Steps:
  1. 700a84aa: b908         	cbnz	r0, 0x700a84b0 <xTaskPriorityDisinherit+0x40> @ imm = #0x2

P_HDR Event: Idx:65185 (Pattern: EEEEEEEEEEEEEE, Function: xTaskPriorityDisinherit)
Executed Assembly Steps:
  1. 700a84ac: e7ff         	b	0x700a84ae <xTaskPriorityDisinherit+0x3e> @ imm = #-0x2
  2. 700a84ae: e000         	b	0x700a84b2 <xTaskPriorityDisinherit+0x42> @ imm = #0x0
  3. 700a84b2: 9902         	ldr	r1, [sp, #0x8]
  4. 700a84b4: 6e08         	ldr	r0, [r1, #0x60]
  5. 700a84b6: 62c8         	str	r0, [r1, #0x2c]
  6. 700a84b8: 9902         	ldr	r1, [sp, #0x8]
  7. 700a84ba: 6ac8         	ldr	r0, [r1, #0x2c]
  8. 700a84bc: f1c0 0020    	rsb.w	r0, r0, #0x20
  9. 700a84c0: 6188         	str	r0, [r1, #0x18]
  10. 700a84c2: 9802         	ldr	r0, [sp, #0x8]
  11. 700a84c4: 6ac0         	ldr	r0, [r0, #0x2c]
  12. 700a84c6: f642 212c    	movw	r1, #0x2a2c
  13. 700a84ca: f2c7 010b    	movt	r1, #0x700b
  14. 700a84ce: 6809         	ldr	r1, [r1]

P_HDR Event: Idx:65186 (Pattern: EEEEEEEEEEEEEEE, Function: xTaskPriorityDisinherit)
Executed Assembly Steps:
  1. 700a84d0: 4288         	cmp	r0, r1
  2. 700a84d2: d908         	bls	0x700a84e6 <xTaskPriorityDisinherit+0x76> @ imm = #0x10
  3. 700a84e6: 9902         	ldr	r1, [sp, #0x8]
  4. 700a84e8: 6ac8         	ldr	r0, [r1, #0x2c]
  5. 700a84ea: eb00 0280    	add.w	r2, r0, r0, lsl #2
  6. 700a84ee: f244 40f8    	movw	r0, #0x44f8
  7. 700a84f2: f2c7 0008    	movt	r0, #0x7008
  8. 700a84f6: eb00 0082    	add.w	r0, r0, r2, lsl #2
  9. 700a84fa: 3104         	adds	r1, #0x4
  10. 700a84fc: f005 fe48    	bl	0x700ae190 <vListInsertEnd> @ imm = #0x5c90
  11. 700ae190: b083         	sub	sp, #0xc
  12. 700ae192: 9002         	str	r0, [sp, #0x8]
  13. 700ae194: 9101         	str	r1, [sp, #0x4]
  14. 700ae196: 9802         	ldr	r0, [sp, #0x8]
  15. 700ae198: 6840         	ldr	r0, [r0, #0x4]

P_HDR Event: Idx:65187 (Pattern: EEEEEEEEEEEEEEE, Function: vListInsertEnd)
Executed Assembly Steps:
  1. 700ae19a: 9000         	str	r0, [sp]
  2. 700ae19c: 9800         	ldr	r0, [sp]
  3. 700ae19e: 9901         	ldr	r1, [sp, #0x4]
  4. 700ae1a0: 6048         	str	r0, [r1, #0x4]
  5. 700ae1a2: 9800         	ldr	r0, [sp]
  6. 700ae1a4: 6880         	ldr	r0, [r0, #0x8]
  7. 700ae1a6: 9901         	ldr	r1, [sp, #0x4]
  8. 700ae1a8: 6088         	str	r0, [r1, #0x8]
  9. 700ae1aa: 9801         	ldr	r0, [sp, #0x4]
  10. 700ae1ac: 9900         	ldr	r1, [sp]
  11. 700ae1ae: 6889         	ldr	r1, [r1, #0x8]
  12. 700ae1b0: 6048         	str	r0, [r1, #0x4]
  13. 700ae1b2: 9801         	ldr	r0, [sp, #0x4]
  14. 700ae1b4: 9900         	ldr	r1, [sp]
  15. 700ae1b6: 6088         	str	r0, [r1, #0x8]

P_HDR Event: Idx:65188 (Pattern: EEEEEEEEE, Function: vListInsertEnd)
Executed Assembly Steps:
  1. 700ae1b8: 9802         	ldr	r0, [sp, #0x8]
  2. 700ae1ba: 9901         	ldr	r1, [sp, #0x4]
  3. 700ae1bc: 6108         	str	r0, [r1, #0x10]
  4. 700ae1be: 9902         	ldr	r1, [sp, #0x8]
  5. 700ae1c0: 6808         	ldr	r0, [r1]
  6. 700ae1c2: 3001         	adds	r0, #0x1
  7. 700ae1c4: 6008         	str	r0, [r1]
  8. 700ae1c6: b003         	add	sp, #0xc
  9. 700ae1c8: 4770         	bx	lr

Sync: Idx:65189; ID:10;	BRANCH_ADDRESS : Branch address.; Addr=0x700A8500 ~[0x500];

P_HDR Event: Idx:65191 (Pattern: EEEEEEEE, Function: xTaskPriorityDisinherit)
Executed Assembly Steps:
  1. 700a8500: 2001         	movs	r0, #0x1
  2. 700a8502: 9001         	str	r0, [sp, #0x4]
  3. 700a8504: e000         	b	0x700a8508 <xTaskPriorityDisinherit+0x98> @ imm = #0x0
  4. 700a8508: e000         	b	0x700a850c <xTaskPriorityDisinherit+0x9c> @ imm = #0x0
  5. 700a850c: e000         	b	0x700a8510 <xTaskPriorityDisinherit+0xa0> @ imm = #0x0
  6. 700a8510: 9801         	ldr	r0, [sp, #0x4]
  7. 700a8512: b004         	add	sp, #0x10
  8. 700a8514: bd80         	pop	{r7, pc}

Sync: Idx:65192; ID:10;	BRANCH_ADDRESS : Branch address.; Addr=0x700A6A7C ~[0xA6A7C];

P_HDR Event: Idx:65195 (Pattern: EEEEEEEEEEEEE, Function: prvCopyDataToQueue)
Executed Assembly Steps:
  1. 700a6a7c: 9002         	str	r0, [sp, #0x8]
  2. 700a6a7e: 9905         	ldr	r1, [sp, #0x14]
  3. 700a6a80: 2000         	movs	r0, #0x0
  4. 700a6a82: 6088         	str	r0, [r1, #0x8]
  5. 700a6a84: e000         	b	0x700a6a88 <prvCopyDataToQueue+0x38> @ imm = #0x0
  6. 700a6a88: e041         	b	0x700a6b0e <prvCopyDataToQueue+0xbe> @ imm = #0x82
  7. 700a6b0e: 9801         	ldr	r0, [sp, #0x4]
  8. 700a6b10: 3001         	adds	r0, #0x1
  9. 700a6b12: 9905         	ldr	r1, [sp, #0x14]
  10. 700a6b14: 6388         	str	r0, [r1, #0x38]
  11. 700a6b16: 9802         	ldr	r0, [sp, #0x8]
  12. 700a6b18: b006         	add	sp, #0x18
  13. 700a6b1a: bd80         	pop	{r7, pc}

Sync: Idx:65196; ID:10;	BRANCH_ADDRESS : Branch address.; Addr=0x700A317A ~[0xA317A];

P_HDR Event: Idx:65200 (Pattern: EEEN, Function: xQueueGenericSend)
Executed Assembly Steps:
  1. 700a317a: 9003         	str	r0, [sp, #0xc]
  2. 700a317c: 9800         	ldr	r0, [sp]
  3. 700a317e: 6a40         	ldr	r0, [r0, #0x24]
  4. 700a3180: b150         	cbz	r0, 0x700a3198 <xQueueGenericSend+0x58> @ imm = #0x14

P_HDR Event: Idx:65201 (Pattern: EEEEEEEEEEEEEEE, Function: xQueueGenericSend)
Executed Assembly Steps:
  1. 700a3182: e7ff         	b	0x700a3184 <xQueueGenericSend+0x44> @ imm = #-0x2
  2. 700a3184: 9800         	ldr	r0, [sp]
  3. 700a3186: 3024         	adds	r0, #0x24
  4. 700a3188: f004 fbe2    	bl	0x700a7950 <xTaskRemoveFromEventList> @ imm = #0x47c4
  5. 700a7950: b580         	push	{r7, lr}
  6. 700a7952: b084         	sub	sp, #0x10
  7. 700a7954: 9003         	str	r0, [sp, #0xc]
  8. 700a7956: 9803         	ldr	r0, [sp, #0xc]
  9. 700a7958: 68c0         	ldr	r0, [r0, #0xc]
  10. 700a795a: 68c0         	ldr	r0, [r0, #0xc]
  11. 700a795c: 9002         	str	r0, [sp, #0x8]
  12. 700a795e: 9802         	ldr	r0, [sp, #0x8]
  13. 700a7960: 3018         	adds	r0, #0x18
  14. 700a7962: f005 fe5d    	bl	0x700ad620 <uxListRemove> @ imm = #0x5cba
  15. 700ad620: b082         	sub	sp, #0x8

P_HDR Event: Idx:65202 (Pattern: EEEEEEEEEEEEEEE, Function: uxListRemove)
Executed Assembly Steps:
  1. 700ad622: 9001         	str	r0, [sp, #0x4]
  2. 700ad624: 9801         	ldr	r0, [sp, #0x4]
  3. 700ad626: 6900         	ldr	r0, [r0, #0x10]
  4. 700ad628: 9000         	str	r0, [sp]
  5. 700ad62a: 9801         	ldr	r0, [sp, #0x4]
  6. 700ad62c: 6841         	ldr	r1, [r0, #0x4]
  7. 700ad62e: 6880         	ldr	r0, [r0, #0x8]
  8. 700ad630: 6088         	str	r0, [r1, #0x8]
  9. 700ad632: 9901         	ldr	r1, [sp, #0x4]
  10. 700ad634: 6848         	ldr	r0, [r1, #0x4]
  11. 700ad636: 6889         	ldr	r1, [r1, #0x8]
  12. 700ad638: 6048         	str	r0, [r1, #0x4]
  13. 700ad63a: 9800         	ldr	r0, [sp]
  14. 700ad63c: 6840         	ldr	r0, [r0, #0x4]
  15. 700ad63e: 9901         	ldr	r1, [sp, #0x4]

P_HDR Event: Idx:65203 (Pattern: EEEEEEEEEEEEEE, Function: uxListRemove)
Executed Assembly Steps:
  1. 700ad640: 4288         	cmp	r0, r1
  2. 700ad642: d105         	bne	0x700ad650 <uxListRemove+0x30> @ imm = #0xa
  3. 700ad650: e7ff         	b	0x700ad652 <uxListRemove+0x32> @ imm = #-0x2
  4. 700ad652: 9901         	ldr	r1, [sp, #0x4]
  5. 700ad654: 2000         	movs	r0, #0x0
  6. 700ad656: 6108         	str	r0, [r1, #0x10]
  7. 700ad658: 9900         	ldr	r1, [sp]
  8. 700ad65a: 6808         	ldr	r0, [r1]
  9. 700ad65c: 3801         	subs	r0, #0x1
  10. 700ad65e: 6008         	str	r0, [r1]
  11. 700ad660: 9800         	ldr	r0, [sp]
  12. 700ad662: 6800         	ldr	r0, [r0]
  13. 700ad664: b002         	add	sp, #0x8
  14. 700ad666: 4770         	bx	lr

Sync: Idx:65204; ID:10;	BRANCH_ADDRESS : Branch address.; Addr=0x700A7966 ~[0xA7966];

P_HDR Event: Idx:65207 (Pattern: EEEN, Function: xTaskRemoveFromEventList)
Executed Assembly Steps:
  1. 700a7966: f642 2024    	movw	r0, #0x2a24
  2. 700a796a: f2c7 000b    	movt	r0, #0x700b
  3. 700a796e: 6800         	ldr	r0, [r0]
  4. 700a7970: bb30         	cbnz	r0, 0x700a79c0 <xTaskRemoveFromEventList+0x70> @ imm = #0x4c

P_HDR Event: Idx:65208 (Pattern: EEEEEEEEEEEEEEE, Function: xTaskRemoveFromEventList)
Executed Assembly Steps:
  1. 700a7972: e7ff         	b	0x700a7974 <xTaskRemoveFromEventList+0x24> @ imm = #-0x2
  2. 700a7974: 9802         	ldr	r0, [sp, #0x8]
  3. 700a7976: 3004         	adds	r0, #0x4
  4. 700a7978: f005 fe52    	bl	0x700ad620 <uxListRemove> @ imm = #0x5ca4
  5. 700ad620: b082         	sub	sp, #0x8
  6. 700ad622: 9001         	str	r0, [sp, #0x4]
  7. 700ad624: 9801         	ldr	r0, [sp, #0x4]
  8. 700ad626: 6900         	ldr	r0, [r0, #0x10]
  9. 700ad628: 9000         	str	r0, [sp]
  10. 700ad62a: 9801         	ldr	r0, [sp, #0x4]
  11. 700ad62c: 6841         	ldr	r1, [r0, #0x4]
  12. 700ad62e: 6880         	ldr	r0, [r0, #0x8]
  13. 700ad630: 6088         	str	r0, [r1, #0x8]
  14. 700ad632: 9901         	ldr	r1, [sp, #0x4]
  15. 700ad634: 6848         	ldr	r0, [r1, #0x4]

P_HDR Event: Idx:65209 (Pattern: EEEEEEEEEEEEEEE, Function: uxListRemove)
Executed Assembly Steps:
  1. 700ad636: 6889         	ldr	r1, [r1, #0x8]
  2. 700ad638: 6048         	str	r0, [r1, #0x4]
  3. 700ad63a: 9800         	ldr	r0, [sp]
  4. 700ad63c: 6840         	ldr	r0, [r0, #0x4]
  5. 700ad63e: 9901         	ldr	r1, [sp, #0x4]
  6. 700ad640: 4288         	cmp	r0, r1
  7. 700ad642: d105         	bne	0x700ad650 <uxListRemove+0x30> @ imm = #0xa
  8. 700ad650: e7ff         	b	0x700ad652 <uxListRemove+0x32> @ imm = #-0x2
  9. 700ad652: 9901         	ldr	r1, [sp, #0x4]
  10. 700ad654: 2000         	movs	r0, #0x0
  11. 700ad656: 6108         	str	r0, [r1, #0x10]
  12. 700ad658: 9900         	ldr	r1, [sp]
  13. 700ad65a: 6808         	ldr	r0, [r1]
  14. 700ad65c: 3801         	subs	r0, #0x1
  15. 700ad65e: 6008         	str	r0, [r1]

P_HDR Event: Idx:65210 (Pattern: EEEE, Function: uxListRemove)
Executed Assembly Steps:
  1. 700ad660: 9800         	ldr	r0, [sp]
  2. 700ad662: 6800         	ldr	r0, [r0]
  3. 700ad664: b002         	add	sp, #0x8
  4. 700ad666: 4770         	bx	lr

Sync: Idx:65211; ID:10;	BRANCH_ADDRESS : Branch address.; Addr=0x700A797C ~[0x7C];

P_HDR Event: Idx:65212 (Pattern: EEEEEEEEEEEEEEE, Function: xTaskRemoveFromEventList)
Executed Assembly Steps:
  1. 700a797c: 9802         	ldr	r0, [sp, #0x8]
  2. 700a797e: 6ac0         	ldr	r0, [r0, #0x2c]
  3. 700a7980: f642 212c    	movw	r1, #0x2a2c
  4. 700a7984: f2c7 010b    	movt	r1, #0x700b
  5. 700a7988: 6809         	ldr	r1, [r1]
  6. 700a798a: 4288         	cmp	r0, r1
  7. 700a798c: d908         	bls	0x700a79a0 <xTaskRemoveFromEventList+0x50> @ imm = #0x10
  8. 700a79a0: 9902         	ldr	r1, [sp, #0x8]
  9. 700a79a2: 6ac8         	ldr	r0, [r1, #0x2c]
  10. 700a79a4: eb00 0280    	add.w	r2, r0, r0, lsl #2
  11. 700a79a8: f244 40f8    	movw	r0, #0x44f8
  12. 700a79ac: f2c7 0008    	movt	r0, #0x7008
  13. 700a79b0: eb00 0082    	add.w	r0, r0, r2, lsl #2
  14. 700a79b4: 3104         	adds	r1, #0x4
  15. 700a79b6: f006 fbeb    	bl	0x700ae190 <vListInsertEnd> @ imm = #0x67d6

P_HDR Event: Idx:65213 (Pattern: EEEEEEEEEEEEEEE, Function: vListInsertEnd)
Executed Assembly Steps:
  1. 700ae190: b083         	sub	sp, #0xc
  2. 700ae192: 9002         	str	r0, [sp, #0x8]
  3. 700ae194: 9101         	str	r1, [sp, #0x4]
  4. 700ae196: 9802         	ldr	r0, [sp, #0x8]
  5. 700ae198: 6840         	ldr	r0, [r0, #0x4]
  6. 700ae19a: 9000         	str	r0, [sp]
  7. 700ae19c: 9800         	ldr	r0, [sp]
  8. 700ae19e: 9901         	ldr	r1, [sp, #0x4]
  9. 700ae1a0: 6048         	str	r0, [r1, #0x4]
  10. 700ae1a2: 9800         	ldr	r0, [sp]
  11. 700ae1a4: 6880         	ldr	r0, [r0, #0x8]
  12. 700ae1a6: 9901         	ldr	r1, [sp, #0x4]
  13. 700ae1a8: 6088         	str	r0, [r1, #0x8]
  14. 700ae1aa: 9801         	ldr	r0, [sp, #0x4]
  15. 700ae1ac: 9900         	ldr	r1, [sp]

P_HDR Event: Idx:65214 (Pattern: EEEEEEEEEEEEEE, Function: vListInsertEnd)
Executed Assembly Steps:
  1. 700ae1ae: 6889         	ldr	r1, [r1, #0x8]
  2. 700ae1b0: 6048         	str	r0, [r1, #0x4]
  3. 700ae1b2: 9801         	ldr	r0, [sp, #0x4]
  4. 700ae1b4: 9900         	ldr	r1, [sp]
  5. 700ae1b6: 6088         	str	r0, [r1, #0x8]
  6. 700ae1b8: 9802         	ldr	r0, [sp, #0x8]
  7. 700ae1ba: 9901         	ldr	r1, [sp, #0x4]
  8. 700ae1bc: 6108         	str	r0, [r1, #0x10]
  9. 700ae1be: 9902         	ldr	r1, [sp, #0x8]
  10. 700ae1c0: 6808         	ldr	r0, [r1]
  11. 700ae1c2: 3001         	adds	r0, #0x1
  12. 700ae1c4: 6008         	str	r0, [r1]
  13. 700ae1c6: b003         	add	sp, #0xc
  14. 700ae1c8: 4770         	bx	lr

Sync: Idx:65216; ID:10;	BRANCH_ADDRESS : Branch address.; Addr=0x700A79BA ~[0x39BA];

P_HDR Event: Idx:65218 (Pattern: EEEEEN, Function: xTaskRemoveFromEventList)
Executed Assembly Steps:
  1. 700a79ba: f006 fb69    	bl	0x700ae090 <prvResetNextTaskUnblockTime> @ imm = #0x66d2
  2. 700ae090: f245 1028    	movw	r0, #0x5128
  3. 700ae094: f2c7 0008    	movt	r0, #0x7008
  4. 700ae098: 6800         	ldr	r0, [r0]
  5. 700ae09a: 6800         	ldr	r0, [r0]
  6. 700ae09c: b940         	cbnz	r0, 0x700ae0b0 <prvResetNextTaskUnblockTime+0x20> @ imm = #0x10

P_HDR Event: Idx:65219 (Pattern: EEEEEEE, Function: prvResetNextTaskUnblockTime)
Executed Assembly Steps:
  1. 700ae09e: e7ff         	b	0x700ae0a0 <prvResetNextTaskUnblockTime+0x10> @ imm = #-0x2
  2. 700ae0a0: f642 2134    	movw	r1, #0x2a34
  3. 700ae0a4: f2c7 010b    	movt	r1, #0x700b
  4. 700ae0a8: f04f 30ff    	mov.w	r0, #0xffffffff
  5. 700ae0ac: 6008         	str	r0, [r1]
  6. 700ae0ae: e00c         	b	0x700ae0ca <prvResetNextTaskUnblockTime+0x3a> @ imm = #0x18
  7. 700ae0ca: 4770         	bx	lr

Sync: Idx:65220; ID:10;	BRANCH_ADDRESS : Branch address.; Addr=0x700A79BE ~[0x3E];

P_HDR Event: Idx:65221 (Pattern: EEEEEEEEN, Function: xTaskRemoveFromEventList)
Executed Assembly Steps:
  1. 700a79be: e009         	b	0x700a79d4 <xTaskRemoveFromEventList+0x84> @ imm = #0x12
  2. 700a79d4: 9802         	ldr	r0, [sp, #0x8]
  3. 700a79d6: 6ac0         	ldr	r0, [r0, #0x2c]
  4. 700a79d8: f642 2100    	movw	r1, #0x2a00
  5. 700a79dc: f2c7 010b    	movt	r1, #0x700b
  6. 700a79e0: 6809         	ldr	r1, [r1]
  7. 700a79e2: 6ac9         	ldr	r1, [r1, #0x2c]
  8. 700a79e4: 4288         	cmp	r0, r1
  9. 700a79e6: d908         	bls	0x700a79fa <xTaskRemoveFromEventList+0xaa> @ imm = #0x10

P_HDR Event: Idx:65222 (Pattern: EEEEEEEEEE, Function: xTaskRemoveFromEventList)
Executed Assembly Steps:
  1. 700a79e8: e7ff         	b	0x700a79ea <xTaskRemoveFromEventList+0x9a> @ imm = #-0x2
  2. 700a79ea: 2001         	movs	r0, #0x1
  3. 700a79ec: 9001         	str	r0, [sp, #0x4]
  4. 700a79ee: f642 2150    	movw	r1, #0x2a50
  5. 700a79f2: f2c7 010b    	movt	r1, #0x700b
  6. 700a79f6: 6008         	str	r0, [r1]
  7. 700a79f8: e002         	b	0x700a7a00 <xTaskRemoveFromEventList+0xb0> @ imm = #0x4
  8. 700a7a00: 9801         	ldr	r0, [sp, #0x4]
  9. 700a7a02: b004         	add	sp, #0x10
  10. 700a7a04: bd80         	pop	{r7, pc}

Sync: Idx:65223; ID:10;	BRANCH_ADDRESS : Branch address.; Addr=0x700A318C ~[0xA318C];

P_HDR Event: Idx:65226 (Pattern: N, Function: xQueueGenericSend)
Executed Assembly Steps:
  1. 700a318c: b110         	cbz	r0, 0x700a3194 <xQueueGenericSend+0x54> @ imm = #0x4

P_HDR Event: Idx:65227 (Pattern: EE, Function: xQueueGenericSend)
Executed Assembly Steps:
  1. 700a318e: e7ff         	b	0x700a3190 <xQueueGenericSend+0x50> @ imm = #-0x2
  2. 700a3190: df00         	svc	#0x0

Sync: Idx:65228; ID:10;	BRANCH_ADDRESS : Branch address.; Addr=0x00000008 ~[0x8]; ISA=ARM(32); S; Exception=SVC;

P_HDR Event: Idx:65235 (Pattern: E, Function: xQueueGenericSend)
Executed Assembly Steps:
  1. 700a3192: e000         	b	0x700a3196 <xQueueGenericSend+0x56> @ imm = #0x0

Sync: Idx:65236; ID:10;	BRANCH_ADDRESS : Branch address.; Addr=0x700B076C ~[0x700B076C];

P_HDR Event: Idx:65241 (Pattern: EEEEEEN, Function: HwiP_svc_handler)
Executed Assembly Steps:
  1. 700b076c: f96d051f     	srsdb	sp!, #0x1f
  2. 700b0770: f102001f     	cps	#0x1f
  3. 700b0774: e92d5fff     	push	{r0, r1, r2, r3, r4, r5, r6, r7, r8, r9, r10, r11, r12, lr}
  4. 700b0778: e59f218c     	ldr	r2, [pc, #0x18c]        @ 0x700b090c <ulPortTaskHasFPUContextConst>
  5. 700b077c: e5923000     	ldr	r3, [r2]
  6. 700b0780: e3530000     	cmp	r3, #0
  7. 700b0784: 1ef11a10     	vmrsne	r1, fpscr

P_HDR Event: Idx:65242 (Pattern: N, Function: HwiP_svc_handler)
Executed Assembly Steps:
  1. 700b0788: 1d2d0b20     	vpushne	{d0, d1, d2, d3, d4, d5, d6, d7, d8, d9, d10, d11, d12, d13, d14, d15}

P_HDR Event: Idx:65243 (Pattern: N, Function: HwiP_svc_handler)
Executed Assembly Steps:
  1. 700b078c: 152d1004     	strne	r1, [sp, #-0x4]!

P_HDR Event: Idx:65244 (Pattern: EEEEEE, Function: HwiP_svc_handler)
Executed Assembly Steps:
  1. 700b0790: e52d3004     	str	r3, [sp, #-0x4]!
  2. 700b0794: e59f016c     	ldr	r0, [pc, #0x16c]        @ 0x700b0908 <pxCurrentTCBConst>
  3. 700b0798: e5901000     	ldr	r1, [r0]
  4. 700b079c: e581d000     	str	sp, [r1]
  5. 700b07a0: e59f0168     	ldr	r0, [pc, #0x168]        @ 0x700b0910 <vTaskSwitchContextConst>
  6. 700b07a4: e12fff30     	blx	r0

Sync: Idx:65245; ID:10;	BRANCH_ADDRESS : Branch address.; Addr=0x700A68A0 ~[0x700A68A0]; ISA=Thumb2;

P_HDR Event: Idx:65251 (Pattern: EEEEEEEEEEEEEEE, Function: vTaskSwitchContext)
Executed Assembly Steps:
  1. 700a68a0: b082         	sub	sp, #0x8
  2. 700a68a2: f642 2024    	movw	r0, #0x2a24
  3. 700a68a6: f2c7 000b    	movt	r0, #0x700b
  4. 700a68aa: 6800         	ldr	r0, [r0]
  5. 700a68ac: b138         	cbz	r0, 0x700a68be <vTaskSwitchContext+0x1e> @ imm = #0xe
  6. 700a68be: f642 2150    	movw	r1, #0x2a50
  7. 700a68c2: f2c7 010b    	movt	r1, #0x700b
  8. 700a68c6: 2000         	movs	r0, #0x0
  9. 700a68c8: 6008         	str	r0, [r1]
  10. 700a68ca: f642 10ac    	movw	r0, #0x29ac
  11. 700a68ce: f2c7 000b    	movt	r0, #0x700b
  12. 700a68d2: 6800         	ldr	r0, [r0]
  13. 700a68d4: f642 2100    	movw	r1, #0x2a00
  14. 700a68d8: f2c7 010b    	movt	r1, #0x700b
  15. 700a68dc: 6809         	ldr	r1, [r1]

P_HDR Event: Idx:65252 (Pattern: EEEEEEEEEEEEEEE, Function: vTaskSwitchContext)
Executed Assembly Steps:
  1. 700a68de: f8c1 0084    	str.w	r0, [r1, #0x84]
  2. 700a68e2: f642 202c    	movw	r0, #0x2a2c
  3. 700a68e6: f2c7 000b    	movt	r0, #0x700b
  4. 700a68ea: 6800         	ldr	r0, [r0]
  5. 700a68ec: 9001         	str	r0, [sp, #0x4]
  6. 700a68ee: e7ff         	b	0x700a68f0 <vTaskSwitchContext+0x50> @ imm = #-0x2
  7. 700a68f0: 9801         	ldr	r0, [sp, #0x4]
  8. 700a68f2: eb00 0180    	add.w	r1, r0, r0, lsl #2
  9. 700a68f6: f244 40f8    	movw	r0, #0x44f8
  10. 700a68fa: f2c7 0008    	movt	r0, #0x7008
  11. 700a68fe: f850 0021    	ldr.w	r0, [r0, r1, lsl #2]
  12. 700a6902: b920         	cbnz	r0, 0x700a690e <vTaskSwitchContext+0x6e> @ imm = #0x8
  13. 700a690e: 9801         	ldr	r0, [sp, #0x4]
  14. 700a6910: eb00 0180    	add.w	r1, r0, r0, lsl #2
  15. 700a6914: f244 40f8    	movw	r0, #0x44f8

P_HDR Event: Idx:65253 (Pattern: EEEEEEEEEEEEEE, Function: vTaskSwitchContext)
Executed Assembly Steps:
  1. 700a6918: f2c7 0008    	movt	r0, #0x7008
  2. 700a691c: eb00 0081    	add.w	r0, r0, r1, lsl #2
  3. 700a6920: 9000         	str	r0, [sp]
  4. 700a6922: 9900         	ldr	r1, [sp]
  5. 700a6924: 6848         	ldr	r0, [r1, #0x4]
  6. 700a6926: 6840         	ldr	r0, [r0, #0x4]
  7. 700a6928: 6048         	str	r0, [r1, #0x4]
  8. 700a692a: 9900         	ldr	r1, [sp]
  9. 700a692c: 6848         	ldr	r0, [r1, #0x4]
  10. 700a692e: 3108         	adds	r1, #0x8
  11. 700a6930: 4288         	cmp	r0, r1
  12. 700a6932: d105         	bne	0x700a6940 <vTaskSwitchContext+0xa0> @ imm = #0xa
  13. 700a6940: 9800         	ldr	r0, [sp]
  14. 700a6942: 6840         	ldr	r0, [r0, #0x4]

P_HDR Event: Idx:65254 (Pattern: EEEEEEEEEEEEEEE, Function: vTaskSwitchContext)
Executed Assembly Steps:
  1. 700a6944: 68c1         	ldr	r1, [r0, #0xc]
  2. 700a6946: f642 2000    	movw	r0, #0x2a00
  3. 700a694a: f2c7 000b    	movt	r0, #0x700b
  4. 700a694e: 6001         	str	r1, [r0]
  5. 700a6950: 9901         	ldr	r1, [sp, #0x4]
  6. 700a6952: f642 222c    	movw	r2, #0x2a2c
  7. 700a6956: f2c7 020b    	movt	r2, #0x700b
  8. 700a695a: 6011         	str	r1, [r2]
  9. 700a695c: 6800         	ldr	r0, [r0]
  10. 700a695e: f8d0 0084    	ldr.w	r0, [r0, #0x84]
  11. 700a6962: f642 11ac    	movw	r1, #0x29ac
  12. 700a6966: f2c7 010b    	movt	r1, #0x700b
  13. 700a696a: 6008         	str	r0, [r1]
  14. 700a696c: e7ff         	b	0x700a696e <vTaskSwitchContext+0xce> @ imm = #-0x2
  15. 700a696e: b002         	add	sp, #0x8

P_HDR Event: Idx:65255 (Pattern: E, Function: vTaskSwitchContext)
Executed Assembly Steps:
  1. 700a6970: 4770         	bx	lr

Sync: Idx:65256; ID:10;	BRANCH_ADDRESS : Branch address.; Addr=0x700B07A8 ~[0x700B07A8]; ISA=ARM(32);

P_HDR Event: Idx:65261 (Pattern: EEEEEEEN, Function: HwiP_svc_handler)
Executed Assembly Steps:
  1. 700b07a8: e59f0158     	ldr	r0, [pc, #0x158]        @ 0x700b0908 <pxCurrentTCBConst>
  2. 700b07ac: e5901000     	ldr	r1, [r0]
  3. 700b07b0: e591d000     	ldr	sp, [r1]
  4. 700b07b4: e59f0150     	ldr	r0, [pc, #0x150]        @ 0x700b090c <ulPortTaskHasFPUContextConst>
  5. 700b07b8: e49d1004     	ldr	r1, [sp], #4
  6. 700b07bc: e5801000     	str	r1, [r0]
  7. 700b07c0: e3510000     	cmp	r1, #0
  8. 700b07c4: 149d0004     	ldrne	r0, [sp], #4

P_HDR Event: Idx:65262 (Pattern: N, Function: HwiP_svc_handler)
Executed Assembly Steps:
  1. 700b07c8: 1cbd0b20     	vpopne	{d0, d1, d2, d3, d4, d5, d6, d7, d8, d9, d10, d11, d12, d13, d14, d15}

P_HDR Event: Idx:65264 (Pattern: N, Function: HwiP_svc_handler)
Executed Assembly Steps:
  1. 700b07cc: 1ee10a10     	vmsrne	fpscr, r0

P_HDR Event: Idx:65265 (Pattern: EEE, Function: HwiP_svc_handler)
Executed Assembly Steps:
  1. 700b07d0: f57ff01f     	clrex
  2. 700b07d4: e8bd5fff     	pop	{r0, r1, r2, r3, r4, r5, r6, r7, r8, r9, r10, r11, r12, lr}
  3. 700b07d8: f8bd0a00     	rfeia	sp!

Sync: Idx:65266; ID:10;	BRANCH_ADDRESS : Branch address.; Addr=0x700B07DC ~[0x700B07DC]; S; Exception=IRQ;

P_HDR Event: Idx:65272 (Pattern: EEEEEEEEEEEEEEE, Function: HwiP_irq_handler)
Executed Assembly Steps:
  1. 700b07dc: e24ee004     	sub	lr, lr, #4
  2. 700b07e0: e52de004     	str	lr, [sp, #-0x4]!
  3. 700b07e4: e14fe000     	mrs	lr, spsr
  4. 700b07e8: e52de004     	str	lr, [sp, #-0x4]!
  5. 700b07ec: f1020013     	cps	#0x13
  6. 700b07f0: e92d101f     	push	{r0, r1, r2, r3, r4, r12}
  7. 700b07f4: e59f3118     	ldr	r3, [pc, #0x118]        @ 0x700b0914 <ulPortInterruptNestingConst>
  8. 700b07f8: e5931000     	ldr	r1, [r3]
  9. 700b07fc: e2814001     	add	r4, r1, #1
  10. 700b0800: e5834000     	str	r4, [r3]
  11. 700b0804: eef10a10     	vmrs	r0, fpscr
  12. 700b0808: ed2d0b20     	vpush	{d0, d1, d2, d3, d4, d5, d6, d7, d8, d9, d10, d11, d12, d13, d14, d15}
  13. 700b080c: e52d0004     	str	r0, [sp, #-0x4]!
  14. 700b0810: e1a0200d     	mov	r2, sp
  15. 700b0814: e2022004     	and	r2, r2, #4

P_HDR Event: Idx:65273 (Pattern: EEEE, Function: HwiP_irq_handler)
Executed Assembly Steps:
  1. 700b0818: e04dd002     	sub	sp, sp, r2
  2. 700b081c: e92d401f     	push	{r0, r1, r2, r3, r4, lr}
  3. 700b0820: e59f10f0     	ldr	r1, [pc, #0xf0]         @ 0x700b0918 <vApplicationIRQHandlerConst>
  4. 700b0824: e12fff31     	blx	r1

Sync: Idx:65274; ID:10;	BRANCH_ADDRESS : Branch address.; Addr=0x700B0390 ~[0x700B0390]; ISA=Thumb2;

P_HDR Event: Idx:65280 (Pattern: EEEEEEEEEEEEEEE, Function: HwiP_irq_handler_c)
Executed Assembly Steps:
  1. 700b0390: b580         	push	{r7, lr}
  2. 700b0392: b086         	sub	sp, #0x18
  3. 700b0394: a804         	add	r0, sp, #0x10
  4. 700b0396: f000 f843    	bl	0x700b0420 <HwiP_getIRQ> @ imm = #0x86
  5. 700b0420: b084         	sub	sp, #0x10
  6. 700b0422: 9003         	str	r0, [sp, #0xc]
  7. 700b0424: f04f 30ff    	mov.w	r0, #0xffffffff
  8. 700b0428: 9001         	str	r0, [sp, #0x4]
  9. 700b042a: 9903         	ldr	r1, [sp, #0xc]
  10. 700b042c: 2000         	movs	r0, #0x0
  11. 700b042e: 6008         	str	r0, [r1]
  12. 700b0430: f642 10e8    	movw	r0, #0x29e8
  13. 700b0434: f2c7 000b    	movt	r0, #0x700b
  14. 700b0438: 6800         	ldr	r0, [r0]
  15. 700b043a: 3020         	adds	r0, #0x20

P_HDR Event: Idx:65281 (Pattern: EEEEEEEN, Function: HwiP_getIRQ)
Executed Assembly Steps:
  1. 700b043c: 9002         	str	r0, [sp, #0x8]
  2. 700b043e: 9802         	ldr	r0, [sp, #0x8]
  3. 700b0440: 6800         	ldr	r0, [r0]
  4. 700b0442: 9000         	str	r0, [sp]
  5. 700b0444: f89d 0003    	ldrb.w	r0, [sp, #0x3]
  6. 700b0448: 0600         	lsls	r0, r0, #0x18
  7. 700b044a: 2800         	cmp	r0, #0x0
  8. 700b044c: d508         	bpl	0x700b0460 <HwiP_getIRQ+0x40> @ imm = #0x10

P_HDR Event: Idx:65282 (Pattern: EEEEEEEEEEE, Function: HwiP_getIRQ)
Executed Assembly Steps:
  1. 700b044e: e7ff         	b	0x700b0450 <HwiP_getIRQ+0x30> @ imm = #-0x2
  2. 700b0450: 9800         	ldr	r0, [sp]
  3. 700b0452: f36f 205f    	bfc	r0, #9, #23
  4. 700b0456: 9903         	ldr	r1, [sp, #0xc]
  5. 700b0458: 6008         	str	r0, [r1]
  6. 700b045a: 2000         	movs	r0, #0x0
  7. 700b045c: 9001         	str	r0, [sp, #0x4]
  8. 700b045e: e7ff         	b	0x700b0460 <HwiP_getIRQ+0x40> @ imm = #-0x2
  9. 700b0460: 9801         	ldr	r0, [sp, #0x4]
  10. 700b0462: b004         	add	sp, #0x10
  11. 700b0464: 4770         	bx	lr

Sync: Idx:65283; ID:10;	BRANCH_ADDRESS : Branch address.; Addr=0x700B039A ~[0x1A];

P_HDR Event: Idx:65284 (Pattern: EEN, Function: HwiP_irq_handler_c)
Executed Assembly Steps:
  1. 700b039a: 9005         	str	r0, [sp, #0x14]
  2. 700b039c: 9805         	ldr	r0, [sp, #0x14]
  3. 700b039e: bb78         	cbnz	r0, 0x700b0400 <HwiP_irq_handler_c+0x70> @ imm = #0x5e

P_HDR Event: Idx:65285 (Pattern: EEEEEEEEEEEEEEE, Function: HwiP_irq_handler_c)
Executed Assembly Steps:
  1. 700b03a0: e7ff         	b	0x700b03a2 <HwiP_irq_handler_c+0x12> @ imm = #-0x2
  2. 700b03a2: 9804         	ldr	r0, [sp, #0x10]
  3. 700b03a4: f000 f864    	bl	0x700b0470 <HwiP_isPulse> @ imm = #0xc8
  4. 700b0470: b083         	sub	sp, #0xc
  5. 700b0472: 9002         	str	r0, [sp, #0x8]
  6. 700b0474: f642 10e8    	movw	r0, #0x29e8
  7. 700b0478: f2c7 000b    	movt	r0, #0x700b
  8. 700b047c: 6801         	ldr	r1, [r0]
  9. 700b047e: 9802         	ldr	r0, [sp, #0x8]
  10. 700b0480: f400 70f0    	and	r0, r0, #0x1e0
  11. 700b0484: 4408         	add	r0, r1
  12. 700b0486: f200 401c    	addw	r0, r0, #0x41c
  13. 700b048a: 9001         	str	r0, [sp, #0x4]
  14. 700b048c: 9802         	ldr	r0, [sp, #0x8]
  15. 700b048e: f000 001f    	and	r0, r0, #0x1f

P_HDR Event: Idx:65286 (Pattern: EEEEEEEE, Function: HwiP_isPulse)
Executed Assembly Steps:
  1. 700b0492: 9000         	str	r0, [sp]
  2. 700b0494: 9801         	ldr	r0, [sp, #0x4]
  3. 700b0496: 6800         	ldr	r0, [r0]
  4. 700b0498: 9900         	ldr	r1, [sp]
  5. 700b049a: 40c8         	lsrs	r0, r1
  6. 700b049c: f000 0001    	and	r0, r0, #0x1
  7. 700b04a0: b003         	add	sp, #0xc
  8. 700b04a2: 4770         	bx	lr

Sync: Idx:65287; ID:10;	BRANCH_ADDRESS : Branch address.; Addr=0x700B03A8 ~[0x28];

P_HDR Event: Idx:65288 (Pattern: EEEEEEEEEEEEE, Function: HwiP_irq_handler_c)
Executed Assembly Steps:
  1. 700b03a8: 9003         	str	r0, [sp, #0xc]
  2. 700b03aa: 9803         	ldr	r0, [sp, #0xc]
  3. 700b03ac: b120         	cbz	r0, 0x700b03b8 <HwiP_irq_handler_c+0x28> @ imm = #0x8
  4. 700b03b8: 9904         	ldr	r1, [sp, #0x10]
  5. 700b03ba: f240 0000    	movw	r0, #0x0
  6. 700b03be: f2c7 0008    	movt	r0, #0x7008
  7. 700b03c2: f850 1021    	ldr.w	r1, [r0, r1, lsl #2]
  8. 700b03c6: 9102         	str	r1, [sp, #0x8]
  9. 700b03c8: 9904         	ldr	r1, [sp, #0x10]
  10. 700b03ca: eb00 0081    	add.w	r0, r0, r1, lsl #2
  11. 700b03ce: f8d0 0800    	ldr.w	r0, [r0, #0x800]
  12. 700b03d2: 9001         	str	r0, [sp, #0x4]
  13. 700b03d4: f000 eab4    	blx	0x700b0940 <HwiP_enable> @ imm = #0x568

Sync: Idx:65289; ID:10;	BRANCH_ADDRESS : Branch address.; Addr=0x700B0940 ~[0x700B0940]; ISA=ARM(32);

P_HDR Event: Idx:65294 (Pattern: EEEE, Function: HwiP_enable)
Executed Assembly Steps:
  1. 700b0940: e10f0000     	mrs	r0, apsr
  2. 700b0944: e3c0c080     	bic	r12, r0, #128
  3. 700b0948: e129f00c     	msr	CPSR_fc, r12
  4. 700b094c: e12fff1e     	bx	lr

Sync: Idx:65296; ID:10;	BRANCH_ADDRESS : Branch address.; Addr=0x700B03D8 ~[0x700B03D8]; ISA=Thumb2;

P_HDR Event: Idx:65301 (Pattern: EN, Function: HwiP_irq_handler_c)
Executed Assembly Steps:
  1. 700b03d8: 9802         	ldr	r0, [sp, #0x8]
  2. 700b03da: b120         	cbz	r0, 0x700b03e6 <HwiP_irq_handler_c+0x56> @ imm = #0x8

P_HDR Event: Idx:65302 (Pattern: EEEE, Function: HwiP_irq_handler_c)
Executed Assembly Steps:
  1. 700b03dc: e7ff         	b	0x700b03de <HwiP_irq_handler_c+0x4e> @ imm = #-0x2
  2. 700b03de: 9902         	ldr	r1, [sp, #0x8]
  3. 700b03e0: 9801         	ldr	r0, [sp, #0x4]
  4. 700b03e2: 4788         	blx	r1

Sync: Idx:65303; ID:10;	BRANCH_ADDRESS : Branch address.; Addr=0x700AE5C0 ~[0xAE5C0];

P_HDR Event: Idx:65306 (Pattern: EEEEEEEEEEEEEEE, Function: ClockP_timerTickIsr)
Executed Assembly Steps:
  1. 700ae5c0: b580         	push	{r7, lr}
  2. 700ae5c2: b082         	sub	sp, #0x8
  3. 700ae5c4: 9001         	str	r0, [sp, #0x4]
  4. 700ae5c6: f245 0110    	movw	r1, #0x5010
  5. 700ae5ca: f2c7 0108    	movt	r1, #0x7008
  6. 700ae5ce: 680a         	ldr	r2, [r1]
  7. 700ae5d0: 6848         	ldr	r0, [r1, #0x4]
  8. 700ae5d2: 3201         	adds	r2, #0x1
  9. 700ae5d4: f140 0000    	adc	r0, r0, #0x0
  10. 700ae5d8: 600a         	str	r2, [r1]
  11. 700ae5da: 6048         	str	r0, [r1, #0x4]
  12. 700ae5dc: f7ff ffd0    	bl	0x700ae580 <vPortTimerTickHandler> @ imm = #-0x60
  13. 700ae580: b580         	push	{r7, lr}
  14. 700ae582: f000 f89d    	bl	0x700ae6c0 <vTaskEnterCritical> @ imm = #0x13a
  15. 700ae6c0: b672         	cpsid i

P_HDR Event: Idx:65307 (Pattern: EEEN, Function: vTaskEnterCritical)
Executed Assembly Steps:
  1. 700ae6c2: f642 2040    	movw	r0, #0x2a40
  2. 700ae6c6: f2c7 000b    	movt	r0, #0x700b
  3. 700ae6ca: 6800         	ldr	r0, [r0]
  4. 700ae6cc: b178         	cbz	r0, 0x700ae6ee <vTaskEnterCritical+0x2e> @ imm = #0x1e

P_HDR Event: Idx:65308 (Pattern: EEEEEEEEEEN, Function: vTaskEnterCritical)
Executed Assembly Steps:
  1. 700ae6ce: e7ff         	b	0x700ae6d0 <vTaskEnterCritical+0x10> @ imm = #-0x2
  2. 700ae6d0: f642 2000    	movw	r0, #0x2a00
  3. 700ae6d4: f2c7 000b    	movt	r0, #0x700b
  4. 700ae6d8: 6802         	ldr	r2, [r0]
  5. 700ae6da: 6d51         	ldr	r1, [r2, #0x54]
  6. 700ae6dc: 3101         	adds	r1, #0x1
  7. 700ae6de: 6551         	str	r1, [r2, #0x54]
  8. 700ae6e0: 6800         	ldr	r0, [r0]
  9. 700ae6e2: 6d40         	ldr	r0, [r0, #0x54]
  10. 700ae6e4: 2801         	cmp	r0, #0x1
  11. 700ae6e6: d101         	bne	0x700ae6ec <vTaskEnterCritical+0x2c> @ imm = #0x2

P_HDR Event: Idx:65309 (Pattern: EEEE, Function: vTaskEnterCritical)
Executed Assembly Steps:
  1. 700ae6e8: e7ff         	b	0x700ae6ea <vTaskEnterCritical+0x2a> @ imm = #-0x2
  2. 700ae6ea: e7ff         	b	0x700ae6ec <vTaskEnterCritical+0x2c> @ imm = #-0x2
  3. 700ae6ec: e000         	b	0x700ae6f0 <vTaskEnterCritical+0x30> @ imm = #0x0
  4. 700ae6f0: 4770         	bx	lr

Sync: Idx:65310; ID:10;	BRANCH_ADDRESS : Branch address.; Addr=0x700AE586 ~[0x6];

P_HDR Event: Idx:65312 (Pattern: EEEEN, Function: vPortTimerTickHandler)
Executed Assembly Steps:
  1. 700ae586: f642 2010    	movw	r0, #0x2a10
  2. 700ae58a: f2c7 000b    	movt	r0, #0x700b
  3. 700ae58e: 6800         	ldr	r0, [r0]
  4. 700ae590: 2801         	cmp	r0, #0x1
  5. 700ae592: d10c         	bne	0x700ae5ae <vPortTimerTickHandler+0x2e> @ imm = #0x18

P_HDR Event: Idx:65313 (Pattern: EEEEEEEEEEN, Function: vPortTimerTickHandler)
Executed Assembly Steps:
  1. 700ae594: e7ff         	b	0x700ae596 <vPortTimerTickHandler+0x16> @ imm = #-0x2
  2. 700ae596: f7f2 fea3    	bl	0x700a12e0 <xTaskIncrementTick> @ imm = #-0xd2ba
  3. 700a12e0: b580         	push	{r7, lr}
  4. 700a12e2: b086         	sub	sp, #0x18
  5. 700a12e4: 2000         	movs	r0, #0x0
  6. 700a12e6: 9003         	str	r0, [sp, #0xc]
  7. 700a12e8: f642 2024    	movw	r0, #0x2a24
  8. 700a12ec: f2c7 000b    	movt	r0, #0x700b
  9. 700a12f0: 6800         	ldr	r0, [r0]
  10. 700a12f2: 2800         	cmp	r0, #0x0
  11. 700a12f4: f040 80a3    	bne.w	0x700a143e <xTaskIncrementTick+0x15e> @ imm = #0x146

P_HDR Event: Idx:65314 (Pattern: EEEEEEEEEEEEEEE, Function: xTaskIncrementTick)
Executed Assembly Steps:
  1. 700a12f8: e7ff         	b	0x700a12fa <xTaskIncrementTick+0x1a> @ imm = #-0x2
  2. 700a12fa: f642 2144    	movw	r1, #0x2a44
  3. 700a12fe: f2c7 010b    	movt	r1, #0x700b
  4. 700a1302: 6808         	ldr	r0, [r1]
  5. 700a1304: 3001         	adds	r0, #0x1
  6. 700a1306: 9002         	str	r0, [sp, #0x8]
  7. 700a1308: 9802         	ldr	r0, [sp, #0x8]
  8. 700a130a: 6008         	str	r0, [r1]
  9. 700a130c: 9802         	ldr	r0, [sp, #0x8]
  10. 700a130e: b9c0         	cbnz	r0, 0x700a1342 <xTaskIncrementTick+0x62> @ imm = #0x30
  11. 700a1342: e7ff         	b	0x700a1344 <xTaskIncrementTick+0x64> @ imm = #-0x2
  12. 700a1344: 9802         	ldr	r0, [sp, #0x8]
  13. 700a1346: f642 2134    	movw	r1, #0x2a34
  14. 700a134a: f2c7 010b    	movt	r1, #0x700b
  15. 700a134e: 6809         	ldr	r1, [r1]

P_HDR Event: Idx:65315 (Pattern: EEEEEEEEEEE, Function: xTaskIncrementTick)
Executed Assembly Steps:
  1. 700a1350: 4288         	cmp	r0, r1
  2. 700a1352: d368         	blo	0x700a1426 <xTaskIncrementTick+0x146> @ imm = #0xd0
  3. 700a1426: f642 2050    	movw	r0, #0x2a50
  4. 700a142a: f2c7 000b    	movt	r0, #0x700b
  5. 700a142e: 6800         	ldr	r0, [r0]
  6. 700a1430: b118         	cbz	r0, 0x700a143a <xTaskIncrementTick+0x15a> @ imm = #0x6
  7. 700a143a: e7ff         	b	0x700a143c <xTaskIncrementTick+0x15c> @ imm = #-0x2
  8. 700a143c: e007         	b	0x700a144e <xTaskIncrementTick+0x16e> @ imm = #0xe
  9. 700a144e: 9803         	ldr	r0, [sp, #0xc]
  10. 700a1450: b006         	add	sp, #0x18
  11. 700a1452: bd80         	pop	{r7, pc}

Sync: Idx:65316; ID:10;	BRANCH_ADDRESS : Branch address.; Addr=0x700AE59A ~[0x1A];

P_HDR Event: Idx:65317 (Pattern: EEEEEEN, Function: vPortTimerTickHandler)
Executed Assembly Steps:
  1. 700ae59a: b138         	cbz	r0, 0x700ae5ac <vPortTimerTickHandler+0x2c> @ imm = #0xe
  2. 700ae5ac: e7ff         	b	0x700ae5ae <vPortTimerTickHandler+0x2e> @ imm = #-0x2
  3. 700ae5ae: f7ff f927    	bl	0x700ad800 <vTaskExitCritical> @ imm = #-0xdb2
  4. 700ad800: f642 2040    	movw	r0, #0x2a40
  5. 700ad804: f2c7 000b    	movt	r0, #0x700b
  6. 700ad808: 6800         	ldr	r0, [r0]
  7. 700ad80a: b1d0         	cbz	r0, 0x700ad842 <vTaskExitCritical+0x42> @ imm = #0x34

P_HDR Event: Idx:65318 (Pattern: EEEEEN, Function: vTaskExitCritical)
Executed Assembly Steps:
  1. 700ad80c: e7ff         	b	0x700ad80e <vTaskExitCritical+0xe> @ imm = #-0x2
  2. 700ad80e: f642 2000    	movw	r0, #0x2a00
  3. 700ad812: f2c7 000b    	movt	r0, #0x700b
  4. 700ad816: 6800         	ldr	r0, [r0]
  5. 700ad818: 6d40         	ldr	r0, [r0, #0x54]
  6. 700ad81a: b180         	cbz	r0, 0x700ad83e <vTaskExitCritical+0x3e> @ imm = #0x20

P_HDR Event: Idx:65319 (Pattern: EEEEEEEEEN, Function: vTaskExitCritical)
Executed Assembly Steps:
  1. 700ad81c: e7ff         	b	0x700ad81e <vTaskExitCritical+0x1e> @ imm = #-0x2
  2. 700ad81e: f642 2000    	movw	r0, #0x2a00
  3. 700ad822: f2c7 000b    	movt	r0, #0x700b
  4. 700ad826: 6802         	ldr	r2, [r0]
  5. 700ad828: 6d51         	ldr	r1, [r2, #0x54]
  6. 700ad82a: 3901         	subs	r1, #0x1
  7. 700ad82c: 6551         	str	r1, [r2, #0x54]
  8. 700ad82e: 6800         	ldr	r0, [r0]
  9. 700ad830: 6d40         	ldr	r0, [r0, #0x54]
  10. 700ad832: b910         	cbnz	r0, 0x700ad83a <vTaskExitCritical+0x3a> @ imm = #0x4

P_HDR Event: Idx:65320 (Pattern: EEEEEE, Function: vTaskExitCritical)
Executed Assembly Steps:
  1. 700ad834: e7ff         	b	0x700ad836 <vTaskExitCritical+0x36> @ imm = #-0x2
  2. 700ad836: b662         	cpsie i
  3. 700ad838: e000         	b	0x700ad83c <vTaskExitCritical+0x3c> @ imm = #0x0
  4. 700ad83c: e000         	b	0x700ad840 <vTaskExitCritical+0x40> @ imm = #0x0
  5. 700ad840: e000         	b	0x700ad844 <vTaskExitCritical+0x44> @ imm = #0x0
  6. 700ad844: 4770         	bx	lr

Sync: Idx:65321; ID:10;	BRANCH_ADDRESS : Branch address.; Addr=0x700AE5B2 ~[0x32];

P_HDR Event: Idx:65322 (Pattern: E, Function: vPortTimerTickHandler)
Executed Assembly Steps:
  1. 700ae5b2: bd80         	pop	{r7, pc}

Sync: Idx:65323; ID:10;	BRANCH_ADDRESS : Branch address.; Addr=0x700AE5E0 ~[0x60];

P_HDR Event: Idx:65324 (Pattern: EEEEEEEEEEEEEEE, Function: ClockP_timerTickIsr)
Executed Assembly Steps:
  1. 700ae5e0: f642 1000    	movw	r0, #0x2900
  2. 700ae5e4: f2c7 000b    	movt	r0, #0x700b
  3. 700ae5e8: 6800         	ldr	r0, [r0]
  4. 700ae5ea: f001 fa99    	bl	0x700afb20 <ClockP_timerClearOverflowInt> @ imm = #0x1532
  5. 700afb20: b580         	push	{r7, lr}
  6. 700afb22: b082         	sub	sp, #0x8
  7. 700afb24: 9001         	str	r0, [sp, #0x4]
  8. 700afb26: 9801         	ldr	r0, [sp, #0x4]
  9. 700afb28: f7ff f81a    	bl	0x700aeb60 <TimerP_clearOverflowInt> @ imm = #-0xfcc
  10. 700aeb60: b083         	sub	sp, #0xc
  11. 700aeb62: 9002         	str	r0, [sp, #0x8]
  12. 700aeb64: 2002         	movs	r0, #0x2
  13. 700aeb66: 9000         	str	r0, [sp]
  14. 700aeb68: 9802         	ldr	r0, [sp, #0x8]
  15. 700aeb6a: 3028         	adds	r0, #0x28

P_HDR Event: Idx:65325 (Pattern: EEEEEEEEEEE, Function: TimerP_clearOverflowInt)
Executed Assembly Steps:
  1. 700aeb6c: 9001         	str	r0, [sp, #0x4]
  2. 700aeb6e: 9800         	ldr	r0, [sp]
  3. 700aeb70: 9901         	ldr	r1, [sp, #0x4]
  4. 700aeb72: 6008         	str	r0, [r1]
  5. 700aeb74: 9801         	ldr	r0, [sp, #0x4]
  6. 700aeb76: 6800         	ldr	r0, [r0]
  7. 700aeb78: 9900         	ldr	r1, [sp]
  8. 700aeb7a: 4208         	tst	r0, r1
  9. 700aeb7c: d004         	beq	0x700aeb88 <TimerP_clearOverflowInt+0x28> @ imm = #0x8
  10. 700aeb88: b003         	add	sp, #0xc
  11. 700aeb8a: 4770         	bx	lr

Sync: Idx:65326; ID:10;	BRANCH_ADDRESS : Branch address.; Addr=0x700AFB2C ~[0x3B2C];

P_HDR Event: Idx:65329 (Pattern: EE, Function: ClockP_timerClearOverflowInt)
Executed Assembly Steps:
  1. 700afb2c: b002         	add	sp, #0x8
  2. 700afb2e: bd80         	pop	{r7, pc}

Sync: Idx:65330; ID:10;	BRANCH_ADDRESS : Branch address.; Addr=0x700AE5EE ~[0x25EE];

P_HDR Event: Idx:65332 (Pattern: EE, Function: ClockP_timerTickIsr)
Executed Assembly Steps:
  1. 700ae5ee: b002         	add	sp, #0x8
  2. 700ae5f0: bd80         	pop	{r7, pc}

Sync: Idx:65333; ID:10;	BRANCH_ADDRESS : Branch address.; Addr=0x700B03E4 ~[0xB03E4];

P_HDR Event: Idx:65336 (Pattern: EE, Function: HwiP_irq_handler_c)
Executed Assembly Steps:
  1. 700b03e4: e7ff         	b	0x700b03e6 <HwiP_irq_handler_c+0x56> @ imm = #-0x2
  2. 700b03e6: f000 ea9c    	blx	0x700b0920 <HwiP_disable> @ imm = #0x538

Sync: Idx:65337; ID:10;	BRANCH_ADDRESS : Branch address.; Addr=0x700B0920 ~[0x700B0920]; ISA=ARM(32);

P_HDR Event: Idx:65342 (Pattern: EEEE, Function: HwiP_disable)
Executed Assembly Steps:
  1. 700b0920: e10f0000     	mrs	r0, apsr
  2. 700b0924: e380c080     	orr	r12, r0, #128
  3. 700b0928: e129f00c     	msr	CPSR_fc, r12
  4. 700b092c: e12fff1e     	bx	lr

Sync: Idx:65344; ID:10;	BRANCH_ADDRESS : Branch address.; Addr=0x700B03EA ~[0x700B03EA]; ISA=Thumb2;

P_HDR Event: Idx:65349 (Pattern: EN, Function: HwiP_irq_handler_c)
Executed Assembly Steps:
  1. 700b03ea: 9803         	ldr	r0, [sp, #0xc]
  2. 700b03ec: b920         	cbnz	r0, 0x700b03f8 <HwiP_irq_handler_c+0x68> @ imm = #0x8

P_HDR Event: Idx:65350 (Pattern: EEEEEEEEEEEEEEE, Function: HwiP_irq_handler_c)
Executed Assembly Steps:
  1. 700b03ee: e7ff         	b	0x700b03f0 <HwiP_irq_handler_c+0x60> @ imm = #-0x2
  2. 700b03f0: 9804         	ldr	r0, [sp, #0x10]
  3. 700b03f2: f7ff fd4d    	bl	0x700afe90 <HwiP_clearInt> @ imm = #-0x566
  4. 700afe90: b083         	sub	sp, #0xc
  5. 700afe92: 9002         	str	r0, [sp, #0x8]
  6. 700afe94: f642 10e8    	movw	r0, #0x29e8
  7. 700afe98: f2c7 000b    	movt	r0, #0x700b
  8. 700afe9c: 6801         	ldr	r1, [r0]
  9. 700afe9e: 9802         	ldr	r0, [sp, #0x8]
  10. 700afea0: f400 70f0    	and	r0, r0, #0x1e0
  11. 700afea4: 4408         	add	r0, r1
  12. 700afea6: f200 4004    	addw	r0, r0, #0x404
  13. 700afeaa: 9001         	str	r0, [sp, #0x4]
  14. 700afeac: 9802         	ldr	r0, [sp, #0x8]
  15. 700afeae: f000 001f    	and	r0, r0, #0x1f

P_HDR Event: Idx:65351 (Pattern: EEEEEEEE, Function: HwiP_clearInt)
Executed Assembly Steps:
  1. 700afeb2: 9000         	str	r0, [sp]
  2. 700afeb4: 9900         	ldr	r1, [sp]
  3. 700afeb6: 2001         	movs	r0, #0x1
  4. 700afeb8: 4088         	lsls	r0, r1
  5. 700afeba: 9901         	ldr	r1, [sp, #0x4]
  6. 700afebc: 6008         	str	r0, [r1]
  7. 700afebe: b003         	add	sp, #0xc
  8. 700afec0: 4770         	bx	lr

Sync: Idx:65352; ID:10;	BRANCH_ADDRESS : Branch address.; Addr=0x700B03F6 ~[0x76];

P_HDR Event: Idx:65353 (Pattern: EEEEEEEEEEEEEEE, Function: HwiP_irq_handler_c)
Executed Assembly Steps:
  1. 700b03f6: e7ff         	b	0x700b03f8 <HwiP_irq_handler_c+0x68> @ imm = #-0x2
  2. 700b03f8: 9804         	ldr	r0, [sp, #0x10]
  3. 700b03fa: f000 f859    	bl	0x700b04b0 <HwiP_ackIRQ> @ imm = #0xb2
  4. 700b04b0: b082         	sub	sp, #0x8
  5. 700b04b2: 9001         	str	r0, [sp, #0x4]
  6. 700b04b4: f642 10e8    	movw	r0, #0x29e8
  7. 700b04b8: f2c7 000b    	movt	r0, #0x700b
  8. 700b04bc: 6800         	ldr	r0, [r0]
  9. 700b04be: 3018         	adds	r0, #0x18
  10. 700b04c0: 9000         	str	r0, [sp]
  11. 700b04c2: 9801         	ldr	r0, [sp, #0x4]
  12. 700b04c4: 9900         	ldr	r1, [sp]
  13. 700b04c6: 6008         	str	r0, [r1]
  14. 700b04c8: b002         	add	sp, #0x8
  15. 700b04ca: 4770         	bx	lr

Sync: Idx:65354; ID:10;	BRANCH_ADDRESS : Branch address.; Addr=0x700B03FE ~[0x7E];

P_HDR Event: Idx:65355 (Pattern: EEE, Function: HwiP_irq_handler_c)
Executed Assembly Steps:
  1. 700b03fe: e00c         	b	0x700b041a <HwiP_irq_handler_c+0x8a> @ imm = #0x18
  2. 700b041a: b006         	add	sp, #0x18
  3. 700b041c: bd80         	pop	{r7, pc}

Sync: Idx:65356; ID:10;	BRANCH_ADDRESS : Branch address.; Addr=0x700B0828 ~[0x700B0828]; ISA=ARM(32);

P_HDR Event: Idx:65362 (Pattern: EEEEEEEEEEN, Function: HwiP_irq_handler)
Executed Assembly Steps:
  1. 700b0828: e8bd401f     	pop	{r0, r1, r2, r3, r4, lr}
  2. 700b082c: e08dd002     	add	sp, sp, r2
  3. 700b0830: f10c0080     	cpsid	i
  4. 700b0834: f57ff04f     	dsb	sy
  5. 700b0838: f57ff06f     	isb	sy
  6. 700b083c: e49d0004     	ldr	r0, [sp], #4
  7. 700b0840: ecbd0b20     	vpop	{d0, d1, d2, d3, d4, d5, d6, d7, d8, d9, d10, d11, d12, d13, d14, d15}
  8. 700b0844: eee10a10     	vmsr	fpscr, r0
  9. 700b0848: e5831000     	str	r1, [r3]
  10. 700b084c: e3510000     	cmp	r1, #0
  11. 700b0850: 1a000003     	bne	0x700b0864 <exit_without_switch> @ imm = #0xc

P_HDR Event: Idx:65363 (Pattern: EEEN, Function: HwiP_irq_handler)
Executed Assembly Steps:
  1. 700b0854: e59f10c0     	ldr	r1, [pc, #0xc0]         @ 0x700b091c <vApplicationIRQHandlerConst+0x4>
  2. 700b0858: e5910000     	ldr	r0, [r1]
  3. 700b085c: e3500000     	cmp	r0, #0
  4. 700b0860: 1a000005     	bne	0x700b087c <switch_before_exit> @ imm = #0x14

P_HDR Event: Idx:65364 (Pattern: EEEEEE, Function: exit_without_switch)
Executed Assembly Steps:
  1. 700b0864: e8bd101f     	pop	{r0, r1, r2, r3, r4, r12}
  2. 700b0868: f1020012     	cps	#0x12
  3. 700b086c: e49de004     	ldr	lr, [sp], #4
  4. 700b0870: e16ff00e     	msr	SPSR_fsxc, lr
  5. 700b0874: e49de004     	ldr	lr, [sp], #4
  6. 700b0878: e1b0f00e     	movs	pc, lr

Sync: Idx:65365; ID:10;	BRANCH_ADDRESS : Branch address.; Addr=0x700A127A ~[0x700A127A]; ISA=Thumb2;

P_HDR Event: Idx:65370 (Pattern: EEEEEEEEEN, Function: xQueueSemaphoreTake)
Executed Assembly Steps:
  1. 700a127a: e000         	b	0x700a127e <xQueueSemaphoreTake+0x11e> @ imm = #0x0
  2. 700a127e: e005         	b	0x700a128c <xQueueSemaphoreTake+0x12c> @ imm = #0xa
  3. 700a128c: e01f         	b	0x700a12ce <xQueueSemaphoreTake+0x16e> @ imm = #0x3e
  4. 700a12ce: e751         	b	0x700a1174 <xQueueSemaphoreTake+0x14> @ imm = #-0x15e
  5. 700a1174: f00d faa4    	bl	0x700ae6c0 <vTaskEnterCritical> @ imm = #0xd548
  6. 700ae6c0: b672         	cpsid i
  7. 700ae6c2: f642 2040    	movw	r0, #0x2a40
  8. 700ae6c6: f2c7 000b    	movt	r0, #0x700b
  9. 700ae6ca: 6800         	ldr	r0, [r0]
  10. 700ae6cc: b178         	cbz	r0, 0x700ae6ee <vTaskEnterCritical+0x2e> @ imm = #0x1e

P_HDR Event: Idx:65371 (Pattern: EEEEEEEEEEN, Function: vTaskEnterCritical)
Executed Assembly Steps:
  1. 700ae6ce: e7ff         	b	0x700ae6d0 <vTaskEnterCritical+0x10> @ imm = #-0x2
  2. 700ae6d0: f642 2000    	movw	r0, #0x2a00
  3. 700ae6d4: f2c7 000b    	movt	r0, #0x700b
  4. 700ae6d8: 6802         	ldr	r2, [r0]
  5. 700ae6da: 6d51         	ldr	r1, [r2, #0x54]
  6. 700ae6dc: 3101         	adds	r1, #0x1
  7. 700ae6de: 6551         	str	r1, [r2, #0x54]
  8. 700ae6e0: 6800         	ldr	r0, [r0]
  9. 700ae6e2: 6d40         	ldr	r0, [r0, #0x54]
  10. 700ae6e4: 2801         	cmp	r0, #0x1
  11. 700ae6e6: d101         	bne	0x700ae6ec <vTaskEnterCritical+0x2c> @ imm = #0x2

P_HDR Event: Idx:65372 (Pattern: EEEE, Function: vTaskEnterCritical)
Executed Assembly Steps:
  1. 700ae6e8: e7ff         	b	0x700ae6ea <vTaskEnterCritical+0x2a> @ imm = #-0x2
  2. 700ae6ea: e7ff         	b	0x700ae6ec <vTaskEnterCritical+0x2c> @ imm = #-0x2
  3. 700ae6ec: e000         	b	0x700ae6f0 <vTaskEnterCritical+0x30> @ imm = #0x0
  4. 700ae6f0: 4770         	bx	lr

Sync: Idx:65373; ID:10;	BRANCH_ADDRESS : Branch address.; Addr=0x700A1178 ~[0x1178];

P_HDR Event: Idx:65376 (Pattern: EEEEN, Function: xQueueSemaphoreTake)
Executed Assembly Steps:
  1. 700a1178: 9803         	ldr	r0, [sp, #0xc]
  2. 700a117a: 6b80         	ldr	r0, [r0, #0x38]
  3. 700a117c: 9001         	str	r0, [sp, #0x4]
  4. 700a117e: 9801         	ldr	r0, [sp, #0x4]
  5. 700a1180: b310         	cbz	r0, 0x700a11c8 <xQueueSemaphoreTake+0x68> @ imm = #0x44

P_HDR Event: Idx:65377 (Pattern: EEEEEEEN, Function: xQueueSemaphoreTake)
Executed Assembly Steps:
  1. 700a1182: e7ff         	b	0x700a1184 <xQueueSemaphoreTake+0x24> @ imm = #-0x2
  2. 700a1184: 9801         	ldr	r0, [sp, #0x4]
  3. 700a1186: 3801         	subs	r0, #0x1
  4. 700a1188: 9903         	ldr	r1, [sp, #0xc]
  5. 700a118a: 6388         	str	r0, [r1, #0x38]
  6. 700a118c: 9803         	ldr	r0, [sp, #0xc]
  7. 700a118e: 6800         	ldr	r0, [r0]
  8. 700a1190: b928         	cbnz	r0, 0x700a119e <xQueueSemaphoreTake+0x3e> @ imm = #0xa

P_HDR Event: Idx:65378 (Pattern: EEEEEN, Function: xQueueSemaphoreTake)
Executed Assembly Steps:
  1. 700a1192: e7ff         	b	0x700a1194 <xQueueSemaphoreTake+0x34> @ imm = #-0x2
  2. 700a1194: f00d fd14    	bl	0x700aebc0 <pvTaskIncrementMutexHeldCount> @ imm = #0xda28
  3. 700aebc0: f642 2000    	movw	r0, #0x2a00
  4. 700aebc4: f2c7 000b    	movt	r0, #0x700b
  5. 700aebc8: 6800         	ldr	r0, [r0]
  6. 700aebca: b148         	cbz	r0, 0x700aebe0 <pvTaskIncrementMutexHeldCount+0x20> @ imm = #0x12

P_HDR Event: Idx:65379 (Pattern: EEEEEEEEEEEE, Function: pvTaskIncrementMutexHeldCount)
Executed Assembly Steps:
  1. 700aebcc: e7ff         	b	0x700aebce <pvTaskIncrementMutexHeldCount+0xe> @ imm = #-0x2
  2. 700aebce: f642 2000    	movw	r0, #0x2a00
  3. 700aebd2: f2c7 000b    	movt	r0, #0x700b
  4. 700aebd6: 6801         	ldr	r1, [r0]
  5. 700aebd8: 6e48         	ldr	r0, [r1, #0x64]
  6. 700aebda: 3001         	adds	r0, #0x1
  7. 700aebdc: 6648         	str	r0, [r1, #0x64]
  8. 700aebde: e7ff         	b	0x700aebe0 <pvTaskIncrementMutexHeldCount+0x20> @ imm = #-0x2
  9. 700aebe0: f642 2000    	movw	r0, #0x2a00
  10. 700aebe4: f2c7 000b    	movt	r0, #0x700b
  11. 700aebe8: 6800         	ldr	r0, [r0]
  12. 700aebea: 4770         	bx	lr

Sync: Idx:65380; ID:10;	BRANCH_ADDRESS : Branch address.; Addr=0x700A1198 ~[0x1198];

P_HDR Event: Idx:65382 (Pattern: EEEEEEEEEEEN, Function: xQueueSemaphoreTake)
Executed Assembly Steps:
  1. 700a1198: 9903         	ldr	r1, [sp, #0xc]
  2. 700a119a: 6088         	str	r0, [r1, #0x8]
  3. 700a119c: e000         	b	0x700a11a0 <xQueueSemaphoreTake+0x40> @ imm = #0x0
  4. 700a11a0: 9803         	ldr	r0, [sp, #0xc]
  5. 700a11a2: 6900         	ldr	r0, [r0, #0x10]
  6. 700a11a4: b150         	cbz	r0, 0x700a11bc <xQueueSemaphoreTake+0x5c> @ imm = #0x14
  7. 700a11bc: e7ff         	b	0x700a11be <xQueueSemaphoreTake+0x5e> @ imm = #-0x2
  8. 700a11be: f00c fb1f    	bl	0x700ad800 <vTaskExitCritical> @ imm = #0xc63e
  9. 700ad800: f642 2040    	movw	r0, #0x2a40
  10. 700ad804: f2c7 000b    	movt	r0, #0x700b
  11. 700ad808: 6800         	ldr	r0, [r0]
  12. 700ad80a: b1d0         	cbz	r0, 0x700ad842 <vTaskExitCritical+0x42> @ imm = #0x34

P_HDR Event: Idx:65383 (Pattern: EEEEEN, Function: vTaskExitCritical)
Executed Assembly Steps:
  1. 700ad80c: e7ff         	b	0x700ad80e <vTaskExitCritical+0xe> @ imm = #-0x2
  2. 700ad80e: f642 2000    	movw	r0, #0x2a00
  3. 700ad812: f2c7 000b    	movt	r0, #0x700b
  4. 700ad816: 6800         	ldr	r0, [r0]
  5. 700ad818: 6d40         	ldr	r0, [r0, #0x54]
  6. 700ad81a: b180         	cbz	r0, 0x700ad83e <vTaskExitCritical+0x3e> @ imm = #0x20

P_HDR Event: Idx:65384 (Pattern: EEEEEEEEEN, Function: vTaskExitCritical)
Executed Assembly Steps:
  1. 700ad81c: e7ff         	b	0x700ad81e <vTaskExitCritical+0x1e> @ imm = #-0x2
  2. 700ad81e: f642 2000    	movw	r0, #0x2a00
  3. 700ad822: f2c7 000b    	movt	r0, #0x700b
  4. 700ad826: 6802         	ldr	r2, [r0]
  5. 700ad828: 6d51         	ldr	r1, [r2, #0x54]
  6. 700ad82a: 3901         	subs	r1, #0x1
  7. 700ad82c: 6551         	str	r1, [r2, #0x54]
  8. 700ad82e: 6800         	ldr	r0, [r0]
  9. 700ad830: 6d40         	ldr	r0, [r0, #0x54]
  10. 700ad832: b910         	cbnz	r0, 0x700ad83a <vTaskExitCritical+0x3a> @ imm = #0x4

P_HDR Event: Idx:65385 (Pattern: EEEEEE, Function: vTaskExitCritical)
Executed Assembly Steps:
  1. 700ad834: e7ff         	b	0x700ad836 <vTaskExitCritical+0x36> @ imm = #-0x2
  2. 700ad836: b662         	cpsie i
  3. 700ad838: e000         	b	0x700ad83c <vTaskExitCritical+0x3c> @ imm = #0x0
  4. 700ad83c: e000         	b	0x700ad840 <vTaskExitCritical+0x40> @ imm = #0x0
  5. 700ad840: e000         	b	0x700ad844 <vTaskExitCritical+0x44> @ imm = #0x0
  6. 700ad844: 4770         	bx	lr

Sync: Idx:65386; ID:10;	BRANCH_ADDRESS : Branch address.; Addr=0x700A11C2 ~[0x42];

P_HDR Event: Idx:65387 (Pattern: EEEEEE, Function: xQueueSemaphoreTake)
Executed Assembly Steps:
  1. 700a11c2: 2001         	movs	r0, #0x1
  2. 700a11c4: 9009         	str	r0, [sp, #0x24]
  3. 700a11c6: e083         	b	0x700a12d0 <xQueueSemaphoreTake+0x170> @ imm = #0x106
  4. 700a12d0: 9809         	ldr	r0, [sp, #0x24]
  5. 700a12d2: b00a         	add	sp, #0x28
  6. 700a12d4: bd80         	pop	{r7, pc}

Sync: Idx:65388; ID:10;	BRANCH_ADDRESS : Branch address.; Addr=0x700AF4B6 ~[0xAF4B6];

P_HDR Event: Idx:65392 (Pattern: EEN, Function: tm_mutex_get)
Executed Assembly Steps:
  1. 700af4b6: 3801         	subs	r0, #0x1
  2. 700af4b8: bf18         	it	ne
  3. 700af4ba: 2001         	movne	r0, #0x1

P_HDR Event: Idx:65393 (Pattern: E, Function: tm_mutex_get)
Executed Assembly Steps:
  1. 700af4bc: bd80         	pop	{r7, pc}

Sync: Idx:65394; ID:10;	BRANCH_ADDRESS : Branch address.; Addr=0x700A1014 ~[0xA1014];

P_HDR Event: Idx:65397 (Pattern: N, Function: HighPrioTask)
Executed Assembly Steps:
  1. 700a1014: b928         	cbnz	r0, 0x700a1022 <HighPrioTask+0x42> @ imm = #0xa

P_HDR Event: Idx:65398 (Pattern: EEEEEEEEEEEEEEE, Function: HighPrioTask)
Executed Assembly Steps:
  1. 700a1016: 4620         	mov	r0, r4
  2. 700a1018: f00e fe92    	bl	0x700afd40 <tm_pmu_profile_end> @ imm = #0xed24
  3. 700afd40: f7f5 bd26    	b.w	0x700a5790 <PMU_profileEnd> @ imm = #-0xa5b4
  4. 700a5790: b580         	push	{r7, lr}
  5. 700a5792: b090         	sub	sp, #0x40
  6. 700a5794: 900e         	str	r0, [sp, #0x38]
  7. 700a5796: f243 0080    	movw	r0, #0x3080
  8. 700a579a: f2c7 0008    	movt	r0, #0x7008
  9. 700a579e: 6800         	ldr	r0, [r0]
  10. 700a57a0: 2840         	cmp	r0, #0x40
  11. 700a57a2: d304         	blo	0x700a57ae <PMU_profileEnd+0x1e> @ imm = #0x8
  12. 700a57ae: 2000         	movs	r0, #0x0
  13. 700a57b0: 9000         	str	r0, [sp]
  14. 700a57b2: 900d         	str	r0, [sp, #0x34]
  15. 700a57b4: 201f         	movs	r0, #0x1f

P_HDR Event: Idx:65399 (Pattern: E, Function: PMU_profileEnd)
Executed Assembly Steps:
  1. 700a57b6: f7fc ec52    	blx	0x700a205c <CSL_armR5PmuReadCntr> @ imm = #-0x375c

Sync: Idx:65400; ID:10;	BRANCH_ADDRESS : Branch address.; Addr=0x700A205C ~[0x700A205C]; ISA=ARM(32);

P_HDR Event: Idx:65405 (Pattern: EEEEEE, Function: CSL_armR5PmuReadCntr)
Executed Assembly Steps:
  1. 700a205c: e52de004     	str	lr, [sp, #-0x4]!
  2. 700a2060: e350001f     	cmp	r0, #31
  3. 700a2064: 0a000002     	beq	0x700a2074 <armR5PmuReadCntr_cycles> @ imm = #0x8
  4. 700a2074: ee190f1d     	mrc	p15, #0x0, r0, c9, c13, #0x0
  5. 700a2078: e49de004     	ldr	lr, [sp], #4
  6. 700a207c: e12fff1e     	bx	lr

Sync: Idx:65406; ID:10;	BRANCH_ADDRESS : Branch address.; Addr=0x700A57BA ~[0x700A57BA]; ISA=Thumb2;

P_HDR Event: Idx:65414 (Pattern: EEEE, Function: PMU_profileEnd)
Executed Assembly Steps:
  1. 700a57ba: 4601         	mov	r1, r0
  2. 700a57bc: 9800         	ldr	r0, [sp]
  3. 700a57be: 910c         	str	r1, [sp, #0x30]
  4. 700a57c0: f7fc ec4c    	blx	0x700a205c <CSL_armR5PmuReadCntr> @ imm = #-0x3768

Sync: Idx:65415; ID:10;	BRANCH_ADDRESS : Branch address.; Addr=0x700A205C ~[0x700A205C]; ISA=ARM(32);

P_HDR Event: Idx:65420 (Pattern: EEN, Function: CSL_armR5PmuReadCntr)
Executed Assembly Steps:
  1. 700a205c: e52de004     	str	lr, [sp, #-0x4]!
  2. 700a2060: e350001f     	cmp	r0, #31
  3. 700a2064: 0a000002     	beq	0x700a2074 <armR5PmuReadCntr_cycles> @ imm = #0x8

P_HDR Event: Idx:65421 (Pattern: EEEE, Function: CSL_armR5PmuReadCntr)
Executed Assembly Steps:
  1. 700a2068: ebffffc5     	bl	0x700a1f84 <CSL_armR5PmuSelectCntr> @ imm = #-0xec
  2. 700a1f84: e200001f     	and	r0, r0, #31
  3. 700a1f88: ee090fbc     	mcr	p15, #0x0, r0, c9, c12, #0x5
  4. 700a1f8c: e12fff1e     	bx	lr

Sync: Idx:65424; ID:10;	BRANCH_ADDRESS : Branch address.; Addr=0x700A206C ~[0x6C];

P_HDR Event: Idx:65425 (Pattern: EEEE, Function: CSL_armR5PmuReadCntr)
Executed Assembly Steps:
  1. 700a206c: ee190f5d     	mrc	p15, #0x0, r0, c9, c13, #0x2
  2. 700a2070: ea000000     	b	0x700a2078 <armR5PmuReadCntr_00> @ imm = #0x0
  3. 700a2078: e49de004     	ldr	lr, [sp], #4
  4. 700a207c: e12fff1e     	bx	lr

Sync: Idx:65426; ID:10;	BRANCH_ADDRESS : Branch address.; Addr=0x700A57C4 ~[0x700A57C4]; ISA=Thumb2;

P_HDR Event: Idx:65431 (Pattern: EEE, Function: PMU_profileEnd)
Executed Assembly Steps:
  1. 700a57c4: 900b         	str	r0, [sp, #0x2c]
  2. 700a57c6: 2001         	movs	r0, #0x1
  3. 700a57c8: f7fc ec48    	blx	0x700a205c <CSL_armR5PmuReadCntr> @ imm = #-0x3770

Sync: Idx:65432; ID:10;	BRANCH_ADDRESS : Branch address.; Addr=0x700A205C ~[0x700A205C]; ISA=ARM(32);

P_HDR Event: Idx:65437 (Pattern: EEN, Function: CSL_armR5PmuReadCntr)
Executed Assembly Steps:
  1. 700a205c: e52de004     	str	lr, [sp, #-0x4]!
  2. 700a2060: e350001f     	cmp	r0, #31
  3. 700a2064: 0a000002     	beq	0x700a2074 <armR5PmuReadCntr_cycles> @ imm = #0x8

P_HDR Event: Idx:65438 (Pattern: EEEE, Function: CSL_armR5PmuReadCntr)
Executed Assembly Steps:
  1. 700a2068: ebffffc5     	bl	0x700a1f84 <CSL_armR5PmuSelectCntr> @ imm = #-0xec
  2. 700a1f84: e200001f     	and	r0, r0, #31
  3. 700a1f88: ee090fbc     	mcr	p15, #0x0, r0, c9, c12, #0x5
  4. 700a1f8c: e12fff1e     	bx	lr

Sync: Idx:65440; ID:10;	BRANCH_ADDRESS : Branch address.; Addr=0x700A206C ~[0x6C];

P_HDR Event: Idx:65441 (Pattern: EEEE, Function: CSL_armR5PmuReadCntr)
Executed Assembly Steps:
  1. 700a206c: ee190f5d     	mrc	p15, #0x0, r0, c9, c13, #0x2
  2. 700a2070: ea000000     	b	0x700a2078 <armR5PmuReadCntr_00> @ imm = #0x0
  3. 700a2078: e49de004     	ldr	lr, [sp], #4
  4. 700a207c: e12fff1e     	bx	lr

Sync: Idx:65442; ID:10;	BRANCH_ADDRESS : Branch address.; Addr=0x700A57CC ~[0x700A57CC]; ISA=Thumb2;

P_HDR Event: Idx:65447 (Pattern: EEE, Function: PMU_profileEnd)
Executed Assembly Steps:
  1. 700a57cc: 900a         	str	r0, [sp, #0x28]
  2. 700a57ce: 2002         	movs	r0, #0x2
  3. 700a57d0: f7fc ec44    	blx	0x700a205c <CSL_armR5PmuReadCntr> @ imm = #-0x3778

Sync: Idx:65448; ID:10;	BRANCH_ADDRESS : Branch address.; Addr=0x700A205C ~[0x700A205C]; ISA=ARM(32);

P_HDR Event: Idx:65453 (Pattern: EEN, Function: CSL_armR5PmuReadCntr)
Executed Assembly Steps:
  1. 700a205c: e52de004     	str	lr, [sp, #-0x4]!
  2. 700a2060: e350001f     	cmp	r0, #31
  3. 700a2064: 0a000002     	beq	0x700a2074 <armR5PmuReadCntr_cycles> @ imm = #0x8

P_HDR Event: Idx:65454 (Pattern: EEEE, Function: CSL_armR5PmuReadCntr)
Executed Assembly Steps:
  1. 700a2068: ebffffc5     	bl	0x700a1f84 <CSL_armR5PmuSelectCntr> @ imm = #-0xec
  2. 700a1f84: e200001f     	and	r0, r0, #31
  3. 700a1f88: ee090fbc     	mcr	p15, #0x0, r0, c9, c12, #0x5
  4. 700a1f8c: e12fff1e     	bx	lr

Sync: Idx:65456; ID:10;	BRANCH_ADDRESS : Branch address.; Addr=0x700A206C ~[0x6C];

P_HDR Event: Idx:65457 (Pattern: EEEE, Function: CSL_armR5PmuReadCntr)
Executed Assembly Steps:
  1. 700a206c: ee190f5d     	mrc	p15, #0x0, r0, c9, c13, #0x2
  2. 700a2070: ea000000     	b	0x700a2078 <armR5PmuReadCntr_00> @ imm = #0x0
  3. 700a2078: e49de004     	ldr	lr, [sp], #4
  4. 700a207c: e12fff1e     	bx	lr

Sync: Idx:65458; ID:10;	BRANCH_ADDRESS : Branch address.; Addr=0x700A57D4 ~[0x700A57D4]; ISA=Thumb2;

P_HDR Event: Idx:65463 (Pattern: EEEEEEEEEEEEEEE, Function: PMU_profileEnd)
Executed Assembly Steps:
  1. 700a57d4: 9009         	str	r0, [sp, #0x24]
  2. 700a57d6: 980b         	ldr	r0, [sp, #0x2c]
  3. 700a57d8: 9006         	str	r0, [sp, #0x18]
  4. 700a57da: 980a         	ldr	r0, [sp, #0x28]
  5. 700a57dc: 9007         	str	r0, [sp, #0x1c]
  6. 700a57de: 9809         	ldr	r0, [sp, #0x24]
  7. 700a57e0: 9008         	str	r0, [sp, #0x20]
  8. 700a57e2: f243 0280    	movw	r2, #0x3080
  9. 700a57e6: f2c7 0208    	movt	r2, #0x7008
  10. 700a57ea: 6810         	ldr	r0, [r2]
  11. 700a57ec: 9005         	str	r0, [sp, #0x14]
  12. 700a57ee: 6890         	ldr	r0, [r2, #0x8]
  13. 700a57f0: 9003         	str	r0, [sp, #0xc]
  14. 700a57f2: 6850         	ldr	r0, [r2, #0x4]
  15. 700a57f4: 9002         	str	r0, [sp, #0x8]

P_HDR Event: Idx:65464 (Pattern: EEEEEEEEE, Function: PMU_profileEnd)
Executed Assembly Steps:
  1. 700a57f6: 9805         	ldr	r0, [sp, #0x14]
  2. 700a57f8: 2134         	movs	r1, #0x34
  3. 700a57fa: fb00 2001    	mla	r0, r0, r1, r2
  4. 700a57fe: 300c         	adds	r0, #0xc
  5. 700a5800: 9001         	str	r0, [sp, #0x4]
  6. 700a5802: 980e         	ldr	r0, [sp, #0x38]
  7. 700a5804: 9901         	ldr	r1, [sp, #0x4]
  8. 700a5806: 6b09         	ldr	r1, [r1, #0x30]
  9. 700a5808: f7f6 ec8a    	blx	0x7009c120 <strcmp>     @ imm = #-0x96ec

Sync: Idx:65465; ID:10;	BRANCH_ADDRESS : Branch address.; Addr=0x7009C120 ~[0x7009C120]; ISA=ARM(32);

P_HDR Event: Idx:65470 (Pattern: EEEEN, Function: strcmp)
Executed Assembly Steps:
  1. 7009c120: e5d02000     	ldrb	r2, [r0]
  2. 7009c124: e5d13000     	ldrb	r3, [r1]
  3. 7009c128: e3520001     	cmp	r2, #1
  4. 7009c12c: 21520003     	cmphs	r2, r3
  5. 7009c130: 1a004ed2     	bne	0x700afc80 <.Lfastpath_exit> @ imm = #0x13b48

P_HDR Event: Idx:65472 (Pattern: EEEEEEEEEEEEEN, Function: strcmp)
Executed Assembly Steps:
  1. 7009c134: e16d41f0     	strd	r4, r5, [sp, #-16]!
  2. 7009c138: e1804001     	orr	r4, r0, r1
  3. 7009c13c: e1cd60f8     	strd	r6, r7, [sp, #8]
  4. 7009c140: e3e0c000     	mvn	r12, #0
  5. 7009c144: e1a02e84     	lsl	r2, r4, #29
  6. 7009c148: e3520000     	cmp	r2, #0
  7. 7009c14c: 0a000013     	beq	0x7009c1a0 <strcmp+0x80> @ imm = #0x4c
  8. 7009c1a0: e0c021d0     	ldrd	r2, r3, [r0], #16
  9. 7009c1a4: e0c161d0     	ldrd	r6, r7, [r1], #16
  10. 7009c1a8: e6525f9c     	uadd8	r5, r2, r12
  11. 7009c1ac: e0224006     	eor	r4, r2, r6
  12. 7009c1b0: e6844fbc     	sel	r4, r4, r12
  13. 7009c1b4: e3540000     	cmp	r4, #0
  14. 7009c1b8: 1a00001b     	bne	0x7009c22c <strcmp+0x10c> @ imm = #0x6c

P_HDR Event: Idx:65473 (Pattern: EEEEEEEEEEEEEEE, Function: strcmp)
Executed Assembly Steps:
  1. 7009c1bc: e6535f9c     	uadd8	r5, r3, r12
  2. 7009c1c0: e0235007     	eor	r5, r3, r7
  3. 7009c1c4: e6855fbc     	sel	r5, r5, r12
  4. 7009c1c8: e3550000     	cmp	r5, #0
  5. 7009c1cc: 1a00000b     	bne	0x7009c200 <strcmp+0xe0> @ imm = #0x2c
  6. 7009c200: e6bf5f35     	rev	r5, r5
  7. 7009c204: e16f4f15     	clz	r4, r5
  8. 7009c208: e3c44007     	bic	r4, r4, #7
  9. 7009c20c: e1a01437     	lsr	r1, r7, r4
  10. 7009c210: e1cd60d8     	ldrd	r6, r7, [sp, #8]
  11. 7009c214: e1a03433     	lsr	r3, r3, r4
  12. 7009c218: e20300ff     	and	r0, r3, #255
  13. 7009c21c: e20110ff     	and	r1, r1, #255
  14. 7009c220: e0cd41d0     	ldrd	r4, r5, [sp], #16
  15. 7009c224: e0400001     	sub	r0, r0, r1

P_HDR Event: Idx:65474 (Pattern: E, Function: strcmp)
Executed Assembly Steps:
  1. 7009c228: e12fff1e     	bx	lr

Sync: Idx:65475; ID:10;	BRANCH_ADDRESS : Branch address.; Addr=0x700A580C ~[0x700A580C]; ISA=Thumb2;

P_HDR Event: Idx:65480 (Pattern: EEN, Function: PMU_profileEnd)
Executed Assembly Steps:
  1. 700a580c: b120         	cbz	r0, 0x700a5818 <PMU_profileEnd+0x88> @ imm = #0x8
  2. 700a5818: 980d         	ldr	r0, [sp, #0x34]
  3. 700a581a: bb58         	cbnz	r0, 0x700a5874 <PMU_profileEnd+0xe4> @ imm = #0x56

P_HDR Event: Idx:65481 (Pattern: EEEN, Function: PMU_profileEnd)
Executed Assembly Steps:
  1. 700a581c: e7ff         	b	0x700a581e <PMU_profileEnd+0x8e> @ imm = #-0x2
  2. 700a581e: 9802         	ldr	r0, [sp, #0x8]
  3. 700a5820: 2801         	cmp	r0, #0x1
  4. 700a5822: d106         	bne	0x700a5832 <PMU_profileEnd+0xa2> @ imm = #0xc

P_HDR Event: Idx:65482 (Pattern: EEEEEEEEEEEEEN, Function: PMU_profileEnd)
Executed Assembly Steps:
  1. 700a5824: e7ff         	b	0x700a5826 <PMU_profileEnd+0x96> @ imm = #-0x2
  2. 700a5826: 980c         	ldr	r0, [sp, #0x30]
  3. 700a5828: 9901         	ldr	r1, [sp, #0x4]
  4. 700a582a: 6aca         	ldr	r2, [r1, #0x2c]
  5. 700a582c: 1a80         	subs	r0, r0, r2
  6. 700a582e: 62c8         	str	r0, [r1, #0x2c]
  7. 700a5830: e7ff         	b	0x700a5832 <PMU_profileEnd+0xa2> @ imm = #-0x2
  8. 700a5832: 2000         	movs	r0, #0x0
  9. 700a5834: 9004         	str	r0, [sp, #0x10]
  10. 700a5836: e7ff         	b	0x700a5838 <PMU_profileEnd+0xa8> @ imm = #-0x2
  11. 700a5838: 9804         	ldr	r0, [sp, #0x10]
  12. 700a583a: 9903         	ldr	r1, [sp, #0xc]
  13. 700a583c: 4288         	cmp	r0, r1
  14. 700a583e: d211         	bhs	0x700a5864 <PMU_profileEnd+0xd4> @ imm = #0x22

P_HDR Event: Idx:65483 (Pattern: EEEEEEEEEEEEEEE, Function: PMU_profileEnd)
Executed Assembly Steps:
  1. 700a5840: e7ff         	b	0x700a5842 <PMU_profileEnd+0xb2> @ imm = #-0x2
  2. 700a5842: 9a04         	ldr	r2, [sp, #0x10]
  3. 700a5844: a806         	add	r0, sp, #0x18
  4. 700a5846: f850 0022    	ldr.w	r0, [r0, r2, lsl #2]
  5. 700a584a: 9901         	ldr	r1, [sp, #0x4]
  6. 700a584c: eb02 0242    	add.w	r2, r2, r2, lsl #1
  7. 700a5850: eb01 0182    	add.w	r1, r1, r2, lsl #2
  8. 700a5854: 688a         	ldr	r2, [r1, #0x8]
  9. 700a5856: 1a80         	subs	r0, r0, r2
  10. 700a5858: 6088         	str	r0, [r1, #0x8]
  11. 700a585a: e7ff         	b	0x700a585c <PMU_profileEnd+0xcc> @ imm = #-0x2
  12. 700a585c: 9804         	ldr	r0, [sp, #0x10]
  13. 700a585e: 3001         	adds	r0, #0x1
  14. 700a5860: 9004         	str	r0, [sp, #0x10]
  15. 700a5862: e7e9         	b	0x700a5838 <PMU_profileEnd+0xa8> @ imm = #-0x2e

P_HDR Event: Idx:65484 (Pattern: EEEN, Function: PMU_profileEnd)
Executed Assembly Steps:
  1. 700a5838: 9804         	ldr	r0, [sp, #0x10]
  2. 700a583a: 9903         	ldr	r1, [sp, #0xc]
  3. 700a583c: 4288         	cmp	r0, r1
  4. 700a583e: d211         	bhs	0x700a5864 <PMU_profileEnd+0xd4> @ imm = #0x22

P_HDR Event: Idx:65485 (Pattern: EEEEEEEEEEEEEEE, Function: PMU_profileEnd)
Executed Assembly Steps:
  1. 700a5840: e7ff         	b	0x700a5842 <PMU_profileEnd+0xb2> @ imm = #-0x2
  2. 700a5842: 9a04         	ldr	r2, [sp, #0x10]
  3. 700a5844: a806         	add	r0, sp, #0x18
  4. 700a5846: f850 0022    	ldr.w	r0, [r0, r2, lsl #2]
  5. 700a584a: 9901         	ldr	r1, [sp, #0x4]
  6. 700a584c: eb02 0242    	add.w	r2, r2, r2, lsl #1
  7. 700a5850: eb01 0182    	add.w	r1, r1, r2, lsl #2
  8. 700a5854: 688a         	ldr	r2, [r1, #0x8]
  9. 700a5856: 1a80         	subs	r0, r0, r2
  10. 700a5858: 6088         	str	r0, [r1, #0x8]
  11. 700a585a: e7ff         	b	0x700a585c <PMU_profileEnd+0xcc> @ imm = #-0x2
  12. 700a585c: 9804         	ldr	r0, [sp, #0x10]
  13. 700a585e: 3001         	adds	r0, #0x1
  14. 700a5860: 9004         	str	r0, [sp, #0x10]
  15. 700a5862: e7e9         	b	0x700a5838 <PMU_profileEnd+0xa8> @ imm = #-0x2e

P_HDR Event: Idx:65486 (Pattern: EEEN, Function: PMU_profileEnd)
Executed Assembly Steps:
  1. 700a5838: 9804         	ldr	r0, [sp, #0x10]
  2. 700a583a: 9903         	ldr	r1, [sp, #0xc]
  3. 700a583c: 4288         	cmp	r0, r1
  4. 700a583e: d211         	bhs	0x700a5864 <PMU_profileEnd+0xd4> @ imm = #0x22

P_HDR Event: Idx:65488 (Pattern: EEEEEEEEEEEEEEE, Function: PMU_profileEnd)
Executed Assembly Steps:
  1. 700a5840: e7ff         	b	0x700a5842 <PMU_profileEnd+0xb2> @ imm = #-0x2
  2. 700a5842: 9a04         	ldr	r2, [sp, #0x10]
  3. 700a5844: a806         	add	r0, sp, #0x18
  4. 700a5846: f850 0022    	ldr.w	r0, [r0, r2, lsl #2]
  5. 700a584a: 9901         	ldr	r1, [sp, #0x4]
  6. 700a584c: eb02 0242    	add.w	r2, r2, r2, lsl #1
  7. 700a5850: eb01 0182    	add.w	r1, r1, r2, lsl #2
  8. 700a5854: 688a         	ldr	r2, [r1, #0x8]
  9. 700a5856: 1a80         	subs	r0, r0, r2
  10. 700a5858: 6088         	str	r0, [r1, #0x8]
  11. 700a585a: e7ff         	b	0x700a585c <PMU_profileEnd+0xcc> @ imm = #-0x2
  12. 700a585c: 9804         	ldr	r0, [sp, #0x10]
  13. 700a585e: 3001         	adds	r0, #0x1
  14. 700a5860: 9004         	str	r0, [sp, #0x10]
  15. 700a5862: e7e9         	b	0x700a5838 <PMU_profileEnd+0xa8> @ imm = #-0x2e

P_HDR Event: Idx:65489 (Pattern: EEEEEEEEEEEEEEE, Function: PMU_profileEnd)
Executed Assembly Steps:
  1. 700a5838: 9804         	ldr	r0, [sp, #0x10]
  2. 700a583a: 9903         	ldr	r1, [sp, #0xc]
  3. 700a583c: 4288         	cmp	r0, r1
  4. 700a583e: d211         	bhs	0x700a5864 <PMU_profileEnd+0xd4> @ imm = #0x22
  5. 700a5864: f243 0180    	movw	r1, #0x3080
  6. 700a5868: f2c7 0108    	movt	r1, #0x7008
  7. 700a586c: 6808         	ldr	r0, [r1]
  8. 700a586e: 3001         	adds	r0, #0x1
  9. 700a5870: 6008         	str	r0, [r1]
  10. 700a5872: e7ff         	b	0x700a5874 <PMU_profileEnd+0xe4> @ imm = #-0x2
  11. 700a5874: 980d         	ldr	r0, [sp, #0x34]
  12. 700a5876: 900f         	str	r0, [sp, #0x3c]
  13. 700a5878: e7ff         	b	0x700a587a <PMU_profileEnd+0xea> @ imm = #-0x2
  14. 700a587a: 980f         	ldr	r0, [sp, #0x3c]
  15. 700a587c: b010         	add	sp, #0x40

P_HDR Event: Idx:65490 (Pattern: E, Function: PMU_profileEnd)
Executed Assembly Steps:
  1. 700a587e: bd80         	pop	{r7, pc}

Sync: Idx:65491; ID:10;	BRANCH_ADDRESS : Branch address.; Addr=0x700A101C ~[0xA101C];

P_HDR Event: Idx:65494 (Pattern: E, Function: HighPrioTask)
Executed Assembly Steps:
  1. 700a101c: 2001         	movs	r0, #0x1

Sync: Idx:65495; ID:10;	BRANCH_ADDRESS : Branch address.; Addr=0x700A101C ~[0x700A101C]; S; Exception=Debug Halt; ; Cancel prev instr

