
files/zephyr.elf:     file format elf32-littlearm


Disassembly of section rom_start:

70000000 <_vector_start>:
70000000:	e59ff018 	ldr	pc, [pc, #24]	; 70000020 <CONFIG_SRAM_BASE_ADDRESS+0x20>
70000004:	e59ff018 	ldr	pc, [pc, #24]	; 70000024 <CONFIG_SRAM_BASE_ADDRESS+0x24>
70000008:	e59ff018 	ldr	pc, [pc, #24]	; 70000028 <CONFIG_SRAM_BASE_ADDRESS+0x28>
7000000c:	e59ff018 	ldr	pc, [pc, #24]	; 7000002c <CONFIG_SRAM_BASE_ADDRESS+0x2c>
70000010:	e59ff018 	ldr	pc, [pc, #24]	; 70000030 <CONFIG_SRAM_BASE_ADDRESS+0x30>
70000014:	e320f000 	nop	{0}
70000018:	e59ff014 	ldr	pc, [pc, #20]	; 70000034 <CONFIG_SRAM_BASE_ADDRESS+0x34>
7000001c:	e59ff014 	ldr	pc, [pc, #20]	; 70000038 <CONFIG_SRAM_BASE_ADDRESS+0x38>
70000020:	70000d00 	.word	0x70000d00
70000024:	70000ae8 	.word	0x70000ae8
70000028:	70000f94 	.word	0x70000f94
7000002c:	70000b2c 	.word	0x70000b2c
70000030:	70000b5c 	.word	0x70000b5c
70000034:	70000dec 	.word	0x70000dec
70000038:	70000ac9 	.word	0x70000ac9

Disassembly of section text:

70000040 <strcmp>:
70000040:	7802      	ldrb	r2, [r0, #0]
70000042:	780b      	ldrb	r3, [r1, #0]
70000044:	2a01      	cmp	r2, #1
70000046:	bf28      	it	cs
70000048:	429a      	cmpcs	r2, r3
7000004a:	f040 80d8 	bne.w	700001fe <strcmp+0x1be>
7000004e:	e96d 4504 	strd	r4, r5, [sp, #-16]!
70000052:	ea40 0401 	orr.w	r4, r0, r1
70000056:	e9cd 6702 	strd	r6, r7, [sp, #8]
7000005a:	f06f 0c00 	mvn.w	ip, #0
7000005e:	ea4f 7244 	mov.w	r2, r4, lsl #29
70000062:	b31a      	cbz	r2, 700000ac <strcmp+0x6c>
70000064:	ea80 0401 	eor.w	r4, r0, r1
70000068:	f014 0f07 	tst.w	r4, #7
7000006c:	d16b      	bne.n	70000146 <strcmp+0x106>
7000006e:	f000 0407 	and.w	r4, r0, #7
70000072:	f020 0007 	bic.w	r0, r0, #7
70000076:	f004 0503 	and.w	r5, r4, #3
7000007a:	f021 0107 	bic.w	r1, r1, #7
7000007e:	ea4f 05c5 	mov.w	r5, r5, lsl #3
70000082:	e8f0 2304 	ldrd	r2, r3, [r0], #16
70000086:	f014 0f04 	tst.w	r4, #4
7000008a:	e8f1 6704 	ldrd	r6, r7, [r1], #16
7000008e:	fa0c f405 	lsl.w	r4, ip, r5
70000092:	ea62 0204 	orn	r2, r2, r4
70000096:	ea66 0604 	orn	r6, r6, r4
7000009a:	d00b      	beq.n	700000b4 <strcmp+0x74>
7000009c:	ea63 0304 	orn	r3, r3, r4
700000a0:	4662      	mov	r2, ip
700000a2:	ea67 0704 	orn	r7, r7, r4
700000a6:	4666      	mov	r6, ip
700000a8:	e004      	b.n	700000b4 <strcmp+0x74>
700000aa:	bf00      	nop
700000ac:	e8f0 2304 	ldrd	r2, r3, [r0], #16
700000b0:	e8f1 6704 	ldrd	r6, r7, [r1], #16
700000b4:	fa82 f54c 	uadd8	r5, r2, ip
700000b8:	ea82 0406 	eor.w	r4, r2, r6
700000bc:	faa4 f48c 	sel	r4, r4, ip
700000c0:	bb6c      	cbnz	r4, 7000011e <strcmp+0xde>
700000c2:	fa83 f54c 	uadd8	r5, r3, ip
700000c6:	ea83 0507 	eor.w	r5, r3, r7
700000ca:	faa5 f58c 	sel	r5, r5, ip
700000ce:	b995      	cbnz	r5, 700000f6 <strcmp+0xb6>
700000d0:	e950 2302 	ldrd	r2, r3, [r0, #-8]
700000d4:	e951 6702 	ldrd	r6, r7, [r1, #-8]
700000d8:	fa82 f54c 	uadd8	r5, r2, ip
700000dc:	ea82 0406 	eor.w	r4, r2, r6
700000e0:	faa4 f48c 	sel	r4, r4, ip
700000e4:	fa83 f54c 	uadd8	r5, r3, ip
700000e8:	ea83 0507 	eor.w	r5, r3, r7
700000ec:	faa5 f58c 	sel	r5, r5, ip
700000f0:	4325      	orrs	r5, r4
700000f2:	d0db      	beq.n	700000ac <strcmp+0x6c>
700000f4:	b99c      	cbnz	r4, 7000011e <strcmp+0xde>
700000f6:	ba2d      	rev	r5, r5
700000f8:	fab5 f485 	clz	r4, r5
700000fc:	f024 0407 	bic.w	r4, r4, #7
70000100:	fa27 f104 	lsr.w	r1, r7, r4
70000104:	e9dd 6702 	ldrd	r6, r7, [sp, #8]
70000108:	fa23 f304 	lsr.w	r3, r3, r4
7000010c:	f003 00ff 	and.w	r0, r3, #255	; 0xff
70000110:	f001 01ff 	and.w	r1, r1, #255	; 0xff
70000114:	e8fd 4504 	ldrd	r4, r5, [sp], #16
70000118:	eba0 0001 	sub.w	r0, r0, r1
7000011c:	4770      	bx	lr
7000011e:	ba24      	rev	r4, r4
70000120:	fab4 f484 	clz	r4, r4
70000124:	f024 0407 	bic.w	r4, r4, #7
70000128:	fa26 f104 	lsr.w	r1, r6, r4
7000012c:	e9dd 6702 	ldrd	r6, r7, [sp, #8]
70000130:	fa22 f204 	lsr.w	r2, r2, r4
70000134:	f002 00ff 	and.w	r0, r2, #255	; 0xff
70000138:	f001 01ff 	and.w	r1, r1, #255	; 0xff
7000013c:	e8fd 4504 	ldrd	r4, r5, [sp], #16
70000140:	eba0 0001 	sub.w	r0, r0, r1
70000144:	4770      	bx	lr
70000146:	f014 0f03 	tst.w	r4, #3
7000014a:	d13c      	bne.n	700001c6 <strcmp+0x186>
7000014c:	f010 0403 	ands.w	r4, r0, #3
70000150:	d128      	bne.n	700001a4 <strcmp+0x164>
70000152:	f850 2b08 	ldr.w	r2, [r0], #8
70000156:	f851 3b08 	ldr.w	r3, [r1], #8
7000015a:	fa82 f54c 	uadd8	r5, r2, ip
7000015e:	ea82 0503 	eor.w	r5, r2, r3
70000162:	faa5 f58c 	sel	r5, r5, ip
70000166:	b95d      	cbnz	r5, 70000180 <strcmp+0x140>
70000168:	f850 2c04 	ldr.w	r2, [r0, #-4]
7000016c:	f851 3c04 	ldr.w	r3, [r1, #-4]
70000170:	fa82 f54c 	uadd8	r5, r2, ip
70000174:	ea82 0503 	eor.w	r5, r2, r3
70000178:	faa5 f58c 	sel	r5, r5, ip
7000017c:	2d00      	cmp	r5, #0
7000017e:	d0e8      	beq.n	70000152 <strcmp+0x112>
70000180:	ba2d      	rev	r5, r5
70000182:	fab5 f485 	clz	r4, r5
70000186:	f024 0407 	bic.w	r4, r4, #7
7000018a:	fa23 f104 	lsr.w	r1, r3, r4
7000018e:	fa22 f204 	lsr.w	r2, r2, r4
70000192:	f002 00ff 	and.w	r0, r2, #255	; 0xff
70000196:	f001 01ff 	and.w	r1, r1, #255	; 0xff
7000019a:	e8fd 4504 	ldrd	r4, r5, [sp], #16
7000019e:	eba0 0001 	sub.w	r0, r0, r1
700001a2:	4770      	bx	lr
700001a4:	ea4f 04c4 	mov.w	r4, r4, lsl #3
700001a8:	f020 0003 	bic.w	r0, r0, #3
700001ac:	f850 2b08 	ldr.w	r2, [r0], #8
700001b0:	f021 0103 	bic.w	r1, r1, #3
700001b4:	f851 3b08 	ldr.w	r3, [r1], #8
700001b8:	fa0c f404 	lsl.w	r4, ip, r4
700001bc:	ea62 0204 	orn	r2, r2, r4
700001c0:	ea63 0304 	orn	r3, r3, r4
700001c4:	e7c9      	b.n	7000015a <strcmp+0x11a>
700001c6:	f010 0403 	ands.w	r4, r0, #3
700001ca:	d01d      	beq.n	70000208 <strcmp+0x1c8>
700001cc:	eba1 0104 	sub.w	r1, r1, r4
700001d0:	f020 0003 	bic.w	r0, r0, #3
700001d4:	07e4      	lsls	r4, r4, #31
700001d6:	f850 2b04 	ldr.w	r2, [r0], #4
700001da:	d006      	beq.n	700001ea <strcmp+0x1aa>
700001dc:	d212      	bcs.n	70000204 <strcmp+0x1c4>
700001de:	788b      	ldrb	r3, [r1, #2]
700001e0:	fa5f f4a2 	uxtb.w	r4, r2, ror #16
700001e4:	1ae4      	subs	r4, r4, r3
700001e6:	d106      	bne.n	700001f6 <strcmp+0x1b6>
700001e8:	b12b      	cbz	r3, 700001f6 <strcmp+0x1b6>
700001ea:	78cb      	ldrb	r3, [r1, #3]
700001ec:	fa5f f4b2 	uxtb.w	r4, r2, ror #24
700001f0:	1ae4      	subs	r4, r4, r3
700001f2:	d100      	bne.n	700001f6 <strcmp+0x1b6>
700001f4:	b933      	cbnz	r3, 70000204 <strcmp+0x1c4>
700001f6:	4620      	mov	r0, r4
700001f8:	f85d 4b10 	ldr.w	r4, [sp], #16
700001fc:	4770      	bx	lr
700001fe:	eba2 0003 	sub.w	r0, r2, r3
70000202:	4770      	bx	lr
70000204:	f101 0104 	add.w	r1, r1, #4
70000208:	f850 2b04 	ldr.w	r2, [r0], #4
7000020c:	07cc      	lsls	r4, r1, #31
7000020e:	f021 0103 	bic.w	r1, r1, #3
70000212:	f851 3b04 	ldr.w	r3, [r1], #4
70000216:	d848      	bhi.n	700002aa <strcmp+0x26a>
70000218:	d224      	bcs.n	70000264 <strcmp+0x224>
7000021a:	f022 447f 	bic.w	r4, r2, #4278190080	; 0xff000000
7000021e:	fa82 f54c 	uadd8	r5, r2, ip
70000222:	ea94 2513 	eors.w	r5, r4, r3, lsr #8
70000226:	faa5 f58c 	sel	r5, r5, ip
7000022a:	d10a      	bne.n	70000242 <strcmp+0x202>
7000022c:	b965      	cbnz	r5, 70000248 <strcmp+0x208>
7000022e:	f851 3b04 	ldr.w	r3, [r1], #4
70000232:	ea84 0402 	eor.w	r4, r4, r2
70000236:	ebb4 6f03 	cmp.w	r4, r3, lsl #24
7000023a:	d10e      	bne.n	7000025a <strcmp+0x21a>
7000023c:	f850 2b04 	ldr.w	r2, [r0], #4
70000240:	e7eb      	b.n	7000021a <strcmp+0x1da>
70000242:	ea4f 2313 	mov.w	r3, r3, lsr #8
70000246:	e055      	b.n	700002f4 <strcmp+0x2b4>
70000248:	f035 457f 	bics.w	r5, r5, #4278190080	; 0xff000000
7000024c:	d14d      	bne.n	700002ea <strcmp+0x2aa>
7000024e:	7808      	ldrb	r0, [r1, #0]
70000250:	e8fd 4504 	ldrd	r4, r5, [sp], #16
70000254:	f1c0 0000 	rsb	r0, r0, #0
70000258:	4770      	bx	lr
7000025a:	ea4f 6212 	mov.w	r2, r2, lsr #24
7000025e:	f003 03ff 	and.w	r3, r3, #255	; 0xff
70000262:	e047      	b.n	700002f4 <strcmp+0x2b4>
70000264:	ea02 441c 	and.w	r4, r2, ip, lsr #16
70000268:	fa82 f54c 	uadd8	r5, r2, ip
7000026c:	ea94 4513 	eors.w	r5, r4, r3, lsr #16
70000270:	faa5 f58c 	sel	r5, r5, ip
70000274:	d10a      	bne.n	7000028c <strcmp+0x24c>
70000276:	b965      	cbnz	r5, 70000292 <strcmp+0x252>
70000278:	f851 3b04 	ldr.w	r3, [r1], #4
7000027c:	ea84 0402 	eor.w	r4, r4, r2
70000280:	ebb4 4f03 	cmp.w	r4, r3, lsl #16
70000284:	d10c      	bne.n	700002a0 <strcmp+0x260>
70000286:	f850 2b04 	ldr.w	r2, [r0], #4
7000028a:	e7eb      	b.n	70000264 <strcmp+0x224>
7000028c:	ea4f 4313 	mov.w	r3, r3, lsr #16
70000290:	e030      	b.n	700002f4 <strcmp+0x2b4>
70000292:	ea15 451c 	ands.w	r5, r5, ip, lsr #16
70000296:	d128      	bne.n	700002ea <strcmp+0x2aa>
70000298:	880b      	ldrh	r3, [r1, #0]
7000029a:	ea4f 4212 	mov.w	r2, r2, lsr #16
7000029e:	e029      	b.n	700002f4 <strcmp+0x2b4>
700002a0:	ea4f 4212 	mov.w	r2, r2, lsr #16
700002a4:	ea03 431c 	and.w	r3, r3, ip, lsr #16
700002a8:	e024      	b.n	700002f4 <strcmp+0x2b4>
700002aa:	f002 04ff 	and.w	r4, r2, #255	; 0xff
700002ae:	fa82 f54c 	uadd8	r5, r2, ip
700002b2:	ea94 6513 	eors.w	r5, r4, r3, lsr #24
700002b6:	faa5 f58c 	sel	r5, r5, ip
700002ba:	d10a      	bne.n	700002d2 <strcmp+0x292>
700002bc:	b965      	cbnz	r5, 700002d8 <strcmp+0x298>
700002be:	f851 3b04 	ldr.w	r3, [r1], #4
700002c2:	ea84 0402 	eor.w	r4, r4, r2
700002c6:	ebb4 2f03 	cmp.w	r4, r3, lsl #8
700002ca:	d109      	bne.n	700002e0 <strcmp+0x2a0>
700002cc:	f850 2b04 	ldr.w	r2, [r0], #4
700002d0:	e7eb      	b.n	700002aa <strcmp+0x26a>
700002d2:	ea4f 6313 	mov.w	r3, r3, lsr #24
700002d6:	e00d      	b.n	700002f4 <strcmp+0x2b4>
700002d8:	f015 0fff 	tst.w	r5, #255	; 0xff
700002dc:	d105      	bne.n	700002ea <strcmp+0x2aa>
700002de:	680b      	ldr	r3, [r1, #0]
700002e0:	ea4f 2212 	mov.w	r2, r2, lsr #8
700002e4:	f023 437f 	bic.w	r3, r3, #4278190080	; 0xff000000
700002e8:	e004      	b.n	700002f4 <strcmp+0x2b4>
700002ea:	f04f 0000 	mov.w	r0, #0
700002ee:	e8fd 4504 	ldrd	r4, r5, [sp], #16
700002f2:	4770      	bx	lr
700002f4:	ba12      	rev	r2, r2
700002f6:	ba1b      	rev	r3, r3
700002f8:	fa82 f44c 	uadd8	r4, r2, ip
700002fc:	ea82 0403 	eor.w	r4, r2, r3
70000300:	faa4 f58c 	sel	r5, r4, ip
70000304:	fab5 f485 	clz	r4, r5
70000308:	fa02 f204 	lsl.w	r2, r2, r4
7000030c:	fa03 f304 	lsl.w	r3, r3, r4
70000310:	ea4f 6012 	mov.w	r0, r2, lsr #24
70000314:	e8fd 4504 	ldrd	r4, r5, [sp], #16
70000318:	eba0 6013 	sub.w	r0, r0, r3, lsr #24
7000031c:	4770      	bx	lr
7000031e:	bf00      	nop

70000320 <_OffsetAbsSyms>:
70000320:	4770      	bx	lr
70000322:	bf00      	nop

70000324 <main>:
70000324:	f000 b830 	b.w	70000388 <rtos_main_zephyr>

70000328 <tm_interrupt_handler>:
70000328:	f245 5358 	movw	r3, #21848	; 0x5558
7000032c:	f2c7 0300 	movt	r3, #28672	; 0x7000
70000330:	681b      	ldr	r3, [r3, #0]
70000332:	b103      	cbz	r3, 70000336 <tm_interrupt_handler+0xe>
70000334:	4718      	bx	r3
70000336:	4770      	bx	lr

70000338 <main_task>:
70000338:	f644 3034 	movw	r0, #19252	; 0x4b34
7000033c:	b510      	push	{r4, lr}
7000033e:	f240 34b5 	movw	r4, #949	; 0x3b5
70000342:	f2c7 0000 	movt	r0, #28672	; 0x7000
70000346:	f000 fb7d 	bl	70000a44 <printk>
7000034a:	f245 5358 	movw	r3, #21848	; 0x5558
7000034e:	f2c7 0300 	movt	r3, #28672	; 0x7000
70000352:	2204      	movs	r2, #4
70000354:	f2c7 0400 	movt	r4, #28672	; 0x7000
70000358:	2101      	movs	r1, #1
7000035a:	200a      	movs	r0, #10
7000035c:	601c      	str	r4, [r3, #0]
7000035e:	f000 ff4f 	bl	70001200 <z_vim_irq_priority_set>
70000362:	2200      	movs	r2, #0
70000364:	2101      	movs	r1, #1
70000366:	200a      	movs	r0, #10
70000368:	f000 fb9c 	bl	70000aa4 <z_soc_irq_priority_set>
7000036c:	200a      	movs	r0, #10
7000036e:	f000 fb9b 	bl	70000aa8 <z_soc_irq_enable>
70000372:	200a      	movs	r0, #10
70000374:	f000 ff70 	bl	70001258 <z_vim_irq_enable>
70000378:	f000 f8fe 	bl	70000578 <main_sync>
7000037c:	f002 f9ec 	bl	70002758 <z_impl_k_sched_current_thread_query>
70000380:	e8bd 4010 	ldmia.w	sp!, {r4, lr}
70000384:	f002 b9ee 	b.w	70002764 <z_impl_k_thread_abort>

70000388 <rtos_main_zephyr>:
70000388:	f644 3058 	movw	r0, #19288	; 0x4b58
7000038c:	b508      	push	{r3, lr}
7000038e:	f2c7 0000 	movt	r0, #28672	; 0x7000
70000392:	f000 fb57 	bl	70000a44 <printk>
70000396:	f644 6020 	movw	r0, #20000	; 0x4e20
7000039a:	f2c7 0000 	movt	r0, #28672	; 0x7000
7000039e:	f002 f9b5 	bl	7000270c <z_impl_k_wakeup>
700003a2:	f644 3078 	movw	r0, #19320	; 0x4b78
700003a6:	f2c7 0000 	movt	r0, #28672	; 0x7000
700003aa:	f000 fb4b 	bl	70000a44 <printk>
700003ae:	2000      	movs	r0, #0
700003b0:	bd08      	pop	{r3, pc}
700003b2:	bf00      	nop

700003b4 <tm_isr_message_handler>:
700003b4:	b538      	push	{r3, r4, r5, lr}
700003b6:	f245 73e0 	movw	r3, #22496	; 0x57e0
700003ba:	2001      	movs	r0, #1
700003bc:	f245 74dc 	movw	r4, #22492	; 0x57dc
700003c0:	f2c7 0300 	movt	r3, #28672	; 0x7000
700003c4:	f245 7c5c 	movw	ip, #22364	; 0x575c
700003c8:	f2c7 0400 	movt	r4, #28672	; 0x7000
700003cc:	f2c7 0c00 	movt	ip, #28672	; 0x7000
700003d0:	681a      	ldr	r2, [r3, #0]
700003d2:	4661      	mov	r1, ip
700003d4:	f8cc 0000 	str.w	r0, [ip]
700003d8:	4402      	add	r2, r0
700003da:	601a      	str	r2, [r3, #0]
700003dc:	2202      	movs	r2, #2
700003de:	6823      	ldr	r3, [r4, #0]
700003e0:	f841 3f04 	str.w	r3, [r1, #4]!
700003e4:	6823      	ldr	r3, [r4, #0]
700003e6:	eb03 0383 	add.w	r3, r3, r3, lsl #2
700003ea:	eb02 0343 	add.w	r3, r2, r3, lsl #1
700003ee:	3201      	adds	r2, #1
700003f0:	f503 737a 	add.w	r3, r3, #1000	; 0x3e8
700003f4:	2a1f      	cmp	r2, #31
700003f6:	f841 3f04 	str.w	r3, [r1, #4]!
700003fa:	d1f3      	bne.n	700003e4 <tm_isr_message_handler+0x30>
700003fc:	4b11      	ldr	r3, [pc, #68]	; (70000444 <tm_isr_message_handler+0x90>)
700003fe:	2200      	movs	r2, #0
70000400:	f103 007c 	add.w	r0, r3, #124	; 0x7c
70000404:	f853 1f04 	ldr.w	r1, [r3, #4]!
70000408:	4298      	cmp	r0, r3
7000040a:	440a      	add	r2, r1
7000040c:	d1fa      	bne.n	70000404 <tm_isr_message_handler+0x50>
7000040e:	6820      	ldr	r0, [r4, #0]
70000410:	f245 555c 	movw	r5, #21852	; 0x555c
70000414:	f8cc 207c 	str.w	r2, [ip, #124]	; 0x7c
70000418:	f2c7 0500 	movt	r5, #28672	; 0x7000
7000041c:	eb05 1000 	add.w	r0, r5, r0, lsl #4
70000420:	f000 f9ba 	bl	70000798 <tm_pmu_profile_start>
70000424:	f245 715c 	movw	r1, #22364	; 0x575c
70000428:	2000      	movs	r0, #0
7000042a:	f2c7 0100 	movt	r1, #28672	; 0x7000
7000042e:	f000 f959 	bl	700006e4 <tm_queue_send_from_isr>
70000432:	6820      	ldr	r0, [r4, #0]
70000434:	eb05 1000 	add.w	r0, r5, r0, lsl #4
70000438:	f000 f9ee 	bl	70000818 <tm_pmu_profile_end>
7000043c:	6823      	ldr	r3, [r4, #0]
7000043e:	3301      	adds	r3, #1
70000440:	6023      	str	r3, [r4, #0]
70000442:	bd38      	pop	{r3, r4, r5, pc}
70000444:	70005758 	.word	0x70005758

70000448 <task_synchronisation_initialize>:
70000448:	b508      	push	{r3, lr}
7000044a:	f000 f8ab 	bl	700005a4 <tm_setup_pmu>
7000044e:	2001      	movs	r0, #1
70000450:	f000 f990 	bl	70000774 <tm_mutex_create>
70000454:	2001      	movs	r0, #1
70000456:	f000 f953 	bl	70000700 <tm_semaphore_create>
7000045a:	2002      	movs	r0, #2
7000045c:	f000 f950 	bl	70000700 <tm_semaphore_create>
70000460:	2001      	movs	r0, #1
70000462:	f000 f959 	bl	70000718 <tm_semaphore_get>
70000466:	f240 524d 	movw	r2, #1357	; 0x54d
7000046a:	2105      	movs	r1, #5
7000046c:	f2c7 0200 	movt	r2, #28672	; 0x7000
70000470:	2001      	movs	r0, #1
70000472:	f000 f8f3 	bl	7000065c <tm_thread_create>
70000476:	f240 5221 	movw	r2, #1313	; 0x521
7000047a:	2105      	movs	r1, #5
7000047c:	f2c7 0200 	movt	r2, #28672	; 0x7000
70000480:	2002      	movs	r0, #2
70000482:	f000 f8eb 	bl	7000065c <tm_thread_create>
70000486:	f240 42ad 	movw	r2, #1197	; 0x4ad
7000048a:	2101      	movs	r1, #1
7000048c:	f2c7 0200 	movt	r2, #28672	; 0x7000
70000490:	2003      	movs	r0, #3
70000492:	f000 f8e3 	bl	7000065c <tm_thread_create>
70000496:	2001      	movs	r0, #1
70000498:	f000 f90e 	bl	700006b8 <tm_thread_resume>
7000049c:	2002      	movs	r0, #2
7000049e:	f000 f90b 	bl	700006b8 <tm_thread_resume>
700004a2:	e8bd 4008 	ldmia.w	sp!, {r3, lr}
700004a6:	2003      	movs	r0, #3
700004a8:	f000 b906 	b.w	700006b8 <tm_thread_resume>

700004ac <reporting_thread>:
700004ac:	e92d 47f0 	stmdb	sp!, {r4, r5, r6, r7, r8, r9, sl, lr}
700004b0:	2700      	movs	r7, #0
700004b2:	f245 76e8 	movw	r6, #22504	; 0x57e8
700004b6:	f245 75e4 	movw	r5, #22500	; 0x57e4
700004ba:	f644 3aa8 	movw	sl, #19368	; 0x4ba8
700004be:	f644 39e4 	movw	r9, #19428	; 0x4be4
700004c2:	f644 4800 	movw	r8, #19456	; 0x4c00
700004c6:	463c      	mov	r4, r7
700004c8:	f2c7 0600 	movt	r6, #28672	; 0x7000
700004cc:	f2c7 0500 	movt	r5, #28672	; 0x7000
700004d0:	f2c7 0a00 	movt	sl, #28672	; 0x7000
700004d4:	f2c7 0900 	movt	r9, #28672	; 0x7000
700004d8:	f2c7 0800 	movt	r8, #28672	; 0x7000
700004dc:	201e      	movs	r0, #30
700004de:	4404      	add	r4, r0
700004e0:	f000 f8f8 	bl	700006d4 <tm_thread_sleep>
700004e4:	4621      	mov	r1, r4
700004e6:	4650      	mov	r0, sl
700004e8:	f000 faac 	bl	70000a44 <printk>
700004ec:	682a      	ldr	r2, [r5, #0]
700004ee:	6833      	ldr	r3, [r6, #0]
700004f0:	4648      	mov	r0, r9
700004f2:	4413      	add	r3, r2
700004f4:	1bd9      	subs	r1, r3, r7
700004f6:	461f      	mov	r7, r3
700004f8:	f000 faa4 	bl	70000a44 <printk>
700004fc:	6831      	ldr	r1, [r6, #0]
700004fe:	4640      	mov	r0, r8
70000500:	f000 faa0 	bl	70000a44 <printk>
70000504:	6829      	ldr	r1, [r5, #0]
70000506:	f644 4018 	movw	r0, #19480	; 0x4c18
7000050a:	f2c7 0000 	movt	r0, #28672	; 0x7000
7000050e:	f000 fa99 	bl	70000a44 <printk>
70000512:	f644 4030 	movw	r0, #19504	; 0x4c30
70000516:	f2c7 0000 	movt	r0, #28672	; 0x7000
7000051a:	f000 f9c9 	bl	700008b0 <tm_pmu_profile_print>
7000051e:	e7dd      	b.n	700004dc <reporting_thread+0x30>

70000520 <writer_task2>:
70000520:	f245 74e4 	movw	r4, #22500	; 0x57e4
70000524:	f644 4530 	movw	r5, #19504	; 0x4c30
70000528:	f2c7 0400 	movt	r4, #28672	; 0x7000
7000052c:	f2c7 0500 	movt	r5, #28672	; 0x7000
70000530:	b508      	push	{r3, lr}
70000532:	2002      	movs	r0, #2
70000534:	f000 f8fc 	bl	70000730 <tm_semaphore_wait>
70000538:	6823      	ldr	r3, [r4, #0]
7000053a:	4628      	mov	r0, r5
7000053c:	3301      	adds	r3, #1
7000053e:	6023      	str	r3, [r4, #0]
70000540:	f000 f92a 	bl	70000798 <tm_pmu_profile_start>
70000544:	2001      	movs	r0, #1
70000546:	f000 f907 	bl	70000758 <tm_semaphore_put>
7000054a:	e7f2      	b.n	70000532 <writer_task2+0x12>

7000054c <writer_task1>:
7000054c:	f245 74e8 	movw	r4, #22504	; 0x57e8
70000550:	f644 4530 	movw	r5, #19504	; 0x4c30
70000554:	f2c7 0400 	movt	r4, #28672	; 0x7000
70000558:	f2c7 0500 	movt	r5, #28672	; 0x7000
7000055c:	b508      	push	{r3, lr}
7000055e:	2001      	movs	r0, #1
70000560:	f000 f8e6 	bl	70000730 <tm_semaphore_wait>
70000564:	4628      	mov	r0, r5
70000566:	f000 f957 	bl	70000818 <tm_pmu_profile_end>
7000056a:	6823      	ldr	r3, [r4, #0]
7000056c:	2002      	movs	r0, #2
7000056e:	3301      	adds	r3, #1
70000570:	6023      	str	r3, [r4, #0]
70000572:	f000 f8f1 	bl	70000758 <tm_semaphore_put>
70000576:	e7f2      	b.n	7000055e <writer_task1+0x12>

70000578 <main_sync>:
70000578:	f644 403c 	movw	r0, #19516	; 0x4c3c
7000057c:	b508      	push	{r3, lr}
7000057e:	f2c7 0000 	movt	r0, #28672	; 0x7000
70000582:	f000 fa5f 	bl	70000a44 <printk>
70000586:	f240 4049 	movw	r0, #1097	; 0x449
7000058a:	f2c7 0000 	movt	r0, #28672	; 0x7000
7000058e:	f000 f863 	bl	70000658 <tm_initialize>
70000592:	f644 4064 	movw	r0, #19556	; 0x4c64
70000596:	f2c7 0000 	movt	r0, #28672	; 0x7000
7000059a:	f000 fa53 	bl	70000a44 <printk>
7000059e:	2000      	movs	r0, #0
700005a0:	bd08      	pop	{r3, pc}
700005a2:	bf00      	nop

700005a4 <tm_setup_pmu>:
700005a4:	f644 4098 	movw	r0, #19608	; 0x4c98
700005a8:	b538      	push	{r3, r4, r5, lr}
700005aa:	f2c7 0000 	movt	r0, #28672	; 0x7000
700005ae:	f000 fa49 	bl	70000a44 <printk>
700005b2:	ee19 3f1c 	mrc	15, 0, r3, cr9, cr12, {0}
700005b6:	f023 0301 	bic.w	r3, r3, #1
700005ba:	ee09 3f1c 	mcr	15, 0, r3, cr9, cr12, {0}
700005be:	f04f 33ff 	mov.w	r3, #4294967295	; 0xffffffff
700005c2:	ee09 3f5c 	mcr	15, 0, r3, cr9, cr12, {2}
700005c6:	2306      	movs	r3, #6
700005c8:	ee09 3f1c 	mcr	15, 0, r3, cr9, cr12, {0}
700005cc:	2400      	movs	r4, #0
700005ce:	ee09 4f1d 	mcr	15, 0, r4, cr9, cr13, {0}
700005d2:	ee09 4fbc 	mcr	15, 0, r4, cr9, cr12, {5}
700005d6:	f24b 03a8 	movw	r3, #45224	; 0xb0a8
700005da:	f2c7 0300 	movt	r3, #28672	; 0x7000
700005de:	685a      	ldr	r2, [r3, #4]
700005e0:	ee09 2f3d 	mcr	15, 0, r2, cr9, cr13, {1}
700005e4:	ee09 4f5d 	mcr	15, 0, r4, cr9, cr13, {2}
700005e8:	2501      	movs	r5, #1
700005ea:	ee09 5fbc 	mcr	15, 0, r5, cr9, cr12, {5}
700005ee:	68da      	ldr	r2, [r3, #12]
700005f0:	ee09 2f3d 	mcr	15, 0, r2, cr9, cr13, {1}
700005f4:	ee09 4f5d 	mcr	15, 0, r4, cr9, cr13, {2}
700005f8:	2202      	movs	r2, #2
700005fa:	ee09 2fbc 	mcr	15, 0, r2, cr9, cr12, {5}
700005fe:	695b      	ldr	r3, [r3, #20]
70000600:	ee09 3f3d 	mcr	15, 0, r3, cr9, cr13, {1}
70000604:	ee09 4f5d 	mcr	15, 0, r4, cr9, cr13, {2}
70000608:	2307      	movs	r3, #7
7000060a:	f2c8 0300 	movt	r3, #32768	; 0x8000
7000060e:	ee09 3f3c 	mcr	15, 0, r3, cr9, cr12, {1}
70000612:	ee19 3f1c 	mrc	15, 0, r3, cr9, cr12, {0}
70000616:	432b      	orrs	r3, r5
70000618:	ee09 3f1c 	mcr	15, 0, r3, cr9, cr12, {0}
7000061c:	ee19 3f1e 	mrc	15, 0, r3, cr9, cr14, {0}
70000620:	432b      	orrs	r3, r5
70000622:	ee09 3f1e 	mcr	15, 0, r3, cr9, cr14, {0}
70000626:	f245 73ec 	movw	r3, #22508	; 0x57ec
7000062a:	4621      	mov	r1, r4
7000062c:	f241 320c 	movw	r2, #4876	; 0x130c
70000630:	f2c7 0300 	movt	r3, #28672	; 0x7000
70000634:	4618      	mov	r0, r3
70000636:	f002 fcbf 	bl	70002fb8 <memset>
7000063a:	2203      	movs	r2, #3
7000063c:	f500 5380 	add.w	r3, r0, #4096	; 0x1000
70000640:	f644 40b0 	movw	r0, #19632	; 0x4cb0
70000644:	f883 5308 	strb.w	r5, [r3, #776]	; 0x308
70000648:	f2c7 0000 	movt	r0, #28672	; 0x7000
7000064c:	f8c3 2304 	str.w	r2, [r3, #772]	; 0x304
70000650:	f000 f9f8 	bl	70000a44 <printk>
70000654:	4620      	mov	r0, r4
70000656:	bd38      	pop	{r3, r4, r5, pc}

70000658 <tm_initialize>:
70000658:	4700      	bx	r0
7000065a:	bf00      	nop

7000065c <tm_thread_create>:
7000065c:	b5f0      	push	{r4, r5, r6, r7, lr}
7000065e:	f644 6498 	movw	r4, #20120	; 0x4e98
70000662:	ebc0 1500 	rsb	r5, r0, r0, lsl #4
70000666:	f2c7 0400 	movt	r4, #28672	; 0x7000
7000066a:	4613      	mov	r3, r2
7000066c:	b089      	sub	sp, #36	; 0x24
7000066e:	f04f 36ff 	mov.w	r6, #4294967295	; 0xffffffff
70000672:	eb04 04c5 	add.w	r4, r4, r5, lsl #3
70000676:	f04f 37ff 	mov.w	r7, #4294967295	; 0xffffffff
7000067a:	2500      	movs	r5, #0
7000067c:	f44f 6280 	mov.w	r2, #1024	; 0x400
70000680:	9103      	str	r1, [sp, #12]
70000682:	f646 61a8 	movw	r1, #28328	; 0x6ea8
70000686:	9504      	str	r5, [sp, #16]
70000688:	f2c7 0100 	movt	r1, #28672	; 0x7000
7000068c:	e9cd 5501 	strd	r5, r5, [sp, #4]
70000690:	eb01 2180 	add.w	r1, r1, r0, lsl #10
70000694:	9500      	str	r5, [sp, #0]
70000696:	4620      	mov	r0, r4
70000698:	e9cd 6706 	strd	r6, r7, [sp, #24]
7000069c:	f001 fca6 	bl	70001fec <z_impl_k_thread_create>
700006a0:	4605      	mov	r5, r0
700006a2:	4620      	mov	r0, r4
700006a4:	f001 fe4c 	bl	70002340 <z_impl_k_thread_suspend>
700006a8:	4620      	mov	r0, r4
700006aa:	f002 f82f 	bl	7000270c <z_impl_k_wakeup>
700006ae:	1b60      	subs	r0, r4, r5
700006b0:	bf18      	it	ne
700006b2:	2001      	movne	r0, #1
700006b4:	b009      	add	sp, #36	; 0x24
700006b6:	bdf0      	pop	{r4, r5, r6, r7, pc}

700006b8 <tm_thread_resume>:
700006b8:	b508      	push	{r3, lr}
700006ba:	f644 6398 	movw	r3, #20120	; 0x4e98
700006be:	ebc0 1000 	rsb	r0, r0, r0, lsl #4
700006c2:	f2c7 0300 	movt	r3, #28672	; 0x7000
700006c6:	eb03 00c0 	add.w	r0, r3, r0, lsl #3
700006ca:	f001 ff0d 	bl	700024e8 <z_impl_k_thread_resume>
700006ce:	2000      	movs	r0, #0
700006d0:	bd08      	pop	{r3, pc}
700006d2:	bf00      	nop

700006d4 <tm_thread_sleep>:
700006d4:	2100      	movs	r1, #0
700006d6:	ebc0 1340 	rsb	r3, r0, r0, lsl #5
700006da:	eb00 0083 	add.w	r0, r0, r3, lsl #2
700006de:	00c0      	lsls	r0, r0, #3
700006e0:	f002 b806 	b.w	700026f0 <z_impl_k_sleep>

700006e4 <tm_queue_send_from_isr>:
700006e4:	f04f 32ff 	mov.w	r2, #4294967295	; 0xffffffff
700006e8:	f04f 33ff 	mov.w	r3, #4294967295	; 0xffffffff
700006ec:	f646 3c48 	movw	ip, #27464	; 0x6b48
700006f0:	eb00 0040 	add.w	r0, r0, r0, lsl #1
700006f4:	f2c7 0c00 	movt	ip, #28672	; 0x7000
700006f8:	eb0c 1000 	add.w	r0, ip, r0, lsl #4
700006fc:	f001 bb42 	b.w	70001d84 <z_impl_k_msgq_put>

70000700 <tm_semaphore_create>:
70000700:	f646 4308 	movw	r3, #27656	; 0x6c08
70000704:	eb00 0040 	add.w	r0, r0, r0, lsl #1
70000708:	2201      	movs	r2, #1
7000070a:	f2c7 0300 	movt	r3, #28672	; 0x7000
7000070e:	4611      	mov	r1, r2
70000710:	eb03 00c0 	add.w	r0, r3, r0, lsl #3
70000714:	f001 bbb4 	b.w	70001e80 <z_impl_k_sem_init>

70000718 <tm_semaphore_get>:
70000718:	2200      	movs	r2, #0
7000071a:	2300      	movs	r3, #0
7000071c:	f646 4108 	movw	r1, #27656	; 0x6c08
70000720:	eb00 0040 	add.w	r0, r0, r0, lsl #1
70000724:	f2c7 0100 	movt	r1, #28672	; 0x7000
70000728:	eb01 00c0 	add.w	r0, r1, r0, lsl #3
7000072c:	f001 bbfa 	b.w	70001f24 <z_impl_k_sem_take>

70000730 <tm_semaphore_wait>:
70000730:	b508      	push	{r3, lr}
70000732:	f04f 32ff 	mov.w	r2, #4294967295	; 0xffffffff
70000736:	f04f 33ff 	mov.w	r3, #4294967295	; 0xffffffff
7000073a:	f646 4108 	movw	r1, #27656	; 0x6c08
7000073e:	eb00 0040 	add.w	r0, r0, r0, lsl #1
70000742:	f2c7 0100 	movt	r1, #28672	; 0x7000
70000746:	eb01 00c0 	add.w	r0, r1, r0, lsl #3
7000074a:	f001 fbeb 	bl	70001f24 <z_impl_k_sem_take>
7000074e:	3800      	subs	r0, #0
70000750:	bf18      	it	ne
70000752:	2001      	movne	r0, #1
70000754:	bd08      	pop	{r3, pc}
70000756:	bf00      	nop

70000758 <tm_semaphore_put>:
70000758:	b508      	push	{r3, lr}
7000075a:	f646 4308 	movw	r3, #27656	; 0x6c08
7000075e:	eb00 0040 	add.w	r0, r0, r0, lsl #1
70000762:	f2c7 0300 	movt	r3, #28672	; 0x7000
70000766:	eb03 00c0 	add.w	r0, r3, r0, lsl #3
7000076a:	f001 fba5 	bl	70001eb8 <z_impl_k_sem_give>
7000076e:	2000      	movs	r0, #0
70000770:	bd08      	pop	{r3, pc}
70000772:	bf00      	nop

70000774 <tm_mutex_create>:
70000774:	2803      	cmp	r0, #3
70000776:	d901      	bls.n	7000077c <tm_mutex_create+0x8>
70000778:	2001      	movs	r0, #1
7000077a:	4770      	bx	lr
7000077c:	b508      	push	{r3, lr}
7000077e:	f646 23f8 	movw	r3, #27384	; 0x6af8
70000782:	eb00 0080 	add.w	r0, r0, r0, lsl #2
70000786:	f2c7 0300 	movt	r3, #28672	; 0x7000
7000078a:	eb03 0080 	add.w	r0, r3, r0, lsl #2
7000078e:	f001 fb6f 	bl	70001e70 <z_impl_k_mutex_init>
70000792:	2000      	movs	r0, #0
70000794:	bd08      	pop	{r3, pc}
70000796:	bf00      	nop

70000798 <tm_pmu_profile_start>:
70000798:	f245 7cec 	movw	ip, #22508	; 0x57ec
7000079c:	f2c7 0c00 	movt	ip, #28672	; 0x7000
700007a0:	e92d 41f0 	stmdb	sp!, {r4, r5, r6, r7, r8, lr}
700007a4:	f8dc 4000 	ldr.w	r4, [ip]
700007a8:	2c3f      	cmp	r4, #63	; 0x3f
700007aa:	d833      	bhi.n	70000814 <tm_pmu_profile_start+0x7c>
700007ac:	eb04 02c4 	add.w	r2, r4, r4, lsl #3
700007b0:	f50c 5380 	add.w	r3, ip, #4096	; 0x1000
700007b4:	eb04 0242 	add.w	r2, r4, r2, lsl #1
700007b8:	ea4f 0ec4 	mov.w	lr, r4, lsl #3
700007bc:	f8d3 5304 	ldr.w	r5, [r3, #772]	; 0x304
700007c0:	eb0c 0182 	add.w	r1, ip, r2, lsl #2
700007c4:	0092      	lsls	r2, r2, #2
700007c6:	6048      	str	r0, [r1, #4]
700007c8:	b1dd      	cbz	r5, 70000802 <tm_pmu_profile_start+0x6a>
700007ca:	f24b 06a8 	movw	r6, #45224	; 0xb0a8
700007ce:	3234      	adds	r2, #52	; 0x34
700007d0:	2300      	movs	r3, #0
700007d2:	f2c7 0600 	movt	r6, #28672	; 0x7000
700007d6:	4462      	add	r2, ip
700007d8:	461f      	mov	r7, r3
700007da:	f106 0804 	add.w	r8, r6, #4
700007de:	ee09 3fbc 	mcr	15, 0, r3, cr9, cr12, {5}
700007e2:	ee09 7f5d 	mcr	15, 0, r7, cr9, cr13, {2}
700007e6:	ee19 0f5d 	mrc	15, 0, r0, cr9, cr13, {2}
700007ea:	f842 0f04 	str.w	r0, [r2, #4]!
700007ee:	310c      	adds	r1, #12
700007f0:	f856 0033 	ldr.w	r0, [r6, r3, lsl #3]
700007f4:	6088      	str	r0, [r1, #8]
700007f6:	f858 0033 	ldr.w	r0, [r8, r3, lsl #3]
700007fa:	3301      	adds	r3, #1
700007fc:	60c8      	str	r0, [r1, #12]
700007fe:	42ab      	cmp	r3, r5
70000800:	d1ed      	bne.n	700007de <tm_pmu_profile_start+0x46>
70000802:	ee19 3f1d 	mrc	15, 0, r3, cr9, cr13, {0}
70000806:	44a6      	add	lr, r4
70000808:	eb04 044e 	add.w	r4, r4, lr, lsl #1
7000080c:	eb0c 0c84 	add.w	ip, ip, r4, lsl #2
70000810:	f8cc 3008 	str.w	r3, [ip, #8]
70000814:	e8bd 81f0 	ldmia.w	sp!, {r4, r5, r6, r7, r8, pc}

70000818 <tm_pmu_profile_end>:
70000818:	b570      	push	{r4, r5, r6, lr}
7000081a:	f245 7eec 	movw	lr, #22508	; 0x57ec
7000081e:	f2c7 0e00 	movt	lr, #28672	; 0x7000
70000822:	f8de 4000 	ldr.w	r4, [lr]
70000826:	2c3f      	cmp	r4, #63	; 0x3f
70000828:	d83a      	bhi.n	700008a0 <tm_pmu_profile_end+0x88>
7000082a:	ee19 1f1d 	mrc	15, 0, r1, cr9, cr13, {0}
7000082e:	f50e 5380 	add.w	r3, lr, #4096	; 0x1000
70000832:	eb04 0cc4 	add.w	ip, r4, r4, lsl #3
70000836:	00e5      	lsls	r5, r4, #3
70000838:	f8d3 6304 	ldr.w	r6, [r3, #772]	; 0x304
7000083c:	eb04 0c4c 	add.w	ip, r4, ip, lsl #1
70000840:	eb0e 038c 	add.w	r3, lr, ip, lsl #2
70000844:	ea4f 0c8c 	mov.w	ip, ip, lsl #2
70000848:	60d9      	str	r1, [r3, #12]
7000084a:	b356      	cbz	r6, 700008a2 <tm_pmu_profile_end+0x8a>
7000084c:	2300      	movs	r3, #0
7000084e:	f10c 0240 	add.w	r2, ip, #64	; 0x40
70000852:	4472      	add	r2, lr
70000854:	ee09 3fbc 	mcr	15, 0, r3, cr9, cr12, {5}
70000858:	ee19 0f5d 	mrc	15, 0, r0, cr9, cr13, {2}
7000085c:	f842 0f04 	str.w	r0, [r2, #4]!
70000860:	3301      	adds	r3, #1
70000862:	42b3      	cmp	r3, r6
70000864:	d1f6      	bne.n	70000854 <tm_pmu_profile_end+0x3c>
70000866:	4425      	add	r5, r4
70000868:	f10c 0034 	add.w	r0, ip, #52	; 0x34
7000086c:	eb04 0545 	add.w	r5, r4, r5, lsl #1
70000870:	f10c 0c1c 	add.w	ip, ip, #28
70000874:	eb0e 0585 	add.w	r5, lr, r5, lsl #2
70000878:	eb03 0343 	add.w	r3, r3, r3, lsl #1
7000087c:	4470      	add	r0, lr
7000087e:	68ae      	ldr	r6, [r5, #8]
70000880:	44f4      	add	ip, lr
70000882:	2200      	movs	r2, #0
70000884:	1b89      	subs	r1, r1, r6
70000886:	6129      	str	r1, [r5, #16]
70000888:	6901      	ldr	r1, [r0, #16]
7000088a:	f850 5f04 	ldr.w	r5, [r0, #4]!
7000088e:	1b49      	subs	r1, r1, r5
70000890:	f84c 1022 	str.w	r1, [ip, r2, lsl #2]
70000894:	3203      	adds	r2, #3
70000896:	429a      	cmp	r2, r3
70000898:	d1f6      	bne.n	70000888 <tm_pmu_profile_end+0x70>
7000089a:	3401      	adds	r4, #1
7000089c:	f8ce 4000 	str.w	r4, [lr]
700008a0:	bd70      	pop	{r4, r5, r6, pc}
700008a2:	689a      	ldr	r2, [r3, #8]
700008a4:	3401      	adds	r4, #1
700008a6:	f8ce 4000 	str.w	r4, [lr]
700008aa:	1a8a      	subs	r2, r1, r2
700008ac:	611a      	str	r2, [r3, #16]
700008ae:	e7f7      	b.n	700008a0 <tm_pmu_profile_end+0x88>

700008b0 <tm_pmu_profile_print>:
700008b0:	e92d 47f0 	stmdb	sp!, {r4, r5, r6, r7, r8, r9, sl, lr}
700008b4:	f245 79ec 	movw	r9, #22508	; 0x57ec
700008b8:	4680      	mov	r8, r0
700008ba:	f2c7 0900 	movt	r9, #28672	; 0x7000
700008be:	f8d9 a000 	ldr.w	sl, [r9]
700008c2:	f1ba 0f00 	cmp.w	sl, #0
700008c6:	d00d      	beq.n	700008e4 <tm_pmu_profile_print+0x34>
700008c8:	464e      	mov	r6, r9
700008ca:	2500      	movs	r5, #0
700008cc:	6877      	ldr	r7, [r6, #4]
700008ce:	4641      	mov	r1, r8
700008d0:	4638      	mov	r0, r7
700008d2:	364c      	adds	r6, #76	; 0x4c
700008d4:	b11f      	cbz	r7, 700008de <tm_pmu_profile_print+0x2e>
700008d6:	f7ff fbb3 	bl	70000040 <strcmp>
700008da:	4604      	mov	r4, r0
700008dc:	b158      	cbz	r0, 700008f6 <tm_pmu_profile_print+0x46>
700008de:	3501      	adds	r5, #1
700008e0:	4555      	cmp	r5, sl
700008e2:	d1f3      	bne.n	700008cc <tm_pmu_profile_print+0x1c>
700008e4:	f644 40fc 	movw	r0, #19708	; 0x4cfc
700008e8:	4641      	mov	r1, r8
700008ea:	f2c7 0000 	movt	r0, #28672	; 0x7000
700008ee:	e8bd 47f0 	ldmia.w	sp!, {r4, r5, r6, r7, r8, r9, sl, lr}
700008f2:	f000 b8a7 	b.w	70000a44 <printk>
700008f6:	f644 40c4 	movw	r0, #19652	; 0x4cc4
700008fa:	4639      	mov	r1, r7
700008fc:	4e17      	ldr	r6, [pc, #92]	; (7000095c <tm_pmu_profile_print+0xac>)
700008fe:	f2c7 0000 	movt	r0, #28672	; 0x7000
70000902:	f000 f89f 	bl	70000a44 <printk>
70000906:	f644 40d8 	movw	r0, #19672	; 0x4cd8
7000090a:	eb05 03c5 	add.w	r3, r5, r5, lsl #3
7000090e:	f2c7 0000 	movt	r0, #28672	; 0x7000
70000912:	eb05 0543 	add.w	r5, r5, r3, lsl #1
70000916:	eb09 0985 	add.w	r9, r9, r5, lsl #2
7000091a:	f8d9 1010 	ldr.w	r1, [r9, #16]
7000091e:	f000 f891 	bl	70000a44 <printk>
70000922:	f8d6 3304 	ldr.w	r3, [r6, #772]	; 0x304
70000926:	b18b      	cbz	r3, 7000094c <tm_pmu_profile_print+0x9c>
70000928:	f644 45ec 	movw	r5, #19692	; 0x4cec
7000092c:	f2c7 0500 	movt	r5, #28672	; 0x7000
70000930:	f8d9 201c 	ldr.w	r2, [r9, #28]
70000934:	4628      	mov	r0, r5
70000936:	f8d9 1014 	ldr.w	r1, [r9, #20]
7000093a:	3401      	adds	r4, #1
7000093c:	f000 f882 	bl	70000a44 <printk>
70000940:	f8d6 3304 	ldr.w	r3, [r6, #772]	; 0x304
70000944:	f109 090c 	add.w	r9, r9, #12
70000948:	42a3      	cmp	r3, r4
7000094a:	d8f1      	bhi.n	70000930 <tm_pmu_profile_print+0x80>
7000094c:	f644 3098 	movw	r0, #19352	; 0x4b98
70000950:	e8bd 47f0 	ldmia.w	sp!, {r4, r5, r6, r7, r8, r9, sl, lr}
70000954:	f2c7 0000 	movt	r0, #28672	; 0x7000
70000958:	f000 b874 	b.w	70000a44 <printk>
7000095c:	700067ec 	.word	0x700067ec

70000960 <free_list_add>:
70000960:	b530      	push	{r4, r5, lr}
70000962:	eb00 04c1 	add.w	r4, r0, r1, lsl #3
70000966:	8863      	ldrh	r3, [r4, #2]
70000968:	085b      	lsrs	r3, r3, #1
7000096a:	fab3 f383 	clz	r3, r3
7000096e:	f1c3 031f 	rsb	r3, r3, #31
70000972:	ea4f 0cc1 	mov.w	ip, r1, lsl #3
70000976:	eb00 0583 	add.w	r5, r0, r3, lsl #2
7000097a:	f10c 0c04 	add.w	ip, ip, #4
7000097e:	fa1f fe81 	uxth.w	lr, r1
70000982:	692a      	ldr	r2, [r5, #16]
70000984:	b962      	cbnz	r2, 700009a0 <free_list_add+0x40>
70000986:	2401      	movs	r4, #1
70000988:	f36e 020f 	bfi	r2, lr, #0, #16
7000098c:	f36e 421f 	bfi	r2, lr, #16, #16
70000990:	409c      	lsls	r4, r3
70000992:	68c3      	ldr	r3, [r0, #12]
70000994:	4323      	orrs	r3, r4
70000996:	60c3      	str	r3, [r0, #12]
70000998:	6129      	str	r1, [r5, #16]
7000099a:	f840 200c 	str.w	r2, [r0, ip]
7000099e:	bd30      	pop	{r4, r5, pc}
700009a0:	00d3      	lsls	r3, r2, #3
700009a2:	3304      	adds	r3, #4
700009a4:	5ac1      	ldrh	r1, [r0, r3]
700009a6:	f820 100c 	strh.w	r1, [r0, ip]
700009aa:	eb00 01c1 	add.w	r1, r0, r1, lsl #3
700009ae:	80e2      	strh	r2, [r4, #6]
700009b0:	f8a1 e006 	strh.w	lr, [r1, #6]
700009b4:	f820 e003 	strh.w	lr, [r0, r3]
700009b8:	bd30      	pop	{r4, r5, pc}
700009ba:	bf00      	nop

700009bc <sys_heap_init>:
700009bc:	3a04      	subs	r2, #4
700009be:	e92d 41f0 	stmdb	sp!, {r4, r5, r6, r7, r8, lr}
700009c2:	188d      	adds	r5, r1, r2
700009c4:	1dcc      	adds	r4, r1, #7
700009c6:	f024 0407 	bic.w	r4, r4, #7
700009ca:	f04f 0800 	mov.w	r8, #0
700009ce:	f025 0507 	bic.w	r5, r5, #7
700009d2:	6004      	str	r4, [r0, #0]
700009d4:	1b2d      	subs	r5, r5, r4
700009d6:	4641      	mov	r1, r8
700009d8:	f104 0010 	add.w	r0, r4, #16
700009dc:	08ef      	lsrs	r7, r5, #3
700009de:	fab7 f287 	clz	r2, r7
700009e2:	e9c4 7802 	strd	r7, r8, [r4, #8]
700009e6:	f1c2 0624 	rsb	r6, r2, #36	; 0x24
700009ea:	f1c2 0220 	rsb	r2, r2, #32
700009ee:	00b6      	lsls	r6, r6, #2
700009f0:	3607      	adds	r6, #7
700009f2:	0092      	lsls	r2, r2, #2
700009f4:	08f6      	lsrs	r6, r6, #3
700009f6:	f002 fadf 	bl	70002fb8 <memset>
700009fa:	f8a4 8000 	strh.w	r8, [r4]
700009fe:	1bbb      	subs	r3, r7, r6
70000a00:	4620      	mov	r0, r4
70000a02:	0072      	lsls	r2, r6, #1
70000a04:	f042 0201 	orr.w	r2, r2, #1
70000a08:	0059      	lsls	r1, r3, #1
70000a0a:	8062      	strh	r2, [r4, #2]
70000a0c:	eb04 02c6 	add.w	r2, r4, r6, lsl #3
70000a10:	8051      	strh	r1, [r2, #2]
70000a12:	1962      	adds	r2, r4, r5
70000a14:	f824 6036 	strh.w	r6, [r4, r6, lsl #3]
70000a18:	4631      	mov	r1, r6
70000a1a:	5363      	strh	r3, [r4, r5]
70000a1c:	2301      	movs	r3, #1
70000a1e:	8053      	strh	r3, [r2, #2]
70000a20:	e8bd 41f0 	ldmia.w	sp!, {r4, r5, r6, r7, r8, lr}
70000a24:	f7ff bf9c 	b.w	70000960 <free_list_add>

70000a28 <arch_printk_char_out>:
70000a28:	2000      	movs	r0, #0
70000a2a:	4770      	bx	lr

70000a2c <char_out>:
70000a2c:	f24b 03c0 	movw	r3, #45248	; 0xb0c0
70000a30:	f2c7 0300 	movt	r3, #28672	; 0x7000
70000a34:	681b      	ldr	r3, [r3, #0]
70000a36:	4718      	bx	r3

70000a38 <__printk_hook_install>:
70000a38:	f24b 03c0 	movw	r3, #45248	; 0xb0c0
70000a3c:	f2c7 0300 	movt	r3, #28672	; 0x7000
70000a40:	6018      	str	r0, [r3, #0]
70000a42:	4770      	bx	lr

70000a44 <printk>:
70000a44:	b40f      	push	{r0, r1, r2, r3}
70000a46:	b500      	push	{lr}
70000a48:	f640 202d 	movw	r0, #2605	; 0xa2d
70000a4c:	b087      	sub	sp, #28
70000a4e:	2300      	movs	r3, #0
70000a50:	aa08      	add	r2, sp, #32
70000a52:	f04f 0c02 	mov.w	ip, #2
70000a56:	f2c7 0000 	movt	r0, #28672	; 0x7000
70000a5a:	e9cd 3304 	strd	r3, r3, [sp, #16]
70000a5e:	e9cd 3002 	strd	r3, r0, [sp, #8]
70000a62:	a802      	add	r0, sp, #8
70000a64:	f852 1b04 	ldr.w	r1, [r2], #4
70000a68:	f88d c00a 	strb.w	ip, [sp, #10]
70000a6c:	9201      	str	r2, [sp, #4]
70000a6e:	f002 fc47 	bl	70003300 <__l_vfprintf>
70000a72:	b007      	add	sp, #28
70000a74:	f85d eb04 	ldr.w	lr, [sp], #4
70000a78:	b004      	add	sp, #16
70000a7a:	4770      	bx	lr

70000a7c <z_thread_entry>:
70000a7c:	468c      	mov	ip, r1
70000a7e:	4604      	mov	r4, r0
70000a80:	4611      	mov	r1, r2
70000a82:	4660      	mov	r0, ip
70000a84:	461a      	mov	r2, r3
70000a86:	b508      	push	{r3, lr}
70000a88:	47a0      	blx	r4
70000a8a:	f001 fe65 	bl	70002758 <z_impl_k_sched_current_thread_query>
70000a8e:	f001 fe69 	bl	70002764 <z_impl_k_thread_abort>
70000a92:	bf00      	nop

70000a94 <_ConfigAbsSyms>:
70000a94:	4770      	bx	lr
70000a96:	bf00      	nop

70000a98 <z_soc_irq_get_active>:
70000a98:	f000 bb4c 	b.w	70001134 <z_vim_irq_get_active>

70000a9c <z_soc_irq_eoi>:
70000a9c:	f000 bb70 	b.w	70001180 <z_vim_irq_eoi>

70000aa0 <z_soc_irq_init>:
70000aa0:	f000 bb76 	b.w	70001190 <z_vim_irq_init>

70000aa4 <z_soc_irq_priority_set>:
70000aa4:	f000 bbac 	b.w	70001200 <z_vim_irq_priority_set>

70000aa8 <z_soc_irq_enable>:
70000aa8:	f000 bbd6 	b.w	70001258 <z_vim_irq_enable>

70000aac <soc_reset_hook>:
70000aac:	b508      	push	{r3, lr}
70000aae:	f000 fa35 	bl	70000f1c <arch_icache_enable>
70000ab2:	e8bd 4008 	ldmia.w	sp!, {r3, lr}
70000ab6:	f000 ba23 	b.w	70000f00 <arch_dcache_enable>
70000aba:	bf00      	nop

70000abc <z_arm_fatal_error>:
70000abc:	f000 bff8 	b.w	70001ab0 <z_fatal_error>

70000ac0 <z_do_kernel_oops>:
70000ac0:	4601      	mov	r1, r0
70000ac2:	6800      	ldr	r0, [r0, #0]
70000ac4:	f000 bff4 	b.w	70001ab0 <z_fatal_error>

70000ac8 <z_arm_nmi>:
70000ac8:	b508      	push	{r3, lr}
70000aca:	f24b 1320 	movw	r3, #45344	; 0xb120
70000ace:	f2c7 0300 	movt	r3, #28672	; 0x7000
70000ad2:	681b      	ldr	r3, [r3, #0]
70000ad4:	4798      	blx	r3
70000ad6:	e8bd 4008 	ldmia.w	sp!, {r3, lr}
70000ada:	f002 bfa9 	b.w	70003a30 <__z_arm_int_exit_from_thumb>
70000ade:	bf00      	nop

70000ae0 <z_SysNmiOnReset>:
70000ae0:	e320f003 	wfi
70000ae4:	eafffffd 	b	70000ae0 <z_SysNmiOnReset>

70000ae8 <z_arm_undef_instruction>:
70000ae8:	e52d0004 	push	{r0}		; (str r0, [sp, #-4]!)
70000aec:	e14f0000 	mrs	r0, SPSR
70000af0:	e3100020 	tst	r0, #32
70000af4:	024ee004 	subeq	lr, lr, #4
70000af8:	124ee002 	subne	lr, lr, #2
70000afc:	e49d0004 	pop	{r0}		; (ldr r0, [sp], #4)
70000b00:	f96d051b 	srsdb	sp!, #27
70000b04:	e94d500f 	stmdb	sp, {r0, r1, r2, r3, ip, lr}^
70000b08:	e24dd018 	sub	sp, sp, #24
70000b0c:	ee1d2f70 	mrc	15, 0, r2, cr13, cr0, {3}
70000b10:	e3c22003 	bic	r2, r2, #3
70000b14:	e5921000 	ldr	r1, [r2]
70000b18:	e2811001 	add	r1, r1, #1
70000b1c:	e5821000 	str	r1, [r2]
70000b20:	e1a0000d 	mov	r0, sp
70000b24:	fa00001b 	blx	70000b98 <z_arm_fault_undef_instruction>
70000b28:	ea000153 	b	7000107c <z_arm_exc_exit>

70000b2c <z_arm_prefetch_abort>:
70000b2c:	e24ee004 	sub	lr, lr, #4
70000b30:	f96d0517 	srsdb	sp!, #23
70000b34:	e94d500f 	stmdb	sp, {r0, r1, r2, r3, ip, lr}^
70000b38:	e24dd018 	sub	sp, sp, #24
70000b3c:	e1a0000d 	mov	r0, sp
70000b40:	ee1d2f70 	mrc	15, 0, r2, cr13, cr0, {3}
70000b44:	e3c22003 	bic	r2, r2, #3
70000b48:	e5921000 	ldr	r1, [r2]
70000b4c:	e2811001 	add	r1, r1, #1
70000b50:	e5821000 	str	r1, [r2]
70000b54:	fa000013 	blx	70000ba8 <z_arm_fault_prefetch>
70000b58:	ea000147 	b	7000107c <z_arm_exc_exit>

70000b5c <z_arm_data_abort>:
70000b5c:	e24ee008 	sub	lr, lr, #8
70000b60:	f96d0517 	srsdb	sp!, #23
70000b64:	e94d500f 	stmdb	sp, {r0, r1, r2, r3, ip, lr}^
70000b68:	e24dd018 	sub	sp, sp, #24
70000b6c:	e1a0000d 	mov	r0, sp
70000b70:	ee1d2f70 	mrc	15, 0, r2, cr13, cr0, {3}
70000b74:	e3c22003 	bic	r2, r2, #3
70000b78:	e5921000 	ldr	r1, [r2]
70000b7c:	e2811001 	add	r1, r1, #1
70000b80:	e5821000 	str	r1, [r2]
70000b84:	fa00002c 	blx	70000c3c <z_arm_fault_data>
70000b88:	e3500000 	cmp	r0, #0
70000b8c:	059d1018 	ldreq	r1, [sp, #24]
70000b90:	058d1018 	streq	r1, [sp, #24]
70000b94:	ea000138 	b	7000107c <z_arm_exc_exit>

70000b98 <z_arm_fault_undef_instruction>:
70000b98:	4601      	mov	r1, r0
70000b9a:	202d      	movs	r0, #45	; 0x2d
70000b9c:	b508      	push	{r3, lr}
70000b9e:	f7ff ff8d 	bl	70000abc <z_arm_fatal_error>
70000ba2:	2001      	movs	r0, #1
70000ba4:	bd08      	pop	{r3, pc}
70000ba6:	bf00      	nop

70000ba8 <z_arm_fault_prefetch>:
70000ba8:	4601      	mov	r1, r0
70000baa:	b508      	push	{r3, lr}
70000bac:	ee15 2f30 	mrc	15, 0, r2, cr5, cr0, {1}
70000bb0:	ee16 3f50 	mrc	15, 0, r3, cr6, cr0, {2}
70000bb4:	0993      	lsrs	r3, r2, #6
70000bb6:	f003 0310 	and.w	r3, r3, #16
70000bba:	f002 020f 	and.w	r2, r2, #15
70000bbe:	4313      	orrs	r3, r2
70000bc0:	2b19      	cmp	r3, #25
70000bc2:	d80e      	bhi.n	70000be2 <z_arm_fault_prefetch+0x3a>
70000bc4:	e8df f003 	tbb	[pc, r3]
70000bc8:	0d1c3717 	.word	0x0d1c3717
70000bcc:	0d0d0d0d 	.word	0x0d0d0d0d
70000bd0:	0d0d0d23 	.word	0x0d0d0d23
70000bd4:	0d0d280d 	.word	0x0d0d280d
70000bd8:	0d0d0d0d 	.word	0x0d0d0d0d
70000bdc:	0d2d0d0d 	.word	0x0d2d0d0d
70000be0:	1232      	.short	0x1232
70000be2:	2000      	movs	r0, #0
70000be4:	f7ff ff6a 	bl	70000abc <z_arm_fatal_error>
70000be8:	2001      	movs	r0, #1
70000bea:	bd08      	pop	{r3, pc}
70000bec:	2033      	movs	r0, #51	; 0x33
70000bee:	f7ff ff65 	bl	70000abc <z_arm_fatal_error>
70000bf2:	2001      	movs	r0, #1
70000bf4:	bd08      	pop	{r3, pc}
70000bf6:	202f      	movs	r0, #47	; 0x2f
70000bf8:	f7ff ff60 	bl	70000abc <z_arm_fatal_error>
70000bfc:	2001      	movs	r0, #1
70000bfe:	bd08      	pop	{r3, pc}
70000c00:	ee10 3e11 	mrc	14, 0, r3, cr0, cr1, {0}
70000c04:	2035      	movs	r0, #53	; 0x35
70000c06:	f7ff ff59 	bl	70000abc <z_arm_fatal_error>
70000c0a:	2001      	movs	r0, #1
70000c0c:	bd08      	pop	{r3, pc}
70000c0e:	2031      	movs	r0, #49	; 0x31
70000c10:	f7ff ff54 	bl	70000abc <z_arm_fatal_error>
70000c14:	2001      	movs	r0, #1
70000c16:	bd08      	pop	{r3, pc}
70000c18:	2030      	movs	r0, #48	; 0x30
70000c1a:	f7ff ff4f 	bl	70000abc <z_arm_fatal_error>
70000c1e:	2001      	movs	r0, #1
70000c20:	bd08      	pop	{r3, pc}
70000c22:	2032      	movs	r0, #50	; 0x32
70000c24:	f7ff ff4a 	bl	70000abc <z_arm_fatal_error>
70000c28:	2001      	movs	r0, #1
70000c2a:	bd08      	pop	{r3, pc}
70000c2c:	2034      	movs	r0, #52	; 0x34
70000c2e:	f7ff ff45 	bl	70000abc <z_arm_fatal_error>
70000c32:	2001      	movs	r0, #1
70000c34:	bd08      	pop	{r3, pc}
70000c36:	202e      	movs	r0, #46	; 0x2e
70000c38:	e7d4      	b.n	70000be4 <z_arm_fault_prefetch+0x3c>
70000c3a:	bf00      	nop

70000c3c <z_arm_fault_data>:
70000c3c:	4601      	mov	r1, r0
70000c3e:	b508      	push	{r3, lr}
70000c40:	ee15 2f10 	mrc	15, 0, r2, cr5, cr0, {0}
70000c44:	ee16 3f10 	mrc	15, 0, r3, cr6, cr0, {0}
70000c48:	0993      	lsrs	r3, r2, #6
70000c4a:	f003 0310 	and.w	r3, r3, #16
70000c4e:	f002 020f 	and.w	r2, r2, #15
70000c52:	4313      	orrs	r3, r2
70000c54:	2b19      	cmp	r3, #25
70000c56:	d80e      	bhi.n	70000c76 <z_arm_fault_data+0x3a>
70000c58:	e8df f003 	tbb	[pc, r3]
70000c5c:	0d1c3717 	.word	0x0d1c3717
70000c60:	0d0d0d0d 	.word	0x0d0d0d0d
70000c64:	0d0d0d23 	.word	0x0d0d0d23
70000c68:	0d0d280d 	.word	0x0d0d280d
70000c6c:	0d0d0d0d 	.word	0x0d0d0d0d
70000c70:	0d2d0d0d 	.word	0x0d2d0d0d
70000c74:	1232      	.short	0x1232
70000c76:	2000      	movs	r0, #0
70000c78:	f7ff ff20 	bl	70000abc <z_arm_fatal_error>
70000c7c:	2001      	movs	r0, #1
70000c7e:	bd08      	pop	{r3, pc}
70000c80:	2033      	movs	r0, #51	; 0x33
70000c82:	f7ff ff1b 	bl	70000abc <z_arm_fatal_error>
70000c86:	2001      	movs	r0, #1
70000c88:	bd08      	pop	{r3, pc}
70000c8a:	202f      	movs	r0, #47	; 0x2f
70000c8c:	f7ff ff16 	bl	70000abc <z_arm_fatal_error>
70000c90:	2001      	movs	r0, #1
70000c92:	bd08      	pop	{r3, pc}
70000c94:	ee10 3e11 	mrc	14, 0, r3, cr0, cr1, {0}
70000c98:	2035      	movs	r0, #53	; 0x35
70000c9a:	f7ff ff0f 	bl	70000abc <z_arm_fatal_error>
70000c9e:	2001      	movs	r0, #1
70000ca0:	bd08      	pop	{r3, pc}
70000ca2:	2031      	movs	r0, #49	; 0x31
70000ca4:	f7ff ff0a 	bl	70000abc <z_arm_fatal_error>
70000ca8:	2001      	movs	r0, #1
70000caa:	bd08      	pop	{r3, pc}
70000cac:	2030      	movs	r0, #48	; 0x30
70000cae:	f7ff ff05 	bl	70000abc <z_arm_fatal_error>
70000cb2:	2001      	movs	r0, #1
70000cb4:	bd08      	pop	{r3, pc}
70000cb6:	2032      	movs	r0, #50	; 0x32
70000cb8:	f7ff ff00 	bl	70000abc <z_arm_fatal_error>
70000cbc:	2001      	movs	r0, #1
70000cbe:	bd08      	pop	{r3, pc}
70000cc0:	2034      	movs	r0, #52	; 0x34
70000cc2:	f7ff fefb 	bl	70000abc <z_arm_fatal_error>
70000cc6:	2001      	movs	r0, #1
70000cc8:	bd08      	pop	{r3, pc}
70000cca:	202e      	movs	r0, #46	; 0x2e
70000ccc:	e7d4      	b.n	70000c78 <z_arm_fault_data+0x3c>
70000cce:	bf00      	nop

70000cd0 <z_arm_interrupt_init>:
70000cd0:	f7ff bee6 	b.w	70000aa0 <z_soc_irq_init>

70000cd4 <relocate_vector_table>:
70000cd4:	ee11 3f10 	mrc	15, 0, r3, cr1, cr0, {0}
70000cd8:	f423 5300 	bic.w	r3, r3, #8192	; 0x2000
70000cdc:	ee01 3f10 	mcr	15, 0, r3, cr1, cr0, {0}
70000ce0:	f240 023c 	movw	r2, #60	; 0x3c
70000ce4:	f240 0100 	movw	r1, #0
70000ce8:	f2c7 0100 	movt	r1, #28672	; 0x7000
70000cec:	2000      	movs	r0, #0
70000cee:	f2c7 0200 	movt	r2, #28672	; 0x7000
70000cf2:	1a52      	subs	r2, r2, r1
70000cf4:	f002 b8f8 	b.w	70002ee8 <memcpy>

70000cf8 <z_arm_relocate_vector_table>:
70000cf8:	b508      	push	{r3, lr}
70000cfa:	f7ff ffeb 	bl	70000cd4 <relocate_vector_table>
70000cfe:	bd08      	pop	{r3, pc}

70000d00 <__start>:
70000d00:	e59f0054 	ldr	r0, [pc, #84]	; 70000d5c <__start+0x5c>
70000d04:	e59f4054 	ldr	r4, [pc, #84]	; 70000d60 <__start+0x60>
70000d08:	e59f5054 	ldr	r5, [pc, #84]	; 70000d64 <__start+0x64>
70000d0c:	e59f6054 	ldr	r6, [pc, #84]	; 70000d68 <__start+0x68>
70000d10:	e59f7054 	ldr	r7, [pc, #84]	; 70000d6c <__start+0x6c>
70000d14:	e59f8054 	ldr	r8, [pc, #84]	; 70000d70 <__start+0x70>
70000d18:	e59f9054 	ldr	r9, [pc, #84]	; 70000d74 <__start+0x74>
70000d1c:	e59fa054 	ldr	sl, [pc, #84]	; 70000d78 <__start+0x78>
70000d20:	e321f0d1 	msr	CPSR_c, #209	; 0xd1
70000d24:	e1a0d005 	mov	sp, r5
70000d28:	e321f0d2 	msr	CPSR_c, #210	; 0xd2
70000d2c:	e1a0d006 	mov	sp, r6
70000d30:	e321f0d7 	msr	CPSR_c, #215	; 0xd7
70000d34:	e1a0d007 	mov	sp, r7
70000d38:	e321f0db 	msr	CPSR_c, #219	; 0xdb
70000d3c:	e1a0d008 	mov	sp, r8
70000d40:	e321f0d3 	msr	CPSR_c, #211	; 0xd3
70000d44:	e1a0d009 	mov	sp, r9
70000d48:	e321f0df 	msr	CPSR_c, #223	; 0xdf
70000d4c:	e1a0d00a 	mov	sp, sl
70000d50:	faffff55 	blx	70000aac <soc_reset_hook>
70000d54:	faffffe7 	blx	70000cf8 <z_arm_relocate_vector_table>
70000d58:	e12fff14 	bx	r4
70000d5c:	7000b124 	.word	0x7000b124
70000d60:	70000d85 	.word	0x70000d85
70000d64:	70009fa8 	.word	0x70009fa8
70000d68:	7000a7a8 	.word	0x7000a7a8
70000d6c:	70009ea8 	.word	0x70009ea8
70000d70:	70009da8 	.word	0x70009da8
70000d74:	70009ca8 	.word	0x70009ca8
70000d78:	70009aa8 	.word	0x70009aa8

70000d7c <z_irq_spurious>:
70000d7c:	2100      	movs	r1, #0
70000d7e:	2001      	movs	r0, #1
70000d80:	f7ff be9c 	b.w	70000abc <z_arm_fatal_error>

70000d84 <z_prep_c>:
70000d84:	b508      	push	{r3, lr}
70000d86:	f646 437c 	movw	r3, #27772	; 0x6c7c
70000d8a:	f2c7 0300 	movt	r3, #28672	; 0x7000
70000d8e:	ee0d 3f70 	mcr	15, 0, r3, cr13, cr0, {3}
70000d92:	f000 ff3f 	bl	70001c14 <z_bss_zero>
70000d96:	f7ff ff9b 	bl	70000cd0 <z_arm_interrupt_init>
70000d9a:	f000 f8cf 	bl	70000f3c <arch_cache_init>
70000d9e:	f000 ff47 	bl	70001c30 <z_cstart>
70000da2:	bf00      	nop

70000da4 <arch_new_thread>:
70000da4:	b430      	push	{r4, r5}
70000da6:	f842 3c20 	str.w	r3, [r2, #-32]
70000daa:	f240 153f 	movw	r5, #319	; 0x13f
70000dae:	9b02      	ldr	r3, [sp, #8]
70000db0:	f1a2 0420 	sub.w	r4, r2, #32
70000db4:	f842 3c1c 	str.w	r3, [r2, #-28]
70000db8:	f640 237d 	movw	r3, #2685	; 0xa7d
70000dbc:	2100      	movs	r1, #0
70000dbe:	f2c7 0300 	movt	r3, #28672	; 0x7000
70000dc2:	f842 5c04 	str.w	r5, [r2, #-4]
70000dc6:	f842 3c08 	str.w	r3, [r2, #-8]
70000dca:	9b03      	ldr	r3, [sp, #12]
70000dcc:	f842 3c18 	str.w	r3, [r2, #-24]
70000dd0:	9b04      	ldr	r3, [sp, #16]
70000dd2:	f842 3c14 	str.w	r3, [r2, #-20]
70000dd6:	6504      	str	r4, [r0, #80]	; 0x50
70000dd8:	66c1      	str	r1, [r0, #108]	; 0x6c
70000dda:	bc30      	pop	{r4, r5}
70000ddc:	4770      	bx	lr
70000dde:	bf00      	nop

70000de0 <arch_cpu_idle>:
70000de0:	f1080080 	cpsie	i
70000de4:	f57ff06f 	isb	sy
70000de8:	e12fff1e 	bx	lr

70000dec <_isr_wrapper>:
70000dec:	e24ee004 	sub	lr, lr, #4
70000df0:	f96d051f 	srsdb	sp!, #31
70000df4:	f102001f 	cps	#31
70000df8:	e92d500f 	push	{r0, r1, r2, r3, ip, lr}
70000dfc:	f1020013 	cps	#19
70000e00:	e52de004 	push	{lr}		; (str lr, [sp, #-4]!)
70000e04:	e20d3004 	and	r3, sp, #4
70000e08:	e04dd003 	sub	sp, sp, r3
70000e0c:	e92d000c 	push	{r2, r3}
70000e10:	ee1d2f70 	mrc	15, 0, r2, cr13, cr0, {3}
70000e14:	e3c22003 	bic	r2, r2, #3
70000e18:	e5920000 	ldr	r0, [r2]
70000e1c:	e2800001 	add	r0, r0, #1
70000e20:	e5820000 	str	r0, [r2]
70000e24:	faffff1b 	blx	70000a98 <z_soc_irq_get_active>
70000e28:	e92d0003 	push	{r0, r1}
70000e2c:	e1a00180 	lsl	r0, r0, #3
70000e30:	f1080080 	cpsie	i
70000e34:	e3a01c02 	mov	r1, #512	; 0x200
70000e38:	e1a01181 	lsl	r1, r1, #3
70000e3c:	e1500001 	cmp	r0, r1
70000e40:	aa000003 	bge	70000e54 <spurious_continue>
70000e44:	e59f1018 	ldr	r1, [pc, #24]	; 70000e64 <spurious_continue+0x10>
70000e48:	e0811000 	add	r1, r1, r0
70000e4c:	e8b10009 	ldm	r1!, {r0, r3}
70000e50:	e12fff33 	blx	r3

70000e54 <spurious_continue>:
70000e54:	e8bd0003 	pop	{r0, r1}
70000e58:	faffff0f 	blx	70000a9c <z_soc_irq_eoi>
70000e5c:	e59f1004 	ldr	r1, [pc, #4]	; 70000e68 <spurious_continue+0x14>
70000e60:	e12fff11 	bx	r1
70000e64:	70003ab0 	.word	0x70003ab0
70000e68:	70001024 	.word	0x70001024

70000e6c <arch_dcache_invd_all>:
70000e6c:	b5f0      	push	{r4, r5, r6, r7, lr}
70000e6e:	ee30 6f30 	mrc	15, 1, r6, cr0, cr0, {1}
70000e72:	2400      	movs	r4, #0
70000e74:	eb04 0344 	add.w	r3, r4, r4, lsl #1
70000e78:	fa26 f303 	lsr.w	r3, r6, r3
70000e7c:	f003 0307 	and.w	r3, r3, #7
70000e80:	3b02      	subs	r3, #2
70000e82:	2b02      	cmp	r3, #2
70000e84:	ea4f 0544 	mov.w	r5, r4, lsl #1
70000e88:	d831      	bhi.n	70000eee <arch_dcache_invd_all+0x82>
70000e8a:	ee40 5f10 	mcr	15, 2, r5, cr0, cr0, {0}
70000e8e:	ee30 7f10 	mrc	15, 1, r7, cr0, cr0, {0}
70000e92:	f3c7 0cc9 	ubfx	ip, r7, #3, #10
70000e96:	f10c 0e01 	add.w	lr, ip, #1
70000e9a:	f1bc 0f00 	cmp.w	ip, #0
70000e9e:	d02b      	beq.n	70000ef8 <arch_dcache_invd_all+0x8c>
70000ea0:	4672      	mov	r2, lr
70000ea2:	2300      	movs	r3, #0
70000ea4:	0852      	lsrs	r2, r2, #1
70000ea6:	1c59      	adds	r1, r3, #1
70000ea8:	4618      	mov	r0, r3
70000eaa:	2a01      	cmp	r2, #1
70000eac:	b2cb      	uxtb	r3, r1
70000eae:	d1f9      	bne.n	70000ea4 <arch_dcache_invd_all+0x38>
70000eb0:	f01e 0f01 	tst.w	lr, #1
70000eb4:	bf1c      	itt	ne
70000eb6:	3002      	addne	r0, #2
70000eb8:	b2c3      	uxtbne	r3, r0
70000eba:	2b20      	cmp	r3, #32
70000ebc:	bf98      	it	ls
70000ebe:	f1c3 0e20 	rsbls	lr, r3, #32
70000ec2:	d814      	bhi.n	70000eee <arch_dcache_invd_all+0x82>
70000ec4:	f007 0007 	and.w	r0, r7, #7
70000ec8:	3004      	adds	r0, #4
70000eca:	f3c7 374e 	ubfx	r7, r7, #13, #15
70000ece:	463b      	mov	r3, r7
70000ed0:	fa0c f10e 	lsl.w	r1, ip, lr
70000ed4:	4329      	orrs	r1, r5
70000ed6:	fa03 f200 	lsl.w	r2, r3, r0
70000eda:	430a      	orrs	r2, r1
70000edc:	ee07 2f56 	mcr	15, 0, r2, cr7, cr6, {2}
70000ee0:	3b01      	subs	r3, #1
70000ee2:	d2f8      	bcs.n	70000ed6 <arch_dcache_invd_all+0x6a>
70000ee4:	f1bc 0c01 	subs.w	ip, ip, #1
70000ee8:	d2f1      	bcs.n	70000ece <arch_dcache_invd_all+0x62>
70000eea:	f3bf 8f5f 	dmb	sy
70000eee:	3401      	adds	r4, #1
70000ef0:	2c07      	cmp	r4, #7
70000ef2:	d1bf      	bne.n	70000e74 <arch_dcache_invd_all+0x8>
70000ef4:	2000      	movs	r0, #0
70000ef6:	bdf0      	pop	{r4, r5, r6, r7, pc}
70000ef8:	f04f 0e20 	mov.w	lr, #32
70000efc:	e7e2      	b.n	70000ec4 <arch_dcache_invd_all+0x58>
70000efe:	bf00      	nop

70000f00 <arch_dcache_enable>:
70000f00:	b508      	push	{r3, lr}
70000f02:	f7ff ffb3 	bl	70000e6c <arch_dcache_invd_all>
70000f06:	ee11 3f10 	mrc	15, 0, r3, cr1, cr0, {0}
70000f0a:	f3bf 8f4f 	dsb	sy
70000f0e:	f043 0304 	orr.w	r3, r3, #4
70000f12:	ee01 3f10 	mcr	15, 0, r3, cr1, cr0, {0}
70000f16:	f3bf 8f6f 	isb	sy
70000f1a:	bd08      	pop	{r3, pc}

70000f1c <arch_icache_enable>:
70000f1c:	2300      	movs	r3, #0
70000f1e:	ee07 3f15 	mcr	15, 0, r3, cr7, cr5, {0}
70000f22:	f3bf 8f4f 	dsb	sy
70000f26:	f3bf 8f6f 	isb	sy
70000f2a:	ee11 3f10 	mrc	15, 0, r3, cr1, cr0, {0}
70000f2e:	f443 5380 	orr.w	r3, r3, #4096	; 0x1000
70000f32:	ee01 3f10 	mcr	15, 0, r3, cr1, cr0, {0}
70000f36:	f3bf 8f6f 	isb	sy
70000f3a:	4770      	bx	lr

70000f3c <arch_cache_init>:
70000f3c:	4770      	bx	lr
70000f3e:	bf00      	nop

70000f40 <z_arm_do_swap>:
70000f40:	ee1d1f70 	mrc	15, 0, r1, cr13, cr0, {3}
70000f44:	e3c11003 	bic	r1, r1, #3
70000f48:	e5912008 	ldr	r2, [r1, #8]
70000f4c:	e3a00030 	mov	r0, #48	; 0x30
70000f50:	e0800002 	add	r0, r0, r2
70000f54:	f102001f 	cps	#31
70000f58:	e8802ff0 	stm	r0, {r4, r5, r6, r7, r8, r9, sl, fp, sp}
70000f5c:	f1020013 	cps	#19
70000f60:	e59f3028 	ldr	r3, [pc, #40]	; 70000f90 <z_arm_do_swap+0x50>
70000f64:	e5932014 	ldr	r2, [r3, #20]
70000f68:	e5812008 	str	r2, [r1, #8]
70000f6c:	e592006c 	ldr	r0, [r2, #108]	; 0x6c
70000f70:	e3b03000 	movs	r3, #0
70000f74:	e582306c 	str	r3, [r2, #108]	; 0x6c
70000f78:	e3a00030 	mov	r0, #48	; 0x30
70000f7c:	e0800002 	add	r0, r0, r2
70000f80:	f102001f 	cps	#31
70000f84:	e8902ff0 	ldm	r0, {r4, r5, r6, r7, r8, r9, sl, fp, sp}
70000f88:	f1020013 	cps	#19
70000f8c:	e12fff1e 	bx	lr
70000f90:	70006c7c 	.word	0x70006c7c

70000f94 <z_arm_svc>:
70000f94:	f96d051f 	srsdb	sp!, #31
70000f98:	f102001f 	cps	#31
70000f9c:	e92d500f 	push	{r0, r1, r2, r3, ip, lr}
70000fa0:	e1a0c00d 	mov	ip, sp
70000fa4:	f1020013 	cps	#19
70000fa8:	e52de004 	push	{lr}		; (str lr, [sp, #-4]!)
70000fac:	e20d3004 	and	r3, sp, #4
70000fb0:	e04dd003 	sub	sp, sp, r3
70000fb4:	e92d000c 	push	{r2, r3}
70000fb8:	ee1d2f70 	mrc	15, 0, r2, cr13, cr0, {3}
70000fbc:	e3c22003 	bic	r2, r2, #3
70000fc0:	e5920000 	ldr	r0, [r2]
70000fc4:	e2800001 	add	r0, r0, #1
70000fc8:	e5820000 	str	r0, [r2]
70000fcc:	e14f0000 	mrs	r0, SPSR
70000fd0:	e3100020 	tst	r0, #32
70000fd4:	051e1004 	ldreq	r1, [lr, #-4]
70000fd8:	03c114ff 	biceq	r1, r1, #-16777216	; 0xff000000
70000fdc:	0a000001 	beq	70000fe8 <demux>
70000fe0:	e51e1002 	ldr	r1, [lr, #-2]
70000fe4:	e20110ff 	and	r1, r1, #255	; 0xff

70000fe8 <demux>:
70000fe8:	e3510000 	cmp	r1, #0
70000fec:	0a000001 	beq	70000ff8 <_context_switch>
70000ff0:	e3510002 	cmp	r1, #2
70000ff4:	0a000001 	beq	70001000 <_oops>

70000ff8 <_context_switch>:
70000ff8:	ebffffd0 	bl	70000f40 <z_arm_do_swap>
70000ffc:	ea000008 	b	70001024 <z_arm_int_exit>

70001000 <_oops>:
70001000:	f102001f 	cps	#31
70001004:	e1a0000d 	mov	r0, sp
70001008:	f1020013 	cps	#19
7000100c:	e3a01000 	mov	r1, #0
70001010:	e3a02000 	mov	r2, #0
70001014:	fafffea9 	blx	70000ac0 <z_do_kernel_oops>
70001018:	ea000001 	b	70001024 <z_arm_int_exit>

7000101c <z_arm_cortex_r_svc>:
7000101c:	ef000000 	svc	0x00000000
70001020:	e12fff1e 	bx	lr

70001024 <z_arm_int_exit>:
70001024:	f10c0080 	cpsid	i
70001028:	ee1d3f70 	mrc	15, 0, r3, cr13, cr0, {3}
7000102c:	e3c33003 	bic	r3, r3, #3
70001030:	e5930000 	ldr	r0, [r3]
70001034:	e3500001 	cmp	r0, #1
70001038:	8a000004 	bhi	70001050 <__EXIT_INT>
7000103c:	e5931008 	ldr	r1, [r3, #8]
70001040:	e59f2094 	ldr	r2, [pc, #148]	; 700010dc <__EXIT_EXC+0x18>
70001044:	e5920014 	ldr	r0, [r2, #20]
70001048:	e1500001 	cmp	r0, r1
7000104c:	1bffffbb 	blne	70000f40 <z_arm_do_swap>

70001050 <__EXIT_INT>:
70001050:	ee1d2f70 	mrc	15, 0, r2, cr13, cr0, {3}
70001054:	e3c22003 	bic	r2, r2, #3
70001058:	e5920000 	ldr	r0, [r2]
7000105c:	e2400001 	sub	r0, r0, #1
70001060:	e5820000 	str	r0, [r2]
70001064:	e8bd000c 	pop	{r2, r3}
70001068:	e08dd003 	add	sp, sp, r3
7000106c:	e49de004 	pop	{lr}		; (ldr lr, [sp], #4)
70001070:	f102001f 	cps	#31
70001074:	e8bd500f 	pop	{r0, r1, r2, r3, ip, lr}
70001078:	f8bd0a00 	rfeia	sp!

7000107c <z_arm_exc_exit>:
7000107c:	ee1d3f70 	mrc	15, 0, r3, cr13, cr0, {3}
70001080:	e3c33003 	bic	r3, r3, #3
70001084:	e5931000 	ldr	r1, [r3]
70001088:	e3510001 	cmp	r1, #1
7000108c:	8a00000c 	bhi	700010c4 <__EXIT_EXC>
70001090:	e3500000 	cmp	r0, #0
70001094:	0a00000a 	beq	700010c4 <__EXIT_EXC>
70001098:	e28dd020 	add	sp, sp, #32
7000109c:	f1020013 	cps	#19
700010a0:	ebffffa6 	bl	70000f40 <z_arm_do_swap>
700010a4:	ee1d3f70 	mrc	15, 0, r3, cr13, cr0, {3}
700010a8:	e3c33003 	bic	r3, r3, #3
700010ac:	e5930000 	ldr	r0, [r3]
700010b0:	e2400001 	sub	r0, r0, #1
700010b4:	e5830000 	str	r0, [r3]
700010b8:	f102001f 	cps	#31
700010bc:	e8bd500f 	pop	{r0, r1, r2, r3, ip, lr}
700010c0:	f8bd0a00 	rfeia	sp!

700010c4 <__EXIT_EXC>:
700010c4:	e5930000 	ldr	r0, [r3]
700010c8:	e2400001 	sub	r0, r0, #1
700010cc:	e5830000 	str	r0, [r3]
700010d0:	e8dd500f 	ldm	sp, {r0, r1, r2, r3, ip, lr}^
700010d4:	e28dd018 	add	sp, sp, #24
700010d8:	f8bd0a00 	rfeia	sp!
700010dc:	70006c7c 	.word	0x70006c7c

700010e0 <picolibc_put>:
700010e0:	b508      	push	{r3, lr}
700010e2:	f646 4368 	movw	r3, #27752	; 0x6c68
700010e6:	f2c7 0300 	movt	r3, #28672	; 0x7000
700010ea:	681b      	ldr	r3, [r3, #0]
700010ec:	4798      	blx	r3
700010ee:	2000      	movs	r0, #0
700010f0:	bd08      	pop	{r3, pc}
700010f2:	bf00      	nop

700010f4 <__stdout_hook_install>:
700010f4:	f646 4168 	movw	r1, #27752	; 0x6c68
700010f8:	f24b 1350 	movw	r3, #45392	; 0xb150
700010fc:	f2c7 0300 	movt	r3, #28672	; 0x7000
70001100:	789a      	ldrb	r2, [r3, #2]
70001102:	f2c7 0100 	movt	r1, #28672	; 0x7000
70001106:	f042 0202 	orr.w	r2, r2, #2
7000110a:	6008      	str	r0, [r1, #0]
7000110c:	709a      	strb	r2, [r3, #2]
7000110e:	4770      	bx	lr

70001110 <malloc_prepare>:
70001110:	4907      	ldr	r1, [pc, #28]	; (70001130 <malloc_prepare+0x20>)
70001112:	f646 406c 	movw	r0, #27756	; 0x6c6c
70001116:	f2c7 0000 	movt	r0, #28672	; 0x7000
7000111a:	f021 0107 	bic.w	r1, r1, #7
7000111e:	f1c1 42e0 	rsb	r2, r1, #1879048192	; 0x70000000
70001122:	f502 3200 	add.w	r2, r2, #131072	; 0x20000
70001126:	b508      	push	{r3, lr}
70001128:	f7ff fc48 	bl	700009bc <sys_heap_init>
7000112c:	2000      	movs	r0, #0
7000112e:	bd08      	pop	{r3, pc}
70001130:	7000b18b 	.word	0x7000b18b

70001134 <z_vim_irq_get_active>:
70001134:	2318      	movs	r3, #24
70001136:	f6c2 73ff 	movt	r3, #12287	; 0x2fff
7000113a:	681b      	ldr	r3, [r3, #0]
7000113c:	f3bf 8f5f 	dmb	sy
70001140:	2320      	movs	r3, #32
70001142:	f6c2 73ff 	movt	r3, #12287	; 0x2fff
70001146:	681b      	ldr	r3, [r3, #0]
70001148:	f3bf 8f5f 	dmb	sy
7000114c:	2b00      	cmp	r3, #0
7000114e:	da14      	bge.n	7000117a <z_vim_irq_get_active+0x46>
70001150:	f3c3 0009 	ubfx	r0, r3, #0, #10
70001154:	f3bf 8f5f 	dmb	sy
70001158:	2101      	movs	r1, #1
7000115a:	f44f 6282 	mov.w	r2, #1040	; 0x410
7000115e:	f003 0c1f 	and.w	ip, r3, #31
70001162:	f6c2 72ff 	movt	r2, #12287	; 0x2fff
70001166:	f403 7378 	and.w	r3, r3, #992	; 0x3e0
7000116a:	fa01 f10c 	lsl.w	r1, r1, ip
7000116e:	441a      	add	r2, r3
70001170:	6011      	str	r1, [r2, #0]
70001172:	f5b0 7f08 	cmp.w	r0, #544	; 0x220
70001176:	d200      	bcs.n	7000117a <z_vim_irq_get_active+0x46>
70001178:	4770      	bx	lr
7000117a:	f240 2001 	movw	r0, #513	; 0x201
7000117e:	4770      	bx	lr

70001180 <z_vim_irq_eoi>:
70001180:	f3bf 8f5f 	dmb	sy
70001184:	2318      	movs	r3, #24
70001186:	2200      	movs	r2, #0
70001188:	f6c2 73ff 	movt	r3, #12287	; 0x2fff
7000118c:	601a      	str	r2, [r3, #0]
7000118e:	4770      	bx	lr

70001190 <z_vim_irq_init>:
70001190:	2004      	movs	r0, #4
70001192:	f6c2 70ff 	movt	r0, #12287	; 0x2fff
70001196:	b500      	push	{lr}
70001198:	6800      	ldr	r0, [r0, #0]
7000119a:	f3bf 8f5f 	dmb	sy
7000119e:	f3c0 000a 	ubfx	r0, r0, #0, #11
700011a2:	b1b8      	cbz	r0, 700011d4 <z_vim_irq_init+0x44>
700011a4:	f240 4e0c 	movw	lr, #1036	; 0x40c
700011a8:	f240 4c04 	movw	ip, #1028	; 0x404
700011ac:	2300      	movs	r3, #0
700011ae:	f06f 4200 	mvn.w	r2, #2147483648	; 0x80000000
700011b2:	f6c2 7eff 	movt	lr, #12287	; 0x2fff
700011b6:	f6c2 7cff 	movt	ip, #12287	; 0x2fff
700011ba:	f3bf 8f5f 	dmb	sy
700011be:	eb03 010e 	add.w	r1, r3, lr
700011c2:	600a      	str	r2, [r1, #0]
700011c4:	f3bf 8f5f 	dmb	sy
700011c8:	eb03 010c 	add.w	r1, r3, ip
700011cc:	600a      	str	r2, [r1, #0]
700011ce:	3320      	adds	r3, #32
700011d0:	4298      	cmp	r0, r3
700011d2:	d8f2      	bhi.n	700011ba <z_vim_irq_init+0x2a>
700011d4:	2318      	movs	r3, #24
700011d6:	f6c2 73ff 	movt	r3, #12287	; 0x2fff
700011da:	681a      	ldr	r2, [r3, #0]
700011dc:	f3bf 8f5f 	dmb	sy
700011e0:	f3bf 8f5f 	dmb	sy
700011e4:	2200      	movs	r2, #0
700011e6:	601a      	str	r2, [r3, #0]
700011e8:	231c      	movs	r3, #28
700011ea:	f6c2 73ff 	movt	r3, #12287	; 0x2fff
700011ee:	6819      	ldr	r1, [r3, #0]
700011f0:	f3bf 8f5f 	dmb	sy
700011f4:	f3bf 8f5f 	dmb	sy
700011f8:	601a      	str	r2, [r3, #0]
700011fa:	f85d fb04 	ldr.w	pc, [sp], #4
700011fe:	bf00      	nop

70001200 <z_vim_irq_priority_set>:
70001200:	290f      	cmp	r1, #15
70001202:	bf98      	it	ls
70001204:	f5b0 7f00 	cmpls.w	r0, #512	; 0x200
70001208:	d824      	bhi.n	70001254 <z_vim_irq_priority_set+0x54>
7000120a:	1e93      	subs	r3, r2, #2
7000120c:	f033 0302 	bics.w	r3, r3, #2
70001210:	d120      	bne.n	70001254 <z_vim_irq_priority_set+0x54>
70001212:	f3bf 8f5f 	dmb	sy
70001216:	f100 6340 	add.w	r3, r0, #201326592	; 0xc000000
7000121a:	f5a3 5370 	sub.w	r3, r3, #15360	; 0x3c00
7000121e:	009b      	lsls	r3, r3, #2
70001220:	7019      	strb	r1, [r3, #0]
70001222:	f240 431c 	movw	r3, #1052	; 0x41c
70001226:	f020 011f 	bic.w	r1, r0, #31
7000122a:	f6c2 73ff 	movt	r3, #12287	; 0x2fff
7000122e:	440b      	add	r3, r1
70001230:	6819      	ldr	r1, [r3, #0]
70001232:	f3bf 8f5f 	dmb	sy
70001236:	f04f 0c01 	mov.w	ip, #1
7000123a:	f000 001f 	and.w	r0, r0, #31
7000123e:	2a04      	cmp	r2, #4
70001240:	fa0c f000 	lsl.w	r0, ip, r0
70001244:	bf0c      	ite	eq
70001246:	ea40 0201 	orreq.w	r2, r0, r1
7000124a:	ea21 0200 	bicne.w	r2, r1, r0
7000124e:	f3bf 8f5f 	dmb	sy
70001252:	601a      	str	r2, [r3, #0]
70001254:	4770      	bx	lr
70001256:	bf00      	nop

70001258 <z_vim_irq_enable>:
70001258:	f5b0 7f00 	cmp.w	r0, #512	; 0x200
7000125c:	d80d      	bhi.n	7000127a <z_vim_irq_enable+0x22>
7000125e:	f3bf 8f5f 	dmb	sy
70001262:	2201      	movs	r2, #1
70001264:	f44f 6381 	mov.w	r3, #1032	; 0x408
70001268:	f000 011f 	and.w	r1, r0, #31
7000126c:	f6c2 73ff 	movt	r3, #12287	; 0x2fff
70001270:	f020 001f 	bic.w	r0, r0, #31
70001274:	408a      	lsls	r2, r1
70001276:	4403      	add	r3, r0
70001278:	601a      	str	r2, [r3, #0]
7000127a:	4770      	bx	lr

7000127c <console_out>:
7000127c:	280a      	cmp	r0, #10
7000127e:	b538      	push	{r3, r4, r5, lr}
70001280:	4604      	mov	r4, r0
70001282:	d00d      	beq.n	700012a0 <console_out+0x24>
70001284:	f643 259c 	movw	r5, #15004	; 0x3a9c
70001288:	f2c7 0500 	movt	r5, #28672	; 0x7000
7000128c:	68ab      	ldr	r3, [r5, #8]
7000128e:	f643 209c 	movw	r0, #15004	; 0x3a9c
70001292:	b2e1      	uxtb	r1, r4
70001294:	f2c7 0000 	movt	r0, #28672	; 0x7000
70001298:	685b      	ldr	r3, [r3, #4]
7000129a:	4798      	blx	r3
7000129c:	4620      	mov	r0, r4
7000129e:	bd38      	pop	{r3, r4, r5, pc}
700012a0:	f643 259c 	movw	r5, #15004	; 0x3a9c
700012a4:	210d      	movs	r1, #13
700012a6:	f2c7 0500 	movt	r5, #28672	; 0x7000
700012aa:	4628      	mov	r0, r5
700012ac:	68ab      	ldr	r3, [r5, #8]
700012ae:	685b      	ldr	r3, [r3, #4]
700012b0:	4798      	blx	r3
700012b2:	e7eb      	b.n	7000128c <console_out+0x10>

700012b4 <uart_console_init>:
700012b4:	b508      	push	{r3, lr}
700012b6:	f643 209c 	movw	r0, #15004	; 0x3a9c
700012ba:	f2c7 0000 	movt	r0, #28672	; 0x7000
700012be:	f000 fbe1 	bl	70001a84 <z_impl_device_is_ready>
700012c2:	b168      	cbz	r0, 700012e0 <uart_console_init+0x2c>
700012c4:	f241 207d 	movw	r0, #4733	; 0x127d
700012c8:	f2c7 0000 	movt	r0, #28672	; 0x7000
700012cc:	f7ff ff12 	bl	700010f4 <__stdout_hook_install>
700012d0:	f241 207d 	movw	r0, #4733	; 0x127d
700012d4:	f2c7 0000 	movt	r0, #28672	; 0x7000
700012d8:	f7ff fbae 	bl	70000a38 <__printk_hook_install>
700012dc:	2000      	movs	r0, #0
700012de:	bd08      	pop	{r3, pc}
700012e0:	f06f 0012 	mvn.w	r0, #18
700012e4:	bd08      	pop	{r3, pc}
700012e6:	bf00      	nop

700012e8 <pinctrl_lookup_state>:
700012e8:	6803      	ldr	r3, [r0, #0]
700012ea:	6013      	str	r3, [r2, #0]
700012ec:	f890 c004 	ldrb.w	ip, [r0, #4]
700012f0:	eb03 0ccc 	add.w	ip, r3, ip, lsl #3
700012f4:	4563      	cmp	r3, ip
700012f6:	d21f      	bcs.n	70001338 <pinctrl_lookup_state+0x50>
700012f8:	f893 c005 	ldrb.w	ip, [r3, #5]
700012fc:	458c      	cmp	ip, r1
700012fe:	f103 0308 	add.w	r3, r3, #8
70001302:	d017      	beq.n	70001334 <pinctrl_lookup_state+0x4c>
70001304:	b500      	push	{lr}
70001306:	e005      	b.n	70001314 <pinctrl_lookup_state+0x2c>
70001308:	f893 c005 	ldrb.w	ip, [r3, #5]
7000130c:	458c      	cmp	ip, r1
7000130e:	f103 0308 	add.w	r3, r3, #8
70001312:	d00c      	beq.n	7000132e <pinctrl_lookup_state+0x46>
70001314:	6013      	str	r3, [r2, #0]
70001316:	f890 c004 	ldrb.w	ip, [r0, #4]
7000131a:	f8d0 e000 	ldr.w	lr, [r0]
7000131e:	eb0e 0ccc 	add.w	ip, lr, ip, lsl #3
70001322:	4563      	cmp	r3, ip
70001324:	d3f0      	bcc.n	70001308 <pinctrl_lookup_state+0x20>
70001326:	f06f 0001 	mvn.w	r0, #1
7000132a:	f85d fb04 	ldr.w	pc, [sp], #4
7000132e:	2000      	movs	r0, #0
70001330:	f85d fb04 	ldr.w	pc, [sp], #4
70001334:	2000      	movs	r0, #0
70001336:	4770      	bx	lr
70001338:	f06f 0001 	mvn.w	r0, #1
7000133c:	4770      	bx	lr
7000133e:	bf00      	nop

70001340 <pinctrl_ti_k3_init>:
70001340:	2000      	movs	r0, #0
70001342:	4770      	bx	lr

70001344 <pinctrl_configure_pins>:
70001344:	f24b 1360 	movw	r3, #45408	; 0xb160
70001348:	f2c7 0300 	movt	r3, #28672	; 0x7000
7000134c:	b410      	push	{r4}
7000134e:	681c      	ldr	r4, [r3, #0]
70001350:	b151      	cbz	r1, 70001368 <pinctrl_configure_pins+0x24>
70001352:	eb00 01c1 	add.w	r1, r0, r1, lsl #3
70001356:	6842      	ldr	r2, [r0, #4]
70001358:	f850 3b08 	ldr.w	r3, [r0], #8
7000135c:	4423      	add	r3, r4
7000135e:	f3bf 8f5f 	dmb	sy
70001362:	601a      	str	r2, [r3, #0]
70001364:	4288      	cmp	r0, r1
70001366:	d1f6      	bne.n	70001356 <pinctrl_configure_pins+0x12>
70001368:	bc10      	pop	{r4}
7000136a:	2000      	movs	r0, #0
7000136c:	4770      	bx	lr
7000136e:	bf00      	nop

70001370 <uart_ns16550_config_get>:
70001370:	4603      	mov	r3, r0
70001372:	2000      	movs	r0, #0
70001374:	691b      	ldr	r3, [r3, #16]
70001376:	681a      	ldr	r2, [r3, #0]
70001378:	600a      	str	r2, [r1, #0]
7000137a:	791a      	ldrb	r2, [r3, #4]
7000137c:	710a      	strb	r2, [r1, #4]
7000137e:	795a      	ldrb	r2, [r3, #5]
70001380:	714a      	strb	r2, [r1, #5]
70001382:	799a      	ldrb	r2, [r3, #6]
70001384:	718a      	strb	r2, [r1, #6]
70001386:	79db      	ldrb	r3, [r3, #7]
70001388:	71cb      	strb	r3, [r1, #7]
7000138a:	4770      	bx	lr

7000138c <uart_ns16550_poll_out>:
7000138c:	b410      	push	{r4}
7000138e:	f3ef 8400 	mrs	r4, CPSR
70001392:	f004 0480 	and.w	r4, r4, #128	; 0x80
70001396:	b672      	cpsid	i
70001398:	f04f 0c05 	mov.w	ip, #5
7000139c:	6842      	ldr	r2, [r0, #4]
7000139e:	7d13      	ldrb	r3, [r2, #20]
700013a0:	6812      	ldr	r2, [r2, #0]
700013a2:	fb1c 2303 	smlabb	r3, ip, r3, r2
700013a6:	681b      	ldr	r3, [r3, #0]
700013a8:	f3bf 8f5f 	dmb	sy
700013ac:	069b      	lsls	r3, r3, #26
700013ae:	d5f5      	bpl.n	7000139c <uart_ns16550_poll_out+0x10>
700013b0:	6843      	ldr	r3, [r0, #4]
700013b2:	681b      	ldr	r3, [r3, #0]
700013b4:	f3bf 8f5f 	dmb	sy
700013b8:	6019      	str	r1, [r3, #0]
700013ba:	b904      	cbnz	r4, 700013be <uart_ns16550_poll_out+0x32>
700013bc:	b662      	cpsie	i
700013be:	bc10      	pop	{r4}
700013c0:	4770      	bx	lr
700013c2:	bf00      	nop

700013c4 <uart_ns16550_err_check>:
700013c4:	f3ef 8200 	mrs	r2, CPSR
700013c8:	f002 0280 	and.w	r2, r2, #128	; 0x80
700013cc:	b672      	cpsid	i
700013ce:	6843      	ldr	r3, [r0, #4]
700013d0:	7d19      	ldrb	r1, [r3, #20]
700013d2:	2005      	movs	r0, #5
700013d4:	681b      	ldr	r3, [r3, #0]
700013d6:	fb10 3001 	smlabb	r0, r0, r1, r3
700013da:	6800      	ldr	r0, [r0, #0]
700013dc:	f3bf 8f5f 	dmb	sy
700013e0:	b902      	cbnz	r2, 700013e4 <uart_ns16550_err_check+0x20>
700013e2:	b662      	cpsie	i
700013e4:	f3c0 0043 	ubfx	r0, r0, #1, #4
700013e8:	4770      	bx	lr
700013ea:	bf00      	nop

700013ec <uart_ns16550_fifo_fill>:
700013ec:	b470      	push	{r4, r5, r6}
700013ee:	6905      	ldr	r5, [r0, #16]
700013f0:	f3ef 8600 	mrs	r6, CPSR
700013f4:	f006 0680 	and.w	r6, r6, #128	; 0x80
700013f8:	b672      	cpsid	i
700013fa:	2a00      	cmp	r2, #0
700013fc:	dd15      	ble.n	7000142a <uart_ns16550_fifo_fill+0x3e>
700013fe:	4684      	mov	ip, r0
70001400:	3901      	subs	r1, #1
70001402:	2000      	movs	r0, #0
70001404:	e00a      	b.n	7000141c <uart_ns16550_fifo_fill+0x30>
70001406:	f8dc 4004 	ldr.w	r4, [ip, #4]
7000140a:	f811 3f01 	ldrb.w	r3, [r1, #1]!
7000140e:	6824      	ldr	r4, [r4, #0]
70001410:	f3bf 8f5f 	dmb	sy
70001414:	6023      	str	r3, [r4, #0]
70001416:	3001      	adds	r0, #1
70001418:	4282      	cmp	r2, r0
7000141a:	d002      	beq.n	70001422 <uart_ns16550_fifo_fill+0x36>
7000141c:	7a2b      	ldrb	r3, [r5, #8]
7000141e:	4283      	cmp	r3, r0
70001420:	dcf1      	bgt.n	70001406 <uart_ns16550_fifo_fill+0x1a>
70001422:	b906      	cbnz	r6, 70001426 <uart_ns16550_fifo_fill+0x3a>
70001424:	b662      	cpsie	i
70001426:	bc70      	pop	{r4, r5, r6}
70001428:	4770      	bx	lr
7000142a:	2000      	movs	r0, #0
7000142c:	e7f9      	b.n	70001422 <uart_ns16550_fifo_fill+0x36>
7000142e:	bf00      	nop

70001430 <uart_ns16550_irq_tx_enable>:
70001430:	f3ef 8100 	mrs	r1, CPSR
70001434:	f001 0180 	and.w	r1, r1, #128	; 0x80
70001438:	b672      	cpsid	i
7000143a:	6843      	ldr	r3, [r0, #4]
7000143c:	7d1a      	ldrb	r2, [r3, #20]
7000143e:	681b      	ldr	r3, [r3, #0]
70001440:	441a      	add	r2, r3
70001442:	6813      	ldr	r3, [r2, #0]
70001444:	f3bf 8f5f 	dmb	sy
70001448:	f3bf 8f5f 	dmb	sy
7000144c:	f043 0302 	orr.w	r3, r3, #2
70001450:	b2db      	uxtb	r3, r3
70001452:	6013      	str	r3, [r2, #0]
70001454:	b901      	cbnz	r1, 70001458 <uart_ns16550_irq_tx_enable+0x28>
70001456:	b662      	cpsie	i
70001458:	4770      	bx	lr
7000145a:	bf00      	nop

7000145c <uart_ns16550_irq_tx_disable>:
7000145c:	f3ef 8100 	mrs	r1, CPSR
70001460:	f001 0180 	and.w	r1, r1, #128	; 0x80
70001464:	b672      	cpsid	i
70001466:	6842      	ldr	r2, [r0, #4]
70001468:	7d13      	ldrb	r3, [r2, #20]
7000146a:	6812      	ldr	r2, [r2, #0]
7000146c:	4413      	add	r3, r2
7000146e:	681a      	ldr	r2, [r3, #0]
70001470:	f3bf 8f5f 	dmb	sy
70001474:	f3bf 8f5f 	dmb	sy
70001478:	f002 02fd 	and.w	r2, r2, #253	; 0xfd
7000147c:	601a      	str	r2, [r3, #0]
7000147e:	b901      	cbnz	r1, 70001482 <uart_ns16550_irq_tx_disable+0x26>
70001480:	b662      	cpsie	i
70001482:	4770      	bx	lr

70001484 <uart_ns16550_irq_tx_ready>:
70001484:	f3ef 8300 	mrs	r3, CPSR
70001488:	f003 0380 	and.w	r3, r3, #128	; 0x80
7000148c:	b672      	cpsid	i
7000148e:	6902      	ldr	r2, [r0, #16]
70001490:	7a50      	ldrb	r0, [r2, #9]
70001492:	f000 0006 	and.w	r0, r0, #6
70001496:	f1a0 0002 	sub.w	r0, r0, #2
7000149a:	fab0 f080 	clz	r0, r0
7000149e:	0940      	lsrs	r0, r0, #5
700014a0:	b903      	cbnz	r3, 700014a4 <uart_ns16550_irq_tx_ready+0x20>
700014a2:	b662      	cpsie	i
700014a4:	4770      	bx	lr
700014a6:	bf00      	nop

700014a8 <uart_ns16550_irq_tx_complete>:
700014a8:	f3ef 8200 	mrs	r2, CPSR
700014ac:	f002 0280 	and.w	r2, r2, #128	; 0x80
700014b0:	b672      	cpsid	i
700014b2:	6843      	ldr	r3, [r0, #4]
700014b4:	7d19      	ldrb	r1, [r3, #20]
700014b6:	2005      	movs	r0, #5
700014b8:	681b      	ldr	r3, [r3, #0]
700014ba:	fb10 3001 	smlabb	r0, r0, r1, r3
700014be:	6800      	ldr	r0, [r0, #0]
700014c0:	f3bf 8f5f 	dmb	sy
700014c4:	f000 0060 	and.w	r0, r0, #96	; 0x60
700014c8:	f1a0 0060 	sub.w	r0, r0, #96	; 0x60
700014cc:	fab0 f080 	clz	r0, r0
700014d0:	0940      	lsrs	r0, r0, #5
700014d2:	b902      	cbnz	r2, 700014d6 <uart_ns16550_irq_tx_complete+0x2e>
700014d4:	b662      	cpsie	i
700014d6:	4770      	bx	lr

700014d8 <uart_ns16550_irq_rx_enable>:
700014d8:	f3ef 8100 	mrs	r1, CPSR
700014dc:	f001 0180 	and.w	r1, r1, #128	; 0x80
700014e0:	b672      	cpsid	i
700014e2:	6843      	ldr	r3, [r0, #4]
700014e4:	7d1a      	ldrb	r2, [r3, #20]
700014e6:	681b      	ldr	r3, [r3, #0]
700014e8:	441a      	add	r2, r3
700014ea:	6813      	ldr	r3, [r2, #0]
700014ec:	f3bf 8f5f 	dmb	sy
700014f0:	f3bf 8f5f 	dmb	sy
700014f4:	f043 0301 	orr.w	r3, r3, #1
700014f8:	b2db      	uxtb	r3, r3
700014fa:	6013      	str	r3, [r2, #0]
700014fc:	b901      	cbnz	r1, 70001500 <uart_ns16550_irq_rx_enable+0x28>
700014fe:	b662      	cpsie	i
70001500:	4770      	bx	lr
70001502:	bf00      	nop

70001504 <uart_ns16550_irq_rx_disable>:
70001504:	f3ef 8100 	mrs	r1, CPSR
70001508:	f001 0180 	and.w	r1, r1, #128	; 0x80
7000150c:	b672      	cpsid	i
7000150e:	6842      	ldr	r2, [r0, #4]
70001510:	7d13      	ldrb	r3, [r2, #20]
70001512:	6812      	ldr	r2, [r2, #0]
70001514:	4413      	add	r3, r2
70001516:	681a      	ldr	r2, [r3, #0]
70001518:	f3bf 8f5f 	dmb	sy
7000151c:	f3bf 8f5f 	dmb	sy
70001520:	f002 02fe 	and.w	r2, r2, #254	; 0xfe
70001524:	601a      	str	r2, [r3, #0]
70001526:	b901      	cbnz	r1, 7000152a <uart_ns16550_irq_rx_disable+0x26>
70001528:	b662      	cpsie	i
7000152a:	4770      	bx	lr

7000152c <uart_ns16550_irq_rx_ready>:
7000152c:	f3ef 8300 	mrs	r3, CPSR
70001530:	f003 0380 	and.w	r3, r3, #128	; 0x80
70001534:	b672      	cpsid	i
70001536:	6902      	ldr	r2, [r0, #16]
70001538:	7a50      	ldrb	r0, [r2, #9]
7000153a:	f000 0006 	and.w	r0, r0, #6
7000153e:	f1a0 0004 	sub.w	r0, r0, #4
70001542:	fab0 f080 	clz	r0, r0
70001546:	0940      	lsrs	r0, r0, #5
70001548:	b903      	cbnz	r3, 7000154c <uart_ns16550_irq_rx_ready+0x20>
7000154a:	b662      	cpsie	i
7000154c:	4770      	bx	lr
7000154e:	bf00      	nop

70001550 <uart_ns16550_irq_err_enable>:
70001550:	f3ef 8100 	mrs	r1, CPSR
70001554:	f001 0180 	and.w	r1, r1, #128	; 0x80
70001558:	b672      	cpsid	i
7000155a:	6843      	ldr	r3, [r0, #4]
7000155c:	7d1a      	ldrb	r2, [r3, #20]
7000155e:	681b      	ldr	r3, [r3, #0]
70001560:	441a      	add	r2, r3
70001562:	6813      	ldr	r3, [r2, #0]
70001564:	f3bf 8f5f 	dmb	sy
70001568:	f3bf 8f5f 	dmb	sy
7000156c:	f043 0304 	orr.w	r3, r3, #4
70001570:	b2db      	uxtb	r3, r3
70001572:	6013      	str	r3, [r2, #0]
70001574:	b901      	cbnz	r1, 70001578 <uart_ns16550_irq_err_enable+0x28>
70001576:	b662      	cpsie	i
70001578:	4770      	bx	lr
7000157a:	bf00      	nop

7000157c <uart_ns16550_irq_err_disable>:
7000157c:	f3ef 8100 	mrs	r1, CPSR
70001580:	f001 0180 	and.w	r1, r1, #128	; 0x80
70001584:	b672      	cpsid	i
70001586:	6842      	ldr	r2, [r0, #4]
70001588:	7d13      	ldrb	r3, [r2, #20]
7000158a:	6812      	ldr	r2, [r2, #0]
7000158c:	4413      	add	r3, r2
7000158e:	681a      	ldr	r2, [r3, #0]
70001590:	f3bf 8f5f 	dmb	sy
70001594:	f3bf 8f5f 	dmb	sy
70001598:	f002 02fb 	and.w	r2, r2, #251	; 0xfb
7000159c:	601a      	str	r2, [r3, #0]
7000159e:	b901      	cbnz	r1, 700015a2 <uart_ns16550_irq_err_disable+0x26>
700015a0:	b662      	cpsie	i
700015a2:	4770      	bx	lr

700015a4 <uart_ns16550_irq_is_pending>:
700015a4:	f3ef 8300 	mrs	r3, CPSR
700015a8:	f003 0380 	and.w	r3, r3, #128	; 0x80
700015ac:	b672      	cpsid	i
700015ae:	6902      	ldr	r2, [r0, #16]
700015b0:	7a50      	ldrb	r0, [r2, #9]
700015b2:	43c0      	mvns	r0, r0
700015b4:	f000 0001 	and.w	r0, r0, #1
700015b8:	b903      	cbnz	r3, 700015bc <uart_ns16550_irq_is_pending+0x18>
700015ba:	b662      	cpsie	i
700015bc:	4770      	bx	lr
700015be:	bf00      	nop

700015c0 <uart_ns16550_irq_update>:
700015c0:	f3ef 8200 	mrs	r2, CPSR
700015c4:	f002 0280 	and.w	r2, r2, #128	; 0x80
700015c8:	b672      	cpsid	i
700015ca:	6843      	ldr	r3, [r0, #4]
700015cc:	6901      	ldr	r1, [r0, #16]
700015ce:	7d18      	ldrb	r0, [r3, #20]
700015d0:	681b      	ldr	r3, [r3, #0]
700015d2:	eb03 0340 	add.w	r3, r3, r0, lsl #1
700015d6:	681b      	ldr	r3, [r3, #0]
700015d8:	f3bf 8f5f 	dmb	sy
700015dc:	724b      	strb	r3, [r1, #9]
700015de:	b902      	cbnz	r2, 700015e2 <uart_ns16550_irq_update+0x22>
700015e0:	b662      	cpsie	i
700015e2:	2001      	movs	r0, #1
700015e4:	4770      	bx	lr
700015e6:	bf00      	nop

700015e8 <uart_ns16550_irq_callback_set>:
700015e8:	6903      	ldr	r3, [r0, #16]
700015ea:	f3ef 8000 	mrs	r0, CPSR
700015ee:	f000 0080 	and.w	r0, r0, #128	; 0x80
700015f2:	b672      	cpsid	i
700015f4:	e9c3 1203 	strd	r1, r2, [r3, #12]
700015f8:	b900      	cbnz	r0, 700015fc <uart_ns16550_irq_callback_set+0x14>
700015fa:	b662      	cpsie	i
700015fc:	4770      	bx	lr
700015fe:	bf00      	nop

70001600 <uart_ns16550_isr>:
70001600:	6902      	ldr	r2, [r0, #16]
70001602:	68d3      	ldr	r3, [r2, #12]
70001604:	b10b      	cbz	r3, 7000160a <uart_ns16550_isr+0xa>
70001606:	6911      	ldr	r1, [r2, #16]
70001608:	4718      	bx	r3
7000160a:	4770      	bx	lr

7000160c <uart_ns16550_irq_config_func0>:
7000160c:	20d2      	movs	r0, #210	; 0xd2
7000160e:	2200      	movs	r2, #0
70001610:	b508      	push	{r3, lr}
70001612:	210f      	movs	r1, #15
70001614:	f7ff fa46 	bl	70000aa4 <z_soc_irq_priority_set>
70001618:	e8bd 4008 	ldmia.w	sp!, {r3, lr}
7000161c:	20d2      	movs	r0, #210	; 0xd2
7000161e:	f7ff ba43 	b.w	70000aa8 <z_soc_irq_enable>
70001622:	bf00      	nop

70001624 <uart_ns16550_configure>:
70001624:	e92d 43f0 	stmdb	sp!, {r4, r5, r6, r7, r8, r9, lr}
70001628:	f04f 0900 	mov.w	r9, #0
7000162c:	b083      	sub	sp, #12
7000162e:	6906      	ldr	r6, [r0, #16]
70001630:	4604      	mov	r4, r0
70001632:	f8d0 8004 	ldr.w	r8, [r0, #4]
70001636:	460d      	mov	r5, r1
70001638:	f8cd 9000 	str.w	r9, [sp]
7000163c:	f3ef 8700 	mrs	r7, CPSR
70001640:	f007 0780 	and.w	r7, r7, #128	; 0x80
70001644:	b672      	cpsid	i
70001646:	f8d8 0018 	ldr.w	r0, [r8, #24]
7000164a:	b158      	cbz	r0, 70001664 <uart_ns16550_configure+0x40>
7000164c:	4649      	mov	r1, r9
7000164e:	aa01      	add	r2, sp, #4
70001650:	f7ff fe4a 	bl	700012e8 <pinctrl_lookup_state>
70001654:	4548      	cmp	r0, r9
70001656:	db05      	blt.n	70001664 <uart_ns16550_configure+0x40>
70001658:	9b01      	ldr	r3, [sp, #4]
7000165a:	464a      	mov	r2, r9
7000165c:	7919      	ldrb	r1, [r3, #4]
7000165e:	6818      	ldr	r0, [r3, #0]
70001660:	f7ff fe70 	bl	70001344 <pinctrl_configure_pins>
70001664:	2300      	movs	r3, #0
70001666:	2208      	movs	r2, #8
70001668:	7273      	strb	r3, [r6, #9]
7000166a:	6861      	ldr	r1, [r4, #4]
7000166c:	7d0b      	ldrb	r3, [r1, #20]
7000166e:	6809      	ldr	r1, [r1, #0]
70001670:	fb12 1303 	smlabb	r3, r2, r3, r1
70001674:	681b      	ldr	r3, [r3, #0]
70001676:	f3bf 8f5f 	dmb	sy
7000167a:	6861      	ldr	r1, [r4, #4]
7000167c:	7d08      	ldrb	r0, [r1, #20]
7000167e:	6809      	ldr	r1, [r1, #0]
70001680:	fb12 1200 	smlabb	r2, r2, r0, r1
70001684:	f3bf 8f5f 	dmb	sy
70001688:	f003 03f8 	and.w	r3, r3, #248	; 0xf8
7000168c:	6013      	str	r3, [r2, #0]
7000168e:	f8d8 3004 	ldr.w	r3, [r8, #4]
70001692:	2b00      	cmp	r3, #0
70001694:	f000 80ad 	beq.w	700017f2 <uart_ns16550_configure+0x1ce>
70001698:	9300      	str	r3, [sp, #0]
7000169a:	6829      	ldr	r1, [r5, #0]
7000169c:	2900      	cmp	r1, #0
7000169e:	bf18      	it	ne
700016a0:	2b00      	cmpne	r3, #0
700016a2:	d168      	bne.n	70001776 <uart_ns16550_configure+0x152>
700016a4:	79aa      	ldrb	r2, [r5, #6]
700016a6:	2a03      	cmp	r2, #3
700016a8:	d862      	bhi.n	70001770 <uart_ns16550_configure+0x14c>
700016aa:	796b      	ldrb	r3, [r5, #5]
700016ac:	2b01      	cmp	r3, #1
700016ae:	f000 80af 	beq.w	70001810 <uart_ns16550_configure+0x1ec>
700016b2:	2b03      	cmp	r3, #3
700016b4:	bf08      	it	eq
700016b6:	f04f 0e04 	moveq.w	lr, #4
700016ba:	d159      	bne.n	70001770 <uart_ns16550_configure+0x14c>
700016bc:	792b      	ldrb	r3, [r5, #4]
700016be:	b113      	cbz	r3, 700016c6 <uart_ns16550_configure+0xa2>
700016c0:	2b02      	cmp	r3, #2
700016c2:	d155      	bne.n	70001770 <uart_ns16550_configure+0x14c>
700016c4:	2310      	movs	r3, #16
700016c6:	e895 0003 	ldmia.w	r5, {r0, r1}
700016ca:	f04f 0c03 	mov.w	ip, #3
700016ce:	e886 0003 	stmia.w	r6, {r0, r1}
700016d2:	6861      	ldr	r1, [r4, #4]
700016d4:	7d08      	ldrb	r0, [r1, #20]
700016d6:	6809      	ldr	r1, [r1, #0]
700016d8:	fb1c 1c00 	smlabb	ip, ip, r0, r1
700016dc:	f3bf 8f5f 	dmb	sy
700016e0:	ea42 020e 	orr.w	r2, r2, lr
700016e4:	4313      	orrs	r3, r2
700016e6:	f8cc 3000 	str.w	r3, [ip]
700016ea:	6862      	ldr	r2, [r4, #4]
700016ec:	79eb      	ldrb	r3, [r5, #7]
700016ee:	2b01      	cmp	r3, #1
700016f0:	bf0c      	ite	eq
700016f2:	212b      	moveq	r1, #43	; 0x2b
700016f4:	210b      	movne	r1, #11
700016f6:	6813      	ldr	r3, [r2, #0]
700016f8:	7d12      	ldrb	r2, [r2, #20]
700016fa:	eb03 0382 	add.w	r3, r3, r2, lsl #2
700016fe:	f3bf 8f5f 	dmb	sy
70001702:	6019      	str	r1, [r3, #0]
70001704:	6863      	ldr	r3, [r4, #4]
70001706:	7d1a      	ldrb	r2, [r3, #20]
70001708:	6819      	ldr	r1, [r3, #0]
7000170a:	2302      	movs	r3, #2
7000170c:	fb13 1202 	smlabb	r2, r3, r2, r1
70001710:	f3bf 8f5f 	dmb	sy
70001714:	21a7      	movs	r1, #167	; 0xa7
70001716:	6011      	str	r1, [r2, #0]
70001718:	6862      	ldr	r2, [r4, #4]
7000171a:	7d11      	ldrb	r1, [r2, #20]
7000171c:	6812      	ldr	r2, [r2, #0]
7000171e:	fb13 2301 	smlabb	r3, r3, r1, r2
70001722:	681b      	ldr	r3, [r3, #0]
70001724:	f3bf 8f5f 	dmb	sy
70001728:	2205      	movs	r2, #5
7000172a:	f003 03c0 	and.w	r3, r3, #192	; 0xc0
7000172e:	2bc0      	cmp	r3, #192	; 0xc0
70001730:	bf14      	ite	ne
70001732:	2301      	movne	r3, #1
70001734:	2340      	moveq	r3, #64	; 0x40
70001736:	7233      	strb	r3, [r6, #8]
70001738:	6863      	ldr	r3, [r4, #4]
7000173a:	7d19      	ldrb	r1, [r3, #20]
7000173c:	681b      	ldr	r3, [r3, #0]
7000173e:	fb12 3301 	smlabb	r3, r2, r1, r3
70001742:	681b      	ldr	r3, [r3, #0]
70001744:	f3bf 8f5f 	dmb	sy
70001748:	07db      	lsls	r3, r3, #31
7000174a:	d504      	bpl.n	70001756 <uart_ns16550_configure+0x132>
7000174c:	6863      	ldr	r3, [r4, #4]
7000174e:	681b      	ldr	r3, [r3, #0]
70001750:	681b      	ldr	r3, [r3, #0]
70001752:	f3bf 8f5f 	dmb	sy
70001756:	6862      	ldr	r2, [r4, #4]
70001758:	7d13      	ldrb	r3, [r2, #20]
7000175a:	6812      	ldr	r2, [r2, #0]
7000175c:	4413      	add	r3, r2
7000175e:	f3bf 8f5f 	dmb	sy
70001762:	2000      	movs	r0, #0
70001764:	6018      	str	r0, [r3, #0]
70001766:	b907      	cbnz	r7, 7000176a <uart_ns16550_configure+0x146>
70001768:	b662      	cpsie	i
7000176a:	b003      	add	sp, #12
7000176c:	e8bd 83f0 	ldmia.w	sp!, {r4, r5, r6, r7, r8, r9, pc}
70001770:	f06f 0085 	mvn.w	r0, #133	; 0x85
70001774:	e7f7      	b.n	70001766 <uart_ns16550_configure+0x142>
70001776:	6860      	ldr	r0, [r4, #4]
70001778:	7d02      	ldrb	r2, [r0, #20]
7000177a:	f04f 0c03 	mov.w	ip, #3
7000177e:	eb03 03c1 	add.w	r3, r3, r1, lsl #3
70001782:	f8d4 e010 	ldr.w	lr, [r4, #16]
70001786:	6800      	ldr	r0, [r0, #0]
70001788:	fbb3 f3f1 	udiv	r3, r3, r1
7000178c:	fb1c 0202 	smlabb	r2, ip, r2, r0
70001790:	6812      	ldr	r2, [r2, #0]
70001792:	f3bf 8f5f 	dmb	sy
70001796:	6860      	ldr	r0, [r4, #4]
70001798:	f890 8014 	ldrb.w	r8, [r0, #20]
7000179c:	6800      	ldr	r0, [r0, #0]
7000179e:	fb1c 0808 	smlabb	r8, ip, r8, r0
700017a2:	f3bf 8f5f 	dmb	sy
700017a6:	f062 007f 	orn	r0, r2, #127	; 0x7f
700017aa:	b2c0      	uxtb	r0, r0
700017ac:	f8c8 0000 	str.w	r0, [r8]
700017b0:	6860      	ldr	r0, [r4, #4]
700017b2:	f8d0 8000 	ldr.w	r8, [r0]
700017b6:	f3bf 8f5f 	dmb	sy
700017ba:	f3c3 1007 	ubfx	r0, r3, #4, #8
700017be:	f8c8 0000 	str.w	r0, [r8]
700017c2:	f8d4 8004 	ldr.w	r8, [r4, #4]
700017c6:	f898 0014 	ldrb.w	r0, [r8, #20]
700017ca:	f8d8 8000 	ldr.w	r8, [r8]
700017ce:	4440      	add	r0, r8
700017d0:	f3bf 8f5f 	dmb	sy
700017d4:	f3c3 3307 	ubfx	r3, r3, #12, #8
700017d8:	6003      	str	r3, [r0, #0]
700017da:	6863      	ldr	r3, [r4, #4]
700017dc:	7d18      	ldrb	r0, [r3, #20]
700017de:	681b      	ldr	r3, [r3, #0]
700017e0:	fb1c 3300 	smlabb	r3, ip, r0, r3
700017e4:	f3bf 8f5f 	dmb	sy
700017e8:	b2d2      	uxtb	r2, r2
700017ea:	601a      	str	r2, [r3, #0]
700017ec:	f8ce 1000 	str.w	r1, [lr]
700017f0:	e758      	b.n	700016a4 <uart_ns16550_configure+0x80>
700017f2:	f8d8 0008 	ldr.w	r0, [r8, #8]
700017f6:	f000 f945 	bl	70001a84 <z_impl_device_is_ready>
700017fa:	b180      	cbz	r0, 7000181e <uart_ns16550_configure+0x1fa>
700017fc:	e9d8 0102 	ldrd	r0, r1, [r8, #8]
70001800:	6883      	ldr	r3, [r0, #8]
70001802:	68db      	ldr	r3, [r3, #12]
70001804:	b15b      	cbz	r3, 7000181e <uart_ns16550_configure+0x1fa>
70001806:	466a      	mov	r2, sp
70001808:	4798      	blx	r3
7000180a:	b940      	cbnz	r0, 7000181e <uart_ns16550_configure+0x1fa>
7000180c:	9b00      	ldr	r3, [sp, #0]
7000180e:	e744      	b.n	7000169a <uart_ns16550_configure+0x76>
70001810:	f04f 0e00 	mov.w	lr, #0
70001814:	792b      	ldrb	r3, [r5, #4]
70001816:	2b00      	cmp	r3, #0
70001818:	f47f af52 	bne.w	700016c0 <uart_ns16550_configure+0x9c>
7000181c:	e753      	b.n	700016c6 <uart_ns16550_configure+0xa2>
7000181e:	f06f 0015 	mvn.w	r0, #21
70001822:	e7a0      	b.n	70001766 <uart_ns16550_configure+0x142>

70001824 <uart_ns16550_init>:
70001824:	b570      	push	{r4, r5, r6, lr}
70001826:	6901      	ldr	r1, [r0, #16]
70001828:	4604      	mov	r4, r0
7000182a:	6846      	ldr	r6, [r0, #4]
7000182c:	f7ff fefa 	bl	70001624 <uart_ns16550_configure>
70001830:	4605      	mov	r5, r0
70001832:	b910      	cbnz	r0, 7000183a <uart_ns16550_init+0x16>
70001834:	6933      	ldr	r3, [r6, #16]
70001836:	4620      	mov	r0, r4
70001838:	4798      	blx	r3
7000183a:	4628      	mov	r0, r5
7000183c:	bd70      	pop	{r4, r5, r6, pc}
7000183e:	bf00      	nop

70001840 <uart_ns16550_fifo_read>:
70001840:	b530      	push	{r4, r5, lr}
70001842:	f3ef 8400 	mrs	r4, CPSR
70001846:	f004 0480 	and.w	r4, r4, #128	; 0x80
7000184a:	b672      	cpsid	i
7000184c:	2a00      	cmp	r2, #0
7000184e:	dd1d      	ble.n	7000188c <uart_ns16550_fifo_read+0x4c>
70001850:	4686      	mov	lr, r0
70001852:	f101 3cff 	add.w	ip, r1, #4294967295	; 0xffffffff
70001856:	2000      	movs	r0, #0
70001858:	2505      	movs	r5, #5
7000185a:	f8de 1004 	ldr.w	r1, [lr, #4]
7000185e:	7d0b      	ldrb	r3, [r1, #20]
70001860:	6809      	ldr	r1, [r1, #0]
70001862:	fb15 1303 	smlabb	r3, r5, r3, r1
70001866:	681b      	ldr	r3, [r3, #0]
70001868:	f3bf 8f5f 	dmb	sy
7000186c:	07db      	lsls	r3, r3, #31
7000186e:	d50a      	bpl.n	70001886 <uart_ns16550_fifo_read+0x46>
70001870:	f8de 3004 	ldr.w	r3, [lr, #4]
70001874:	681b      	ldr	r3, [r3, #0]
70001876:	681b      	ldr	r3, [r3, #0]
70001878:	f3bf 8f5f 	dmb	sy
7000187c:	f80c 3f01 	strb.w	r3, [ip, #1]!
70001880:	3001      	adds	r0, #1
70001882:	4282      	cmp	r2, r0
70001884:	d1e9      	bne.n	7000185a <uart_ns16550_fifo_read+0x1a>
70001886:	b904      	cbnz	r4, 7000188a <uart_ns16550_fifo_read+0x4a>
70001888:	b662      	cpsie	i
7000188a:	bd30      	pop	{r4, r5, pc}
7000188c:	2000      	movs	r0, #0
7000188e:	e7fa      	b.n	70001886 <uart_ns16550_fifo_read+0x46>

70001890 <uart_ns16550_poll_in>:
70001890:	b410      	push	{r4}
70001892:	f3ef 8200 	mrs	r2, CPSR
70001896:	f002 0280 	and.w	r2, r2, #128	; 0x80
7000189a:	b672      	cpsid	i
7000189c:	6843      	ldr	r3, [r0, #4]
7000189e:	f893 c014 	ldrb.w	ip, [r3, #20]
700018a2:	681c      	ldr	r4, [r3, #0]
700018a4:	2305      	movs	r3, #5
700018a6:	fb13 430c 	smlabb	r3, r3, ip, r4
700018aa:	681b      	ldr	r3, [r3, #0]
700018ac:	f3bf 8f5f 	dmb	sy
700018b0:	07db      	lsls	r3, r3, #31
700018b2:	d50a      	bpl.n	700018ca <uart_ns16550_poll_in+0x3a>
700018b4:	6843      	ldr	r3, [r0, #4]
700018b6:	681b      	ldr	r3, [r3, #0]
700018b8:	681b      	ldr	r3, [r3, #0]
700018ba:	f3bf 8f5f 	dmb	sy
700018be:	700b      	strb	r3, [r1, #0]
700018c0:	2000      	movs	r0, #0
700018c2:	b902      	cbnz	r2, 700018c6 <uart_ns16550_poll_in+0x36>
700018c4:	b662      	cpsie	i
700018c6:	bc10      	pop	{r4}
700018c8:	4770      	bx	lr
700018ca:	f04f 30ff 	mov.w	r0, #4294967295	; 0xffffffff
700018ce:	e7f8      	b.n	700018c2 <uart_ns16550_poll_in+0x32>

700018d0 <sys_clock_driver_init>:
700018d0:	f646 4378 	movw	r3, #27768	; 0x6c78
700018d4:	2202      	movs	r2, #2
700018d6:	b510      	push	{r4, lr}
700018d8:	2400      	movs	r4, #0
700018da:	f2c7 0300 	movt	r3, #28672	; 0x7000
700018de:	210f      	movs	r1, #15
700018e0:	209f      	movs	r0, #159	; 0x9f
700018e2:	601c      	str	r4, [r3, #0]
700018e4:	f7ff f8de 	bl	70000aa4 <z_soc_irq_priority_set>
700018e8:	2338      	movs	r3, #56	; 0x38
700018ea:	f2c0 2347 	movt	r3, #583	; 0x247
700018ee:	681a      	ldr	r2, [r3, #0]
700018f0:	f3bf 8f5f 	dmb	sy
700018f4:	f3bf 8f5f 	dmb	sy
700018f8:	f022 0220 	bic.w	r2, r2, #32
700018fc:	601a      	str	r2, [r3, #0]
700018fe:	681a      	ldr	r2, [r3, #0]
70001900:	f3bf 8f5f 	dmb	sy
70001904:	f3bf 8f5f 	dmb	sy
70001908:	f042 0202 	orr.w	r2, r2, #2
7000190c:	601a      	str	r2, [r3, #0]
7000190e:	212c      	movs	r1, #44	; 0x2c
70001910:	f2c0 2147 	movt	r1, #583	; 0x247
70001914:	680a      	ldr	r2, [r1, #0]
70001916:	f3bf 8f5f 	dmb	sy
7000191a:	f3bf 8f5f 	dmb	sy
7000191e:	f042 0201 	orr.w	r2, r2, #1
70001922:	600a      	str	r2, [r1, #0]
70001924:	223c      	movs	r2, #60	; 0x3c
70001926:	f2c0 2247 	movt	r2, #583	; 0x247
7000192a:	6811      	ldr	r1, [r2, #0]
7000192c:	f3bf 8f5f 	dmb	sy
70001930:	f3bf 8f5f 	dmb	sy
70001934:	6014      	str	r4, [r2, #0]
70001936:	2240      	movs	r2, #64	; 0x40
70001938:	f2c0 2247 	movt	r2, #583	; 0x247
7000193c:	6811      	ldr	r1, [r2, #0]
7000193e:	f3bf 8f5f 	dmb	sy
70001942:	f3bf 8f5f 	dmb	sy
70001946:	6014      	str	r4, [r2, #0]
70001948:	224c      	movs	r2, #76	; 0x4c
7000194a:	f2c0 2247 	movt	r2, #583	; 0x247
7000194e:	6811      	ldr	r1, [r2, #0]
70001950:	f3bf 8f5f 	dmb	sy
70001954:	f3bf 8f5f 	dmb	sy
70001958:	f246 11a8 	movw	r1, #25000	; 0x61a8
7000195c:	6011      	str	r1, [r2, #0]
7000195e:	681a      	ldr	r2, [r3, #0]
70001960:	f3bf 8f5f 	dmb	sy
70001964:	f3bf 8f5f 	dmb	sy
70001968:	f042 0240 	orr.w	r2, r2, #64	; 0x40
7000196c:	601a      	str	r2, [r3, #0]
7000196e:	681a      	ldr	r2, [r3, #0]
70001970:	f3bf 8f5f 	dmb	sy
70001974:	f3bf 8f5f 	dmb	sy
70001978:	f042 0201 	orr.w	r2, r2, #1
7000197c:	601a      	str	r2, [r3, #0]
7000197e:	209f      	movs	r0, #159	; 0x9f
70001980:	f7ff f892 	bl	70000aa8 <z_soc_irq_enable>
70001984:	4620      	mov	r0, r4
70001986:	bd10      	pop	{r4, pc}

70001988 <ti_dmtimer_isr>:
70001988:	2228      	movs	r2, #40	; 0x28
7000198a:	f2c0 2247 	movt	r2, #583	; 0x247
7000198e:	6813      	ldr	r3, [r2, #0]
70001990:	f3bf 8f5f 	dmb	sy
70001994:	b33b      	cbz	r3, 700019e6 <ti_dmtimer_isr+0x5e>
70001996:	b410      	push	{r4}
70001998:	f3ef 8400 	mrs	r4, CPSR
7000199c:	f004 0480 	and.w	r4, r4, #128	; 0x80
700019a0:	b672      	cpsid	i
700019a2:	233c      	movs	r3, #60	; 0x3c
700019a4:	f2c0 2347 	movt	r3, #583	; 0x247
700019a8:	681b      	ldr	r3, [r3, #0]
700019aa:	f3bf 8f5f 	dmb	sy
700019ae:	f646 4178 	movw	r1, #27768	; 0x6c78
700019b2:	f2c7 0100 	movt	r1, #28672	; 0x7000
700019b6:	6808      	ldr	r0, [r1, #0]
700019b8:	600b      	str	r3, [r1, #0]
700019ba:	1a18      	subs	r0, r3, r0
700019bc:	f24b 5389 	movw	r3, #46473	; 0xb589
700019c0:	f2c1 43f8 	movt	r3, #5368	; 0x14f8
700019c4:	08c0      	lsrs	r0, r0, #3
700019c6:	fba3 3000 	umull	r3, r0, r3, r0
700019ca:	0a00      	lsrs	r0, r0, #8
700019cc:	6813      	ldr	r3, [r2, #0]
700019ce:	f3bf 8f5f 	dmb	sy
700019d2:	f3bf 8f5f 	dmb	sy
700019d6:	f043 0301 	orr.w	r3, r3, #1
700019da:	6013      	str	r3, [r2, #0]
700019dc:	b904      	cbnz	r4, 700019e0 <ti_dmtimer_isr+0x58>
700019de:	b662      	cpsie	i
700019e0:	bc10      	pop	{r4}
700019e2:	f000 bfd7 	b.w	70002994 <sys_clock_announce>
700019e6:	4770      	bx	lr

700019e8 <sys_clock_set_timeout>:
700019e8:	1c43      	adds	r3, r0, #1
700019ea:	d028      	beq.n	70001a3e <sys_clock_set_timeout+0x56>
700019ec:	2801      	cmp	r0, #1
700019ee:	bfd8      	it	le
700019f0:	f246 10a8 	movwle	r0, #25000	; 0x61a8
700019f4:	dd0a      	ble.n	70001a0c <sys_clock_set_timeout+0x24>
700019f6:	f649 7315 	movw	r3, #40725	; 0x9f15
700019fa:	f246 12a8 	movw	r2, #25000	; 0x61a8
700019fe:	f2c0 0302 	movt	r3, #2
70001a02:	4298      	cmp	r0, r3
70001a04:	bfa8      	it	ge
70001a06:	4618      	movge	r0, r3
70001a08:	fb02 f000 	mul.w	r0, r2, r0
70001a0c:	f3ef 8100 	mrs	r1, CPSR
70001a10:	f001 0180 	and.w	r1, r1, #128	; 0x80
70001a14:	b672      	cpsid	i
70001a16:	233c      	movs	r3, #60	; 0x3c
70001a18:	f2c0 2347 	movt	r3, #583	; 0x247
70001a1c:	681b      	ldr	r3, [r3, #0]
70001a1e:	f3bf 8f5f 	dmb	sy
70001a22:	224c      	movs	r2, #76	; 0x4c
70001a24:	f2c0 2247 	movt	r2, #583	; 0x247
70001a28:	f8d2 c000 	ldr.w	ip, [r2]
70001a2c:	f3bf 8f5f 	dmb	sy
70001a30:	f3bf 8f5f 	dmb	sy
70001a34:	4403      	add	r3, r0
70001a36:	6013      	str	r3, [r2, #0]
70001a38:	b901      	cbnz	r1, 70001a3c <sys_clock_set_timeout+0x54>
70001a3a:	b662      	cpsie	i
70001a3c:	4770      	bx	lr
70001a3e:	f645 20c8 	movw	r0, #23240	; 0x5ac8
70001a42:	f6cf 70ff 	movt	r0, #65535	; 0xffff
70001a46:	e7e1      	b.n	70001a0c <sys_clock_set_timeout+0x24>

70001a48 <sys_clock_elapsed>:
70001a48:	f3ef 8100 	mrs	r1, CPSR
70001a4c:	f001 0180 	and.w	r1, r1, #128	; 0x80
70001a50:	b672      	cpsid	i
70001a52:	233c      	movs	r3, #60	; 0x3c
70001a54:	f2c0 2347 	movt	r3, #583	; 0x247
70001a58:	6818      	ldr	r0, [r3, #0]
70001a5a:	f3bf 8f5f 	dmb	sy
70001a5e:	f646 4278 	movw	r2, #27768	; 0x6c78
70001a62:	f24b 5389 	movw	r3, #46473	; 0xb589
70001a66:	f2c7 0200 	movt	r2, #28672	; 0x7000
70001a6a:	f2c1 43f8 	movt	r3, #5368	; 0x14f8
70001a6e:	6812      	ldr	r2, [r2, #0]
70001a70:	1a80      	subs	r0, r0, r2
70001a72:	08c0      	lsrs	r0, r0, #3
70001a74:	fba3 3000 	umull	r3, r0, r3, r0
70001a78:	0a00      	lsrs	r0, r0, #8
70001a7a:	b901      	cbnz	r1, 70001a7e <sys_clock_elapsed+0x36>
70001a7c:	b662      	cpsie	i
70001a7e:	4770      	bx	lr

70001a80 <z_device_state_init>:
70001a80:	4770      	bx	lr
70001a82:	bf00      	nop

70001a84 <z_impl_device_is_ready>:
70001a84:	b140      	cbz	r0, 70001a98 <z_impl_device_is_ready+0x14>
70001a86:	68c3      	ldr	r3, [r0, #12]
70001a88:	7858      	ldrb	r0, [r3, #1]
70001a8a:	f010 0001 	ands.w	r0, r0, #1
70001a8e:	bf1e      	ittt	ne
70001a90:	7818      	ldrbne	r0, [r3, #0]
70001a92:	fab0 f080 	clzne	r0, r0
70001a96:	0940      	lsrne	r0, r0, #5
70001a98:	4770      	bx	lr
70001a9a:	bf00      	nop

70001a9c <arch_system_halt>:
70001a9c:	f3ef 8300 	mrs	r3, CPSR
70001aa0:	f003 0380 	and.w	r3, r3, #128	; 0x80
70001aa4:	b672      	cpsid	i
70001aa6:	e7fe      	b.n	70001aa6 <arch_system_halt+0xa>

70001aa8 <k_sys_fatal_error_handler>:
70001aa8:	b508      	push	{r3, lr}
70001aaa:	f7ff fff7 	bl	70001a9c <arch_system_halt>
70001aae:	bf00      	nop

70001ab0 <z_fatal_error>:
70001ab0:	b538      	push	{r3, r4, r5, lr}
70001ab2:	f3ef 8500 	mrs	r5, CPSR
70001ab6:	f005 0580 	and.w	r5, r5, #128	; 0x80
70001aba:	b672      	cpsid	i
70001abc:	f646 427c 	movw	r2, #27772	; 0x6c7c
70001ac0:	f2c7 0200 	movt	r2, #28672	; 0x7000
70001ac4:	6894      	ldr	r4, [r2, #8]
70001ac6:	b161      	cbz	r1, 70001ae2 <z_fatal_error+0x32>
70001ac8:	ee1d 3f70 	mrc	15, 0, r3, cr13, cr0, {3}
70001acc:	f7ff ffec 	bl	70001aa8 <k_sys_fatal_error_handler>
70001ad0:	ee1d 3f70 	mrc	15, 0, r3, cr13, cr0, {3}
70001ad4:	b905      	cbnz	r5, 70001ad8 <z_fatal_error+0x28>
70001ad6:	b662      	cpsie	i
70001ad8:	4620      	mov	r0, r4
70001ada:	e8bd 4038 	ldmia.w	sp!, {r3, r4, r5, lr}
70001ade:	f000 be41 	b.w	70002764 <z_impl_k_thread_abort>
70001ae2:	f7ff ffe1 	bl	70001aa8 <k_sys_fatal_error_handler>
70001ae6:	e7f5      	b.n	70001ad4 <z_fatal_error+0x24>

70001ae8 <z_sys_init_run_level>:
70001ae8:	f644 53b0 	movw	r3, #19888	; 0x4db0
70001aec:	1c42      	adds	r2, r0, #1
70001aee:	f2c7 0300 	movt	r3, #28672	; 0x7000
70001af2:	b570      	push	{r4, r5, r6, lr}
70001af4:	f853 4020 	ldr.w	r4, [r3, r0, lsl #2]
70001af8:	f853 6022 	ldr.w	r6, [r3, r2, lsl #2]
70001afc:	42b4      	cmp	r4, r6
70001afe:	d314      	bcc.n	70001b2a <z_sys_init_run_level+0x42>
70001b00:	e01b      	b.n	70001b3a <z_sys_init_run_level+0x52>
70001b02:	4628      	mov	r0, r5
70001b04:	b14b      	cbz	r3, 70001b1a <z_sys_init_run_level+0x32>
70001b06:	4798      	blx	r3
70001b08:	b138      	cbz	r0, 70001b1a <z_sys_init_run_level+0x32>
70001b0a:	68eb      	ldr	r3, [r5, #12]
70001b0c:	2800      	cmp	r0, #0
70001b0e:	bfb8      	it	lt
70001b10:	4240      	neglt	r0, r0
70001b12:	28ff      	cmp	r0, #255	; 0xff
70001b14:	bfa8      	it	ge
70001b16:	20ff      	movge	r0, #255	; 0xff
70001b18:	7018      	strb	r0, [r3, #0]
70001b1a:	68ea      	ldr	r2, [r5, #12]
70001b1c:	3408      	adds	r4, #8
70001b1e:	7853      	ldrb	r3, [r2, #1]
70001b20:	42a6      	cmp	r6, r4
70001b22:	f043 0301 	orr.w	r3, r3, #1
70001b26:	7053      	strb	r3, [r2, #1]
70001b28:	d907      	bls.n	70001b3a <z_sys_init_run_level+0x52>
70001b2a:	e9d4 3500 	ldrd	r3, r5, [r4]
70001b2e:	2d00      	cmp	r5, #0
70001b30:	d1e7      	bne.n	70001b02 <z_sys_init_run_level+0x1a>
70001b32:	3408      	adds	r4, #8
70001b34:	4798      	blx	r3
70001b36:	42a6      	cmp	r6, r4
70001b38:	d8f7      	bhi.n	70001b2a <z_sys_init_run_level+0x42>
70001b3a:	bd70      	pop	{r4, r5, r6, pc}

70001b3c <bg_thread_main>:
70001b3c:	f646 43a0 	movw	r3, #27808	; 0x6ca0
70001b40:	2201      	movs	r2, #1
70001b42:	f2c7 0300 	movt	r3, #28672	; 0x7000
70001b46:	b5f0      	push	{r4, r5, r6, r7, lr}
70001b48:	2003      	movs	r0, #3
70001b4a:	b087      	sub	sp, #28
70001b4c:	f644 26b0 	movw	r6, #19120	; 0x4ab0
70001b50:	f644 25e0 	movw	r5, #19168	; 0x4ae0
70001b54:	701a      	strb	r2, [r3, #0]
70001b56:	f2c7 0600 	movt	r6, #28672	; 0x7000
70001b5a:	f7ff ffc5 	bl	70001ae8 <z_sys_init_run_level>
70001b5e:	f2c7 0500 	movt	r5, #28672	; 0x7000
70001b62:	f001 f82f 	bl	70002bc4 <boot_banner>
70001b66:	f000 f8d3 	bl	70001d10 <z_init_static>
70001b6a:	2004      	movs	r0, #4
70001b6c:	f7ff ffbc 	bl	70001ae8 <z_sys_init_run_level>
70001b70:	42ae      	cmp	r6, r5
70001b72:	d217      	bcs.n	70001ba4 <bg_thread_main+0x68>
70001b74:	4634      	mov	r4, r6
70001b76:	6a67      	ldr	r7, [r4, #36]	; 0x24
70001b78:	e9d4 2302 	ldrd	r2, r3, [r4, #8]
70001b7c:	e9d4 0100 	ldrd	r0, r1, [r4]
70001b80:	9705      	str	r7, [sp, #20]
70001b82:	6a27      	ldr	r7, [r4, #32]
70001b84:	9704      	str	r7, [sp, #16]
70001b86:	69e7      	ldr	r7, [r4, #28]
70001b88:	9703      	str	r7, [sp, #12]
70001b8a:	69a7      	ldr	r7, [r4, #24]
70001b8c:	9702      	str	r7, [sp, #8]
70001b8e:	6967      	ldr	r7, [r4, #20]
70001b90:	9701      	str	r7, [sp, #4]
70001b92:	6927      	ldr	r7, [r4, #16]
70001b94:	9700      	str	r7, [sp, #0]
70001b96:	f000 f9f9 	bl	70001f8c <z_setup_new_thread>
70001b9a:	6823      	ldr	r3, [r4, #0]
70001b9c:	655c      	str	r4, [r3, #84]	; 0x54
70001b9e:	3430      	adds	r4, #48	; 0x30
70001ba0:	42ac      	cmp	r4, r5
70001ba2:	d3e8      	bcc.n	70001b76 <bg_thread_main+0x3a>
70001ba4:	f000 fcba 	bl	7000251c <k_sched_lock>
70001ba8:	42ae      	cmp	r6, r5
70001baa:	d222      	bcs.n	70001bf2 <bg_thread_main+0xb6>
70001bac:	f644 24b0 	movw	r4, #19120	; 0x4ab0
70001bb0:	f242 4741 	movw	r7, #9281	; 0x2441
70001bb4:	f2c7 0400 	movt	r4, #28672	; 0x7000
70001bb8:	f2c7 0700 	movt	r7, #28672	; 0x7000
70001bbc:	e005      	b.n	70001bca <bg_thread_main+0x8e>
70001bbe:	4630      	mov	r0, r6
70001bc0:	f000 fda4 	bl	7000270c <z_impl_k_wakeup>
70001bc4:	3430      	adds	r4, #48	; 0x30
70001bc6:	42ac      	cmp	r4, r5
70001bc8:	d213      	bcs.n	70001bf2 <bg_thread_main+0xb6>
70001bca:	e9d4 230a 	ldrd	r2, r3, [r4, #40]	; 0x28
70001bce:	f1b3 3fff 	cmp.w	r3, #4294967295	; 0xffffffff
70001bd2:	bf08      	it	eq
70001bd4:	f1b2 3fff 	cmpeq.w	r2, #4294967295	; 0xffffffff
70001bd8:	d0f4      	beq.n	70001bc4 <bg_thread_main+0x88>
70001bda:	6826      	ldr	r6, [r4, #0]
70001bdc:	ea52 0003 	orrs.w	r0, r2, r3
70001be0:	4639      	mov	r1, r7
70001be2:	f106 0018 	add.w	r0, r6, #24
70001be6:	d0ea      	beq.n	70001bbe <bg_thread_main+0x82>
70001be8:	3430      	adds	r4, #48	; 0x30
70001bea:	f000 fe19 	bl	70002820 <z_add_timeout>
70001bee:	42ac      	cmp	r4, r5
70001bf0:	d3eb      	bcc.n	70001bca <bg_thread_main+0x8e>
70001bf2:	f000 fca3 	bl	7000253c <k_sched_unlock>
70001bf6:	f7fe fb95 	bl	70000324 <main>
70001bfa:	f245 33c0 	movw	r3, #21440	; 0x53c0
70001bfe:	f2c7 0300 	movt	r3, #28672	; 0x7000
70001c02:	7b1a      	ldrb	r2, [r3, #12]
70001c04:	f022 0201 	bic.w	r2, r2, #1
70001c08:	731a      	strb	r2, [r3, #12]
70001c0a:	b007      	add	sp, #28
70001c0c:	bdf0      	pop	{r4, r5, r6, r7, pc}
70001c0e:	bf00      	nop

70001c10 <z_early_memset>:
70001c10:	f001 b9d2 	b.w	70002fb8 <memset>

70001c14 <z_bss_zero>:
70001c14:	f646 42a4 	movw	r2, #27812	; 0x6ca4
70001c18:	f644 6020 	movw	r0, #20000	; 0x4e20
70001c1c:	f2c7 0000 	movt	r0, #28672	; 0x7000
70001c20:	2100      	movs	r1, #0
70001c22:	f2c7 0200 	movt	r2, #28672	; 0x7000
70001c26:	1a12      	subs	r2, r2, r0
70001c28:	b508      	push	{r3, lr}
70001c2a:	f7ff fff1 	bl	70001c10 <z_early_memset>
70001c2e:	bd08      	pop	{r3, pc}

70001c30 <z_cstart>:
70001c30:	b580      	push	{r7, lr}
70001c32:	2000      	movs	r0, #0
70001c34:	b086      	sub	sp, #24
70001c36:	f7ff ff57 	bl	70001ae8 <z_sys_init_run_level>
70001c3a:	f646 447c 	movw	r4, #27772	; 0x6c7c
70001c3e:	f245 4338 	movw	r3, #21560	; 0x5438
70001c42:	2500      	movs	r5, #0
70001c44:	f2c7 0300 	movt	r3, #28672	; 0x7000
70001c48:	f240 1201 	movw	r2, #257	; 0x101
70001c4c:	f2c7 0400 	movt	r4, #28672	; 0x7000
70001c50:	669d      	str	r5, [r3, #104]	; 0x68
70001c52:	2701      	movs	r7, #1
70001c54:	819a      	strh	r2, [r3, #12]
70001c56:	f245 36c0 	movw	r6, #21440	; 0x53c0
70001c5a:	60a3      	str	r3, [r4, #8]
70001c5c:	f7ff ff10 	bl	70001a80 <z_device_state_init>
70001c60:	2001      	movs	r0, #1
70001c62:	f2c7 0600 	movt	r6, #28672	; 0x7000
70001c66:	f7ff ff3f 	bl	70001ae8 <z_sys_init_run_level>
70001c6a:	2002      	movs	r0, #2
70001c6c:	f7ff ff3c 	bl	70001ae8 <z_sys_init_run_level>
70001c70:	f000 fc9e 	bl	700025b0 <z_sched_init>
70001c74:	f644 53a8 	movw	r3, #19880	; 0x4da8
70001c78:	f64a 01a8 	movw	r1, #43176	; 0xa8a8
70001c7c:	f2c7 0300 	movt	r3, #28672	; 0x7000
70001c80:	f44f 6280 	mov.w	r2, #1024	; 0x400
70001c84:	f2c7 0100 	movt	r1, #28672	; 0x7000
70001c88:	9305      	str	r3, [sp, #20]
70001c8a:	f641 333d 	movw	r3, #6973	; 0x1b3d
70001c8e:	4630      	mov	r0, r6
70001c90:	f2c7 0300 	movt	r3, #28672	; 0x7000
70001c94:	e9cd 5703 	strd	r5, r7, [sp, #12]
70001c98:	9502      	str	r5, [sp, #8]
70001c9a:	e9cd 5500 	strd	r5, r5, [sp]
70001c9e:	6166      	str	r6, [r4, #20]
70001ca0:	f000 f974 	bl	70001f8c <z_setup_new_thread>
70001ca4:	7b73      	ldrb	r3, [r6, #13]
70001ca6:	4630      	mov	r0, r6
70001ca8:	f023 0304 	bic.w	r3, r3, #4
70001cac:	7373      	strb	r3, [r6, #13]
70001cae:	f000 fb3b 	bl	70002328 <z_ready_thread>
70001cb2:	230f      	movs	r3, #15
70001cb4:	f245 3648 	movw	r6, #21320	; 0x5348
70001cb8:	f24a 71a8 	movw	r1, #42920	; 0xa7a8
70001cbc:	f2c7 0600 	movt	r6, #28672	; 0x7000
70001cc0:	9303      	str	r3, [sp, #12]
70001cc2:	f641 5371 	movw	r3, #7537	; 0x1d71
70001cc6:	f44f 7280 	mov.w	r2, #256	; 0x100
70001cca:	f2c7 0300 	movt	r3, #28672	; 0x7000
70001cce:	4630      	mov	r0, r6
70001cd0:	f2c7 0100 	movt	r1, #28672	; 0x7000
70001cd4:	e9cd 7504 	strd	r7, r5, [sp, #16]
70001cd8:	e9cd 5501 	strd	r5, r5, [sp, #4]
70001cdc:	9400      	str	r4, [sp, #0]
70001cde:	f000 f955 	bl	70001f8c <z_setup_new_thread>
70001ce2:	7b73      	ldrb	r3, [r6, #13]
70001ce4:	4a09      	ldr	r2, [pc, #36]	; (70001d0c <z_cstart+0xdc>)
70001ce6:	f023 0304 	bic.w	r3, r3, #4
70001cea:	6062      	str	r2, [r4, #4]
70001cec:	60e6      	str	r6, [r4, #12]
70001cee:	7373      	strb	r3, [r6, #13]
70001cf0:	7425      	strb	r5, [r4, #16]
70001cf2:	f3ef 8100 	mrs	r1, CPSR
70001cf6:	f001 0180 	and.w	r1, r1, #128	; 0x80
70001cfa:	b672      	cpsid	i
70001cfc:	68a3      	ldr	r3, [r4, #8]
70001cfe:	f06f 020a 	mvn.w	r2, #10
70001d02:	e9c3 121b 	strd	r1, r2, [r3, #108]	; 0x6c
70001d06:	f7ff e98a 	blx	7000101c <z_arm_cortex_r_svc>
70001d0a:	b662      	cpsie	i
70001d0c:	7000a7a8 	.word	0x7000a7a8

70001d10 <z_init_static>:
70001d10:	4770      	bx	lr
70001d12:	bf00      	nop

70001d14 <init_mem_slab_obj_core_list>:
70001d14:	f24b 1184 	movw	r1, #45444	; 0xb184
70001d18:	f24b 1c84 	movw	ip, #45444	; 0xb184
70001d1c:	f2c7 0100 	movt	r1, #28672	; 0x7000
70001d20:	f2c7 0c00 	movt	ip, #28672	; 0x7000
70001d24:	4561      	cmp	r1, ip
70001d26:	d221      	bcs.n	70001d6c <init_mem_slab_obj_core_list+0x58>
70001d28:	b410      	push	{r4}
70001d2a:	694c      	ldr	r4, [r1, #20]
70001d2c:	688b      	ldr	r3, [r1, #8]
70001d2e:	ea43 0004 	orr.w	r0, r3, r4
70001d32:	f010 0003 	ands.w	r0, r0, #3
70001d36:	d116      	bne.n	70001d66 <init_mem_slab_obj_core_list+0x52>
70001d38:	690a      	ldr	r2, [r1, #16]
70001d3a:	60c8      	str	r0, [r1, #12]
70001d3c:	3a01      	subs	r2, #1
70001d3e:	fb04 3202 	mla	r2, r4, r2, r3
70001d42:	4293      	cmp	r3, r2
70001d44:	d901      	bls.n	70001d4a <init_mem_slab_obj_core_list+0x36>
70001d46:	e008      	b.n	70001d5a <init_mem_slab_obj_core_list+0x46>
70001d48:	461a      	mov	r2, r3
70001d4a:	6010      	str	r0, [r2, #0]
70001d4c:	4610      	mov	r0, r2
70001d4e:	694b      	ldr	r3, [r1, #20]
70001d50:	688c      	ldr	r4, [r1, #8]
70001d52:	1ad3      	subs	r3, r2, r3
70001d54:	42a3      	cmp	r3, r4
70001d56:	d2f7      	bcs.n	70001d48 <init_mem_slab_obj_core_list+0x34>
70001d58:	60ca      	str	r2, [r1, #12]
70001d5a:	311c      	adds	r1, #28
70001d5c:	4561      	cmp	r1, ip
70001d5e:	d3e4      	bcc.n	70001d2a <init_mem_slab_obj_core_list+0x16>
70001d60:	2000      	movs	r0, #0
70001d62:	bc10      	pop	{r4}
70001d64:	4770      	bx	lr
70001d66:	f06f 0015 	mvn.w	r0, #21
70001d6a:	e7fa      	b.n	70001d62 <init_mem_slab_obj_core_list+0x4e>
70001d6c:	2000      	movs	r0, #0
70001d6e:	4770      	bx	lr

70001d70 <idle>:
70001d70:	b508      	push	{r3, lr}
70001d72:	f3ef 8300 	mrs	r3, CPSR
70001d76:	f003 0380 	and.w	r3, r3, #128	; 0x80
70001d7a:	b672      	cpsid	i
70001d7c:	f7ff e830 	blx	70000de0 <arch_cpu_idle>
70001d80:	e7f7      	b.n	70001d72 <idle+0x2>
70001d82:	bf00      	nop

70001d84 <z_impl_k_msgq_put>:
70001d84:	e92d 47f0 	stmdb	sp!, {r4, r5, r6, r7, r8, r9, sl, lr}
70001d88:	4604      	mov	r4, r0
70001d8a:	b082      	sub	sp, #8
70001d8c:	460d      	mov	r5, r1
70001d8e:	4616      	mov	r6, r2
70001d90:	f100 0708 	add.w	r7, r0, #8
70001d94:	f3ef 8800 	mrs	r8, CPSR
70001d98:	f008 0880 	and.w	r8, r8, #128	; 0x80
70001d9c:	b672      	cpsid	i
70001d9e:	6a02      	ldr	r2, [r0, #32]
70001da0:	68c0      	ldr	r0, [r0, #12]
70001da2:	4282      	cmp	r2, r0
70001da4:	d224      	bcs.n	70001df0 <z_impl_k_msgq_put+0x6c>
70001da6:	f8d4 9000 	ldr.w	r9, [r4]
70001daa:	f1b9 0f00 	cmp.w	r9, #0
70001dae:	bf18      	it	ne
70001db0:	454c      	cmpne	r4, r9
70001db2:	d135      	bne.n	70001e20 <z_impl_k_msgq_put+0x9c>
70001db4:	68a2      	ldr	r2, [r4, #8]
70001db6:	2600      	movs	r6, #0
70001db8:	69e0      	ldr	r0, [r4, #28]
70001dba:	f001 f895 	bl	70002ee8 <memcpy>
70001dbe:	69e3      	ldr	r3, [r4, #28]
70001dc0:	68a2      	ldr	r2, [r4, #8]
70001dc2:	2110      	movs	r1, #16
70001dc4:	f104 0024 	add.w	r0, r4, #36	; 0x24
70001dc8:	4413      	add	r3, r2
70001dca:	6962      	ldr	r2, [r4, #20]
70001dcc:	61e3      	str	r3, [r4, #28]
70001dce:	4293      	cmp	r3, r2
70001dd0:	bf04      	itt	eq
70001dd2:	6923      	ldreq	r3, [r4, #16]
70001dd4:	61e3      	streq	r3, [r4, #28]
70001dd6:	6a23      	ldr	r3, [r4, #32]
70001dd8:	3301      	adds	r3, #1
70001dda:	6223      	str	r3, [r4, #32]
70001ddc:	f000 fedc 	bl	70002b98 <z_handle_obj_poll_events>
70001de0:	4641      	mov	r1, r8
70001de2:	4638      	mov	r0, r7
70001de4:	f000 fb64 	bl	700024b0 <z_reschedule>
70001de8:	4630      	mov	r0, r6
70001dea:	b002      	add	sp, #8
70001dec:	e8bd 87f0 	ldmia.w	sp!, {r4, r5, r6, r7, r8, r9, sl, pc}
70001df0:	ea56 0203 	orrs.w	r2, r6, r3
70001df4:	bf08      	it	eq
70001df6:	f06f 0622 	mvneq.w	r6, #34	; 0x22
70001dfa:	d0f1      	beq.n	70001de0 <z_impl_k_msgq_put+0x5c>
70001dfc:	4622      	mov	r2, r4
70001dfe:	f646 447c 	movw	r4, #27772	; 0x6c7c
70001e02:	4641      	mov	r1, r8
70001e04:	f2c7 0400 	movt	r4, #28672	; 0x7000
70001e08:	4638      	mov	r0, r7
70001e0a:	68a4      	ldr	r4, [r4, #8]
70001e0c:	6165      	str	r5, [r4, #20]
70001e0e:	e9cd 6300 	strd	r6, r3, [sp]
70001e12:	f000 fb19 	bl	70002448 <z_pend_curr>
70001e16:	4606      	mov	r6, r0
70001e18:	4630      	mov	r0, r6
70001e1a:	b002      	add	sp, #8
70001e1c:	e8bd 87f0 	ldmia.w	sp!, {r4, r5, r6, r7, r8, r9, sl, pc}
70001e20:	e9d9 3200 	ldrd	r3, r2, [r9]
70001e24:	f04f 0a00 	mov.w	sl, #0
70001e28:	6013      	str	r3, [r2, #0]
70001e2a:	f109 0018 	add.w	r0, r9, #24
70001e2e:	605a      	str	r2, [r3, #4]
70001e30:	f899 300d 	ldrb.w	r3, [r9, #13]
70001e34:	2200      	movs	r2, #0
70001e36:	f023 0302 	bic.w	r3, r3, #2
70001e3a:	f8c9 a008 	str.w	sl, [r9, #8]
70001e3e:	4656      	mov	r6, sl
70001e40:	f889 300d 	strb.w	r3, [r9, #13]
70001e44:	2300      	movs	r3, #0
70001e46:	e9c9 2300 	strd	r2, r3, [r9]
70001e4a:	f000 fd7b 	bl	70002944 <z_abort_timeout>
70001e4e:	68a2      	ldr	r2, [r4, #8]
70001e50:	f8d9 0014 	ldr.w	r0, [r9, #20]
70001e54:	4629      	mov	r1, r5
70001e56:	f001 f847 	bl	70002ee8 <memcpy>
70001e5a:	f8c9 a070 	str.w	sl, [r9, #112]	; 0x70
70001e5e:	4648      	mov	r0, r9
70001e60:	f000 fa62 	bl	70002328 <z_ready_thread>
70001e64:	4641      	mov	r1, r8
70001e66:	4638      	mov	r0, r7
70001e68:	f000 fb22 	bl	700024b0 <z_reschedule>
70001e6c:	e7bc      	b.n	70001de8 <z_impl_k_msgq_put+0x64>
70001e6e:	bf00      	nop

70001e70 <z_impl_k_mutex_init>:
70001e70:	4603      	mov	r3, r0
70001e72:	2200      	movs	r2, #0
70001e74:	4610      	mov	r0, r2
70001e76:	e9c3 2202 	strd	r2, r2, [r3, #8]
70001e7a:	601b      	str	r3, [r3, #0]
70001e7c:	605b      	str	r3, [r3, #4]
70001e7e:	4770      	bx	lr

70001e80 <z_impl_k_sem_init>:
70001e80:	4603      	mov	r3, r0
70001e82:	428a      	cmp	r2, r1
70001e84:	bf2c      	ite	cs
70001e86:	f04f 0c00 	movcs.w	ip, #0
70001e8a:	f04f 0c01 	movcc.w	ip, #1
70001e8e:	2a00      	cmp	r2, #0
70001e90:	bf14      	ite	ne
70001e92:	4660      	movne	r0, ip
70001e94:	f04c 0001 	orreq.w	r0, ip, #1
70001e98:	b950      	cbnz	r0, 70001eb0 <z_impl_k_sem_init+0x30>
70001e9a:	e9c3 1202 	strd	r1, r2, [r3, #8]
70001e9e:	f103 0c10 	add.w	ip, r3, #16
70001ea2:	601b      	str	r3, [r3, #0]
70001ea4:	605b      	str	r3, [r3, #4]
70001ea6:	f8c3 c010 	str.w	ip, [r3, #16]
70001eaa:	f8c3 c014 	str.w	ip, [r3, #20]
70001eae:	4770      	bx	lr
70001eb0:	f06f 0015 	mvn.w	r0, #21
70001eb4:	4770      	bx	lr
70001eb6:	bf00      	nop

70001eb8 <z_impl_k_sem_give>:
70001eb8:	b570      	push	{r4, r5, r6, lr}
70001eba:	f3ef 8500 	mrs	r5, CPSR
70001ebe:	f005 0580 	and.w	r5, r5, #128	; 0x80
70001ec2:	b672      	cpsid	i
70001ec4:	6804      	ldr	r4, [r0, #0]
70001ec6:	2c00      	cmp	r4, #0
70001ec8:	bf18      	it	ne
70001eca:	42a0      	cmpne	r0, r4
70001ecc:	d113      	bne.n	70001ef6 <z_impl_k_sem_give+0x3e>
70001ece:	e9d0 3202 	ldrd	r3, r2, [r0, #8]
70001ed2:	2102      	movs	r1, #2
70001ed4:	3010      	adds	r0, #16
70001ed6:	429a      	cmp	r2, r3
70001ed8:	bf18      	it	ne
70001eda:	3301      	addne	r3, #1
70001edc:	f840 3c08 	str.w	r3, [r0, #-8]
70001ee0:	f000 fe5a 	bl	70002b98 <z_handle_obj_poll_events>
70001ee4:	f646 409c 	movw	r0, #27804	; 0x6c9c
70001ee8:	4629      	mov	r1, r5
70001eea:	f2c7 0000 	movt	r0, #28672	; 0x7000
70001eee:	e8bd 4070 	ldmia.w	sp!, {r4, r5, r6, lr}
70001ef2:	f000 badd 	b.w	700024b0 <z_reschedule>
70001ef6:	e9d4 3200 	ldrd	r3, r2, [r4]
70001efa:	2600      	movs	r6, #0
70001efc:	6013      	str	r3, [r2, #0]
70001efe:	2100      	movs	r1, #0
70001f00:	605a      	str	r2, [r3, #4]
70001f02:	2000      	movs	r0, #0
70001f04:	7b63      	ldrb	r3, [r4, #13]
70001f06:	60a6      	str	r6, [r4, #8]
70001f08:	e9c4 0100 	strd	r0, r1, [r4]
70001f0c:	f023 0302 	bic.w	r3, r3, #2
70001f10:	f104 0018 	add.w	r0, r4, #24
70001f14:	7363      	strb	r3, [r4, #13]
70001f16:	f000 fd15 	bl	70002944 <z_abort_timeout>
70001f1a:	6726      	str	r6, [r4, #112]	; 0x70
70001f1c:	4620      	mov	r0, r4
70001f1e:	f000 fa03 	bl	70002328 <z_ready_thread>
70001f22:	e7df      	b.n	70001ee4 <z_impl_k_sem_give+0x2c>

70001f24 <z_impl_k_sem_take>:
70001f24:	4684      	mov	ip, r0
70001f26:	f3ef 8100 	mrs	r1, CPSR
70001f2a:	f001 0180 	and.w	r1, r1, #128	; 0x80
70001f2e:	b672      	cpsid	i
70001f30:	6880      	ldr	r0, [r0, #8]
70001f32:	b130      	cbz	r0, 70001f42 <z_impl_k_sem_take+0x1e>
70001f34:	3801      	subs	r0, #1
70001f36:	f8cc 0008 	str.w	r0, [ip, #8]
70001f3a:	b901      	cbnz	r1, 70001f3e <z_impl_k_sem_take+0x1a>
70001f3c:	b662      	cpsie	i
70001f3e:	2000      	movs	r0, #0
70001f40:	4770      	bx	lr
70001f42:	b510      	push	{r4, lr}
70001f44:	4614      	mov	r4, r2
70001f46:	b082      	sub	sp, #8
70001f48:	ea54 0203 	orrs.w	r2, r4, r3
70001f4c:	d00a      	beq.n	70001f64 <z_impl_k_sem_take+0x40>
70001f4e:	f646 409c 	movw	r0, #27804	; 0x6c9c
70001f52:	4662      	mov	r2, ip
70001f54:	e9cd 4300 	strd	r4, r3, [sp]
70001f58:	f2c7 0000 	movt	r0, #28672	; 0x7000
70001f5c:	f000 fa74 	bl	70002448 <z_pend_curr>
70001f60:	b002      	add	sp, #8
70001f62:	bd10      	pop	{r4, pc}
70001f64:	b901      	cbnz	r1, 70001f68 <z_impl_k_sem_take+0x44>
70001f66:	b662      	cpsie	i
70001f68:	f06f 000f 	mvn.w	r0, #15
70001f6c:	e7f8      	b.n	70001f60 <z_impl_k_sem_take+0x3c>
70001f6e:	bf00      	nop

70001f70 <k_is_in_isr>:
70001f70:	ee1d 3f70 	mrc	15, 0, r3, cr13, cr0, {3}
70001f74:	f023 0303 	bic.w	r3, r3, #3
70001f78:	6818      	ldr	r0, [r3, #0]
70001f7a:	3800      	subs	r0, #0
70001f7c:	bf18      	it	ne
70001f7e:	2001      	movne	r0, #1
70001f80:	4770      	bx	lr
70001f82:	bf00      	nop

70001f84 <z_impl_k_thread_name_set>:
70001f84:	f06f 0057 	mvn.w	r0, #87	; 0x57
70001f88:	4770      	bx	lr
70001f8a:	bf00      	nop

70001f8c <z_setup_new_thread>:
70001f8c:	3207      	adds	r2, #7
70001f8e:	f022 0207 	bic.w	r2, r2, #7
70001f92:	e92d 4370 	stmdb	sp!, {r4, r5, r6, r8, r9, lr}
70001f96:	188d      	adds	r5, r1, r2
70001f98:	f100 0258 	add.w	r2, r0, #88	; 0x58
70001f9c:	2600      	movs	r6, #0
70001f9e:	b084      	sub	sp, #16
70001fa0:	e9c0 2216 	strd	r2, r2, [r0, #88]	; 0x58
70001fa4:	2204      	movs	r2, #4
70001fa6:	6086      	str	r6, [r0, #8]
70001fa8:	f04f 0800 	mov.w	r8, #0
70001fac:	7342      	strb	r2, [r0, #13]
70001fae:	f04f 0900 	mov.w	r9, #0
70001fb2:	9a0a      	ldr	r2, [sp, #40]	; 0x28
70001fb4:	4604      	mov	r4, r0
70001fb6:	73c6      	strb	r6, [r0, #15]
70001fb8:	9200      	str	r2, [sp, #0]
70001fba:	9a0b      	ldr	r2, [sp, #44]	; 0x2c
70001fbc:	9201      	str	r2, [sp, #4]
70001fbe:	9a0c      	ldr	r2, [sp, #48]	; 0x30
70001fc0:	9202      	str	r2, [sp, #8]
70001fc2:	9a0d      	ldr	r2, [sp, #52]	; 0x34
70001fc4:	7382      	strb	r2, [r0, #14]
70001fc6:	9a0e      	ldr	r2, [sp, #56]	; 0x38
70001fc8:	7302      	strb	r2, [r0, #12]
70001fca:	462a      	mov	r2, r5
70001fcc:	e9c0 8906 	strd	r8, r9, [r0, #24]
70001fd0:	f7fe fee8 	bl	70000da4 <arch_new_thread>
70001fd4:	f646 437c 	movw	r3, #27772	; 0x6c7c
70001fd8:	6566      	str	r6, [r4, #84]	; 0x54
70001fda:	f2c7 0300 	movt	r3, #28672	; 0x7000
70001fde:	4628      	mov	r0, r5
70001fe0:	689b      	ldr	r3, [r3, #8]
70001fe2:	6e9b      	ldr	r3, [r3, #104]	; 0x68
70001fe4:	66a3      	str	r3, [r4, #104]	; 0x68
70001fe6:	b004      	add	sp, #16
70001fe8:	e8bd 8370 	ldmia.w	sp!, {r4, r5, r6, r8, r9, pc}

70001fec <z_impl_k_thread_create>:
70001fec:	e92d 43f0 	stmdb	sp!, {r4, r5, r6, r7, r8, r9, lr}
70001ff0:	f100 0658 	add.w	r6, r0, #88	; 0x58
70001ff4:	2500      	movs	r5, #0
70001ff6:	b085      	sub	sp, #20
70001ff8:	e9c0 6616 	strd	r6, r6, [r0, #88]	; 0x58
70001ffc:	2604      	movs	r6, #4
70001ffe:	6085      	str	r5, [r0, #8]
70002000:	3207      	adds	r2, #7
70002002:	7346      	strb	r6, [r0, #13]
70002004:	f04f 0800 	mov.w	r8, #0
70002008:	9e0c      	ldr	r6, [sp, #48]	; 0x30
7000200a:	f04f 0900 	mov.w	r9, #0
7000200e:	73c5      	strb	r5, [r0, #15]
70002010:	f022 0207 	bic.w	r2, r2, #7
70002014:	9600      	str	r6, [sp, #0]
70002016:	440a      	add	r2, r1
70002018:	9e0d      	ldr	r6, [sp, #52]	; 0x34
7000201a:	4604      	mov	r4, r0
7000201c:	9601      	str	r6, [sp, #4]
7000201e:	9e0e      	ldr	r6, [sp, #56]	; 0x38
70002020:	9602      	str	r6, [sp, #8]
70002022:	9e0f      	ldr	r6, [sp, #60]	; 0x3c
70002024:	7386      	strb	r6, [r0, #14]
70002026:	9e10      	ldr	r6, [sp, #64]	; 0x40
70002028:	7306      	strb	r6, [r0, #12]
7000202a:	e9c0 8906 	strd	r8, r9, [r0, #24]
7000202e:	e9dd 7612 	ldrd	r7, r6, [sp, #72]	; 0x48
70002032:	f7fe feb7 	bl	70000da4 <arch_new_thread>
70002036:	6565      	str	r5, [r4, #84]	; 0x54
70002038:	f646 437c 	movw	r3, #27772	; 0x6c7c
7000203c:	f2c7 0300 	movt	r3, #28672	; 0x7000
70002040:	f1b6 3fff 	cmp.w	r6, #4294967295	; 0xffffffff
70002044:	bf08      	it	eq
70002046:	f1b7 3fff 	cmpeq.w	r7, #4294967295	; 0xffffffff
7000204a:	689b      	ldr	r3, [r3, #8]
7000204c:	6e9b      	ldr	r3, [r3, #104]	; 0x68
7000204e:	66a3      	str	r3, [r4, #104]	; 0x68
70002050:	d103      	bne.n	7000205a <z_impl_k_thread_create+0x6e>
70002052:	4620      	mov	r0, r4
70002054:	b005      	add	sp, #20
70002056:	e8bd 83f0 	ldmia.w	sp!, {r4, r5, r6, r7, r8, r9, pc}
7000205a:	ea56 0307 	orrs.w	r3, r6, r7
7000205e:	d106      	bne.n	7000206e <z_impl_k_thread_create+0x82>
70002060:	4620      	mov	r0, r4
70002062:	f000 fb53 	bl	7000270c <z_impl_k_wakeup>
70002066:	4620      	mov	r0, r4
70002068:	b005      	add	sp, #20
7000206a:	e8bd 83f0 	ldmia.w	sp!, {r4, r5, r6, r7, r8, r9, pc}
7000206e:	f242 4141 	movw	r1, #9281	; 0x2441
70002072:	f104 0018 	add.w	r0, r4, #24
70002076:	463a      	mov	r2, r7
70002078:	4633      	mov	r3, r6
7000207a:	f2c7 0100 	movt	r1, #28672	; 0x7000
7000207e:	f000 fbcf 	bl	70002820 <z_add_timeout>
70002082:	4620      	mov	r0, r4
70002084:	b005      	add	sp, #20
70002086:	e8bd 83f0 	ldmia.w	sp!, {r4, r5, r6, r7, r8, r9, pc}
7000208a:	bf00      	nop

7000208c <unready_thread>:
7000208c:	b410      	push	{r4}
7000208e:	7b43      	ldrb	r3, [r0, #13]
70002090:	061c      	lsls	r4, r3, #24
70002092:	d509      	bpl.n	700020a8 <unready_thread+0x1c>
70002094:	2200      	movs	r2, #0
70002096:	f003 037f 	and.w	r3, r3, #127	; 0x7f
7000209a:	e9d0 1400 	ldrd	r1, r4, [r0]
7000209e:	7343      	strb	r3, [r0, #13]
700020a0:	6021      	str	r1, [r4, #0]
700020a2:	604c      	str	r4, [r1, #4]
700020a4:	6002      	str	r2, [r0, #0]
700020a6:	6042      	str	r2, [r0, #4]
700020a8:	f646 437c 	movw	r3, #27772	; 0x6c7c
700020ac:	f2c7 0300 	movt	r3, #28672	; 0x7000
700020b0:	4619      	mov	r1, r3
700020b2:	689c      	ldr	r4, [r3, #8]
700020b4:	f851 2f18 	ldr.w	r2, [r1, #24]!
700020b8:	428a      	cmp	r2, r1
700020ba:	bf18      	it	ne
700020bc:	2a00      	cmpne	r2, #0
700020be:	bf08      	it	eq
700020c0:	68da      	ldreq	r2, [r3, #12]
700020c2:	42a0      	cmp	r0, r4
700020c4:	d006      	beq.n	700020d4 <unready_thread+0x48>
700020c6:	7b61      	ldrb	r1, [r4, #13]
700020c8:	06c9      	lsls	r1, r1, #27
700020ca:	d103      	bne.n	700020d4 <unready_thread+0x48>
700020cc:	89e1      	ldrh	r1, [r4, #14]
700020ce:	297f      	cmp	r1, #127	; 0x7f
700020d0:	bf88      	it	hi
700020d2:	4622      	movhi	r2, r4
700020d4:	615a      	str	r2, [r3, #20]
700020d6:	bc10      	pop	{r4}
700020d8:	4770      	bx	lr
700020da:	bf00      	nop

700020dc <add_to_waitq_locked>:
700020dc:	b538      	push	{r3, r4, r5, lr}
700020de:	460d      	mov	r5, r1
700020e0:	f7ff ffd4 	bl	7000208c <unready_thread>
700020e4:	7b43      	ldrb	r3, [r0, #13]
700020e6:	f043 0302 	orr.w	r3, r3, #2
700020ea:	7343      	strb	r3, [r0, #13]
700020ec:	b1bd      	cbz	r5, 7000211e <add_to_waitq_locked+0x42>
700020ee:	6085      	str	r5, [r0, #8]
700020f0:	4604      	mov	r4, r0
700020f2:	682b      	ldr	r3, [r5, #0]
700020f4:	429d      	cmp	r5, r3
700020f6:	d00d      	beq.n	70002114 <add_to_waitq_locked+0x38>
700020f8:	b163      	cbz	r3, 70002114 <add_to_waitq_locked+0x38>
700020fa:	f993 c00e 	ldrsb.w	ip, [r3, #14]
700020fe:	f994 200e 	ldrsb.w	r2, [r4, #14]
70002102:	4562      	cmp	r2, ip
70002104:	d001      	beq.n	7000210a <add_to_waitq_locked+0x2e>
70002106:	4594      	cmp	ip, r2
70002108:	dc0a      	bgt.n	70002120 <add_to_waitq_locked+0x44>
7000210a:	686a      	ldr	r2, [r5, #4]
7000210c:	4293      	cmp	r3, r2
7000210e:	d002      	beq.n	70002116 <add_to_waitq_locked+0x3a>
70002110:	681b      	ldr	r3, [r3, #0]
70002112:	e7f1      	b.n	700020f8 <add_to_waitq_locked+0x1c>
70002114:	686a      	ldr	r2, [r5, #4]
70002116:	e9c4 5200 	strd	r5, r2, [r4]
7000211a:	6014      	str	r4, [r2, #0]
7000211c:	606c      	str	r4, [r5, #4]
7000211e:	bd38      	pop	{r3, r4, r5, pc}
70002120:	685a      	ldr	r2, [r3, #4]
70002122:	e9c4 3200 	strd	r3, r2, [r4]
70002126:	6014      	str	r4, [r2, #0]
70002128:	605c      	str	r4, [r3, #4]
7000212a:	bd38      	pop	{r3, r4, r5, pc}

7000212c <ready_thread>:
7000212c:	7b43      	ldrb	r3, [r0, #13]
7000212e:	0619      	lsls	r1, r3, #24
70002130:	d403      	bmi.n	7000213a <ready_thread+0xe>
70002132:	06da      	lsls	r2, r3, #27
70002134:	d101      	bne.n	7000213a <ready_thread+0xe>
70002136:	6982      	ldr	r2, [r0, #24]
70002138:	b102      	cbz	r2, 7000213c <ready_thread+0x10>
7000213a:	4770      	bx	lr
7000213c:	f646 4c7c 	movw	ip, #27772	; 0x6c7c
70002140:	f063 037f 	orn	r3, r3, #127	; 0x7f
70002144:	f2c7 0c00 	movt	ip, #28672	; 0x7000
70002148:	b430      	push	{r4, r5}
7000214a:	7343      	strb	r3, [r0, #13]
7000214c:	4665      	mov	r5, ip
7000214e:	f8dc 401c 	ldr.w	r4, [ip, #28]
70002152:	f855 3f18 	ldr.w	r3, [r5, #24]!
70002156:	42ab      	cmp	r3, r5
70002158:	bf08      	it	eq
7000215a:	2300      	moveq	r3, #0
7000215c:	b15b      	cbz	r3, 70002176 <ready_thread+0x4a>
7000215e:	f993 100e 	ldrsb.w	r1, [r3, #14]
70002162:	f990 200e 	ldrsb.w	r2, [r0, #14]
70002166:	428a      	cmp	r2, r1
70002168:	d001      	beq.n	7000216e <ready_thread+0x42>
7000216a:	4291      	cmp	r1, r2
7000216c:	dc20      	bgt.n	700021b0 <ready_thread+0x84>
7000216e:	42a3      	cmp	r3, r4
70002170:	d001      	beq.n	70002176 <ready_thread+0x4a>
70002172:	681b      	ldr	r3, [r3, #0]
70002174:	e7f2      	b.n	7000215c <ready_thread+0x30>
70002176:	e9c0 5400 	strd	r5, r4, [r0]
7000217a:	6020      	str	r0, [r4, #0]
7000217c:	f8cc 001c 	str.w	r0, [ip, #28]
70002180:	f8dc 3018 	ldr.w	r3, [ip, #24]
70002184:	f8dc 2008 	ldr.w	r2, [ip, #8]
70002188:	7b51      	ldrb	r1, [r2, #13]
7000218a:	2b00      	cmp	r3, #0
7000218c:	bf18      	it	ne
7000218e:	42ab      	cmpne	r3, r5
70002190:	bf08      	it	eq
70002192:	f8dc 300c 	ldreq.w	r3, [ip, #12]
70002196:	06c9      	lsls	r1, r1, #27
70002198:	d107      	bne.n	700021aa <ready_thread+0x7e>
7000219a:	89d1      	ldrh	r1, [r2, #14]
7000219c:	297f      	cmp	r1, #127	; 0x7f
7000219e:	bf88      	it	hi
700021a0:	f8cc 2014 	strhi.w	r2, [ip, #20]
700021a4:	d901      	bls.n	700021aa <ready_thread+0x7e>
700021a6:	bc30      	pop	{r4, r5}
700021a8:	4770      	bx	lr
700021aa:	f8cc 3014 	str.w	r3, [ip, #20]
700021ae:	e7fa      	b.n	700021a6 <ready_thread+0x7a>
700021b0:	685a      	ldr	r2, [r3, #4]
700021b2:	e9c0 3200 	strd	r3, r2, [r0]
700021b6:	6010      	str	r0, [r2, #0]
700021b8:	6058      	str	r0, [r3, #4]
700021ba:	e7e1      	b.n	70002180 <ready_thread+0x54>

700021bc <z_thread_halt>:
700021bc:	2a00      	cmp	r2, #0
700021be:	bf0c      	ite	eq
700021c0:	2210      	moveq	r2, #16
700021c2:	2208      	movne	r2, #8
700021c4:	e92d 41f0 	stmdb	sp!, {r4, r5, r6, r7, r8, lr}
700021c8:	7b43      	ldrb	r3, [r0, #13]
700021ca:	460f      	mov	r7, r1
700021cc:	ea12 0103 	ands.w	r1, r2, r3
700021d0:	bf18      	it	ne
700021d2:	f646 437c 	movwne	r3, #27772	; 0x6c7c
700021d6:	4605      	mov	r5, r0
700021d8:	bf18      	it	ne
700021da:	f2c7 0300 	movtne	r3, #28672	; 0x7000
700021de:	d122      	bne.n	70002226 <z_thread_halt+0x6a>
700021e0:	ea42 0003 	orr.w	r0, r2, r3
700021e4:	09db      	lsrs	r3, r3, #7
700021e6:	bf17      	itett	ne
700021e8:	f000 007f 	andne.w	r0, r0, #127	; 0x7f
700021ec:	7368      	strbeq	r0, [r5, #13]
700021ee:	7368      	strbne	r0, [r5, #13]
700021f0:	e9d5 3000 	ldrdne	r3, r0, [r5]
700021f4:	bf1e      	ittt	ne
700021f6:	6003      	strne	r3, [r0, #0]
700021f8:	6058      	strne	r0, [r3, #4]
700021fa:	e9c5 1100 	strdne	r1, r1, [r5]
700021fe:	2a08      	cmp	r2, #8
70002200:	d029      	beq.n	70002256 <z_thread_halt+0x9a>
70002202:	f646 437c 	movw	r3, #27772	; 0x6c7c
70002206:	f2c7 0300 	movt	r3, #28672	; 0x7000
7000220a:	461a      	mov	r2, r3
7000220c:	f852 1f18 	ldr.w	r1, [r2, #24]!
70002210:	4291      	cmp	r1, r2
70002212:	d05f      	beq.n	700022d4 <z_thread_halt+0x118>
70002214:	2900      	cmp	r1, #0
70002216:	d069      	beq.n	700022ec <z_thread_halt+0x130>
70002218:	6159      	str	r1, [r3, #20]
7000221a:	f3bf 8f5f 	dmb	sy
7000221e:	7b6a      	ldrb	r2, [r5, #13]
70002220:	f022 0260 	bic.w	r2, r2, #96	; 0x60
70002224:	736a      	strb	r2, [r5, #13]
70002226:	689a      	ldr	r2, [r3, #8]
70002228:	4295      	cmp	r5, r2
7000222a:	d003      	beq.n	70002234 <z_thread_halt+0x78>
7000222c:	b907      	cbnz	r7, 70002230 <z_thread_halt+0x74>
7000222e:	b662      	cpsie	i
70002230:	e8bd 81f0 	ldmia.w	sp!, {r4, r5, r6, r7, r8, pc}
70002234:	ee1d 2f70 	mrc	15, 0, r2, cr13, cr0, {3}
70002238:	f022 0203 	bic.w	r2, r2, #3
7000223c:	6812      	ldr	r2, [r2, #0]
7000223e:	2a00      	cmp	r2, #0
70002240:	d1f4      	bne.n	7000222c <z_thread_halt+0x70>
70002242:	689b      	ldr	r3, [r3, #8]
70002244:	f06f 020a 	mvn.w	r2, #10
70002248:	e9c3 721b 	strd	r7, r2, [r3, #108]	; 0x6c
7000224c:	f7fe eee6 	blx	7000101c <z_arm_cortex_r_svc>
70002250:	2f00      	cmp	r7, #0
70002252:	d0ec      	beq.n	7000222e <z_thread_halt+0x72>
70002254:	e7ec      	b.n	70002230 <z_thread_halt+0x74>
70002256:	68ab      	ldr	r3, [r5, #8]
70002258:	b15b      	cbz	r3, 70002272 <z_thread_halt+0xb6>
7000225a:	e9d5 3100 	ldrd	r3, r1, [r5]
7000225e:	2200      	movs	r2, #0
70002260:	600b      	str	r3, [r1, #0]
70002262:	6059      	str	r1, [r3, #4]
70002264:	7b6b      	ldrb	r3, [r5, #13]
70002266:	e9c5 2200 	strd	r2, r2, [r5]
7000226a:	f023 0302 	bic.w	r3, r3, #2
7000226e:	60aa      	str	r2, [r5, #8]
70002270:	736b      	strb	r3, [r5, #13]
70002272:	f105 0018 	add.w	r0, r5, #24
70002276:	f000 fb65 	bl	70002944 <z_abort_timeout>
7000227a:	6dac      	ldr	r4, [r5, #88]	; 0x58
7000227c:	f105 0858 	add.w	r8, r5, #88	; 0x58
70002280:	45a0      	cmp	r8, r4
70002282:	d019      	beq.n	700022b8 <z_thread_halt+0xfc>
70002284:	b1c4      	cbz	r4, 700022b8 <z_thread_halt+0xfc>
70002286:	2600      	movs	r6, #0
70002288:	e000      	b.n	7000228c <z_thread_halt+0xd0>
7000228a:	b1ac      	cbz	r4, 700022b8 <z_thread_halt+0xfc>
7000228c:	e9d4 3200 	ldrd	r3, r2, [r4]
70002290:	f104 0018 	add.w	r0, r4, #24
70002294:	6013      	str	r3, [r2, #0]
70002296:	605a      	str	r2, [r3, #4]
70002298:	7b63      	ldrb	r3, [r4, #13]
7000229a:	e9c4 6600 	strd	r6, r6, [r4]
7000229e:	f023 0302 	bic.w	r3, r3, #2
700022a2:	60a6      	str	r6, [r4, #8]
700022a4:	7363      	strb	r3, [r4, #13]
700022a6:	f000 fb4d 	bl	70002944 <z_abort_timeout>
700022aa:	6726      	str	r6, [r4, #112]	; 0x70
700022ac:	4620      	mov	r0, r4
700022ae:	f7ff ff3d 	bl	7000212c <ready_thread>
700022b2:	6dac      	ldr	r4, [r5, #88]	; 0x58
700022b4:	45a0      	cmp	r8, r4
700022b6:	d1e8      	bne.n	7000228a <z_thread_halt+0xce>
700022b8:	f646 437c 	movw	r3, #27772	; 0x6c7c
700022bc:	f2c7 0300 	movt	r3, #28672	; 0x7000
700022c0:	689a      	ldr	r2, [r3, #8]
700022c2:	4295      	cmp	r5, r2
700022c4:	d014      	beq.n	700022f0 <z_thread_halt+0x134>
700022c6:	461a      	mov	r2, r3
700022c8:	f852 1f18 	ldr.w	r1, [r2, #24]!
700022cc:	4291      	cmp	r1, r2
700022ce:	d001      	beq.n	700022d4 <z_thread_halt+0x118>
700022d0:	2900      	cmp	r1, #0
700022d2:	d1a1      	bne.n	70002218 <z_thread_halt+0x5c>
700022d4:	68da      	ldr	r2, [r3, #12]
700022d6:	615a      	str	r2, [r3, #20]
700022d8:	f3bf 8f5f 	dmb	sy
700022dc:	7b6a      	ldrb	r2, [r5, #13]
700022de:	f022 0260 	bic.w	r2, r2, #96	; 0x60
700022e2:	736a      	strb	r2, [r5, #13]
700022e4:	689a      	ldr	r2, [r3, #8]
700022e6:	4295      	cmp	r5, r2
700022e8:	d1a0      	bne.n	7000222c <z_thread_halt+0x70>
700022ea:	e7a3      	b.n	70002234 <z_thread_halt+0x78>
700022ec:	68d9      	ldr	r1, [r3, #12]
700022ee:	e793      	b.n	70002218 <z_thread_halt+0x5c>
700022f0:	ee1d 2f70 	mrc	15, 0, r2, cr13, cr0, {3}
700022f4:	f022 0203 	bic.w	r2, r2, #3
700022f8:	6812      	ldr	r2, [r2, #0]
700022fa:	2a00      	cmp	r2, #0
700022fc:	d0e3      	beq.n	700022c6 <z_thread_halt+0x10a>
700022fe:	461a      	mov	r2, r3
70002300:	f852 1f18 	ldr.w	r1, [r2, #24]!
70002304:	4291      	cmp	r1, r2
70002306:	d00c      	beq.n	70002322 <z_thread_halt+0x166>
70002308:	b159      	cbz	r1, 70002322 <z_thread_halt+0x166>
7000230a:	6159      	str	r1, [r3, #20]
7000230c:	f245 4238 	movw	r2, #21560	; 0x5438
70002310:	f240 1101 	movw	r1, #257	; 0x101
70002314:	f2c7 0200 	movt	r2, #28672	; 0x7000
70002318:	8191      	strh	r1, [r2, #12]
7000231a:	2100      	movs	r1, #0
7000231c:	609a      	str	r2, [r3, #8]
7000231e:	6691      	str	r1, [r2, #104]	; 0x68
70002320:	e7da      	b.n	700022d8 <z_thread_halt+0x11c>
70002322:	68d9      	ldr	r1, [r3, #12]
70002324:	e7f1      	b.n	7000230a <z_thread_halt+0x14e>
70002326:	bf00      	nop

70002328 <z_ready_thread>:
70002328:	b510      	push	{r4, lr}
7000232a:	f3ef 8400 	mrs	r4, CPSR
7000232e:	f004 0480 	and.w	r4, r4, #128	; 0x80
70002332:	b672      	cpsid	i
70002334:	f7ff fefa 	bl	7000212c <ready_thread>
70002338:	b904      	cbnz	r4, 7000233c <z_ready_thread+0x14>
7000233a:	b662      	cpsie	i
7000233c:	bd10      	pop	{r4, pc}
7000233e:	bf00      	nop

70002340 <z_impl_k_thread_suspend>:
70002340:	f646 437c 	movw	r3, #27772	; 0x6c7c
70002344:	f2c7 0300 	movt	r3, #28672	; 0x7000
70002348:	689a      	ldr	r2, [r3, #8]
7000234a:	4282      	cmp	r2, r0
7000234c:	d00e      	beq.n	7000236c <z_impl_k_thread_suspend+0x2c>
7000234e:	f3ef 8100 	mrs	r1, CPSR
70002352:	f001 0180 	and.w	r1, r1, #128	; 0x80
70002356:	b672      	cpsid	i
70002358:	7b42      	ldrb	r2, [r0, #13]
7000235a:	f012 0210 	ands.w	r2, r2, #16
7000235e:	d002      	beq.n	70002366 <z_impl_k_thread_suspend+0x26>
70002360:	b919      	cbnz	r1, 7000236a <z_impl_k_thread_suspend+0x2a>
70002362:	b662      	cpsie	i
70002364:	4770      	bx	lr
70002366:	f7ff bf29 	b.w	700021bc <z_thread_halt>
7000236a:	4770      	bx	lr
7000236c:	ee1d 1f70 	mrc	15, 0, r1, cr13, cr0, {3}
70002370:	f021 0103 	bic.w	r1, r1, #3
70002374:	6809      	ldr	r1, [r1, #0]
70002376:	2900      	cmp	r1, #0
70002378:	d1e9      	bne.n	7000234e <z_impl_k_thread_suspend+0xe>
7000237a:	b570      	push	{r4, r5, r6, lr}
7000237c:	f3ef 8400 	mrs	r4, CPSR
70002380:	f004 0480 	and.w	r4, r4, #128	; 0x80
70002384:	b672      	cpsid	i
70002386:	7b50      	ldrb	r0, [r2, #13]
70002388:	6856      	ldr	r6, [r2, #4]
7000238a:	6815      	ldr	r5, [r2, #0]
7000238c:	f000 007f 	and.w	r0, r0, #127	; 0x7f
70002390:	f040 0010 	orr.w	r0, r0, #16
70002394:	7350      	strb	r0, [r2, #13]
70002396:	4618      	mov	r0, r3
70002398:	6035      	str	r5, [r6, #0]
7000239a:	606e      	str	r6, [r5, #4]
7000239c:	6011      	str	r1, [r2, #0]
7000239e:	6051      	str	r1, [r2, #4]
700023a0:	f850 2f18 	ldr.w	r2, [r0, #24]!
700023a4:	6899      	ldr	r1, [r3, #8]
700023a6:	66cc      	str	r4, [r1, #108]	; 0x6c
700023a8:	4282      	cmp	r2, r0
700023aa:	bf18      	it	ne
700023ac:	2a00      	cmpne	r2, #0
700023ae:	f06f 000a 	mvn.w	r0, #10
700023b2:	bf08      	it	eq
700023b4:	68da      	ldreq	r2, [r3, #12]
700023b6:	6708      	str	r0, [r1, #112]	; 0x70
700023b8:	615a      	str	r2, [r3, #20]
700023ba:	f7fe ee30 	blx	7000101c <z_arm_cortex_r_svc>
700023be:	b904      	cbnz	r4, 700023c2 <z_impl_k_thread_suspend+0x82>
700023c0:	b662      	cpsie	i
700023c2:	bd70      	pop	{r4, r5, r6, pc}

700023c4 <z_unpend_thread_no_timeout>:
700023c4:	f3ef 8100 	mrs	r1, CPSR
700023c8:	f001 0180 	and.w	r1, r1, #128	; 0x80
700023cc:	b672      	cpsid	i
700023ce:	6883      	ldr	r3, [r0, #8]
700023d0:	b193      	cbz	r3, 700023f8 <z_unpend_thread_no_timeout+0x34>
700023d2:	e9d0 3200 	ldrd	r3, r2, [r0]
700023d6:	b430      	push	{r4, r5}
700023d8:	6013      	str	r3, [r2, #0]
700023da:	2400      	movs	r4, #0
700023dc:	605a      	str	r2, [r3, #4]
700023de:	2500      	movs	r5, #0
700023e0:	7b43      	ldrb	r3, [r0, #13]
700023e2:	2200      	movs	r2, #0
700023e4:	e9c0 4500 	strd	r4, r5, [r0]
700023e8:	f023 0302 	bic.w	r3, r3, #2
700023ec:	6082      	str	r2, [r0, #8]
700023ee:	7343      	strb	r3, [r0, #13]
700023f0:	b901      	cbnz	r1, 700023f4 <z_unpend_thread_no_timeout+0x30>
700023f2:	b662      	cpsie	i
700023f4:	bc30      	pop	{r4, r5}
700023f6:	4770      	bx	lr
700023f8:	b909      	cbnz	r1, 700023fe <z_unpend_thread_no_timeout+0x3a>
700023fa:	b662      	cpsie	i
700023fc:	4770      	bx	lr
700023fe:	4770      	bx	lr

70002400 <z_sched_wake_thread>:
70002400:	b5d0      	push	{r4, r6, r7, lr}
70002402:	f3ef 8400 	mrs	r4, CPSR
70002406:	f004 0480 	and.w	r4, r4, #128	; 0x80
7000240a:	b672      	cpsid	i
7000240c:	7b43      	ldrb	r3, [r0, #13]
7000240e:	f013 0128 	ands.w	r1, r3, #40	; 0x28
70002412:	d112      	bne.n	7000243a <z_sched_wake_thread+0x3a>
70002414:	6882      	ldr	r2, [r0, #8]
70002416:	b15a      	cbz	r2, 70002430 <z_sched_wake_thread+0x30>
70002418:	e9d0 3200 	ldrd	r3, r2, [r0]
7000241c:	2600      	movs	r6, #0
7000241e:	6013      	str	r3, [r2, #0]
70002420:	2700      	movs	r7, #0
70002422:	605a      	str	r2, [r3, #4]
70002424:	7b43      	ldrb	r3, [r0, #13]
70002426:	e9c0 6700 	strd	r6, r7, [r0]
7000242a:	f003 03fd 	and.w	r3, r3, #253	; 0xfd
7000242e:	6081      	str	r1, [r0, #8]
70002430:	f023 0304 	bic.w	r3, r3, #4
70002434:	7343      	strb	r3, [r0, #13]
70002436:	f7ff fe79 	bl	7000212c <ready_thread>
7000243a:	b904      	cbnz	r4, 7000243e <z_sched_wake_thread+0x3e>
7000243c:	b662      	cpsie	i
7000243e:	bdd0      	pop	{r4, r6, r7, pc}

70002440 <z_thread_timeout>:
70002440:	2101      	movs	r1, #1
70002442:	3818      	subs	r0, #24
70002444:	f7ff bfdc 	b.w	70002400 <z_sched_wake_thread>

70002448 <z_pend_curr>:
70002448:	b5f8      	push	{r3, r4, r5, r6, r7, lr}
7000244a:	e9dd 7606 	ldrd	r7, r6, [sp, #24]
7000244e:	460d      	mov	r5, r1
70002450:	4611      	mov	r1, r2
70002452:	f3ef 8300 	mrs	r3, CPSR
70002456:	f003 0380 	and.w	r3, r3, #128	; 0x80
7000245a:	b672      	cpsid	i
7000245c:	f646 447c 	movw	r4, #27772	; 0x6c7c
70002460:	f2c7 0400 	movt	r4, #28672	; 0x7000
70002464:	68a0      	ldr	r0, [r4, #8]
70002466:	f7ff fe39 	bl	700020dc <add_to_waitq_locked>
7000246a:	f1b6 3fff 	cmp.w	r6, #4294967295	; 0xffffffff
7000246e:	bf08      	it	eq
70002470:	f1b7 3fff 	cmpeq.w	r7, #4294967295	; 0xffffffff
70002474:	d008      	beq.n	70002488 <z_pend_curr+0x40>
70002476:	f242 4141 	movw	r1, #9281	; 0x2441
7000247a:	463a      	mov	r2, r7
7000247c:	4633      	mov	r3, r6
7000247e:	3018      	adds	r0, #24
70002480:	f2c7 0100 	movt	r1, #28672	; 0x7000
70002484:	f000 f9cc 	bl	70002820 <z_add_timeout>
70002488:	68a3      	ldr	r3, [r4, #8]
7000248a:	f06f 020a 	mvn.w	r2, #10
7000248e:	e9c3 521b 	strd	r5, r2, [r3, #108]	; 0x6c
70002492:	f7fe edc4 	blx	7000101c <z_arm_cortex_r_svc>
70002496:	b905      	cbnz	r5, 7000249a <z_pend_curr+0x52>
70002498:	b662      	cpsie	i
7000249a:	68a3      	ldr	r3, [r4, #8]
7000249c:	6f18      	ldr	r0, [r3, #112]	; 0x70
7000249e:	bdf8      	pop	{r3, r4, r5, r6, r7, pc}

700024a0 <z_unpend_thread>:
700024a0:	b510      	push	{r4, lr}
700024a2:	f7ff ff8f 	bl	700023c4 <z_unpend_thread_no_timeout>
700024a6:	e8bd 4010 	ldmia.w	sp!, {r4, lr}
700024aa:	3018      	adds	r0, #24
700024ac:	f000 ba4a 	b.w	70002944 <z_abort_timeout>

700024b0 <z_reschedule>:
700024b0:	b9c1      	cbnz	r1, 700024e4 <z_reschedule+0x34>
700024b2:	b508      	push	{r3, lr}
700024b4:	ee1d 3f70 	mrc	15, 0, r3, cr13, cr0, {3}
700024b8:	f023 0303 	bic.w	r3, r3, #3
700024bc:	681a      	ldr	r2, [r3, #0]
700024be:	b97a      	cbnz	r2, 700024e0 <z_reschedule+0x30>
700024c0:	f646 437c 	movw	r3, #27772	; 0x6c7c
700024c4:	f2c7 0300 	movt	r3, #28672	; 0x7000
700024c8:	6899      	ldr	r1, [r3, #8]
700024ca:	695b      	ldr	r3, [r3, #20]
700024cc:	428b      	cmp	r3, r1
700024ce:	d007      	beq.n	700024e0 <z_reschedule+0x30>
700024d0:	66ca      	str	r2, [r1, #108]	; 0x6c
700024d2:	f06f 030a 	mvn.w	r3, #10
700024d6:	670b      	str	r3, [r1, #112]	; 0x70
700024d8:	f7fe eda0 	blx	7000101c <z_arm_cortex_r_svc>
700024dc:	b662      	cpsie	i
700024de:	bd08      	pop	{r3, pc}
700024e0:	b662      	cpsie	i
700024e2:	bd08      	pop	{r3, pc}
700024e4:	4770      	bx	lr
700024e6:	bf00      	nop

700024e8 <z_impl_k_thread_resume>:
700024e8:	b510      	push	{r4, lr}
700024ea:	f3ef 8400 	mrs	r4, CPSR
700024ee:	f004 0480 	and.w	r4, r4, #128	; 0x80
700024f2:	b672      	cpsid	i
700024f4:	7b42      	ldrb	r2, [r0, #13]
700024f6:	06d3      	lsls	r3, r2, #27
700024f8:	d402      	bmi.n	70002500 <z_impl_k_thread_resume+0x18>
700024fa:	b904      	cbnz	r4, 700024fe <z_impl_k_thread_resume+0x16>
700024fc:	b662      	cpsie	i
700024fe:	bd10      	pop	{r4, pc}
70002500:	f022 0210 	bic.w	r2, r2, #16
70002504:	7342      	strb	r2, [r0, #13]
70002506:	f7ff fe11 	bl	7000212c <ready_thread>
7000250a:	f646 409c 	movw	r0, #27804	; 0x6c9c
7000250e:	4621      	mov	r1, r4
70002510:	f2c7 0000 	movt	r0, #28672	; 0x7000
70002514:	e8bd 4010 	ldmia.w	sp!, {r4, lr}
70002518:	f7ff bfca 	b.w	700024b0 <z_reschedule>

7000251c <k_sched_lock>:
7000251c:	f3ef 8100 	mrs	r1, CPSR
70002520:	f001 0180 	and.w	r1, r1, #128	; 0x80
70002524:	b672      	cpsid	i
70002526:	f646 437c 	movw	r3, #27772	; 0x6c7c
7000252a:	f2c7 0300 	movt	r3, #28672	; 0x7000
7000252e:	689a      	ldr	r2, [r3, #8]
70002530:	7bd3      	ldrb	r3, [r2, #15]
70002532:	3b01      	subs	r3, #1
70002534:	73d3      	strb	r3, [r2, #15]
70002536:	b901      	cbnz	r1, 7000253a <k_sched_lock+0x1e>
70002538:	b662      	cpsie	i
7000253a:	4770      	bx	lr

7000253c <k_sched_unlock>:
7000253c:	b510      	push	{r4, lr}
7000253e:	f3ef 8400 	mrs	r4, CPSR
70002542:	f004 0480 	and.w	r4, r4, #128	; 0x80
70002546:	b672      	cpsid	i
70002548:	f646 407c 	movw	r0, #27772	; 0x6c7c
7000254c:	f2c7 0000 	movt	r0, #28672	; 0x7000
70002550:	4601      	mov	r1, r0
70002552:	6882      	ldr	r2, [r0, #8]
70002554:	7bd3      	ldrb	r3, [r2, #15]
70002556:	3301      	adds	r3, #1
70002558:	73d3      	strb	r3, [r2, #15]
7000255a:	f851 3f18 	ldr.w	r3, [r1, #24]!
7000255e:	428b      	cmp	r3, r1
70002560:	bf18      	it	ne
70002562:	2b00      	cmpne	r3, #0
70002564:	7b51      	ldrb	r1, [r2, #13]
70002566:	bf08      	it	eq
70002568:	68c3      	ldreq	r3, [r0, #12]
7000256a:	06c9      	lsls	r1, r1, #27
7000256c:	d103      	bne.n	70002576 <k_sched_unlock+0x3a>
7000256e:	89d1      	ldrh	r1, [r2, #14]
70002570:	297f      	cmp	r1, #127	; 0x7f
70002572:	bf88      	it	hi
70002574:	4613      	movhi	r3, r2
70002576:	6143      	str	r3, [r0, #20]
70002578:	b904      	cbnz	r4, 7000257c <k_sched_unlock+0x40>
7000257a:	b662      	cpsie	i
7000257c:	f3ef 8300 	mrs	r3, CPSR
70002580:	f003 0380 	and.w	r3, r3, #128	; 0x80
70002584:	b672      	cpsid	i
70002586:	b983      	cbnz	r3, 700025aa <k_sched_unlock+0x6e>
70002588:	ee1d 3f70 	mrc	15, 0, r3, cr13, cr0, {3}
7000258c:	f023 0303 	bic.w	r3, r3, #3
70002590:	681b      	ldr	r3, [r3, #0]
70002592:	b95b      	cbnz	r3, 700025ac <k_sched_unlock+0x70>
70002594:	6882      	ldr	r2, [r0, #8]
70002596:	6941      	ldr	r1, [r0, #20]
70002598:	4291      	cmp	r1, r2
7000259a:	d007      	beq.n	700025ac <k_sched_unlock+0x70>
7000259c:	66d3      	str	r3, [r2, #108]	; 0x6c
7000259e:	f06f 010a 	mvn.w	r1, #10
700025a2:	6711      	str	r1, [r2, #112]	; 0x70
700025a4:	f7fe ed3a 	blx	7000101c <z_arm_cortex_r_svc>
700025a8:	b662      	cpsie	i
700025aa:	bd10      	pop	{r4, pc}
700025ac:	b662      	cpsie	i
700025ae:	bd10      	pop	{r4, pc}

700025b0 <z_sched_init>:
700025b0:	4a02      	ldr	r2, [pc, #8]	; (700025bc <z_sched_init+0xc>)
700025b2:	4613      	mov	r3, r2
700025b4:	f843 2918 	str.w	r2, [r3], #-24
700025b8:	61da      	str	r2, [r3, #28]
700025ba:	4770      	bx	lr
700025bc:	70006c94 	.word	0x70006c94

700025c0 <z_impl_k_yield>:
700025c0:	b570      	push	{r4, r5, r6, lr}
700025c2:	f3ef 8600 	mrs	r6, CPSR
700025c6:	f006 0680 	and.w	r6, r6, #128	; 0x80
700025ca:	b672      	cpsid	i
700025cc:	f646 4c7c 	movw	ip, #27772	; 0x6c7c
700025d0:	f2c7 0c00 	movt	ip, #28672	; 0x7000
700025d4:	4665      	mov	r5, ip
700025d6:	f8dc 3008 	ldr.w	r3, [ip, #8]
700025da:	7b5a      	ldrb	r2, [r3, #13]
700025dc:	f002 027f 	and.w	r2, r2, #127	; 0x7f
700025e0:	735a      	strb	r2, [r3, #13]
700025e2:	2200      	movs	r2, #0
700025e4:	6858      	ldr	r0, [r3, #4]
700025e6:	6819      	ldr	r1, [r3, #0]
700025e8:	6001      	str	r1, [r0, #0]
700025ea:	6048      	str	r0, [r1, #4]
700025ec:	601a      	str	r2, [r3, #0]
700025ee:	605a      	str	r2, [r3, #4]
700025f0:	f8dc 0008 	ldr.w	r0, [ip, #8]
700025f4:	7b43      	ldrb	r3, [r0, #13]
700025f6:	f063 037f 	orn	r3, r3, #127	; 0x7f
700025fa:	7343      	strb	r3, [r0, #13]
700025fc:	f855 3f18 	ldr.w	r3, [r5, #24]!
70002600:	f8dc 401c 	ldr.w	r4, [ip, #28]
70002604:	42ab      	cmp	r3, r5
70002606:	bf08      	it	eq
70002608:	4613      	moveq	r3, r2
7000260a:	b163      	cbz	r3, 70002626 <z_impl_k_yield+0x66>
7000260c:	f993 100e 	ldrsb.w	r1, [r3, #14]
70002610:	f990 200e 	ldrsb.w	r2, [r0, #14]
70002614:	428a      	cmp	r2, r1
70002616:	d001      	beq.n	7000261c <z_impl_k_yield+0x5c>
70002618:	4291      	cmp	r1, r2
7000261a:	dc1e      	bgt.n	7000265a <z_impl_k_yield+0x9a>
7000261c:	42a3      	cmp	r3, r4
7000261e:	d002      	beq.n	70002626 <z_impl_k_yield+0x66>
70002620:	681b      	ldr	r3, [r3, #0]
70002622:	2b00      	cmp	r3, #0
70002624:	d1f2      	bne.n	7000260c <z_impl_k_yield+0x4c>
70002626:	e9c0 5400 	strd	r5, r4, [r0]
7000262a:	6020      	str	r0, [r4, #0]
7000262c:	f8cc 001c 	str.w	r0, [ip, #28]
70002630:	f8dc 3018 	ldr.w	r3, [ip, #24]
70002634:	f06f 010a 	mvn.w	r1, #10
70002638:	f8dc 2008 	ldr.w	r2, [ip, #8]
7000263c:	66d6      	str	r6, [r2, #108]	; 0x6c
7000263e:	42ab      	cmp	r3, r5
70002640:	bf18      	it	ne
70002642:	2b00      	cmpne	r3, #0
70002644:	6711      	str	r1, [r2, #112]	; 0x70
70002646:	bf08      	it	eq
70002648:	f8dc 300c 	ldreq.w	r3, [ip, #12]
7000264c:	f8cc 3014 	str.w	r3, [ip, #20]
70002650:	f7fe ece4 	blx	7000101c <z_arm_cortex_r_svc>
70002654:	b906      	cbnz	r6, 70002658 <z_impl_k_yield+0x98>
70002656:	b662      	cpsie	i
70002658:	bd70      	pop	{r4, r5, r6, pc}
7000265a:	685a      	ldr	r2, [r3, #4]
7000265c:	e9c0 3200 	strd	r3, r2, [r0]
70002660:	6010      	str	r0, [r2, #0]
70002662:	6058      	str	r0, [r3, #4]
70002664:	e7e4      	b.n	70002630 <z_impl_k_yield+0x70>
70002666:	bf00      	nop

70002668 <z_tick_sleep>:
70002668:	ea50 0301 	orrs.w	r3, r0, r1
7000266c:	e92d 41f0 	stmdb	sp!, {r4, r5, r6, r7, r8, lr}
70002670:	d039      	beq.n	700026e6 <z_tick_sleep+0x7e>
70002672:	4604      	mov	r4, r0
70002674:	1c83      	adds	r3, r0, #2
70002676:	460d      	mov	r5, r1
70002678:	f171 33ff 	sbcs.w	r3, r1, #4294967295	; 0xffffffff
7000267c:	bfbc      	itt	lt
7000267e:	f06f 0001 	mvnlt.w	r0, #1
70002682:	1b06      	sublt	r6, r0, r4
70002684:	da2b      	bge.n	700026de <z_tick_sleep+0x76>
70002686:	f3ef 8800 	mrs	r8, CPSR
7000268a:	f008 0880 	and.w	r8, r8, #128	; 0x80
7000268e:	b672      	cpsid	i
70002690:	f646 477c 	movw	r7, #27772	; 0x6c7c
70002694:	f2c7 0700 	movt	r7, #28672	; 0x7000
70002698:	68b8      	ldr	r0, [r7, #8]
7000269a:	f7ff fcf7 	bl	7000208c <unready_thread>
7000269e:	68b8      	ldr	r0, [r7, #8]
700026a0:	f242 4141 	movw	r1, #9281	; 0x2441
700026a4:	4622      	mov	r2, r4
700026a6:	462b      	mov	r3, r5
700026a8:	f2c7 0100 	movt	r1, #28672	; 0x7000
700026ac:	3018      	adds	r0, #24
700026ae:	f000 f8b7 	bl	70002820 <z_add_timeout>
700026b2:	68bb      	ldr	r3, [r7, #8]
700026b4:	f06f 010a 	mvn.w	r1, #10
700026b8:	7b5a      	ldrb	r2, [r3, #13]
700026ba:	f042 0204 	orr.w	r2, r2, #4
700026be:	e9c3 811b 	strd	r8, r1, [r3, #108]	; 0x6c
700026c2:	735a      	strb	r2, [r3, #13]
700026c4:	f7fe ecaa 	blx	7000101c <z_arm_cortex_r_svc>
700026c8:	f1b8 0f00 	cmp.w	r8, #0
700026cc:	d100      	bne.n	700026d0 <z_tick_sleep+0x68>
700026ce:	b662      	cpsie	i
700026d0:	f000 fa02 	bl	70002ad8 <sys_clock_tick_get_32>
700026d4:	1a30      	subs	r0, r6, r0
700026d6:	ea20 70e0 	bic.w	r0, r0, r0, asr #31
700026da:	e8bd 81f0 	ldmia.w	sp!, {r4, r5, r6, r7, r8, pc}
700026de:	f000 f9fb 	bl	70002ad8 <sys_clock_tick_get_32>
700026e2:	1906      	adds	r6, r0, r4
700026e4:	e7cf      	b.n	70002686 <z_tick_sleep+0x1e>
700026e6:	f7ff ff6b 	bl	700025c0 <z_impl_k_yield>
700026ea:	2000      	movs	r0, #0
700026ec:	e8bd 81f0 	ldmia.w	sp!, {r4, r5, r6, r7, r8, pc}

700026f0 <z_impl_k_sleep>:
700026f0:	b538      	push	{r3, r4, r5, lr}
700026f2:	4605      	mov	r5, r0
700026f4:	460c      	mov	r4, r1
700026f6:	f7ff ffb7 	bl	70002668 <z_tick_sleep>
700026fa:	f1b4 3fff 	cmp.w	r4, #4294967295	; 0xffffffff
700026fe:	bf08      	it	eq
70002700:	f1b5 3fff 	cmpeq.w	r5, #4294967295	; 0xffffffff
70002704:	bf08      	it	eq
70002706:	f04f 30ff 	moveq.w	r0, #4294967295	; 0xffffffff
7000270a:	bd38      	pop	{r3, r4, r5, pc}

7000270c <z_impl_k_wakeup>:
7000270c:	b538      	push	{r3, r4, r5, lr}
7000270e:	4604      	mov	r4, r0
70002710:	3018      	adds	r0, #24
70002712:	f000 f917 	bl	70002944 <z_abort_timeout>
70002716:	f3ef 8500 	mrs	r5, CPSR
7000271a:	f005 0580 	and.w	r5, r5, #128	; 0x80
7000271e:	b672      	cpsid	i
70002720:	7b63      	ldrb	r3, [r4, #13]
70002722:	075a      	lsls	r2, r3, #29
70002724:	d402      	bmi.n	7000272c <z_impl_k_wakeup+0x20>
70002726:	b905      	cbnz	r5, 7000272a <z_impl_k_wakeup+0x1e>
70002728:	b662      	cpsie	i
7000272a:	bd38      	pop	{r3, r4, r5, pc}
7000272c:	4620      	mov	r0, r4
7000272e:	f023 0304 	bic.w	r3, r3, #4
70002732:	7363      	strb	r3, [r4, #13]
70002734:	f7ff fcfa 	bl	7000212c <ready_thread>
70002738:	ee1d 3f70 	mrc	15, 0, r3, cr13, cr0, {3}
7000273c:	f023 0303 	bic.w	r3, r3, #3
70002740:	681b      	ldr	r3, [r3, #0]
70002742:	2b00      	cmp	r3, #0
70002744:	d1ef      	bne.n	70002726 <z_impl_k_wakeup+0x1a>
70002746:	f646 409c 	movw	r0, #27804	; 0x6c9c
7000274a:	4629      	mov	r1, r5
7000274c:	f2c7 0000 	movt	r0, #28672	; 0x7000
70002750:	e8bd 4038 	ldmia.w	sp!, {r3, r4, r5, lr}
70002754:	f7ff beac 	b.w	700024b0 <z_reschedule>

70002758 <z_impl_k_sched_current_thread_query>:
70002758:	f646 437c 	movw	r3, #27772	; 0x6c7c
7000275c:	f2c7 0300 	movt	r3, #28672	; 0x7000
70002760:	6898      	ldr	r0, [r3, #8]
70002762:	4770      	bx	lr

70002764 <z_impl_k_thread_abort>:
70002764:	f3ef 8100 	mrs	r1, CPSR
70002768:	f001 0180 	and.w	r1, r1, #128	; 0x80
7000276c:	b672      	cpsid	i
7000276e:	7b02      	ldrb	r2, [r0, #12]
70002770:	07d2      	lsls	r2, r2, #31
70002772:	d409      	bmi.n	70002788 <z_impl_k_thread_abort+0x24>
70002774:	7b43      	ldrb	r3, [r0, #13]
70002776:	071b      	lsls	r3, r3, #28
70002778:	d502      	bpl.n	70002780 <z_impl_k_thread_abort+0x1c>
7000277a:	b921      	cbnz	r1, 70002786 <z_impl_k_thread_abort+0x22>
7000277c:	b662      	cpsie	i
7000277e:	4770      	bx	lr
70002780:	2201      	movs	r2, #1
70002782:	f7ff bd1b 	b.w	700021bc <z_thread_halt>
70002786:	4770      	bx	lr
70002788:	b901      	cbnz	r1, 7000278c <z_impl_k_thread_abort+0x28>
7000278a:	b662      	cpsie	i
7000278c:	2004      	movs	r0, #4
7000278e:	b500      	push	{lr}
70002790:	b662      	cpsie	i
70002792:	df02      	svc	2
70002794:	f85d eb04 	ldr.w	lr, [sp], #4
70002798:	4770      	bx	lr
7000279a:	bf00      	nop

7000279c <z_sched_wake>:
7000279c:	e92d 41f0 	stmdb	sp!, {r4, r5, r6, r7, r8, lr}
700027a0:	f3ef 8800 	mrs	r8, CPSR
700027a4:	f008 0880 	and.w	r8, r8, #128	; 0x80
700027a8:	b672      	cpsid	i
700027aa:	6804      	ldr	r4, [r0, #0]
700027ac:	42a0      	cmp	r0, r4
700027ae:	bf18      	it	ne
700027b0:	2c00      	cmpne	r4, #0
700027b2:	bf14      	ite	ne
700027b4:	2501      	movne	r5, #1
700027b6:	2500      	moveq	r5, #0
700027b8:	d106      	bne.n	700027c8 <z_sched_wake+0x2c>
700027ba:	f1b8 0f00 	cmp.w	r8, #0
700027be:	d100      	bne.n	700027c2 <z_sched_wake+0x26>
700027c0:	b662      	cpsie	i
700027c2:	4628      	mov	r0, r5
700027c4:	e8bd 81f0 	ldmia.w	sp!, {r4, r5, r6, r7, r8, pc}
700027c8:	e9d4 3000 	ldrd	r3, r0, [r4]
700027cc:	2600      	movs	r6, #0
700027ce:	6162      	str	r2, [r4, #20]
700027d0:	2700      	movs	r7, #0
700027d2:	6721      	str	r1, [r4, #112]	; 0x70
700027d4:	2200      	movs	r2, #0
700027d6:	6003      	str	r3, [r0, #0]
700027d8:	6058      	str	r0, [r3, #4]
700027da:	7b63      	ldrb	r3, [r4, #13]
700027dc:	f023 0302 	bic.w	r3, r3, #2
700027e0:	e9c4 6700 	strd	r6, r7, [r4]
700027e4:	f104 0018 	add.w	r0, r4, #24
700027e8:	7363      	strb	r3, [r4, #13]
700027ea:	60a2      	str	r2, [r4, #8]
700027ec:	f000 f8aa 	bl	70002944 <z_abort_timeout>
700027f0:	4620      	mov	r0, r4
700027f2:	f7ff fc9b 	bl	7000212c <ready_thread>
700027f6:	e7e0      	b.n	700027ba <z_sched_wake+0x1e>

700027f8 <z_sched_wait>:
700027f8:	b510      	push	{r4, lr}
700027fa:	b082      	sub	sp, #8
700027fc:	e9dd 3404 	ldrd	r3, r4, [sp, #16]
70002800:	e9cd 3400 	strd	r3, r4, [sp]
70002804:	9c06      	ldr	r4, [sp, #24]
70002806:	f7ff fe1f 	bl	70002448 <z_pend_curr>
7000280a:	b134      	cbz	r4, 7000281a <z_sched_wait+0x22>
7000280c:	f646 437c 	movw	r3, #27772	; 0x6c7c
70002810:	f2c7 0300 	movt	r3, #28672	; 0x7000
70002814:	689b      	ldr	r3, [r3, #8]
70002816:	695b      	ldr	r3, [r3, #20]
70002818:	6023      	str	r3, [r4, #0]
7000281a:	b002      	add	sp, #8
7000281c:	bd10      	pop	{r4, pc}
7000281e:	bf00      	nop

70002820 <z_add_timeout>:
70002820:	f1b3 3fff 	cmp.w	r3, #4294967295	; 0xffffffff
70002824:	bf08      	it	eq
70002826:	f1b2 3fff 	cmpeq.w	r2, #4294967295	; 0xffffffff
7000282a:	f000 808a 	beq.w	70002942 <z_add_timeout+0x122>
7000282e:	b5f8      	push	{r3, r4, r5, r6, r7, lr}
70002830:	4606      	mov	r6, r0
70002832:	461d      	mov	r5, r3
70002834:	4614      	mov	r4, r2
70002836:	4618      	mov	r0, r3
70002838:	60b1      	str	r1, [r6, #8]
7000283a:	f3ef 8700 	mrs	r7, CPSR
7000283e:	f007 0780 	and.w	r7, r7, #128	; 0x80
70002842:	b672      	cpsid	i
70002844:	3201      	adds	r2, #1
70002846:	f175 33ff 	sbcs.w	r3, r5, #4294967295	; 0xffffffff
7000284a:	da5f      	bge.n	7000290c <z_add_timeout+0xec>
7000284c:	f245 42b0 	movw	r2, #21680	; 0x54b0
70002850:	f06f 0301 	mvn.w	r3, #1
70002854:	f2c7 0200 	movt	r2, #28672	; 0x7000
70002858:	e9d2 1500 	ldrd	r1, r5, [r2]
7000285c:	f04f 32ff 	mov.w	r2, #4294967295	; 0xffffffff
70002860:	1a5b      	subs	r3, r3, r1
70002862:	eb62 0505 	sbc.w	r5, r2, r5
70002866:	1b1c      	subs	r4, r3, r4
70002868:	eb65 0500 	sbc.w	r5, r5, r0
7000286c:	2c01      	cmp	r4, #1
7000286e:	f175 0300 	sbcs.w	r3, r5, #0
70002872:	bfbc      	itt	lt
70002874:	2401      	movlt	r4, #1
70002876:	2500      	movlt	r5, #0
70002878:	6134      	str	r4, [r6, #16]
7000287a:	f24b 1078 	movw	r0, #45432	; 0xb178
7000287e:	6175      	str	r5, [r6, #20]
70002880:	f2c7 0000 	movt	r0, #28672	; 0x7000
70002884:	e9d0 2c00 	ldrd	r2, ip, [r0]
70002888:	4282      	cmp	r2, r0
7000288a:	d011      	beq.n	700028b0 <z_add_timeout+0x90>
7000288c:	b182      	cbz	r2, 700028b0 <z_add_timeout+0x90>
7000288e:	e9d2 3104 	ldrd	r3, r1, [r2, #16]
70002892:	429c      	cmp	r4, r3
70002894:	eb75 0e01 	sbcs.w	lr, r5, r1
70002898:	db48      	blt.n	7000292c <z_add_timeout+0x10c>
7000289a:	1ae3      	subs	r3, r4, r3
7000289c:	461c      	mov	r4, r3
7000289e:	eb65 0501 	sbc.w	r5, r5, r1
700028a2:	4562      	cmp	r2, ip
700028a4:	e9c6 3504 	strd	r3, r5, [r6, #16]
700028a8:	d002      	beq.n	700028b0 <z_add_timeout+0x90>
700028aa:	6812      	ldr	r2, [r2, #0]
700028ac:	2a00      	cmp	r2, #0
700028ae:	d1ee      	bne.n	7000288e <z_add_timeout+0x6e>
700028b0:	e9c6 0c00 	strd	r0, ip, [r6]
700028b4:	f8cc 6000 	str.w	r6, [ip]
700028b8:	6046      	str	r6, [r0, #4]
700028ba:	6804      	ldr	r4, [r0, #0]
700028bc:	1a20      	subs	r0, r4, r0
700028be:	bf18      	it	ne
700028c0:	2001      	movne	r0, #1
700028c2:	42a6      	cmp	r6, r4
700028c4:	bf18      	it	ne
700028c6:	2000      	movne	r0, #0
700028c8:	b910      	cbnz	r0, 700028d0 <z_add_timeout+0xb0>
700028ca:	b907      	cbnz	r7, 700028ce <z_add_timeout+0xae>
700028cc:	b662      	cpsie	i
700028ce:	bdf8      	pop	{r3, r4, r5, r6, r7, pc}
700028d0:	f646 439c 	movw	r3, #27804	; 0x6c9c
700028d4:	f2c7 0300 	movt	r3, #28672	; 0x7000
700028d8:	681b      	ldr	r3, [r3, #0]
700028da:	2b00      	cmp	r3, #0
700028dc:	d1f5      	bne.n	700028ca <z_add_timeout+0xaa>
700028de:	f7ff f8b3 	bl	70001a48 <sys_clock_elapsed>
700028e2:	6923      	ldr	r3, [r4, #16]
700028e4:	6962      	ldr	r2, [r4, #20]
700028e6:	4601      	mov	r1, r0
700028e8:	1a18      	subs	r0, r3, r0
700028ea:	eb62 73e1 	sbc.w	r3, r2, r1, asr #31
700028ee:	2100      	movs	r1, #0
700028f0:	2b00      	cmp	r3, #0
700028f2:	bfbc      	itt	lt
700028f4:	2000      	movlt	r0, #0
700028f6:	2300      	movlt	r3, #0
700028f8:	f1b0 4f00 	cmp.w	r0, #2147483648	; 0x80000000
700028fc:	f173 0300 	sbcs.w	r3, r3, #0
70002900:	bfa8      	it	ge
70002902:	f06f 4000 	mvnge.w	r0, #2147483648	; 0x80000000
70002906:	f7ff f86f 	bl	700019e8 <sys_clock_set_timeout>
7000290a:	e7de      	b.n	700028ca <z_add_timeout+0xaa>
7000290c:	f646 429c 	movw	r2, #27804	; 0x6c9c
70002910:	3401      	adds	r4, #1
70002912:	f2c7 0200 	movt	r2, #28672	; 0x7000
70002916:	f145 0500 	adc.w	r5, r5, #0
7000291a:	6813      	ldr	r3, [r2, #0]
7000291c:	2b00      	cmp	r3, #0
7000291e:	d1ab      	bne.n	70002878 <z_add_timeout+0x58>
70002920:	f7ff f892 	bl	70001a48 <sys_clock_elapsed>
70002924:	1904      	adds	r4, r0, r4
70002926:	eb45 75e0 	adc.w	r5, r5, r0, asr #31
7000292a:	e7a5      	b.n	70002878 <z_add_timeout+0x58>
7000292c:	1b1b      	subs	r3, r3, r4
7000292e:	6854      	ldr	r4, [r2, #4]
70002930:	eb61 0105 	sbc.w	r1, r1, r5
70002934:	e9c2 3104 	strd	r3, r1, [r2, #16]
70002938:	e9c6 2400 	strd	r2, r4, [r6]
7000293c:	6026      	str	r6, [r4, #0]
7000293e:	6056      	str	r6, [r2, #4]
70002940:	e7bb      	b.n	700028ba <z_add_timeout+0x9a>
70002942:	4770      	bx	lr

70002944 <z_abort_timeout>:
70002944:	b430      	push	{r4, r5}
70002946:	f3ef 8500 	mrs	r5, CPSR
7000294a:	f005 0580 	and.w	r5, r5, #128	; 0x80
7000294e:	b672      	cpsid	i
70002950:	6802      	ldr	r2, [r0, #0]
70002952:	b1e2      	cbz	r2, 7000298e <z_abort_timeout+0x4a>
70002954:	f24b 1178 	movw	r1, #45432	; 0xb178
70002958:	4603      	mov	r3, r0
7000295a:	f2c7 0100 	movt	r1, #28672	; 0x7000
7000295e:	6849      	ldr	r1, [r1, #4]
70002960:	4288      	cmp	r0, r1
70002962:	d009      	beq.n	70002978 <z_abort_timeout+0x34>
70002964:	6904      	ldr	r4, [r0, #16]
70002966:	6911      	ldr	r1, [r2, #16]
70002968:	6950      	ldr	r0, [r2, #20]
7000296a:	1909      	adds	r1, r1, r4
7000296c:	695c      	ldr	r4, [r3, #20]
7000296e:	eb40 0004 	adc.w	r0, r0, r4
70002972:	e9c2 1004 	strd	r1, r0, [r2, #16]
70002976:	681a      	ldr	r2, [r3, #0]
70002978:	685c      	ldr	r4, [r3, #4]
7000297a:	2100      	movs	r1, #0
7000297c:	6022      	str	r2, [r4, #0]
7000297e:	4608      	mov	r0, r1
70002980:	6054      	str	r4, [r2, #4]
70002982:	6019      	str	r1, [r3, #0]
70002984:	6059      	str	r1, [r3, #4]
70002986:	b905      	cbnz	r5, 7000298a <z_abort_timeout+0x46>
70002988:	b662      	cpsie	i
7000298a:	bc30      	pop	{r4, r5}
7000298c:	4770      	bx	lr
7000298e:	f06f 0015 	mvn.w	r0, #21
70002992:	e7f8      	b.n	70002986 <z_abort_timeout+0x42>

70002994 <sys_clock_announce>:
70002994:	e92d 4ff8 	stmdb	sp!, {r3, r4, r5, r6, r7, r8, r9, sl, fp, lr}
70002998:	4603      	mov	r3, r0
7000299a:	f3ef 8800 	mrs	r8, CPSR
7000299e:	f008 0880 	and.w	r8, r8, #128	; 0x80
700029a2:	b672      	cpsid	i
700029a4:	f24b 1978 	movw	r9, #45432	; 0xb178
700029a8:	f646 4a9c 	movw	sl, #27804	; 0x6c9c
700029ac:	f2c7 0900 	movt	r9, #28672	; 0x7000
700029b0:	f2c7 0a00 	movt	sl, #28672	; 0x7000
700029b4:	f8ca 0000 	str.w	r0, [sl]
700029b8:	f8d9 0000 	ldr.w	r0, [r9]
700029bc:	4548      	cmp	r0, r9
700029be:	bf04      	itt	eq
700029c0:	f245 45b0 	movweq	r5, #21680	; 0x54b0
700029c4:	f2c7 0500 	movteq	r5, #28672	; 0x7000
700029c8:	d068      	beq.n	70002a9c <sys_clock_announce+0x108>
700029ca:	2800      	cmp	r0, #0
700029cc:	d076      	beq.n	70002abc <sys_clock_announce+0x128>
700029ce:	f245 45b0 	movw	r5, #21680	; 0x54b0
700029d2:	f04f 0b00 	mov.w	fp, #0
700029d6:	2600      	movs	r6, #0
700029d8:	f2c7 0500 	movt	r5, #28672	; 0x7000
700029dc:	2700      	movs	r7, #0
700029de:	e9d0 4204 	ldrd	r4, r2, [r0, #16]
700029e2:	17d9      	asrs	r1, r3, #31
700029e4:	42a3      	cmp	r3, r4
700029e6:	eb71 0c02 	sbcs.w	ip, r1, r2
700029ea:	db29      	blt.n	70002a40 <sys_clock_announce+0xac>
700029ec:	e9d5 3200 	ldrd	r3, r2, [r5]
700029f0:	6841      	ldr	r1, [r0, #4]
700029f2:	e9c0 6704 	strd	r6, r7, [r0, #16]
700029f6:	191b      	adds	r3, r3, r4
700029f8:	eb42 72e4 	adc.w	r2, r2, r4, asr #31
700029fc:	602b      	str	r3, [r5, #0]
700029fe:	6803      	ldr	r3, [r0, #0]
70002a00:	600b      	str	r3, [r1, #0]
70002a02:	606a      	str	r2, [r5, #4]
70002a04:	6059      	str	r1, [r3, #4]
70002a06:	f8c0 b000 	str.w	fp, [r0]
70002a0a:	f8c0 b004 	str.w	fp, [r0, #4]
70002a0e:	f1b8 0f00 	cmp.w	r8, #0
70002a12:	d100      	bne.n	70002a16 <sys_clock_announce+0x82>
70002a14:	b662      	cpsie	i
70002a16:	6883      	ldr	r3, [r0, #8]
70002a18:	4798      	blx	r3
70002a1a:	f3ef 8800 	mrs	r8, CPSR
70002a1e:	f008 0880 	and.w	r8, r8, #128	; 0x80
70002a22:	b672      	cpsid	i
70002a24:	f8da 3000 	ldr.w	r3, [sl]
70002a28:	f8d9 0000 	ldr.w	r0, [r9]
70002a2c:	1b1b      	subs	r3, r3, r4
70002a2e:	4548      	cmp	r0, r9
70002a30:	f8ca 3000 	str.w	r3, [sl]
70002a34:	d032      	beq.n	70002a9c <sys_clock_announce+0x108>
70002a36:	2800      	cmp	r0, #0
70002a38:	d1d1      	bne.n	700029de <sys_clock_announce+0x4a>
70002a3a:	4604      	mov	r4, r0
70002a3c:	17d9      	asrs	r1, r3, #31
70002a3e:	e006      	b.n	70002a4e <sys_clock_announce+0xba>
70002a40:	1ae4      	subs	r4, r4, r3
70002a42:	eb62 0201 	sbc.w	r2, r2, r1
70002a46:	6104      	str	r4, [r0, #16]
70002a48:	f8d9 4000 	ldr.w	r4, [r9]
70002a4c:	6142      	str	r2, [r0, #20]
70002a4e:	682a      	ldr	r2, [r5, #0]
70002a50:	18d2      	adds	r2, r2, r3
70002a52:	686b      	ldr	r3, [r5, #4]
70002a54:	602a      	str	r2, [r5, #0]
70002a56:	eb43 0301 	adc.w	r3, r3, r1
70002a5a:	454c      	cmp	r4, r9
70002a5c:	606b      	str	r3, [r5, #4]
70002a5e:	f04f 0300 	mov.w	r3, #0
70002a62:	f8ca 3000 	str.w	r3, [sl]
70002a66:	d024      	beq.n	70002ab2 <sys_clock_announce+0x11e>
70002a68:	f7fe ffee 	bl	70001a48 <sys_clock_elapsed>
70002a6c:	b31c      	cbz	r4, 70002ab6 <sys_clock_announce+0x122>
70002a6e:	e9d4 3204 	ldrd	r3, r2, [r4, #16]
70002a72:	1a1b      	subs	r3, r3, r0
70002a74:	eb62 72e0 	sbc.w	r2, r2, r0, asr #31
70002a78:	f1b3 4f00 	cmp.w	r3, #2147483648	; 0x80000000
70002a7c:	f172 0100 	sbcs.w	r1, r2, #0
70002a80:	da19      	bge.n	70002ab6 <sys_clock_announce+0x122>
70002a82:	2a00      	cmp	r2, #0
70002a84:	bfac      	ite	ge
70002a86:	4618      	movge	r0, r3
70002a88:	2000      	movlt	r0, #0
70002a8a:	2100      	movs	r1, #0
70002a8c:	f7fe ffac 	bl	700019e8 <sys_clock_set_timeout>
70002a90:	f1b8 0f00 	cmp.w	r8, #0
70002a94:	d100      	bne.n	70002a98 <sys_clock_announce+0x104>
70002a96:	b662      	cpsie	i
70002a98:	e8bd 8ff8 	ldmia.w	sp!, {r3, r4, r5, r6, r7, r8, r9, sl, fp, pc}
70002a9c:	682a      	ldr	r2, [r5, #0]
70002a9e:	18d2      	adds	r2, r2, r3
70002aa0:	602a      	str	r2, [r5, #0]
70002aa2:	f04f 0200 	mov.w	r2, #0
70002aa6:	f8ca 2000 	str.w	r2, [sl]
70002aaa:	686a      	ldr	r2, [r5, #4]
70002aac:	eb42 72e3 	adc.w	r2, r2, r3, asr #31
70002ab0:	606a      	str	r2, [r5, #4]
70002ab2:	f7fe ffc9 	bl	70001a48 <sys_clock_elapsed>
70002ab6:	f06f 4000 	mvn.w	r0, #2147483648	; 0x80000000
70002aba:	e7e6      	b.n	70002a8a <sys_clock_announce+0xf6>
70002abc:	f8ca 0000 	str.w	r0, [sl]
70002ac0:	f245 42b0 	movw	r2, #21680	; 0x54b0
70002ac4:	f2c7 0200 	movt	r2, #28672	; 0x7000
70002ac8:	e9d2 1000 	ldrd	r1, r0, [r2]
70002acc:	18c9      	adds	r1, r1, r3
70002ace:	eb40 70e3 	adc.w	r0, r0, r3, asr #31
70002ad2:	e9c2 1000 	strd	r1, r0, [r2]
70002ad6:	e7ec      	b.n	70002ab2 <sys_clock_announce+0x11e>

70002ad8 <sys_clock_tick_get_32>:
70002ad8:	b510      	push	{r4, lr}
70002ada:	f3ef 8400 	mrs	r4, CPSR
70002ade:	f004 0480 	and.w	r4, r4, #128	; 0x80
70002ae2:	b672      	cpsid	i
70002ae4:	f646 439c 	movw	r3, #27804	; 0x6c9c
70002ae8:	2000      	movs	r0, #0
70002aea:	f2c7 0300 	movt	r3, #28672	; 0x7000
70002aee:	681b      	ldr	r3, [r3, #0]
70002af0:	b90b      	cbnz	r3, 70002af6 <sys_clock_tick_get_32+0x1e>
70002af2:	f7fe ffa9 	bl	70001a48 <sys_clock_elapsed>
70002af6:	f245 43b0 	movw	r3, #21680	; 0x54b0
70002afa:	f2c7 0300 	movt	r3, #28672	; 0x7000
70002afe:	681b      	ldr	r3, [r3, #0]
70002b00:	18c0      	adds	r0, r0, r3
70002b02:	b904      	cbnz	r4, 70002b06 <sys_clock_tick_get_32+0x2e>
70002b04:	b662      	cpsie	i
70002b06:	bd10      	pop	{r4, pc}

70002b08 <signal_poll_event.constprop.0>:
70002b08:	e92d 41f0 	stmdb	sp!, {r4, r5, r6, r7, r8, lr}
70002b0c:	6886      	ldr	r6, [r0, #8]
70002b0e:	4604      	mov	r4, r0
70002b10:	460d      	mov	r5, r1
70002b12:	b136      	cbz	r6, 70002b22 <signal_poll_event.constprop.0+0x1a>
70002b14:	7873      	ldrb	r3, [r6, #1]
70002b16:	2b01      	cmp	r3, #1
70002b18:	d022      	beq.n	70002b60 <signal_poll_event.constprop.0+0x58>
70002b1a:	2b02      	cmp	r3, #2
70002b1c:	d00c      	beq.n	70002b38 <signal_poll_event.constprop.0+0x30>
70002b1e:	2300      	movs	r3, #0
70002b20:	7033      	strb	r3, [r6, #0]
70002b22:	68e3      	ldr	r3, [r4, #12]
70002b24:	2000      	movs	r0, #0
70002b26:	60a0      	str	r0, [r4, #8]
70002b28:	f3c3 3286 	ubfx	r2, r3, #14, #7
70002b2c:	4315      	orrs	r5, r2
70002b2e:	f365 3394 	bfi	r3, r5, #14, #7
70002b32:	60e3      	str	r3, [r4, #12]
70002b34:	e8bd 81f0 	ldmia.w	sp!, {r4, r5, r6, r7, r8, pc}
70002b38:	7833      	ldrb	r3, [r6, #0]
70002b3a:	2b00      	cmp	r3, #0
70002b3c:	d0ef      	beq.n	70002b1e <signal_poll_event.constprop.0+0x16>
70002b3e:	f856 7c04 	ldr.w	r7, [r6, #-4]
70002b42:	2f00      	cmp	r7, #0
70002b44:	d0eb      	beq.n	70002b1e <signal_poll_event.constprop.0+0x16>
70002b46:	f106 0014 	add.w	r0, r6, #20
70002b4a:	f7ff fefb 	bl	70002944 <z_abort_timeout>
70002b4e:	2300      	movs	r3, #0
70002b50:	4638      	mov	r0, r7
70002b52:	f1a6 0814 	sub.w	r8, r6, #20
70002b56:	62f3      	str	r3, [r6, #44]	; 0x2c
70002b58:	4641      	mov	r1, r8
70002b5a:	f000 f977 	bl	70002e4c <z_work_submit_to_queue>
70002b5e:	e7de      	b.n	70002b1e <signal_poll_event.constprop.0+0x16>
70002b60:	f816 3c53 	ldrb.w	r3, [r6, #-83]
70002b64:	079a      	lsls	r2, r3, #30
70002b66:	d5da      	bpl.n	70002b1e <signal_poll_event.constprop.0+0x16>
70002b68:	f1a6 0760 	sub.w	r7, r6, #96	; 0x60
70002b6c:	4638      	mov	r0, r7
70002b6e:	f7ff fc97 	bl	700024a0 <z_unpend_thread>
70002b72:	2d08      	cmp	r5, #8
70002b74:	bf14      	ite	ne
70002b76:	2300      	movne	r3, #0
70002b78:	f06f 0303 	mvneq.w	r3, #3
70002b7c:	6133      	str	r3, [r6, #16]
70002b7e:	f816 3c53 	ldrb.w	r3, [r6, #-83]
70002b82:	06db      	lsls	r3, r3, #27
70002b84:	d1cb      	bne.n	70002b1e <signal_poll_event.constprop.0+0x16>
70002b86:	f856 3c48 	ldr.w	r3, [r6, #-72]
70002b8a:	2b00      	cmp	r3, #0
70002b8c:	d1c7      	bne.n	70002b1e <signal_poll_event.constprop.0+0x16>
70002b8e:	4638      	mov	r0, r7
70002b90:	f7ff fbca 	bl	70002328 <z_ready_thread>
70002b94:	e7c3      	b.n	70002b1e <signal_poll_event.constprop.0+0x16>
70002b96:	bf00      	nop

70002b98 <z_handle_obj_poll_events>:
70002b98:	4603      	mov	r3, r0
70002b9a:	b510      	push	{r4, lr}
70002b9c:	f3ef 8400 	mrs	r4, CPSR
70002ba0:	f004 0480 	and.w	r4, r4, #128	; 0x80
70002ba4:	b672      	cpsid	i
70002ba6:	6800      	ldr	r0, [r0, #0]
70002ba8:	4283      	cmp	r3, r0
70002baa:	d008      	beq.n	70002bbe <z_handle_obj_poll_events+0x26>
70002bac:	e9d0 3200 	ldrd	r3, r2, [r0]
70002bb0:	6013      	str	r3, [r2, #0]
70002bb2:	605a      	str	r2, [r3, #4]
70002bb4:	2300      	movs	r3, #0
70002bb6:	6003      	str	r3, [r0, #0]
70002bb8:	6043      	str	r3, [r0, #4]
70002bba:	f7ff ffa5 	bl	70002b08 <signal_poll_event.constprop.0>
70002bbe:	b904      	cbnz	r4, 70002bc2 <z_handle_obj_poll_events+0x2a>
70002bc0:	b662      	cpsie	i
70002bc2:	bd10      	pop	{r4, pc}

70002bc4 <boot_banner>:
70002bc4:	f644 50c8 	movw	r0, #19912	; 0x4dc8
70002bc8:	f2c7 0000 	movt	r0, #28672	; 0x7000
70002bcc:	f7fd bf3a 	b.w	70000a44 <printk>

70002bd0 <statics_init>:
70002bd0:	b538      	push	{r3, r4, r5, lr}
70002bd2:	f24b 1484 	movw	r4, #45444	; 0xb184
70002bd6:	f24b 1584 	movw	r5, #45444	; 0xb184
70002bda:	f2c7 0400 	movt	r4, #28672	; 0x7000
70002bde:	f2c7 0500 	movt	r5, #28672	; 0x7000
70002be2:	42ac      	cmp	r4, r5
70002be4:	d20b      	bcs.n	70002bfe <statics_init+0x2e>
70002be6:	e9d4 1201 	ldrd	r1, r2, [r4, #4]
70002bea:	f104 030c 	add.w	r3, r4, #12
70002bee:	4620      	mov	r0, r4
70002bf0:	3414      	adds	r4, #20
70002bf2:	601b      	str	r3, [r3, #0]
70002bf4:	605b      	str	r3, [r3, #4]
70002bf6:	f7fd fee1 	bl	700009bc <sys_heap_init>
70002bfa:	42ac      	cmp	r4, r5
70002bfc:	d3f3      	bcc.n	70002be6 <statics_init+0x16>
70002bfe:	2000      	movs	r0, #0
70002c00:	bd38      	pop	{r3, r4, r5, pc}
70002c02:	bf00      	nop

70002c04 <k_sys_work_q_init>:
70002c04:	f644 312c 	movw	r1, #19244	; 0x4b2c
70002c08:	f04f 33ff 	mov.w	r3, #4294967295	; 0xffffffff
70002c0c:	f2c7 0100 	movt	r1, #28672	; 0x7000
70002c10:	b510      	push	{r4, lr}
70002c12:	c903      	ldmia	r1, {r0, r1}
70002c14:	b084      	sub	sp, #16
70002c16:	f44f 6280 	mov.w	r2, #1024	; 0x400
70002c1a:	ac02      	add	r4, sp, #8
70002c1c:	9400      	str	r4, [sp, #0]
70002c1e:	e884 0003 	stmia.w	r4, {r0, r1}
70002c22:	f64a 41a8 	movw	r1, #44200	; 0xaca8
70002c26:	f245 40b8 	movw	r0, #21688	; 0x54b8
70002c2a:	f2c7 0100 	movt	r1, #28672	; 0x7000
70002c2e:	f2c7 0000 	movt	r0, #28672	; 0x7000
70002c32:	f000 f91b 	bl	70002e6c <k_work_queue_start>
70002c36:	2000      	movs	r0, #0
70002c38:	b004      	add	sp, #16
70002c3a:	bd10      	pop	{r4, pc}

70002c3c <work_queue_main>:
70002c3c:	e92d 41f0 	stmdb	sp!, {r4, r5, r6, r7, r8, lr}
70002c40:	f245 5650 	movw	r6, #21840	; 0x5550
70002c44:	b084      	sub	sp, #16
70002c46:	4605      	mov	r5, r0
70002c48:	f2c7 0600 	movt	r6, #28672	; 0x7000
70002c4c:	2700      	movs	r7, #0
70002c4e:	f3ef 8800 	mrs	r8, CPSR
70002c52:	f008 0880 	and.w	r8, r8, #128	; 0x80
70002c56:	b672      	cpsid	i
70002c58:	6fac      	ldr	r4, [r5, #120]	; 0x78
70002c5a:	2c00      	cmp	r4, #0
70002c5c:	d060      	beq.n	70002d20 <work_queue_main+0xe4>
70002c5e:	6fea      	ldr	r2, [r5, #124]	; 0x7c
70002c60:	6823      	ldr	r3, [r4, #0]
70002c62:	67ab      	str	r3, [r5, #120]	; 0x78
70002c64:	4294      	cmp	r4, r2
70002c66:	bf08      	it	eq
70002c68:	67eb      	streq	r3, [r5, #124]	; 0x7c
70002c6a:	f8d5 3090 	ldr.w	r3, [r5, #144]	; 0x90
70002c6e:	f043 0302 	orr.w	r3, r3, #2
70002c72:	f8c5 3090 	str.w	r3, [r5, #144]	; 0x90
70002c76:	68e3      	ldr	r3, [r4, #12]
70002c78:	6862      	ldr	r2, [r4, #4]
70002c7a:	f023 0304 	bic.w	r3, r3, #4
70002c7e:	f043 0301 	orr.w	r3, r3, #1
70002c82:	60e3      	str	r3, [r4, #12]
70002c84:	f1b8 0f00 	cmp.w	r8, #0
70002c88:	d100      	bne.n	70002c8c <work_queue_main+0x50>
70002c8a:	b662      	cpsie	i
70002c8c:	4620      	mov	r0, r4
70002c8e:	4790      	blx	r2
70002c90:	f3ef 8800 	mrs	r8, CPSR
70002c94:	f008 0880 	and.w	r8, r8, #128	; 0x80
70002c98:	b672      	cpsid	i
70002c9a:	68e2      	ldr	r2, [r4, #12]
70002c9c:	f022 0301 	bic.w	r3, r2, #1
70002ca0:	06d1      	lsls	r1, r2, #27
70002ca2:	bf58      	it	pl
70002ca4:	60e3      	strpl	r3, [r4, #12]
70002ca6:	d432      	bmi.n	70002d0e <work_queue_main+0xd2>
70002ca8:	079a      	lsls	r2, r3, #30
70002caa:	d410      	bmi.n	70002cce <work_queue_main+0x92>
70002cac:	f8d5 3090 	ldr.w	r3, [r5, #144]	; 0x90
70002cb0:	f023 0302 	bic.w	r3, r3, #2
70002cb4:	f3c3 2200 	ubfx	r2, r3, #8, #1
70002cb8:	f8c5 3090 	str.w	r3, [r5, #144]	; 0x90
70002cbc:	f1b8 0f00 	cmp.w	r8, #0
70002cc0:	d100      	bne.n	70002cc4 <work_queue_main+0x88>
70002cc2:	b662      	cpsie	i
70002cc4:	2a00      	cmp	r2, #0
70002cc6:	d1c2      	bne.n	70002c4e <work_queue_main+0x12>
70002cc8:	f7ff fc7a 	bl	700025c0 <z_impl_k_yield>
70002ccc:	e7bf      	b.n	70002c4e <work_queue_main+0x12>
70002cce:	6830      	ldr	r0, [r6, #0]
70002cd0:	f023 0302 	bic.w	r3, r3, #2
70002cd4:	60e3      	str	r3, [r4, #12]
70002cd6:	2800      	cmp	r0, #0
70002cd8:	d0e8      	beq.n	70002cac <work_queue_main+0x70>
70002cda:	6842      	ldr	r2, [r0, #4]
70002cdc:	2100      	movs	r1, #0
70002cde:	6803      	ldr	r3, [r0, #0]
70002ce0:	4294      	cmp	r4, r2
70002ce2:	d007      	beq.n	70002cf4 <work_queue_main+0xb8>
70002ce4:	2b00      	cmp	r3, #0
70002ce6:	d0e1      	beq.n	70002cac <work_queue_main+0x70>
70002ce8:	4601      	mov	r1, r0
70002cea:	4618      	mov	r0, r3
70002cec:	681b      	ldr	r3, [r3, #0]
70002cee:	6842      	ldr	r2, [r0, #4]
70002cf0:	4294      	cmp	r4, r2
70002cf2:	d1f7      	bne.n	70002ce4 <work_queue_main+0xa8>
70002cf4:	6803      	ldr	r3, [r0, #0]
70002cf6:	2900      	cmp	r1, #0
70002cf8:	d042      	beq.n	70002d80 <work_queue_main+0x144>
70002cfa:	600b      	str	r3, [r1, #0]
70002cfc:	6873      	ldr	r3, [r6, #4]
70002cfe:	4283      	cmp	r3, r0
70002d00:	bf08      	it	eq
70002d02:	6071      	streq	r1, [r6, #4]
70002d04:	f840 7b08 	str.w	r7, [r0], #8
70002d08:	f7ff f8d6 	bl	70001eb8 <z_impl_k_sem_give>
70002d0c:	e7ce      	b.n	70002cac <work_queue_main+0x70>
70002d0e:	f022 0211 	bic.w	r2, r2, #17
70002d12:	60e2      	str	r2, [r4, #12]
70002d14:	f104 0010 	add.w	r0, r4, #16
70002d18:	f7ff f8ce 	bl	70001eb8 <z_impl_k_sem_give>
70002d1c:	68e3      	ldr	r3, [r4, #12]
70002d1e:	e7c3      	b.n	70002ca8 <work_queue_main+0x6c>
70002d20:	f8d5 3090 	ldr.w	r3, [r5, #144]	; 0x90
70002d24:	f023 0204 	bic.w	r2, r3, #4
70002d28:	075c      	lsls	r4, r3, #29
70002d2a:	f8c5 2090 	str.w	r2, [r5, #144]	; 0x90
70002d2e:	f3c3 0180 	ubfx	r1, r3, #2, #1
70002d32:	d40a      	bmi.n	70002d4a <work_queue_main+0x10e>
70002d34:	06d0      	lsls	r0, r2, #27
70002d36:	d511      	bpl.n	70002d5c <work_queue_main+0x120>
70002d38:	f8c5 1090 	str.w	r1, [r5, #144]	; 0x90
70002d3c:	f1b8 0f00 	cmp.w	r8, #0
70002d40:	d100      	bne.n	70002d44 <work_queue_main+0x108>
70002d42:	b662      	cpsie	i
70002d44:	b004      	add	sp, #16
70002d46:	e8bd 81f0 	ldmia.w	sp!, {r4, r5, r6, r7, r8, pc}
70002d4a:	f105 0488 	add.w	r4, r5, #136	; 0x88
70002d4e:	2200      	movs	r2, #0
70002d50:	2101      	movs	r1, #1
70002d52:	4620      	mov	r0, r4
70002d54:	f7ff fd22 	bl	7000279c <z_sched_wake>
70002d58:	2800      	cmp	r0, #0
70002d5a:	d1f8      	bne.n	70002d4e <work_queue_main+0x112>
70002d5c:	f04f 32ff 	mov.w	r2, #4294967295	; 0xffffffff
70002d60:	f04f 33ff 	mov.w	r3, #4294967295	; 0xffffffff
70002d64:	f646 40a0 	movw	r0, #27808	; 0x6ca0
70002d68:	4641      	mov	r1, r8
70002d6a:	e9cd 2300 	strd	r2, r3, [sp]
70002d6e:	2300      	movs	r3, #0
70002d70:	f105 0280 	add.w	r2, r5, #128	; 0x80
70002d74:	9302      	str	r3, [sp, #8]
70002d76:	f2c7 0000 	movt	r0, #28672	; 0x7000
70002d7a:	f7ff fd3d 	bl	700027f8 <z_sched_wait>
70002d7e:	e766      	b.n	70002c4e <work_queue_main+0x12>
70002d80:	6872      	ldr	r2, [r6, #4]
70002d82:	6033      	str	r3, [r6, #0]
70002d84:	4282      	cmp	r2, r0
70002d86:	bf08      	it	eq
70002d88:	6073      	streq	r3, [r6, #4]
70002d8a:	e7bb      	b.n	70002d04 <work_queue_main+0xc8>

70002d8c <submit_to_queue_locked>:
70002d8c:	b5f8      	push	{r3, r4, r5, r6, r7, lr}
70002d8e:	68c3      	ldr	r3, [r0, #12]
70002d90:	460d      	mov	r5, r1
70002d92:	079a      	lsls	r2, r3, #30
70002d94:	f3c3 0640 	ubfx	r6, r3, #1, #1
70002d98:	d407      	bmi.n	70002daa <submit_to_queue_locked+0x1e>
70002d9a:	075f      	lsls	r7, r3, #29
70002d9c:	f3c3 0280 	ubfx	r2, r3, #2, #1
70002da0:	d506      	bpl.n	70002db0 <submit_to_queue_locked+0x24>
70002da2:	2300      	movs	r3, #0
70002da4:	4630      	mov	r0, r6
70002da6:	602b      	str	r3, [r5, #0]
70002da8:	bdf8      	pop	{r3, r4, r5, r6, r7, pc}
70002daa:	f06f 060f 	mvn.w	r6, #15
70002dae:	e7f8      	b.n	70002da2 <submit_to_queue_locked+0x16>
70002db0:	680f      	ldr	r7, [r1, #0]
70002db2:	4604      	mov	r4, r0
70002db4:	2f00      	cmp	r7, #0
70002db6:	d032      	beq.n	70002e1e <submit_to_queue_locked+0x92>
70002db8:	07db      	lsls	r3, r3, #31
70002dba:	bf58      	it	pl
70002dbc:	2601      	movpl	r6, #1
70002dbe:	d504      	bpl.n	70002dca <submit_to_queue_locked+0x3e>
70002dc0:	68a7      	ldr	r7, [r4, #8]
70002dc2:	2602      	movs	r6, #2
70002dc4:	602f      	str	r7, [r5, #0]
70002dc6:	2f00      	cmp	r7, #0
70002dc8:	d03d      	beq.n	70002e46 <submit_to_queue_locked+0xba>
70002dca:	f646 437c 	movw	r3, #27772	; 0x6c7c
70002dce:	f2c7 0300 	movt	r3, #28672	; 0x7000
70002dd2:	689b      	ldr	r3, [r3, #8]
70002dd4:	42bb      	cmp	r3, r7
70002dd6:	d02d      	beq.n	70002e34 <submit_to_queue_locked+0xa8>
70002dd8:	f8d7 0090 	ldr.w	r0, [r7, #144]	; 0x90
70002ddc:	f3c0 0380 	ubfx	r3, r0, #2, #1
70002de0:	f3c0 01c0 	ubfx	r1, r0, #3, #1
70002de4:	07c0      	lsls	r0, r0, #31
70002de6:	d52b      	bpl.n	70002e40 <submit_to_queue_locked+0xb4>
70002de8:	f082 0201 	eor.w	r2, r2, #1
70002dec:	4213      	tst	r3, r2
70002dee:	d1dc      	bne.n	70002daa <submit_to_queue_locked+0x1e>
70002df0:	f083 0301 	eor.w	r3, r3, #1
70002df4:	4019      	ands	r1, r3
70002df6:	d1d8      	bne.n	70002daa <submit_to_queue_locked+0x1e>
70002df8:	6021      	str	r1, [r4, #0]
70002dfa:	6ffb      	ldr	r3, [r7, #124]	; 0x7c
70002dfc:	b1bb      	cbz	r3, 70002e2e <submit_to_queue_locked+0xa2>
70002dfe:	601c      	str	r4, [r3, #0]
70002e00:	67fc      	str	r4, [r7, #124]	; 0x7c
70002e02:	2200      	movs	r2, #0
70002e04:	f107 0080 	add.w	r0, r7, #128	; 0x80
70002e08:	4611      	mov	r1, r2
70002e0a:	f7ff fcc7 	bl	7000279c <z_sched_wake>
70002e0e:	68e3      	ldr	r3, [r4, #12]
70002e10:	4630      	mov	r0, r6
70002e12:	f043 0304 	orr.w	r3, r3, #4
70002e16:	60e3      	str	r3, [r4, #12]
70002e18:	682b      	ldr	r3, [r5, #0]
70002e1a:	60a3      	str	r3, [r4, #8]
70002e1c:	bdf8      	pop	{r3, r4, r5, r6, r7, pc}
70002e1e:	6887      	ldr	r7, [r0, #8]
70002e20:	600f      	str	r7, [r1, #0]
70002e22:	68c3      	ldr	r3, [r0, #12]
70002e24:	07de      	lsls	r6, r3, #31
70002e26:	bf58      	it	pl
70002e28:	2601      	movpl	r6, #1
70002e2a:	d5cc      	bpl.n	70002dc6 <submit_to_queue_locked+0x3a>
70002e2c:	e7c8      	b.n	70002dc0 <submit_to_queue_locked+0x34>
70002e2e:	67bc      	str	r4, [r7, #120]	; 0x78
70002e30:	67fc      	str	r4, [r7, #124]	; 0x7c
70002e32:	e7e6      	b.n	70002e02 <submit_to_queue_locked+0x76>
70002e34:	f7ff f89c 	bl	70001f70 <k_is_in_isr>
70002e38:	f080 0201 	eor.w	r2, r0, #1
70002e3c:	b2d2      	uxtb	r2, r2
70002e3e:	e7cb      	b.n	70002dd8 <submit_to_queue_locked+0x4c>
70002e40:	f06f 0612 	mvn.w	r6, #18
70002e44:	e7ad      	b.n	70002da2 <submit_to_queue_locked+0x16>
70002e46:	f06f 0615 	mvn.w	r6, #21
70002e4a:	e7aa      	b.n	70002da2 <submit_to_queue_locked+0x16>

70002e4c <z_work_submit_to_queue>:
70002e4c:	b510      	push	{r4, lr}
70002e4e:	b082      	sub	sp, #8
70002e50:	9001      	str	r0, [sp, #4]
70002e52:	4608      	mov	r0, r1
70002e54:	f3ef 8400 	mrs	r4, CPSR
70002e58:	f004 0480 	and.w	r4, r4, #128	; 0x80
70002e5c:	b672      	cpsid	i
70002e5e:	a901      	add	r1, sp, #4
70002e60:	f7ff ff94 	bl	70002d8c <submit_to_queue_locked>
70002e64:	b904      	cbnz	r4, 70002e68 <z_work_submit_to_queue+0x1c>
70002e66:	b662      	cpsie	i
70002e68:	b002      	add	sp, #8
70002e6a:	bd10      	pop	{r4, pc}

70002e6c <k_work_queue_start>:
70002e6c:	b5f0      	push	{r4, r5, r6, r7, lr}
70002e6e:	4604      	mov	r4, r0
70002e70:	b089      	sub	sp, #36	; 0x24
70002e72:	2000      	movs	r0, #0
70002e74:	67a0      	str	r0, [r4, #120]	; 0x78
70002e76:	67e0      	str	r0, [r4, #124]	; 0x7c
70002e78:	f104 0080 	add.w	r0, r4, #128	; 0x80
70002e7c:	9d0e      	ldr	r5, [sp, #56]	; 0x38
70002e7e:	e9c4 0020 	strd	r0, r0, [r4, #128]	; 0x80
70002e82:	f104 0088 	add.w	r0, r4, #136	; 0x88
70002e86:	e9c4 0022 	strd	r0, r0, [r4, #136]	; 0x88
70002e8a:	2001      	movs	r0, #1
70002e8c:	b12d      	cbz	r5, 70002e9a <k_work_queue_start+0x2e>
70002e8e:	792e      	ldrb	r6, [r5, #4]
70002e90:	f240 1001 	movw	r0, #257	; 0x101
70002e94:	2e00      	cmp	r6, #0
70002e96:	bf08      	it	eq
70002e98:	2001      	moveq	r0, #1
70002e9a:	f04f 36ff 	mov.w	r6, #4294967295	; 0xffffffff
70002e9e:	f04f 37ff 	mov.w	r7, #4294967295	; 0xffffffff
70002ea2:	f8c4 0090 	str.w	r0, [r4, #144]	; 0x90
70002ea6:	9303      	str	r3, [sp, #12]
70002ea8:	2000      	movs	r0, #0
70002eaa:	e9cd 6706 	strd	r6, r7, [sp, #24]
70002eae:	f642 433d 	movw	r3, #11325	; 0x2c3d
70002eb2:	9004      	str	r0, [sp, #16]
70002eb4:	f2c7 0300 	movt	r3, #28672	; 0x7000
70002eb8:	e9cd 0001 	strd	r0, r0, [sp, #4]
70002ebc:	4620      	mov	r0, r4
70002ebe:	9400      	str	r4, [sp, #0]
70002ec0:	f7ff f894 	bl	70001fec <z_impl_k_thread_create>
70002ec4:	b155      	cbz	r5, 70002edc <k_work_queue_start+0x70>
70002ec6:	6829      	ldr	r1, [r5, #0]
70002ec8:	b111      	cbz	r1, 70002ed0 <k_work_queue_start+0x64>
70002eca:	4620      	mov	r0, r4
70002ecc:	f7ff f85a 	bl	70001f84 <z_impl_k_thread_name_set>
70002ed0:	796b      	ldrb	r3, [r5, #5]
70002ed2:	b11b      	cbz	r3, 70002edc <k_work_queue_start+0x70>
70002ed4:	7b23      	ldrb	r3, [r4, #12]
70002ed6:	f043 0301 	orr.w	r3, r3, #1
70002eda:	7323      	strb	r3, [r4, #12]
70002edc:	4620      	mov	r0, r4
70002ede:	b009      	add	sp, #36	; 0x24
70002ee0:	e8bd 40f0 	ldmia.w	sp!, {r4, r5, r6, r7, lr}
70002ee4:	f7ff bc12 	b.w	7000270c <z_impl_k_wakeup>

70002ee8 <memcpy>:
70002ee8:	2a0f      	cmp	r2, #15
70002eea:	d913      	bls.n	70002f14 <memcpy+0x2c>
70002eec:	ea40 0301 	orr.w	r3, r0, r1
70002ef0:	f013 0303 	ands.w	r3, r3, #3
70002ef4:	bf1c      	itt	ne
70002ef6:	4603      	movne	r3, r0
70002ef8:	f102 3cff 	addne.w	ip, r2, #4294967295	; 0xffffffff
70002efc:	d010      	beq.n	70002f20 <memcpy+0x38>
70002efe:	f10c 0c01 	add.w	ip, ip, #1
70002f02:	3b01      	subs	r3, #1
70002f04:	448c      	add	ip, r1
70002f06:	f811 2b01 	ldrb.w	r2, [r1], #1
70002f0a:	f803 2f01 	strb.w	r2, [r3, #1]!
70002f0e:	458c      	cmp	ip, r1
70002f10:	d1f9      	bne.n	70002f06 <memcpy+0x1e>
70002f12:	4770      	bx	lr
70002f14:	4603      	mov	r3, r0
70002f16:	f102 3cff 	add.w	ip, r2, #4294967295	; 0xffffffff
70002f1a:	2a00      	cmp	r2, #0
70002f1c:	d1ef      	bne.n	70002efe <memcpy+0x16>
70002f1e:	4770      	bx	lr
70002f20:	b5f0      	push	{r4, r5, r6, r7, lr}
70002f22:	4684      	mov	ip, r0
70002f24:	f1a2 0710 	sub.w	r7, r2, #16
70002f28:	468e      	mov	lr, r1
70002f2a:	093f      	lsrs	r7, r7, #4
70002f2c:	3701      	adds	r7, #1
70002f2e:	f8de 4008 	ldr.w	r4, [lr, #8]
70002f32:	3301      	adds	r3, #1
70002f34:	f8de 6000 	ldr.w	r6, [lr]
70002f38:	429f      	cmp	r7, r3
70002f3a:	f8de 5004 	ldr.w	r5, [lr, #4]
70002f3e:	f10c 0c10 	add.w	ip, ip, #16
70002f42:	f84c 4c08 	str.w	r4, [ip, #-8]
70002f46:	f10e 0e10 	add.w	lr, lr, #16
70002f4a:	f85e 4c04 	ldr.w	r4, [lr, #-4]
70002f4e:	f84c 6c10 	str.w	r6, [ip, #-16]
70002f52:	f84c 5c0c 	str.w	r5, [ip, #-12]
70002f56:	f84c 4c04 	str.w	r4, [ip, #-4]
70002f5a:	d8e8      	bhi.n	70002f2e <memcpy+0x46>
70002f5c:	f012 0f0c 	tst.w	r2, #12
70002f60:	f002 050f 	and.w	r5, r2, #15
70002f64:	eb01 1107 	add.w	r1, r1, r7, lsl #4
70002f68:	bf08      	it	eq
70002f6a:	462a      	moveq	r2, r5
70002f6c:	eb00 1307 	add.w	r3, r0, r7, lsl #4
70002f70:	d013      	beq.n	70002f9a <memcpy+0xb2>
70002f72:	3d04      	subs	r5, #4
70002f74:	f025 0c03 	bic.w	ip, r5, #3
70002f78:	1f1c      	subs	r4, r3, #4
70002f7a:	08ad      	lsrs	r5, r5, #2
70002f7c:	460e      	mov	r6, r1
70002f7e:	449c      	add	ip, r3
70002f80:	f856 7b04 	ldr.w	r7, [r6], #4
70002f84:	f844 7f04 	str.w	r7, [r4, #4]!
70002f88:	4564      	cmp	r4, ip
70002f8a:	d1f9      	bne.n	70002f80 <memcpy+0x98>
70002f8c:	1c6c      	adds	r4, r5, #1
70002f8e:	f002 0203 	and.w	r2, r2, #3
70002f92:	eb03 0384 	add.w	r3, r3, r4, lsl #2
70002f96:	eb01 0184 	add.w	r1, r1, r4, lsl #2
70002f9a:	f102 3cff 	add.w	ip, r2, #4294967295	; 0xffffffff
70002f9e:	f10c 0c01 	add.w	ip, ip, #1
70002fa2:	3b01      	subs	r3, #1
70002fa4:	448c      	add	ip, r1
70002fa6:	b12a      	cbz	r2, 70002fb4 <memcpy+0xcc>
70002fa8:	f811 2b01 	ldrb.w	r2, [r1], #1
70002fac:	f803 2f01 	strb.w	r2, [r3, #1]!
70002fb0:	458c      	cmp	ip, r1
70002fb2:	d1f9      	bne.n	70002fa8 <memcpy+0xc0>
70002fb4:	bdf0      	pop	{r4, r5, r6, r7, pc}
70002fb6:	bf00      	nop

70002fb8 <memset>:
70002fb8:	0783      	lsls	r3, r0, #30
70002fba:	b530      	push	{r4, r5, lr}
70002fbc:	d04a      	beq.n	70003054 <memset+0x9c>
70002fbe:	1e54      	subs	r4, r2, #1
70002fc0:	2a00      	cmp	r2, #0
70002fc2:	d041      	beq.n	70003048 <memset+0x90>
70002fc4:	4603      	mov	r3, r0
70002fc6:	b2ca      	uxtb	r2, r1
70002fc8:	e001      	b.n	70002fce <memset+0x16>
70002fca:	3c01      	subs	r4, #1
70002fcc:	d33c      	bcc.n	70003048 <memset+0x90>
70002fce:	f803 2b01 	strb.w	r2, [r3], #1
70002fd2:	079d      	lsls	r5, r3, #30
70002fd4:	d1f9      	bne.n	70002fca <memset+0x12>
70002fd6:	2c03      	cmp	r4, #3
70002fd8:	d92f      	bls.n	7000303a <memset+0x82>
70002fda:	b2cd      	uxtb	r5, r1
70002fdc:	2c0f      	cmp	r4, #15
70002fde:	eb05 2505 	add.w	r5, r5, r5, lsl #8
70002fe2:	eb05 4505 	add.w	r5, r5, r5, lsl #16
70002fe6:	d938      	bls.n	7000305a <memset+0xa2>
70002fe8:	f1a4 0210 	sub.w	r2, r4, #16
70002fec:	f022 0c0f 	bic.w	ip, r2, #15
70002ff0:	f103 0e10 	add.w	lr, r3, #16
70002ff4:	44e6      	add	lr, ip
70002ff6:	ea4f 1c12 	mov.w	ip, r2, lsr #4
70002ffa:	461a      	mov	r2, r3
70002ffc:	6015      	str	r5, [r2, #0]
70002ffe:	3210      	adds	r2, #16
70003000:	f842 5c0c 	str.w	r5, [r2, #-12]
70003004:	f842 5c08 	str.w	r5, [r2, #-8]
70003008:	f842 5c04 	str.w	r5, [r2, #-4]
7000300c:	4572      	cmp	r2, lr
7000300e:	d1f5      	bne.n	70002ffc <memset+0x44>
70003010:	f10c 0201 	add.w	r2, ip, #1
70003014:	f014 0f0c 	tst.w	r4, #12
70003018:	eb03 1202 	add.w	r2, r3, r2, lsl #4
7000301c:	f004 0c0f 	and.w	ip, r4, #15
70003020:	d013      	beq.n	7000304a <memset+0x92>
70003022:	f1ac 0304 	sub.w	r3, ip, #4
70003026:	f023 0303 	bic.w	r3, r3, #3
7000302a:	3304      	adds	r3, #4
7000302c:	4413      	add	r3, r2
7000302e:	f842 5b04 	str.w	r5, [r2], #4
70003032:	429a      	cmp	r2, r3
70003034:	d1fb      	bne.n	7000302e <memset+0x76>
70003036:	f00c 0403 	and.w	r4, ip, #3
7000303a:	b12c      	cbz	r4, 70003048 <memset+0x90>
7000303c:	b2c9      	uxtb	r1, r1
7000303e:	441c      	add	r4, r3
70003040:	f803 1b01 	strb.w	r1, [r3], #1
70003044:	429c      	cmp	r4, r3
70003046:	d1fb      	bne.n	70003040 <memset+0x88>
70003048:	bd30      	pop	{r4, r5, pc}
7000304a:	4664      	mov	r4, ip
7000304c:	4613      	mov	r3, r2
7000304e:	2c00      	cmp	r4, #0
70003050:	d1f4      	bne.n	7000303c <memset+0x84>
70003052:	e7f9      	b.n	70003048 <memset+0x90>
70003054:	4603      	mov	r3, r0
70003056:	4614      	mov	r4, r2
70003058:	e7bd      	b.n	70002fd6 <memset+0x1e>
7000305a:	461a      	mov	r2, r3
7000305c:	46a4      	mov	ip, r4
7000305e:	e7e0      	b.n	70003022 <memset+0x6a>

70003060 <strnlen>:
70003060:	4603      	mov	r3, r0
70003062:	eb00 0c01 	add.w	ip, r0, r1
70003066:	b911      	cbnz	r1, 7000306e <strnlen+0xe>
70003068:	e00a      	b.n	70003080 <strnlen+0x20>
7000306a:	4563      	cmp	r3, ip
7000306c:	d006      	beq.n	7000307c <strnlen+0x1c>
7000306e:	461a      	mov	r2, r3
70003070:	3301      	adds	r3, #1
70003072:	7811      	ldrb	r1, [r2, #0]
70003074:	2900      	cmp	r1, #0
70003076:	d1f8      	bne.n	7000306a <strnlen+0xa>
70003078:	1a10      	subs	r0, r2, r0
7000307a:	4770      	bx	lr
7000307c:	1a18      	subs	r0, r3, r0
7000307e:	4770      	bx	lr
70003080:	4608      	mov	r0, r1
70003082:	4770      	bx	lr

70003084 <__ultoa_invert>:
70003084:	b570      	push	{r4, r5, r6, lr}
70003086:	4684      	mov	ip, r0
70003088:	f1c3 0437 	rsb	r4, r3, #55	; 0x37
7000308c:	4610      	mov	r0, r2
7000308e:	b2e2      	uxtb	r2, r4
70003090:	f003 041f 	and.w	r4, r3, #31
70003094:	2c08      	cmp	r4, #8
70003096:	fa5f fe8c 	uxtb.w	lr, ip
7000309a:	d042      	beq.n	70003122 <__ultoa_invert+0x9e>
7000309c:	2c10      	cmp	r4, #16
7000309e:	ea4f 035c 	mov.w	r3, ip, lsr #1
700030a2:	ea4f 069c 	mov.w	r6, ip, lsr #2
700030a6:	ea43 73c1 	orr.w	r3, r3, r1, lsl #31
700030aa:	ea46 7681 	orr.w	r6, r6, r1, lsl #30
700030ae:	ea4f 0591 	mov.w	r5, r1, lsr #2
700030b2:	d04c      	beq.n	7000314e <__ultoa_invert+0xca>
700030b4:	2c02      	cmp	r4, #2
700030b6:	d042      	beq.n	7000313e <__ultoa_invert+0xba>
700030b8:	199b      	adds	r3, r3, r6
700030ba:	eb45 0551 	adc.w	r5, r5, r1, lsr #1
700030be:	0919      	lsrs	r1, r3, #4
700030c0:	ea41 7105 	orr.w	r1, r1, r5, lsl #28
700030c4:	185b      	adds	r3, r3, r1
700030c6:	eb45 1515 	adc.w	r5, r5, r5, lsr #4
700030ca:	0a19      	lsrs	r1, r3, #8
700030cc:	ea41 6105 	orr.w	r1, r1, r5, lsl #24
700030d0:	185b      	adds	r3, r3, r1
700030d2:	eb45 2515 	adc.w	r5, r5, r5, lsr #8
700030d6:	0c19      	lsrs	r1, r3, #16
700030d8:	ea41 4105 	orr.w	r1, r1, r5, lsl #16
700030dc:	185b      	adds	r3, r3, r1
700030de:	eb45 4515 	adc.w	r5, r5, r5, lsr #16
700030e2:	195b      	adds	r3, r3, r5
700030e4:	f145 0500 	adc.w	r5, r5, #0
700030e8:	ea4f 0cd3 	mov.w	ip, r3, lsr #3
700030ec:	ea4c 7c45 	orr.w	ip, ip, r5, lsl #29
700030f0:	08e9      	lsrs	r1, r5, #3
700030f2:	eb0c 038c 	add.w	r3, ip, ip, lsl #2
700030f6:	ebae 0343 	sub.w	r3, lr, r3, lsl #1
700030fa:	b2db      	uxtb	r3, r3
700030fc:	f1a3 050a 	sub.w	r5, r3, #10
70003100:	2b09      	cmp	r3, #9
70003102:	b2ed      	uxtb	r5, r5
70003104:	d914      	bls.n	70003130 <__ultoa_invert+0xac>
70003106:	f11c 0c01 	adds.w	ip, ip, #1
7000310a:	f141 0100 	adc.w	r1, r1, #0
7000310e:	2d09      	cmp	r5, #9
70003110:	d92a      	bls.n	70003168 <__ultoa_invert+0xe4>
70003112:	4415      	add	r5, r2
70003114:	3530      	adds	r5, #48	; 0x30
70003116:	2c08      	cmp	r4, #8
70003118:	f800 5b01 	strb.w	r5, [r0], #1
7000311c:	fa5f fe8c 	uxtb.w	lr, ip
70003120:	d1bc      	bne.n	7000309c <__ultoa_invert+0x18>
70003122:	ea4f 0cdc 	mov.w	ip, ip, lsr #3
70003126:	ea4c 7c41 	orr.w	ip, ip, r1, lsl #29
7000312a:	f00e 0307 	and.w	r3, lr, #7
7000312e:	08c9      	lsrs	r1, r1, #3
70003130:	3330      	adds	r3, #48	; 0x30
70003132:	f800 3b01 	strb.w	r3, [r0], #1
70003136:	ea5c 0301 	orrs.w	r3, ip, r1
7000313a:	d1ab      	bne.n	70003094 <__ultoa_invert+0x10>
7000313c:	bd70      	pop	{r4, r5, r6, pc}
7000313e:	ea4f 0c5c 	mov.w	ip, ip, lsr #1
70003142:	ea4c 7cc1 	orr.w	ip, ip, r1, lsl #31
70003146:	f00e 0301 	and.w	r3, lr, #1
7000314a:	0849      	lsrs	r1, r1, #1
7000314c:	e7f0      	b.n	70003130 <__ultoa_invert+0xac>
7000314e:	f00e 030f 	and.w	r3, lr, #15
70003152:	2b09      	cmp	r3, #9
70003154:	bf88      	it	hi
70003156:	189b      	addhi	r3, r3, r2
70003158:	ea4f 1c1c 	mov.w	ip, ip, lsr #4
7000315c:	ea4c 7c01 	orr.w	ip, ip, r1, lsl #28
70003160:	bf88      	it	hi
70003162:	b2db      	uxtbhi	r3, r3
70003164:	0909      	lsrs	r1, r1, #4
70003166:	e7e3      	b.n	70003130 <__ultoa_invert+0xac>
70003168:	3326      	adds	r3, #38	; 0x26
7000316a:	fa5f fe8c 	uxtb.w	lr, ip
7000316e:	f800 3b01 	strb.w	r3, [r0], #1
70003172:	e793      	b.n	7000309c <__ultoa_invert+0x18>

70003174 <skip_to_arg>:
70003174:	e92d 43f0 	stmdb	sp!, {r4, r5, r6, r7, r8, r9, lr}
70003178:	f04f 0e01 	mov.w	lr, #1
7000317c:	4603      	mov	r3, r0
7000317e:	4572      	cmp	r2, lr
70003180:	dc02      	bgt.n	70003188 <skip_to_arg+0x14>
70003182:	e006      	b.n	70003192 <skip_to_arg+0x1e>
70003184:	2c25      	cmp	r4, #37	; 0x25
70003186:	d006      	beq.n	70003196 <skip_to_arg+0x22>
70003188:	469c      	mov	ip, r3
7000318a:	f813 4b01 	ldrb.w	r4, [r3], #1
7000318e:	2c00      	cmp	r4, #0
70003190:	d1f8      	bne.n	70003184 <skip_to_arg+0x10>
70003192:	e8bd 83f0 	ldmia.w	sp!, {r4, r5, r6, r7, r8, r9, pc}
70003196:	781c      	ldrb	r4, [r3, #0]
70003198:	2c25      	cmp	r4, #37	; 0x25
7000319a:	f10c 0c02 	add.w	ip, ip, #2
7000319e:	4663      	mov	r3, ip
700031a0:	d0f2      	beq.n	70003188 <skip_to_arg+0x14>
700031a2:	2600      	movs	r6, #0
700031a4:	f642 0789 	movw	r7, #10377	; 0x2889
700031a8:	46b0      	mov	r8, r6
700031aa:	f2c0 0701 	movt	r7, #1
700031ae:	4633      	mov	r3, r6
700031b0:	2b1f      	cmp	r3, #31
700031b2:	d847      	bhi.n	70003244 <skip_to_arg+0xd0>
700031b4:	f1a4 0520 	sub.w	r5, r4, #32
700031b8:	2d10      	cmp	r5, #16
700031ba:	d856      	bhi.n	7000326a <skip_to_arg+0xf6>
700031bc:	fa27 f505 	lsr.w	r5, r7, r5
700031c0:	07ed      	lsls	r5, r5, #31
700031c2:	d434      	bmi.n	7000322e <skip_to_arg+0xba>
700031c4:	f1a4 0530 	sub.w	r5, r4, #48	; 0x30
700031c8:	2d09      	cmp	r5, #9
700031ca:	d952      	bls.n	70003272 <skip_to_arg+0xfe>
700031cc:	2c24      	cmp	r4, #36	; 0x24
700031ce:	d10a      	bne.n	700031e6 <skip_to_arg+0x72>
700031d0:	f1b8 0f00 	cmp.w	r8, #0
700031d4:	d053      	beq.n	7000327e <skip_to_arg+0x10a>
700031d6:	4576      	cmp	r6, lr
700031d8:	d137      	bne.n	7000324a <skip_to_arg+0xd6>
700031da:	680d      	ldr	r5, [r1, #0]
700031dc:	3504      	adds	r5, #4
700031de:	600d      	str	r5, [r1, #0]
700031e0:	f10e 0e01 	add.w	lr, lr, #1
700031e4:	e7ca      	b.n	7000317c <skip_to_arg+0x8>
700031e6:	f024 0504 	bic.w	r5, r4, #4
700031ea:	2d2a      	cmp	r5, #42	; 0x2a
700031ec:	d02d      	beq.n	7000324a <skip_to_arg+0xd6>
700031ee:	f1a4 054c 	sub.w	r5, r4, #76	; 0x4c
700031f2:	2d2e      	cmp	r5, #46	; 0x2e
700031f4:	d81f      	bhi.n	70003236 <skip_to_arg+0xc2>
700031f6:	e8df f005 	tbb	[pc, r5]
700031fa:	1e18      	.short	0x1e18
700031fc:	1e1e1e1e 	.word	0x1e1e1e1e
70003200:	1e1e1e1e 	.word	0x1e1e1e1e
70003204:	1e1e1e1e 	.word	0x1e1e1e1e
70003208:	1e1e1e1e 	.word	0x1e1e1e1e
7000320c:	1e1e1e1e 	.word	0x1e1e1e1e
70003210:	1e1e1e1e 	.word	0x1e1e1e1e
70003214:	1e2a1e1e 	.word	0x1e2a1e1e
70003218:	1e311e18 	.word	0x1e311e18
7000321c:	1e1e1e1e 	.word	0x1e1e1e1e
70003220:	1e1a1e1e 	.word	0x1e1a1e1e
70003224:	1e1e1e1e 	.word	0x1e1e1e1e
70003228:	1a          	.byte	0x1a
70003229:	00          	.byte	0x00
7000322a:	f443 7320 	orr.w	r3, r3, #640	; 0x280
7000322e:	f81c 4b01 	ldrb.w	r4, [ip], #1
70003232:	2c00      	cmp	r4, #0
70003234:	d1bc      	bne.n	700031b0 <skip_to_arg+0x3c>
70003236:	f1b8 0f00 	cmp.w	r8, #0
7000323a:	d0aa      	beq.n	70003192 <skip_to_arg+0x1e>
7000323c:	45f0      	cmp	r8, lr
7000323e:	d021      	beq.n	70003284 <skip_to_arg+0x110>
70003240:	4663      	mov	r3, ip
70003242:	e79c      	b.n	7000317e <skip_to_arg+0xa>
70003244:	2b7f      	cmp	r3, #127	; 0x7f
70003246:	d8d2      	bhi.n	700031ee <skip_to_arg+0x7a>
70003248:	e7bc      	b.n	700031c4 <skip_to_arg+0x50>
7000324a:	2600      	movs	r6, #0
7000324c:	e7ef      	b.n	7000322e <skip_to_arg+0xba>
7000324e:	05dd      	lsls	r5, r3, #23
70003250:	bf48      	it	mi
70003252:	f443 7300 	orrmi.w	r3, r3, #512	; 0x200
70003256:	f443 7380 	orr.w	r3, r3, #256	; 0x100
7000325a:	e7e8      	b.n	7000322e <skip_to_arg+0xba>
7000325c:	061c      	lsls	r4, r3, #24
7000325e:	bf48      	it	mi
70003260:	f443 7300 	orrmi.w	r3, r3, #512	; 0x200
70003264:	f043 0380 	orr.w	r3, r3, #128	; 0x80
70003268:	e7e1      	b.n	7000322e <skip_to_arg+0xba>
7000326a:	f1a4 0530 	sub.w	r5, r4, #48	; 0x30
7000326e:	2d09      	cmp	r5, #9
70003270:	d8b9      	bhi.n	700031e6 <skip_to_arg+0x72>
70003272:	2320      	movs	r3, #32
70003274:	eb06 0686 	add.w	r6, r6, r6, lsl #2
70003278:	eb05 0646 	add.w	r6, r5, r6, lsl #1
7000327c:	e7d7      	b.n	7000322e <skip_to_arg+0xba>
7000327e:	46b0      	mov	r8, r6
70003280:	2600      	movs	r6, #0
70003282:	e7d4      	b.n	7000322e <skip_to_arg+0xba>
70003284:	680d      	ldr	r5, [r1, #0]
70003286:	f044 0620 	orr.w	r6, r4, #32
7000328a:	f1a6 0765 	sub.w	r7, r6, #101	; 0x65
7000328e:	2e61      	cmp	r6, #97	; 0x61
70003290:	bf18      	it	ne
70003292:	2f02      	cmpne	r7, #2
70003294:	d92e      	bls.n	700032f4 <skip_to_arg+0x180>
70003296:	3c63      	subs	r4, #99	; 0x63
70003298:	2c10      	cmp	r4, #16
7000329a:	d825      	bhi.n	700032e8 <skip_to_arg+0x174>
7000329c:	a601      	add	r6, pc, #4	; (adr r6, 700032a4 <skip_to_arg+0x130>)
7000329e:	f856 f024 	ldr.w	pc, [r6, r4, lsl #2]
700032a2:	bf00      	nop
700032a4:	700031dd 	.word	0x700031dd
700032a8:	700032e9 	.word	0x700032e9
700032ac:	700032e9 	.word	0x700032e9
700032b0:	700032e9 	.word	0x700032e9
700032b4:	700032e9 	.word	0x700032e9
700032b8:	700032e9 	.word	0x700032e9
700032bc:	700032e9 	.word	0x700032e9
700032c0:	700032e9 	.word	0x700032e9
700032c4:	700032e9 	.word	0x700032e9
700032c8:	700032e9 	.word	0x700032e9
700032cc:	700032e9 	.word	0x700032e9
700032d0:	700032e9 	.word	0x700032e9
700032d4:	700032e9 	.word	0x700032e9
700032d8:	700032e9 	.word	0x700032e9
700032dc:	700032e9 	.word	0x700032e9
700032e0:	700032e9 	.word	0x700032e9
700032e4:	700031dd 	.word	0x700031dd
700032e8:	061c      	lsls	r4, r3, #24
700032ea:	f57f af77 	bpl.w	700031dc <skip_to_arg+0x68>
700032ee:	059b      	lsls	r3, r3, #22
700032f0:	f57f af74 	bpl.w	700031dc <skip_to_arg+0x68>
700032f4:	3507      	adds	r5, #7
700032f6:	f025 0507 	bic.w	r5, r5, #7
700032fa:	3508      	adds	r5, #8
700032fc:	e76f      	b.n	700031de <skip_to_arg+0x6a>
700032fe:	bf00      	nop

70003300 <__l_vfprintf>:
70003300:	e92d 4ff0 	stmdb	sp!, {r4, r5, r6, r7, r8, r9, sl, fp, lr}
70003304:	7883      	ldrb	r3, [r0, #2]
70003306:	f8d0 b004 	ldr.w	fp, [r0, #4]
7000330a:	079e      	lsls	r6, r3, #30
7000330c:	b09b      	sub	sp, #108	; 0x6c
7000330e:	f140 836c 	bpl.w	700039ea <__l_vfprintf+0x6ea>
70003312:	4607      	mov	r7, r0
70003314:	460b      	mov	r3, r1
70003316:	9209      	str	r2, [sp, #36]	; 0x24
70003318:	4696      	mov	lr, r2
7000331a:	f813 0b01 	ldrb.w	r0, [r3], #1
7000331e:	2800      	cmp	r0, #0
70003320:	f000 835a 	beq.w	700039d8 <__l_vfprintf+0x6d8>
70003324:	460d      	mov	r5, r1
70003326:	2400      	movs	r4, #0
70003328:	e9cd 1203 	strd	r1, r2, [sp, #12]
7000332c:	e00a      	b.n	70003344 <__l_vfprintf+0x44>
7000332e:	4639      	mov	r1, r7
70003330:	b2c0      	uxtb	r0, r0
70003332:	461d      	mov	r5, r3
70003334:	47d8      	blx	fp
70003336:	3401      	adds	r4, #1
70003338:	2800      	cmp	r0, #0
7000333a:	db10      	blt.n	7000335e <__l_vfprintf+0x5e>
7000333c:	462b      	mov	r3, r5
7000333e:	f813 0b01 	ldrb.w	r0, [r3], #1
70003342:	b190      	cbz	r0, 7000336a <__l_vfprintf+0x6a>
70003344:	2825      	cmp	r0, #37	; 0x25
70003346:	d1f2      	bne.n	7000332e <__l_vfprintf+0x2e>
70003348:	f105 0802 	add.w	r8, r5, #2
7000334c:	786d      	ldrb	r5, [r5, #1]
7000334e:	2d25      	cmp	r5, #37	; 0x25
70003350:	d10f      	bne.n	70003372 <__l_vfprintf+0x72>
70003352:	4639      	mov	r1, r7
70003354:	4645      	mov	r5, r8
70003356:	47d8      	blx	fp
70003358:	3401      	adds	r4, #1
7000335a:	2800      	cmp	r0, #0
7000335c:	daee      	bge.n	7000333c <__l_vfprintf+0x3c>
7000335e:	78bb      	ldrb	r3, [r7, #2]
70003360:	f04f 34ff 	mov.w	r4, #4294967295	; 0xffffffff
70003364:	f043 0304 	orr.w	r3, r3, #4
70003368:	70bb      	strb	r3, [r7, #2]
7000336a:	4620      	mov	r0, r4
7000336c:	b01b      	add	sp, #108	; 0x6c
7000336e:	e8bd 8ff0 	ldmia.w	sp!, {r4, r5, r6, r7, r8, r9, sl, fp, pc}
70003372:	f04f 0a00 	mov.w	sl, #0
70003376:	46d1      	mov	r9, sl
70003378:	4656      	mov	r6, sl
7000337a:	f8cd a004 	str.w	sl, [sp, #4]
7000337e:	2e1f      	cmp	r6, #31
70003380:	d857      	bhi.n	70003432 <__l_vfprintf+0x132>
70003382:	f1a5 0320 	sub.w	r3, r5, #32
70003386:	2b10      	cmp	r3, #16
70003388:	d80a      	bhi.n	700033a0 <__l_vfprintf+0xa0>
7000338a:	e8df f003 	tbb	[pc, r3]
7000338e:	0946      	.short	0x0946
70003390:	09094909 	.word	0x09094909
70003394:	09091409 	.word	0x09091409
70003398:	4f094409 	.word	0x4f094409
7000339c:	0909      	.short	0x0909
7000339e:	4c          	.byte	0x4c
7000339f:	00          	.byte	0x00
700033a0:	f1a5 0330 	sub.w	r3, r5, #48	; 0x30
700033a4:	2b09      	cmp	r3, #9
700033a6:	f200 80b0 	bhi.w	7000350a <__l_vfprintf+0x20a>
700033aa:	eb09 0989 	add.w	r9, r9, r9, lsl #2
700033ae:	f046 0620 	orr.w	r6, r6, #32
700033b2:	eb03 0949 	add.w	r9, r3, r9, lsl #1
700033b6:	f818 5b01 	ldrb.w	r5, [r8], #1
700033ba:	2d00      	cmp	r5, #0
700033bc:	d1df      	bne.n	7000337e <__l_vfprintf+0x7e>
700033be:	9502      	str	r5, [sp, #8]
700033c0:	2320      	movs	r3, #32
700033c2:	f1ba 0f00 	cmp.w	sl, #0
700033c6:	f040 80c9 	bne.w	7000355c <__l_vfprintf+0x25c>
700033ca:	9a01      	ldr	r2, [sp, #4]
700033cc:	2a00      	cmp	r2, #0
700033ce:	bfbf      	itttt	lt
700033d0:	2200      	movlt	r2, #0
700033d2:	f026 0640 	biclt.w	r6, r6, #64	; 0x40
700033d6:	9201      	strlt	r2, [sp, #4]
700033d8:	b2b6      	uxthlt	r6, r6
700033da:	9a02      	ldr	r2, [sp, #8]
700033dc:	2a00      	cmp	r2, #0
700033de:	f040 80f1 	bne.w	700035c4 <__l_vfprintf+0x2c4>
700033e2:	f1a5 0263 	sub.w	r2, r5, #99	; 0x63
700033e6:	2a12      	cmp	r2, #18
700033e8:	f200 8141 	bhi.w	7000366e <__l_vfprintf+0x36e>
700033ec:	e8df f012 	tbh	[pc, r2, lsl #1]
700033f0:	0158018e 	.word	0x0158018e
700033f4:	013f013f 	.word	0x013f013f
700033f8:	013f013f 	.word	0x013f013f
700033fc:	013f0158 	.word	0x013f0158
70003400:	013f013f 	.word	0x013f013f
70003404:	013f013f 	.word	0x013f013f
70003408:	019802cb 	.word	0x019802cb
7000340c:	013f013f 	.word	0x013f013f
70003410:	013f01e5 	.word	0x013f01e5
70003414:	01e0      	.short	0x01e0
70003416:	f046 0602 	orr.w	r6, r6, #2
7000341a:	f046 0604 	orr.w	r6, r6, #4
7000341e:	e7ca      	b.n	700033b6 <__l_vfprintf+0xb6>
70003420:	f046 0610 	orr.w	r6, r6, #16
70003424:	e7c7      	b.n	700033b6 <__l_vfprintf+0xb6>
70003426:	f046 0601 	orr.w	r6, r6, #1
7000342a:	e7c4      	b.n	700033b6 <__l_vfprintf+0xb6>
7000342c:	f046 0608 	orr.w	r6, r6, #8
70003430:	e7c1      	b.n	700033b6 <__l_vfprintf+0xb6>
70003432:	2e7f      	cmp	r6, #127	; 0x7f
70003434:	f240 82eb 	bls.w	70003a0e <__l_vfprintf+0x70e>
70003438:	f1a5 034c 	sub.w	r3, r5, #76	; 0x4c
7000343c:	2b2e      	cmp	r3, #46	; 0x2e
7000343e:	d87e      	bhi.n	7000353e <__l_vfprintf+0x23e>
70003440:	a201      	add	r2, pc, #4	; (adr r2, 70003448 <__l_vfprintf+0x148>)
70003442:	f852 f023 	ldr.w	pc, [r2, r3, lsl #2]
70003446:	bf00      	nop
70003448:	70003505 	.word	0x70003505
7000344c:	7000353f 	.word	0x7000353f
70003450:	7000353f 	.word	0x7000353f
70003454:	7000353f 	.word	0x7000353f
70003458:	7000353f 	.word	0x7000353f
7000345c:	7000353f 	.word	0x7000353f
70003460:	7000353f 	.word	0x7000353f
70003464:	7000353f 	.word	0x7000353f
70003468:	7000353f 	.word	0x7000353f
7000346c:	7000353f 	.word	0x7000353f
70003470:	7000353f 	.word	0x7000353f
70003474:	7000353f 	.word	0x7000353f
70003478:	7000353f 	.word	0x7000353f
7000347c:	7000353f 	.word	0x7000353f
70003480:	7000353f 	.word	0x7000353f
70003484:	7000353f 	.word	0x7000353f
70003488:	7000353f 	.word	0x7000353f
7000348c:	7000353f 	.word	0x7000353f
70003490:	7000353f 	.word	0x7000353f
70003494:	7000353f 	.word	0x7000353f
70003498:	7000353f 	.word	0x7000353f
7000349c:	7000353f 	.word	0x7000353f
700034a0:	7000353f 	.word	0x7000353f
700034a4:	7000353f 	.word	0x7000353f
700034a8:	7000353f 	.word	0x7000353f
700034ac:	7000353f 	.word	0x7000353f
700034b0:	7000353f 	.word	0x7000353f
700034b4:	7000353f 	.word	0x7000353f
700034b8:	7000357f 	.word	0x7000357f
700034bc:	7000353f 	.word	0x7000353f
700034c0:	70003505 	.word	0x70003505
700034c4:	7000353f 	.word	0x7000353f
700034c8:	70003571 	.word	0x70003571
700034cc:	7000353f 	.word	0x7000353f
700034d0:	7000353f 	.word	0x7000353f
700034d4:	7000353f 	.word	0x7000353f
700034d8:	7000353f 	.word	0x7000353f
700034dc:	7000353f 	.word	0x7000353f
700034e0:	7000353f 	.word	0x7000353f
700034e4:	7000353f 	.word	0x7000353f
700034e8:	700033b7 	.word	0x700033b7
700034ec:	7000353f 	.word	0x7000353f
700034f0:	7000353f 	.word	0x7000353f
700034f4:	7000353f 	.word	0x7000353f
700034f8:	7000353f 	.word	0x7000353f
700034fc:	7000353f 	.word	0x7000353f
70003500:	700033b7 	.word	0x700033b7
70003504:	f446 7620 	orr.w	r6, r6, #640	; 0x280
70003508:	e755      	b.n	700033b6 <__l_vfprintf+0xb6>
7000350a:	2d2a      	cmp	r5, #42	; 0x2a
7000350c:	d03e      	beq.n	7000358c <__l_vfprintf+0x28c>
7000350e:	2d2e      	cmp	r5, #46	; 0x2e
70003510:	d052      	beq.n	700035b8 <__l_vfprintf+0x2b8>
70003512:	2d24      	cmp	r5, #36	; 0x24
70003514:	d190      	bne.n	70003438 <__l_vfprintf+0x138>
70003516:	f1ba 0f00 	cmp.w	sl, #0
7000351a:	f000 821c 	beq.w	70003956 <__l_vfprintf+0x656>
7000351e:	9b04      	ldr	r3, [sp, #16]
70003520:	0672      	lsls	r2, r6, #25
70003522:	9309      	str	r3, [sp, #36]	; 0x24
70003524:	f140 823d 	bpl.w	700039a2 <__l_vfprintf+0x6a2>
70003528:	9a01      	ldr	r2, [sp, #4]
7000352a:	a909      	add	r1, sp, #36	; 0x24
7000352c:	9803      	ldr	r0, [sp, #12]
7000352e:	f7ff fe21 	bl	70003174 <skip_to_arg>
70003532:	9b09      	ldr	r3, [sp, #36]	; 0x24
70003534:	1d1a      	adds	r2, r3, #4
70003536:	9209      	str	r2, [sp, #36]	; 0x24
70003538:	681b      	ldr	r3, [r3, #0]
7000353a:	9301      	str	r3, [sp, #4]
7000353c:	e73b      	b.n	700033b6 <__l_vfprintf+0xb6>
7000353e:	f045 0320 	orr.w	r3, r5, #32
70003542:	f1a3 0265 	sub.w	r2, r3, #101	; 0x65
70003546:	2b61      	cmp	r3, #97	; 0x61
70003548:	bf18      	it	ne
7000354a:	2a02      	cmpne	r2, #2
7000354c:	bf94      	ite	ls
7000354e:	2201      	movls	r2, #1
70003550:	2200      	movhi	r2, #0
70003552:	9202      	str	r2, [sp, #8]
70003554:	f1ba 0f00 	cmp.w	sl, #0
70003558:	f43f af37 	beq.w	700033ca <__l_vfprintf+0xca>
7000355c:	9305      	str	r3, [sp, #20]
7000355e:	4652      	mov	r2, sl
70003560:	9b04      	ldr	r3, [sp, #16]
70003562:	a909      	add	r1, sp, #36	; 0x24
70003564:	9803      	ldr	r0, [sp, #12]
70003566:	9309      	str	r3, [sp, #36]	; 0x24
70003568:	f7ff fe04 	bl	70003174 <skip_to_arg>
7000356c:	9b05      	ldr	r3, [sp, #20]
7000356e:	e72c      	b.n	700033ca <__l_vfprintf+0xca>
70003570:	0633      	lsls	r3, r6, #24
70003572:	bf48      	it	mi
70003574:	f446 7600 	orrmi.w	r6, r6, #512	; 0x200
70003578:	f046 0680 	orr.w	r6, r6, #128	; 0x80
7000357c:	e71b      	b.n	700033b6 <__l_vfprintf+0xb6>
7000357e:	05f5      	lsls	r5, r6, #23
70003580:	bf48      	it	mi
70003582:	f446 7600 	orrmi.w	r6, r6, #512	; 0x200
70003586:	f446 7680 	orr.w	r6, r6, #256	; 0x100
7000358a:	e714      	b.n	700033b6 <__l_vfprintf+0xb6>
7000358c:	f1ba 0f00 	cmp.w	sl, #0
70003590:	f47f af11 	bne.w	700033b6 <__l_vfprintf+0xb6>
70003594:	9b09      	ldr	r3, [sp, #36]	; 0x24
70003596:	0670      	lsls	r0, r6, #25
70003598:	f103 0204 	add.w	r2, r3, #4
7000359c:	9209      	str	r2, [sp, #36]	; 0x24
7000359e:	d4cb      	bmi.n	70003538 <__l_vfprintf+0x238>
700035a0:	f8d3 9000 	ldr.w	r9, [r3]
700035a4:	f1b9 0f00 	cmp.w	r9, #0
700035a8:	bfae      	itee	ge
700035aa:	f046 0620 	orrge.w	r6, r6, #32
700035ae:	f1c9 0900 	rsblt	r9, r9, #0
700035b2:	f046 0628 	orrlt.w	r6, r6, #40	; 0x28
700035b6:	e6fe      	b.n	700033b6 <__l_vfprintf+0xb6>
700035b8:	0671      	lsls	r1, r6, #25
700035ba:	f53f aed6 	bmi.w	7000336a <__l_vfprintf+0x6a>
700035be:	f046 0640 	orr.w	r6, r6, #64	; 0x40
700035c2:	e6f8      	b.n	700033b6 <__l_vfprintf+0xb6>
700035c4:	9b09      	ldr	r3, [sp, #36]	; 0x24
700035c6:	f644 6218 	movw	r2, #19992	; 0x4e18
700035ca:	f04f 0a07 	mov.w	sl, #7
700035ce:	f2c7 0200 	movt	r2, #28672	; 0x7000
700035d2:	3307      	adds	r3, #7
700035d4:	f023 0307 	bic.w	r3, r3, #7
700035d8:	3308      	adds	r3, #8
700035da:	9309      	str	r3, [sp, #36]	; 0x24
700035dc:	4649      	mov	r1, r9
700035de:	0730      	lsls	r0, r6, #28
700035e0:	d419      	bmi.n	70003616 <__l_vfprintf+0x316>
700035e2:	45ca      	cmp	sl, r9
700035e4:	bf3e      	ittt	cc
700035e6:	465d      	movcc	r5, fp
700035e8:	4616      	movcc	r6, r2
700035ea:	46cb      	movcc	fp, r9
700035ec:	d303      	bcc.n	700035f6 <__l_vfprintf+0x2f6>
700035ee:	e012      	b.n	70003616 <__l_vfprintf+0x316>
700035f0:	459a      	cmp	sl, r3
700035f2:	d208      	bcs.n	70003606 <__l_vfprintf+0x306>
700035f4:	4699      	mov	r9, r3
700035f6:	4639      	mov	r1, r7
700035f8:	2020      	movs	r0, #32
700035fa:	47a8      	blx	r5
700035fc:	f109 33ff 	add.w	r3, r9, #4294967295	; 0xffffffff
70003600:	2800      	cmp	r0, #0
70003602:	daf5      	bge.n	700035f0 <__l_vfprintf+0x2f0>
70003604:	e6ab      	b.n	7000335e <__l_vfprintf+0x5e>
70003606:	4659      	mov	r1, fp
70003608:	3401      	adds	r4, #1
7000360a:	4632      	mov	r2, r6
7000360c:	440c      	add	r4, r1
7000360e:	46ab      	mov	fp, r5
70003610:	eba4 0409 	sub.w	r4, r4, r9
70003614:	4619      	mov	r1, r3
70003616:	4623      	mov	r3, r4
70003618:	465e      	mov	r6, fp
7000361a:	4614      	mov	r4, r2
7000361c:	eb02 050a 	add.w	r5, r2, sl
70003620:	4693      	mov	fp, r2
70003622:	4699      	mov	r9, r3
70003624:	9101      	str	r1, [sp, #4]
70003626:	e005      	b.n	70003634 <__l_vfprintf+0x334>
70003628:	f814 0b01 	ldrb.w	r0, [r4], #1
7000362c:	47b0      	blx	r6
7000362e:	2800      	cmp	r0, #0
70003630:	f6ff ae95 	blt.w	7000335e <__l_vfprintf+0x5e>
70003634:	4639      	mov	r1, r7
70003636:	42ac      	cmp	r4, r5
70003638:	d1f6      	bne.n	70003628 <__l_vfprintf+0x328>
7000363a:	465a      	mov	r2, fp
7000363c:	464b      	mov	r3, r9
7000363e:	9901      	ldr	r1, [sp, #4]
70003640:	46a1      	mov	r9, r4
70003642:	46b3      	mov	fp, r6
70003644:	1a9b      	subs	r3, r3, r2
70003646:	eba1 060a 	sub.w	r6, r1, sl
7000364a:	4499      	add	r9, r3
7000364c:	464c      	mov	r4, r9
7000364e:	444e      	add	r6, r9
70003650:	465d      	mov	r5, fp
70003652:	e004      	b.n	7000365e <__l_vfprintf+0x35e>
70003654:	47a8      	blx	r5
70003656:	3401      	adds	r4, #1
70003658:	2800      	cmp	r0, #0
7000365a:	f6ff ae80 	blt.w	7000335e <__l_vfprintf+0x5e>
7000365e:	4639      	mov	r1, r7
70003660:	1b33      	subs	r3, r6, r4
70003662:	2020      	movs	r0, #32
70003664:	2b00      	cmp	r3, #0
70003666:	dcf5      	bgt.n	70003654 <__l_vfprintf+0x354>
70003668:	46ab      	mov	fp, r5
7000366a:	4645      	mov	r5, r8
7000366c:	e666      	b.n	7000333c <__l_vfprintf+0x3c>
7000366e:	2b78      	cmp	r3, #120	; 0x78
70003670:	bf04      	itt	eq
70003672:	f1c5 0378 	rsbeq	r3, r5, #120	; 0x78
70003676:	f043 0310 	orreq.w	r3, r3, #16
7000367a:	d055      	beq.n	70003728 <__l_vfprintf+0x428>
7000367c:	2b62      	cmp	r3, #98	; 0x62
7000367e:	f000 81b2 	beq.w	700039e6 <__l_vfprintf+0x6e6>
70003682:	4639      	mov	r1, r7
70003684:	2025      	movs	r0, #37	; 0x25
70003686:	47d8      	blx	fp
70003688:	2800      	cmp	r0, #0
7000368a:	f6ff ae68 	blt.w	7000335e <__l_vfprintf+0x5e>
7000368e:	4628      	mov	r0, r5
70003690:	4639      	mov	r1, r7
70003692:	47d8      	blx	fp
70003694:	2800      	cmp	r0, #0
70003696:	f6ff ae62 	blt.w	7000335e <__l_vfprintf+0x5e>
7000369a:	4645      	mov	r5, r8
7000369c:	3402      	adds	r4, #2
7000369e:	e64d      	b.n	7000333c <__l_vfprintf+0x3c>
700036a0:	9b09      	ldr	r3, [sp, #36]	; 0x24
700036a2:	0632      	lsls	r2, r6, #24
700036a4:	f100 8172 	bmi.w	7000398c <__l_vfprintf+0x68c>
700036a8:	1d1a      	adds	r2, r3, #4
700036aa:	05f1      	lsls	r1, r6, #23
700036ac:	9209      	str	r2, [sp, #36]	; 0x24
700036ae:	681a      	ldr	r2, [r3, #0]
700036b0:	bf5c      	itt	pl
700036b2:	4610      	movpl	r0, r2
700036b4:	17c2      	asrpl	r2, r0, #31
700036b6:	d507      	bpl.n	700036c8 <__l_vfprintf+0x3c8>
700036b8:	05b3      	lsls	r3, r6, #22
700036ba:	bf4b      	itete	mi
700036bc:	b250      	sxtbmi	r0, r2
700036be:	b210      	sxthpl	r0, r2
700036c0:	f342 12c0 	sbfxmi	r2, r2, #7, #1
700036c4:	f342 32c0 	sbfxpl	r2, r2, #15, #1
700036c8:	f026 0110 	bic.w	r1, r6, #16
700036cc:	2a00      	cmp	r2, #0
700036ce:	fa1f fa81 	uxth.w	sl, r1
700036d2:	f2c0 8171 	blt.w	700039b8 <__l_vfprintf+0x6b8>
700036d6:	ea50 0102 	orrs.w	r1, r0, r2
700036da:	f040 8190 	bne.w	700039fe <__l_vfprintf+0x6fe>
700036de:	9a01      	ldr	r2, [sp, #4]
700036e0:	f3c6 1380 	ubfx	r3, r6, #6, #1
700036e4:	2a00      	cmp	r2, #0
700036e6:	bf14      	ite	ne
700036e8:	2300      	movne	r3, #0
700036ea:	f003 0301 	andeq.w	r3, r3, #1
700036ee:	f006 0240 	and.w	r2, r6, #64	; 0x40
700036f2:	9202      	str	r2, [sp, #8]
700036f4:	2b00      	cmp	r3, #0
700036f6:	f040 817b 	bne.w	700039f0 <__l_vfprintf+0x6f0>
700036fa:	4618      	mov	r0, r3
700036fc:	4619      	mov	r1, r3
700036fe:	230a      	movs	r3, #10
70003700:	ae0a      	add	r6, sp, #40	; 0x28
70003702:	4632      	mov	r2, r6
70003704:	f7ff fcbe 	bl	70003084 <__ultoa_invert>
70003708:	1b83      	subs	r3, r0, r6
7000370a:	e03a      	b.n	70003782 <__l_vfprintf+0x482>
7000370c:	9b09      	ldr	r3, [sp, #36]	; 0x24
7000370e:	f04f 0a01 	mov.w	sl, #1
70003712:	aa0a      	add	r2, sp, #40	; 0x28
70003714:	1d19      	adds	r1, r3, #4
70003716:	9109      	str	r1, [sp, #36]	; 0x24
70003718:	681b      	ldr	r3, [r3, #0]
7000371a:	f88d 3028 	strb.w	r3, [sp, #40]	; 0x28
7000371e:	e75d      	b.n	700035dc <__l_vfprintf+0x2dc>
70003720:	2310      	movs	r3, #16
70003722:	f046 0610 	orr.w	r6, r6, #16
70003726:	2578      	movs	r5, #120	; 0x78
70003728:	9a09      	ldr	r2, [sp, #36]	; 0x24
7000372a:	f016 0c80 	ands.w	ip, r6, #128	; 0x80
7000372e:	f000 80a2 	beq.w	70003876 <__l_vfprintf+0x576>
70003732:	f416 7100 	ands.w	r1, r6, #512	; 0x200
70003736:	bf1d      	ittte	ne
70003738:	3207      	addne	r2, #7
7000373a:	f022 0207 	bicne.w	r2, r2, #7
7000373e:	f102 0108 	addne.w	r1, r2, #8
70003742:	1d10      	addeq	r0, r2, #4
70003744:	bf15      	itete	ne
70003746:	9109      	strne	r1, [sp, #36]	; 0x24
70003748:	9009      	streq	r0, [sp, #36]	; 0x24
7000374a:	e9d2 0100 	ldrdne	r0, r1, [r2]
7000374e:	6810      	ldreq	r0, [r2, #0]
70003750:	ea50 0201 	orrs.w	r2, r0, r1
70003754:	f040 80c5 	bne.w	700038e2 <__l_vfprintf+0x5e2>
70003758:	9a01      	ldr	r2, [sp, #4]
7000375a:	f026 0c16 	bic.w	ip, r6, #22
7000375e:	fab2 f282 	clz	r2, r2
70003762:	fa1f fa8c 	uxth.w	sl, ip
70003766:	0952      	lsrs	r2, r2, #5
70003768:	f006 0c40 	and.w	ip, r6, #64	; 0x40
7000376c:	ea12 1296 	ands.w	r2, r2, r6, lsr #6
70003770:	f8cd c008 	str.w	ip, [sp, #8]
70003774:	f040 8129 	bne.w	700039ca <__l_vfprintf+0x6ca>
70003778:	ae0a      	add	r6, sp, #40	; 0x28
7000377a:	4632      	mov	r2, r6
7000377c:	f7ff fc82 	bl	70003084 <__ultoa_invert>
70003780:	1b83      	subs	r3, r0, r6
70003782:	9a02      	ldr	r2, [sp, #8]
70003784:	f00a 0c10 	and.w	ip, sl, #16
70003788:	b37a      	cbz	r2, 700037ea <__l_vfprintf+0x4ea>
7000378a:	9901      	ldr	r1, [sp, #4]
7000378c:	f02a 0201 	bic.w	r2, sl, #1
70003790:	4299      	cmp	r1, r3
70003792:	b292      	uxth	r2, r2
70003794:	bfdc      	itt	le
70003796:	f00a 0c10 	andle.w	ip, sl, #16
7000379a:	4692      	movle	sl, r2
7000379c:	dd25      	ble.n	700037ea <__l_vfprintf+0x4ea>
7000379e:	2d00      	cmp	r5, #0
700037a0:	f040 80ea 	bne.w	70003978 <__l_vfprintf+0x678>
700037a4:	f02a 0211 	bic.w	r2, sl, #17
700037a8:	fa1f fa82 	uxth.w	sl, r2
700037ac:	9a01      	ldr	r2, [sp, #4]
700037ae:	e071      	b.n	70003894 <__l_vfprintf+0x594>
700037b0:	230a      	movs	r3, #10
700037b2:	f026 0610 	bic.w	r6, r6, #16
700037b6:	b2b6      	uxth	r6, r6
700037b8:	e7b6      	b.n	70003728 <__l_vfprintf+0x428>
700037ba:	9a09      	ldr	r2, [sp, #36]	; 0x24
700037bc:	f644 6310 	movw	r3, #19984	; 0x4e10
700037c0:	f2c7 0300 	movt	r3, #28672	; 0x7000
700037c4:	1d11      	adds	r1, r2, #4
700037c6:	9109      	str	r1, [sp, #36]	; 0x24
700037c8:	6812      	ldr	r2, [r2, #0]
700037ca:	9901      	ldr	r1, [sp, #4]
700037cc:	2a00      	cmp	r2, #0
700037ce:	bf08      	it	eq
700037d0:	461a      	moveq	r2, r3
700037d2:	4610      	mov	r0, r2
700037d4:	f016 0f40 	tst.w	r6, #64	; 0x40
700037d8:	9201      	str	r2, [sp, #4]
700037da:	bf08      	it	eq
700037dc:	f04f 31ff 	moveq.w	r1, #4294967295	; 0xffffffff
700037e0:	f7ff fc3e 	bl	70003060 <strnlen>
700037e4:	9a01      	ldr	r2, [sp, #4]
700037e6:	4682      	mov	sl, r0
700037e8:	e6f8      	b.n	700035dc <__l_vfprintf+0x2dc>
700037ea:	f1bc 0f00 	cmp.w	ip, #0
700037ee:	d050      	beq.n	70003892 <__l_vfprintf+0x592>
700037f0:	1c5a      	adds	r2, r3, #1
700037f2:	b10d      	cbz	r5, 700037f8 <__l_vfprintf+0x4f8>
700037f4:	461a      	mov	r2, r3
700037f6:	3202      	adds	r2, #2
700037f8:	f01a 0f08 	tst.w	sl, #8
700037fc:	bf18      	it	ne
700037fe:	eba9 0602 	subne.w	r6, r9, r2
70003802:	d053      	beq.n	700038ac <__l_vfprintf+0x5ac>
70003804:	4639      	mov	r1, r7
70003806:	2030      	movs	r0, #48	; 0x30
70003808:	9302      	str	r3, [sp, #8]
7000380a:	47d8      	blx	fp
7000380c:	2800      	cmp	r0, #0
7000380e:	f6ff ada6 	blt.w	7000335e <__l_vfprintf+0x5e>
70003812:	9b02      	ldr	r3, [sp, #8]
70003814:	2d00      	cmp	r5, #0
70003816:	f040 8094 	bne.w	70003942 <__l_vfprintf+0x642>
7000381a:	3401      	adds	r4, #1
7000381c:	9a01      	ldr	r2, [sp, #4]
7000381e:	4293      	cmp	r3, r2
70003820:	bfa8      	it	ge
70003822:	4625      	movge	r5, r4
70003824:	da12      	bge.n	7000384c <__l_vfprintf+0x54c>
70003826:	9d01      	ldr	r5, [sp, #4]
70003828:	469a      	mov	sl, r3
7000382a:	4425      	add	r5, r4
7000382c:	1aed      	subs	r5, r5, r3
7000382e:	46a9      	mov	r9, r5
70003830:	465d      	mov	r5, fp
70003832:	e001      	b.n	70003838 <__l_vfprintf+0x538>
70003834:	45a1      	cmp	r9, r4
70003836:	d006      	beq.n	70003846 <__l_vfprintf+0x546>
70003838:	4639      	mov	r1, r7
7000383a:	2030      	movs	r0, #48	; 0x30
7000383c:	47a8      	blx	r5
7000383e:	3401      	adds	r4, #1
70003840:	2800      	cmp	r0, #0
70003842:	daf7      	bge.n	70003834 <__l_vfprintf+0x534>
70003844:	e58b      	b.n	7000335e <__l_vfprintf+0x5e>
70003846:	46ab      	mov	fp, r5
70003848:	4653      	mov	r3, sl
7000384a:	464d      	mov	r5, r9
7000384c:	46aa      	mov	sl, r5
7000384e:	ac0a      	add	r4, sp, #40	; 0x28
70003850:	465d      	mov	r5, fp
70003852:	eb04 0903 	add.w	r9, r4, r3
70003856:	469b      	mov	fp, r3
70003858:	e005      	b.n	70003866 <__l_vfprintf+0x566>
7000385a:	f819 0d01 	ldrb.w	r0, [r9, #-1]!
7000385e:	47a8      	blx	r5
70003860:	2800      	cmp	r0, #0
70003862:	f6ff ad7c 	blt.w	7000335e <__l_vfprintf+0x5e>
70003866:	4639      	mov	r1, r7
70003868:	45a1      	cmp	r9, r4
7000386a:	d1f6      	bne.n	7000385a <__l_vfprintf+0x55a>
7000386c:	465b      	mov	r3, fp
7000386e:	46ab      	mov	fp, r5
70003870:	eb0a 0903 	add.w	r9, sl, r3
70003874:	e6ea      	b.n	7000364c <__l_vfprintf+0x34c>
70003876:	1d11      	adds	r1, r2, #4
70003878:	9109      	str	r1, [sp, #36]	; 0x24
7000387a:	f416 7180 	ands.w	r1, r6, #256	; 0x100
7000387e:	6810      	ldr	r0, [r2, #0]
70003880:	f43f af66 	beq.w	70003750 <__l_vfprintf+0x450>
70003884:	f416 7100 	ands.w	r1, r6, #512	; 0x200
70003888:	bf1a      	itte	ne
7000388a:	4661      	movne	r1, ip
7000388c:	b2c0      	uxtbne	r0, r0
7000388e:	b280      	uxtheq	r0, r0
70003890:	e75e      	b.n	70003750 <__l_vfprintf+0x450>
70003892:	461a      	mov	r2, r3
70003894:	f240 4106 	movw	r1, #1030	; 0x406
70003898:	ea1a 0101 	ands.w	r1, sl, r1
7000389c:	bf18      	it	ne
7000389e:	3201      	addne	r2, #1
700038a0:	f01a 0c08 	ands.w	ip, sl, #8
700038a4:	bf18      	it	ne
700038a6:	eba9 0602 	subne.w	r6, r9, r2
700038aa:	d135      	bne.n	70003918 <__l_vfprintf+0x618>
700038ac:	f01a 0f01 	tst.w	sl, #1
700038b0:	d158      	bne.n	70003964 <__l_vfprintf+0x664>
700038b2:	4591      	cmp	r9, r2
700038b4:	f340 80a8 	ble.w	70003a08 <__l_vfprintf+0x708>
700038b8:	f8cd 8008 	str.w	r8, [sp, #8]
700038bc:	eb09 0604 	add.w	r6, r9, r4
700038c0:	e9cd 3205 	strd	r3, r2, [sp, #20]
700038c4:	1ab6      	subs	r6, r6, r2
700038c6:	9407      	str	r4, [sp, #28]
700038c8:	46b0      	mov	r8, r6
700038ca:	465e      	mov	r6, fp
700038cc:	46e3      	mov	fp, ip
700038ce:	e001      	b.n	700038d4 <__l_vfprintf+0x5d4>
700038d0:	45a0      	cmp	r8, r4
700038d2:	d00e      	beq.n	700038f2 <__l_vfprintf+0x5f2>
700038d4:	4639      	mov	r1, r7
700038d6:	2020      	movs	r0, #32
700038d8:	47b0      	blx	r6
700038da:	3401      	adds	r4, #1
700038dc:	2800      	cmp	r0, #0
700038de:	daf7      	bge.n	700038d0 <__l_vfprintf+0x5d0>
700038e0:	e53d      	b.n	7000335e <__l_vfprintf+0x5e>
700038e2:	f026 0206 	bic.w	r2, r6, #6
700038e6:	f006 0640 	and.w	r6, r6, #64	; 0x40
700038ea:	fa1f fa82 	uxth.w	sl, r2
700038ee:	9602      	str	r6, [sp, #8]
700038f0:	e742      	b.n	70003778 <__l_vfprintf+0x478>
700038f2:	e9dd 3205 	ldrd	r3, r2, [sp, #20]
700038f6:	46dc      	mov	ip, fp
700038f8:	9907      	ldr	r1, [sp, #28]
700038fa:	46b3      	mov	fp, r6
700038fc:	f8dd 8008 	ldr.w	r8, [sp, #8]
70003900:	1a56      	subs	r6, r2, r1
70003902:	4426      	add	r6, r4
70003904:	eba9 0606 	sub.w	r6, r9, r6
70003908:	f1bc 0f00 	cmp.w	ip, #0
7000390c:	f47f af7a 	bne.w	70003804 <__l_vfprintf+0x504>
70003910:	f240 4106 	movw	r1, #1030	; 0x406
70003914:	ea0a 0101 	and.w	r1, sl, r1
70003918:	2900      	cmp	r1, #0
7000391a:	f43f af7f 	beq.w	7000381c <__l_vfprintf+0x51c>
7000391e:	4639      	mov	r1, r7
70003920:	f01a 0f02 	tst.w	sl, #2
70003924:	bf14      	ite	ne
70003926:	202b      	movne	r0, #43	; 0x2b
70003928:	2020      	moveq	r0, #32
7000392a:	9302      	str	r3, [sp, #8]
7000392c:	f41a 6f80 	tst.w	sl, #1024	; 0x400
70003930:	bf18      	it	ne
70003932:	202d      	movne	r0, #45	; 0x2d
70003934:	3401      	adds	r4, #1
70003936:	47d8      	blx	fp
70003938:	9b02      	ldr	r3, [sp, #8]
7000393a:	2800      	cmp	r0, #0
7000393c:	f6bf af6e 	bge.w	7000381c <__l_vfprintf+0x51c>
70003940:	e50d      	b.n	7000335e <__l_vfprintf+0x5e>
70003942:	4628      	mov	r0, r5
70003944:	4639      	mov	r1, r7
70003946:	9302      	str	r3, [sp, #8]
70003948:	47d8      	blx	fp
7000394a:	9b02      	ldr	r3, [sp, #8]
7000394c:	3402      	adds	r4, #2
7000394e:	2800      	cmp	r0, #0
70003950:	f6bf af64 	bge.w	7000381c <__l_vfprintf+0x51c>
70003954:	e503      	b.n	7000335e <__l_vfprintf+0x5e>
70003956:	464b      	mov	r3, r9
70003958:	4656      	mov	r6, sl
7000395a:	f8cd a004 	str.w	sl, [sp, #4]
7000395e:	46d1      	mov	r9, sl
70003960:	469a      	mov	sl, r3
70003962:	e528      	b.n	700033b6 <__l_vfprintf+0xb6>
70003964:	4591      	cmp	r9, r2
70003966:	eba9 0602 	sub.w	r6, r9, r2
7000396a:	bfd8      	it	le
7000396c:	9301      	strle	r3, [sp, #4]
7000396e:	ddcb      	ble.n	70003908 <__l_vfprintf+0x608>
70003970:	199a      	adds	r2, r3, r6
70003972:	2600      	movs	r6, #0
70003974:	9201      	str	r2, [sp, #4]
70003976:	e7c7      	b.n	70003908 <__l_vfprintf+0x608>
70003978:	f01a 0c10 	ands.w	ip, sl, #16
7000397c:	4692      	mov	sl, r2
7000397e:	9a01      	ldr	r2, [sp, #4]
70003980:	f47f af39 	bne.w	700037f6 <__l_vfprintf+0x4f6>
70003984:	e786      	b.n	70003894 <__l_vfprintf+0x594>
70003986:	2308      	movs	r3, #8
70003988:	2500      	movs	r5, #0
7000398a:	e6cd      	b.n	70003728 <__l_vfprintf+0x428>
7000398c:	05b0      	lsls	r0, r6, #22
7000398e:	d525      	bpl.n	700039dc <__l_vfprintf+0x6dc>
70003990:	3307      	adds	r3, #7
70003992:	f023 0307 	bic.w	r3, r3, #7
70003996:	f103 0208 	add.w	r2, r3, #8
7000399a:	9209      	str	r2, [sp, #36]	; 0x24
7000399c:	e9d3 0200 	ldrd	r0, r2, [r3]
700039a0:	e692      	b.n	700036c8 <__l_vfprintf+0x3c8>
700039a2:	464a      	mov	r2, r9
700039a4:	a909      	add	r1, sp, #36	; 0x24
700039a6:	9803      	ldr	r0, [sp, #12]
700039a8:	f7ff fbe4 	bl	70003174 <skip_to_arg>
700039ac:	9b09      	ldr	r3, [sp, #36]	; 0x24
700039ae:	1d1a      	adds	r2, r3, #4
700039b0:	9209      	str	r2, [sp, #36]	; 0x24
700039b2:	f8d3 9000 	ldr.w	r9, [r3]
700039b6:	e4fe      	b.n	700033b6 <__l_vfprintf+0xb6>
700039b8:	f006 0340 	and.w	r3, r6, #64	; 0x40
700039bc:	4240      	negs	r0, r0
700039be:	f44a 6a80 	orr.w	sl, sl, #1024	; 0x400
700039c2:	9302      	str	r3, [sp, #8]
700039c4:	eb62 0142 	sbc.w	r1, r2, r2, lsl #1
700039c8:	e699      	b.n	700036fe <__l_vfprintf+0x3fe>
700039ca:	2200      	movs	r2, #0
700039cc:	f026 0617 	bic.w	r6, r6, #23
700039d0:	4613      	mov	r3, r2
700039d2:	fa1f fa86 	uxth.w	sl, r6
700039d6:	e75d      	b.n	70003894 <__l_vfprintf+0x594>
700039d8:	4604      	mov	r4, r0
700039da:	e4c6      	b.n	7000336a <__l_vfprintf+0x6a>
700039dc:	1d1a      	adds	r2, r3, #4
700039de:	9209      	str	r2, [sp, #36]	; 0x24
700039e0:	6818      	ldr	r0, [r3, #0]
700039e2:	17c2      	asrs	r2, r0, #31
700039e4:	e670      	b.n	700036c8 <__l_vfprintf+0x3c8>
700039e6:	2302      	movs	r3, #2
700039e8:	e69e      	b.n	70003728 <__l_vfprintf+0x428>
700039ea:	f04f 34ff 	mov.w	r4, #4294967295	; 0xffffffff
700039ee:	e4bc      	b.n	7000336a <__l_vfprintf+0x6a>
700039f0:	2200      	movs	r2, #0
700039f2:	f026 0611 	bic.w	r6, r6, #17
700039f6:	4613      	mov	r3, r2
700039f8:	fa1f fa86 	uxth.w	sl, r6
700039fc:	e74a      	b.n	70003894 <__l_vfprintf+0x594>
700039fe:	4611      	mov	r1, r2
70003a00:	f006 0340 	and.w	r3, r6, #64	; 0x40
70003a04:	9302      	str	r3, [sp, #8]
70003a06:	e67a      	b.n	700036fe <__l_vfprintf+0x3fe>
70003a08:	eba9 0602 	sub.w	r6, r9, r2
70003a0c:	e77c      	b.n	70003908 <__l_vfprintf+0x608>
70003a0e:	f1a5 0330 	sub.w	r3, r5, #48	; 0x30
70003a12:	2b09      	cmp	r3, #9
70003a14:	f63f ad79 	bhi.w	7000350a <__l_vfprintf+0x20a>
70003a18:	0675      	lsls	r5, r6, #25
70003a1a:	f57f acc6 	bpl.w	700033aa <__l_vfprintf+0xaa>
70003a1e:	9a01      	ldr	r2, [sp, #4]
70003a20:	eb02 0282 	add.w	r2, r2, r2, lsl #2
70003a24:	eb03 0342 	add.w	r3, r3, r2, lsl #1
70003a28:	9301      	str	r3, [sp, #4]
70003a2a:	e4c4      	b.n	700033b6 <__l_vfprintf+0xb6>
70003a2c:	0000      	movs	r0, r0
	...

70003a30 <__z_arm_int_exit_from_thumb>:
70003a30:	4778      	bx	pc
70003a32:	e7fd      	b.n	70003a30 <__z_arm_int_exit_from_thumb>
70003a34:	eafff57a 	b	70001024 <z_arm_int_exit>

Disassembly of section .boot_section:

00000000 <__boot_spring>:
   0:	e59fd004 	ldr	sp, [pc, #4]	; c <___thread_base_t_user_options_OFFSET>
   4:	fa000024 	blx	9c <MpuP_init>
   8:	ea000054 	b	160 <____start_veneer>
   c:	70009aa8 	.word	0x70009aa8

00000010 <MpuP_setRegion>:
  10:	b5f8      	push	{r3, r4, r5, r6, r7, lr}
  12:	f893 c004 	ldrb.w	ip, [r3, #4]
  16:	f893 e000 	ldrb.w	lr, [r3]
  1a:	79de      	ldrb	r6, [r3, #7]
  1c:	4604      	mov	r4, r0
  1e:	ea4f 3c0c 	mov.w	ip, ip, lsl #12
  22:	7998      	ldrb	r0, [r3, #6]
  24:	0200      	lsls	r0, r0, #8
  26:	f400 60e0 	and.w	r0, r0, #1792	; 0x700
  2a:	f40c 5c80 	and.w	ip, ip, #4096	; 0x1000
  2e:	ea4c 0c00 	orr.w	ip, ip, r0
  32:	7898      	ldrb	r0, [r3, #2]
  34:	f000 0001 	and.w	r0, r0, #1
  38:	ea4c 0c00 	orr.w	ip, ip, r0
  3c:	7958      	ldrb	r0, [r3, #5]
  3e:	00c0      	lsls	r0, r0, #3
  40:	f000 0038 	and.w	r0, r0, #56	; 0x38
  44:	ea4c 0c00 	orr.w	ip, ip, r0
  48:	78d8      	ldrb	r0, [r3, #3]
  4a:	0080      	lsls	r0, r0, #2
  4c:	f000 0004 	and.w	r0, r0, #4
  50:	f002 021f 	and.w	r2, r2, #31
  54:	ea4c 0c00 	orr.w	ip, ip, r0
  58:	f04f 30ff 	mov.w	r0, #4294967295	; 0xffffffff
  5c:	1c55      	adds	r5, r2, #1
  5e:	f00e 0e01 	and.w	lr, lr, #1
  62:	40a8      	lsls	r0, r5
  64:	ea01 0500 	and.w	r5, r1, r0
  68:	7858      	ldrb	r0, [r3, #1]
  6a:	0040      	lsls	r0, r0, #1
  6c:	ea4e 2e06 	orr.w	lr, lr, r6, lsl #8
  70:	f000 0002 	and.w	r0, r0, #2
  74:	ea4c 0600 	orr.w	r6, ip, r0
  78:	ea4e 0742 	orr.w	r7, lr, r2, lsl #1
  7c:	f000 e85c 	blx	138 <MpuP_isEnableAsm>
  80:	4633      	mov	r3, r6
  82:	463a      	mov	r2, r7
  84:	4629      	mov	r1, r5
  86:	4606      	mov	r6, r0
  88:	4620      	mov	r0, r4
  8a:	f000 e860 	blx	14c <MpuP_setRegionAsm>
  8e:	b906      	cbnz	r6, 92 <CONFIG_CONSOLE_INPUT_MAX_LINE_LEN+0x12>
  90:	bdf8      	pop	{r3, r4, r5, r6, r7, pc}
  92:	e8bd 40f8 	ldmia.w	sp!, {r3, r4, r5, r6, r7, lr}
  96:	f000 b867 	b.w	168 <__MpuP_enableAsm_from_thumb>
  9a:	bf00      	nop

0000009c <MpuP_init>:
  9c:	b570      	push	{r4, r5, r6, lr}
  9e:	f000 e830 	blx	100 <MpuP_disableBRAsm>
  a2:	f24b 1614 	movw	r6, #45332	; 0xb114
  a6:	f2c7 0600 	movt	r6, #28672	; 0x7000
  aa:	6833      	ldr	r3, [r6, #0]
  ac:	b163      	cbz	r3, c8 <MpuP_init+0x2c>
  ae:	4c0d      	ldr	r4, [pc, #52]	; (e4 <__data_size+0xc>)
  b0:	2500      	movs	r5, #0
  b2:	4623      	mov	r3, r4
  b4:	4628      	mov	r0, r5
  b6:	e954 1202 	ldrd	r1, r2, [r4, #-8]
  ba:	3501      	adds	r5, #1
  bc:	f7ff ffa8 	bl	10 <MpuP_setRegion>
  c0:	6833      	ldr	r3, [r6, #0]
  c2:	3410      	adds	r4, #16
  c4:	42ab      	cmp	r3, r5
  c6:	d8f4      	bhi.n	b2 <MpuP_init+0x16>
  c8:	6873      	ldr	r3, [r6, #4]
  ca:	b913      	cbnz	r3, d2 <MpuP_init+0x36>
  cc:	68b3      	ldr	r3, [r6, #8]
  ce:	b92b      	cbnz	r3, dc <__data_size+0x4>
  d0:	bd70      	pop	{r4, r5, r6, pc}
  d2:	f000 e82a 	blx	128 <MpuP_enableBRAsm>
  d6:	68b3      	ldr	r3, [r6, #8]
  d8:	2b00      	cmp	r3, #0
  da:	d0f9      	beq.n	d0 <MpuP_init+0x34>
  dc:	e8bd 4070 	ldmia.w	sp!, {r4, r5, r6, lr}
  e0:	f000 b842 	b.w	168 <__MpuP_enableAsm_from_thumb>
  e4:	7000b0cc 	.word	0x7000b0cc

000000e8 <MpuP_disableAsm>:
  e8:	ee110f10 	mrc	15, 0, r0, cr1, cr0, {0}
  ec:	e3c00001 	bic	r0, r0, #1
  f0:	f57ff04f 	dsb	sy
  f4:	ee010f10 	mcr	15, 0, r0, cr1, cr0, {0}
  f8:	f57ff06f 	isb	sy
  fc:	e12fff1e 	bx	lr

00000100 <MpuP_disableBRAsm>:
 100:	ee110f10 	mrc	15, 0, r0, cr1, cr0, {0}
 104:	e3c00802 	bic	r0, r0, #131072	; 0x20000
 108:	ee010f10 	mcr	15, 0, r0, cr1, cr0, {0}
 10c:	e12fff1e 	bx	lr

00000110 <MpuP_enableAsm>:
 110:	ee110f10 	mrc	15, 0, r0, cr1, cr0, {0}
 114:	e3800001 	orr	r0, r0, #1
 118:	f57ff04f 	dsb	sy
 11c:	ee010f10 	mcr	15, 0, r0, cr1, cr0, {0}
 120:	f57ff06f 	isb	sy
 124:	e12fff1e 	bx	lr

00000128 <MpuP_enableBRAsm>:
 128:	ee110f10 	mrc	15, 0, r0, cr1, cr0, {0}
 12c:	e3800802 	orr	r0, r0, #131072	; 0x20000
 130:	ee010f10 	mcr	15, 0, r0, cr1, cr0, {0}
 134:	e12fff1e 	bx	lr

00000138 <MpuP_isEnableAsm>:
 138:	e3a00000 	mov	r0, #0
 13c:	ee111f10 	mrc	15, 0, r1, cr1, cr0, {0}
 140:	e3110001 	tst	r1, #1
 144:	13a00001 	movne	r0, #1
 148:	e12fff1e 	bx	lr

0000014c <MpuP_setRegionAsm>:
 14c:	ee060f12 	mcr	15, 0, r0, cr6, cr2, {0}
 150:	ee061f11 	mcr	15, 0, r1, cr6, cr1, {0}
 154:	ee062f51 	mcr	15, 0, r2, cr6, cr1, {2}
 158:	ee063f91 	mcr	15, 0, r3, cr6, cr1, {4}
 15c:	e12fff1e 	bx	lr

00000160 <____start_veneer>:
 160:	e51ff004 	ldr	pc, [pc, #-4]	; 164 <____start_veneer+0x4>
 164:	70000d00 	.word	0x70000d00

00000168 <__MpuP_enableAsm_from_thumb>:
 168:	4778      	bx	pc
 16a:	e7fd      	b.n	168 <__MpuP_enableAsm_from_thumb>
 16c:	eaffffe7 	b	110 <MpuP_enableAsm>
