Parsed 20951 valid disassembly lines.

Parsed 2689 trace events.

P_HDR Event: Idx:1410 (Pattern: EEEEEEEEEEEEEEE, Function: _vsnprintf)
Executed Assembly Steps:
  1. 70098f00: e92d 43f0    	push.w	{r4, r5, r6, r7, r8, r9, lr}
  2. 70098f04: b0c1         	sub	sp, #0x104
  3. 70098f06: f8dd c120    	ldr.w	r12, [sp, #0x120]
  4. 70098f0a: f8cd c100    	str.w	r12, [sp, #0x100]
  5. 70098f0e: 903f         	str	r0, [sp, #0xfc]
  6. 70098f10: 913e         	str	r1, [sp, #0xf8]
  7. 70098f12: 923d         	str	r2, [sp, #0xf4]
  8. 70098f14: 933c         	str	r3, [sp, #0xf0]
  9. 70098f16: 2000         	movs	r0, #0x0
  10. 70098f18: 9037         	str	r0, [sp, #0xdc]
  11. 70098f1a: 983e         	ldr	r0, [sp, #0xf8]
  12. 70098f1c: b930         	cbnz	r0, 0x70098f2c <_vsnprintf+0x2c> @ imm = #0xc
  13. 70098f2c: e7ff         	b	0x70098f2e <_vsnprintf+0x2e> @ imm = #-0x2
  14. 70098f2e: 983c         	ldr	r0, [sp, #0xf0]
  15. 70098f30: 7800         	ldrb	r0, [r0]

P_HDR Event: Idx:1411 (Pattern: EEEEEEEEEEEEEEE, Function: _vsnprintf)
Executed Assembly Steps:
  1. 70098f32: 2800         	cmp	r0, #0x0
  2. 70098f34: f000 84e3    	beq.w	0x700998fe <_vsnprintf+0x9fe> @ imm = #0x9c6
  3. 700998fe: 983f         	ldr	r0, [sp, #0xfc]
  4. 70099900: 900a         	str	r0, [sp, #0x28]
  5. 70099902: 983e         	ldr	r0, [sp, #0xf8]
  6. 70099904: 900b         	str	r0, [sp, #0x2c]
  7. 70099906: 9837         	ldr	r0, [sp, #0xdc]
  8. 70099908: 993d         	ldr	r1, [sp, #0xf4]
  9. 7009990a: 4288         	cmp	r0, r1
  10. 7009990c: d203         	bhs	0x70099916 <_vsnprintf+0xa16> @ imm = #0x6
  11. 70099916: 983d         	ldr	r0, [sp, #0xf4]
  12. 70099918: 3801         	subs	r0, #0x1
  13. 7009991a: 9009         	str	r0, [sp, #0x24]
  14. 7009991c: e7ff         	b	0x7009991e <_vsnprintf+0xa1e> @ imm = #-0x2
  15. 7009991e: f8dd c028    	ldr.w	r12, [sp, #0x28]

P_HDR Event: Idx:1412 (Pattern: EEEEEEEEEEEEEEE, Function: _vsnprintf)
Executed Assembly Steps:
  1. 70099922: 990b         	ldr	r1, [sp, #0x2c]
  2. 70099924: 9a09         	ldr	r2, [sp, #0x24]
  3. 70099926: 9b3d         	ldr	r3, [sp, #0xf4]
  4. 70099928: 2000         	movs	r0, #0x0
  5. 7009992a: 47e0         	blx	r12
  6. 7009992c: 9837         	ldr	r0, [sp, #0xdc]
  7. 7009992e: b041         	add	sp, #0x104
  8. 70099930: e8bd 83f0    	pop.w	{r4, r5, r6, r7, r8, r9, pc}
  9. 70099934: e1a02001     	mov	r2, r1
  10. 70099938: e3b01000     	movs	r1, #0
  11. 7009993c: ea002d55     	b	0x700a4e98 <TI_memset_small> @ imm = #0xb554
  12. 700a4e98: e3a03000     	mov	r3, #0
  13. 700a4e9c: e1520003     	cmp	r2, r3
  14. 700a4ea0: 012fff1e     	bxeq	lr
  15. 700a4ea4: e7c01003     	strb	r1, [r0, r3]

P_HDR Event: Idx:1413 (Pattern: EEEEEEEEEEEEEEE, Function: _loop)
Executed Assembly Steps:
  1. 700a4ea8: e2833001     	add	r3, r3, #1
  2. 700a4eac: eafffffa     	b	0x700a4e9c <_loop>      @ imm = #-0x18
  3. 700a4e9c: e1520003     	cmp	r2, r3
  4. 700a4ea0: 012fff1e     	bxeq	lr
  5. 700a4ea4: e7c01003     	strb	r1, [r0, r3]
  6. 700a4ea8: e2833001     	add	r3, r3, #1
  7. 700a4eac: eafffffa     	b	0x700a4e9c <_loop>      @ imm = #-0x18
  8. 700a4e9c: e1520003     	cmp	r2, r3
  9. 700a4ea0: 012fff1e     	bxeq	lr
  10. 700a4ea4: e7c01003     	strb	r1, [r0, r3]
  11. 700a4ea8: e2833001     	add	r3, r3, #1
  12. 700a4eac: eafffffa     	b	0x700a4e9c <_loop>      @ imm = #-0x18
  13. 700a4e9c: e1520003     	cmp	r2, r3
  14. 700a4ea0: 012fff1e     	bxeq	lr
  15. 700a4ea4: e7c01003     	strb	r1, [r0, r3]

P_HDR Event: Idx:1414 (Pattern: EEEEEEEEEEEEEEE, Function: _loop)
Executed Assembly Steps:
  1. 700a4ea8: e2833001     	add	r3, r3, #1
  2. 700a4eac: eafffffa     	b	0x700a4e9c <_loop>      @ imm = #-0x18
  3. 700a4e9c: e1520003     	cmp	r2, r3
  4. 700a4ea0: 012fff1e     	bxeq	lr
  5. 700a4ea4: e7c01003     	strb	r1, [r0, r3]
  6. 700a4ea8: e2833001     	add	r3, r3, #1
  7. 700a4eac: eafffffa     	b	0x700a4e9c <_loop>      @ imm = #-0x18
  8. 700a4e9c: e1520003     	cmp	r2, r3
  9. 700a4ea0: 012fff1e     	bxeq	lr
  10. 700a4ea4: e7c01003     	strb	r1, [r0, r3]
  11. 700a4ea8: e2833001     	add	r3, r3, #1
  12. 700a4eac: eafffffa     	b	0x700a4e9c <_loop>      @ imm = #-0x18
  13. 700a4e9c: e1520003     	cmp	r2, r3
  14. 700a4ea0: 012fff1e     	bxeq	lr
  15. 700a4ea4: e7c01003     	strb	r1, [r0, r3]

P_HDR Event: Idx:1415 (Pattern: EEEEEEEEEEEEEEE, Function: _loop)
Executed Assembly Steps:
  1. 700a4ea8: e2833001     	add	r3, r3, #1
  2. 700a4eac: eafffffa     	b	0x700a4e9c <_loop>      @ imm = #-0x18
  3. 700a4e9c: e1520003     	cmp	r2, r3
  4. 700a4ea0: 012fff1e     	bxeq	lr
  5. 700a4ea4: e7c01003     	strb	r1, [r0, r3]
  6. 700a4ea8: e2833001     	add	r3, r3, #1
  7. 700a4eac: eafffffa     	b	0x700a4e9c <_loop>      @ imm = #-0x18
  8. 700a4e9c: e1520003     	cmp	r2, r3
  9. 700a4ea0: 012fff1e     	bxeq	lr
  10. 700a4ea4: e7c01003     	strb	r1, [r0, r3]
  11. 700a4ea8: e2833001     	add	r3, r3, #1
  12. 700a4eac: eafffffa     	b	0x700a4e9c <_loop>      @ imm = #-0x18
  13. 700a4e9c: e1520003     	cmp	r2, r3
  14. 700a4ea0: 012fff1e     	bxeq	lr
  15. 700a4ea4: e7c01003     	strb	r1, [r0, r3]

P_HDR Event: Idx:1416 (Pattern: EEEEEEEEEEEEEEE, Function: _loop)
Executed Assembly Steps:
  1. 700a4ea8: e2833001     	add	r3, r3, #1
  2. 700a4eac: eafffffa     	b	0x700a4e9c <_loop>      @ imm = #-0x18
  3. 700a4e9c: e1520003     	cmp	r2, r3
  4. 700a4ea0: 012fff1e     	bxeq	lr
  5. 700a4ea4: e7c01003     	strb	r1, [r0, r3]
  6. 700a4ea8: e2833001     	add	r3, r3, #1
  7. 700a4eac: eafffffa     	b	0x700a4e9c <_loop>      @ imm = #-0x18
  8. 700a4e9c: e1520003     	cmp	r2, r3
  9. 700a4ea0: 012fff1e     	bxeq	lr
  10. 700a4ea4: e7c01003     	strb	r1, [r0, r3]
  11. 700a4ea8: e2833001     	add	r3, r3, #1
  12. 700a4eac: eafffffa     	b	0x700a4e9c <_loop>      @ imm = #-0x18
  13. 700a4e9c: e1520003     	cmp	r2, r3
  14. 700a4ea0: 012fff1e     	bxeq	lr
  15. 700a4ea4: e7c01003     	strb	r1, [r0, r3]

P_HDR Event: Idx:1417 (Pattern: EEEEEEEEEEEEEEE, Function: _loop)
Executed Assembly Steps:
  1. 700a4ea8: e2833001     	add	r3, r3, #1
  2. 700a4eac: eafffffa     	b	0x700a4e9c <_loop>      @ imm = #-0x18
  3. 700a4e9c: e1520003     	cmp	r2, r3
  4. 700a4ea0: 012fff1e     	bxeq	lr
  5. 700a4ea4: e7c01003     	strb	r1, [r0, r3]
  6. 700a4ea8: e2833001     	add	r3, r3, #1
  7. 700a4eac: eafffffa     	b	0x700a4e9c <_loop>      @ imm = #-0x18
  8. 700a4e9c: e1520003     	cmp	r2, r3
  9. 700a4ea0: 012fff1e     	bxeq	lr
  10. 700a4ea4: e7c01003     	strb	r1, [r0, r3]
  11. 700a4ea8: e2833001     	add	r3, r3, #1
  12. 700a4eac: eafffffa     	b	0x700a4e9c <_loop>      @ imm = #-0x18
  13. 700a4e9c: e1520003     	cmp	r2, r3
  14. 700a4ea0: 012fff1e     	bxeq	lr
  15. 700a4ea4: e7c01003     	strb	r1, [r0, r3]

P_HDR Event: Idx:1418 (Pattern: EEEEEEEEEEEEEEE, Function: _loop)
Executed Assembly Steps:
  1. 700a4ea8: e2833001     	add	r3, r3, #1
  2. 700a4eac: eafffffa     	b	0x700a4e9c <_loop>      @ imm = #-0x18
  3. 700a4e9c: e1520003     	cmp	r2, r3
  4. 700a4ea0: 012fff1e     	bxeq	lr
  5. 700a4ea4: e7c01003     	strb	r1, [r0, r3]
  6. 700a4ea8: e2833001     	add	r3, r3, #1
  7. 700a4eac: eafffffa     	b	0x700a4e9c <_loop>      @ imm = #-0x18
  8. 700a4e9c: e1520003     	cmp	r2, r3
  9. 700a4ea0: 012fff1e     	bxeq	lr
  10. 700a4ea4: e7c01003     	strb	r1, [r0, r3]
  11. 700a4ea8: e2833001     	add	r3, r3, #1
  12. 700a4eac: eafffffa     	b	0x700a4e9c <_loop>      @ imm = #-0x18
  13. 700a4e9c: e1520003     	cmp	r2, r3
  14. 700a4ea0: 012fff1e     	bxeq	lr
  15. 700a4ea4: e7c01003     	strb	r1, [r0, r3]

P_HDR Event: Idx:1419 (Pattern: EEEEEEEEEEEEEEE, Function: _loop)
Executed Assembly Steps:
  1. 700a4ea8: e2833001     	add	r3, r3, #1
  2. 700a4eac: eafffffa     	b	0x700a4e9c <_loop>      @ imm = #-0x18
  3. 700a4e9c: e1520003     	cmp	r2, r3
  4. 700a4ea0: 012fff1e     	bxeq	lr
  5. 700a4ea4: e7c01003     	strb	r1, [r0, r3]
  6. 700a4ea8: e2833001     	add	r3, r3, #1
  7. 700a4eac: eafffffa     	b	0x700a4e9c <_loop>      @ imm = #-0x18
  8. 700a4e9c: e1520003     	cmp	r2, r3
  9. 700a4ea0: 012fff1e     	bxeq	lr
  10. 700a4ea4: e7c01003     	strb	r1, [r0, r3]
  11. 700a4ea8: e2833001     	add	r3, r3, #1
  12. 700a4eac: eafffffa     	b	0x700a4e9c <_loop>      @ imm = #-0x18
  13. 700a4e9c: e1520003     	cmp	r2, r3
  14. 700a4ea0: 012fff1e     	bxeq	lr
  15. 700a4ea4: e7c01003     	strb	r1, [r0, r3]

P_HDR Event: Idx:1420 (Pattern: EEEEEEEEEEEEEEE, Function: _loop)
Executed Assembly Steps:
  1. 700a4ea8: e2833001     	add	r3, r3, #1
  2. 700a4eac: eafffffa     	b	0x700a4e9c <_loop>      @ imm = #-0x18
  3. 700a4e9c: e1520003     	cmp	r2, r3
  4. 700a4ea0: 012fff1e     	bxeq	lr
  5. 700a4ea4: e7c01003     	strb	r1, [r0, r3]
  6. 700a4ea8: e2833001     	add	r3, r3, #1
  7. 700a4eac: eafffffa     	b	0x700a4e9c <_loop>      @ imm = #-0x18
  8. 700a4e9c: e1520003     	cmp	r2, r3
  9. 700a4ea0: 012fff1e     	bxeq	lr
  10. 700a4ea4: e7c01003     	strb	r1, [r0, r3]
  11. 700a4ea8: e2833001     	add	r3, r3, #1
  12. 700a4eac: eafffffa     	b	0x700a4e9c <_loop>      @ imm = #-0x18
  13. 700a4e9c: e1520003     	cmp	r2, r3
  14. 700a4ea0: 012fff1e     	bxeq	lr
  15. 700a4ea4: e7c01003     	strb	r1, [r0, r3]

P_HDR Event: Idx:1421 (Pattern: EEEEEEEEEEEEEEE, Function: _loop)
Executed Assembly Steps:
  1. 700a4ea8: e2833001     	add	r3, r3, #1
  2. 700a4eac: eafffffa     	b	0x700a4e9c <_loop>      @ imm = #-0x18
  3. 700a4e9c: e1520003     	cmp	r2, r3
  4. 700a4ea0: 012fff1e     	bxeq	lr
  5. 700a4ea4: e7c01003     	strb	r1, [r0, r3]
  6. 700a4ea8: e2833001     	add	r3, r3, #1
  7. 700a4eac: eafffffa     	b	0x700a4e9c <_loop>      @ imm = #-0x18
  8. 700a4e9c: e1520003     	cmp	r2, r3
  9. 700a4ea0: 012fff1e     	bxeq	lr
  10. 700a4ea4: e7c01003     	strb	r1, [r0, r3]
  11. 700a4ea8: e2833001     	add	r3, r3, #1
  12. 700a4eac: eafffffa     	b	0x700a4e9c <_loop>      @ imm = #-0x18
  13. 700a4e9c: e1520003     	cmp	r2, r3
  14. 700a4ea0: 012fff1e     	bxeq	lr
  15. 700a4ea4: e7c01003     	strb	r1, [r0, r3]

P_HDR Event: Idx:1422 (Pattern: EEEEE, Function: _loop)
Executed Assembly Steps:
  1. 700a4ea8: e2833001     	add	r3, r3, #1
  2. 700a4eac: eafffffa     	b	0x700a4e9c <_loop>      @ imm = #-0x18
  3. 700a4e9c: e1520003     	cmp	r2, r3
  4. 700a4ea0: 012fff1e     	bxeq	lr
  5. 700a4ea4: e7c01003     	strb	r1, [r0, r3]

Sync: Idx:61040; ID:10;	I_SYNC : Instruction Packet synchronisation.; (Debug Exit); Addr=0x700a3c5c; S;  ISA=Thumb2;

P_HDR Event: Idx:61046 (Pattern: EE, Function: tm_isr_message_handler)
Executed Assembly Steps:
  1. 700a3c5c: f644 61a4    	movw	r1, #0x4ea4
  2. 700a3c60: 2000         	movs	r0, #0x0

Sync: Idx:61047; ID:10;	BRANCH_ADDRESS : Branch address.; Addr=0x700A3C62 ~[0x700A3C62]; S; Exception=Debug Halt; ; Cancel prev instr

Sync: Idx:61053; ID:10;	I_SYNC : Instruction Packet synchronisation.; (Debug Exit); Addr=0x700a3c60; S;  ISA=Thumb2;

P_HDR Event: Idx:61060 (Pattern: EEEEEEEEEEEEEEE, Function: tm_isr_message_handler)
Executed Assembly Steps:
  1. 700a3c60: 2000         	movs	r0, #0x0
  2. 700a3c62: f2c7 0108    	movt	r1, #0x7008
  3. 700a3c66: f001 f82b    	bl	0x700a4cc0 <tm_queue_send> @ imm = #0x1056
  4. 700a4cc0: b580         	push	{r7, lr}
  5. 700a4cc2: f644 62d0    	movw	r2, #0x4ed0
  6. 700a4cc6: 2300         	movs	r3, #0x0
  7. 700a4cc8: f2c7 0208    	movt	r2, #0x7008
  8. 700a4ccc: f852 0020    	ldr.w	r0, [r2, r0, lsl #2]
  9. 700a4cd0: 2200         	movs	r2, #0x0
  10. 700a4cd2: f7f8 feb5    	bl	0x7009da40 <xQueueGenericSend> @ imm = #-0x7296
  11. 7009da40: b580         	push	{r7, lr}
  12. 7009da42: b08a         	sub	sp, #0x28
  13. 7009da44: 9008         	str	r0, [sp, #0x20]
  14. 7009da46: 9107         	str	r1, [sp, #0x1c]
  15. 7009da48: 9206         	str	r2, [sp, #0x18]

P_HDR Event: Idx:61061 (Pattern: EEEEEEEEEEEN, Function: xQueueGenericSend)
Executed Assembly Steps:
  1. 7009da4a: 9305         	str	r3, [sp, #0x14]
  2. 7009da4c: 2000         	movs	r0, #0x0
  3. 7009da4e: 9004         	str	r0, [sp, #0x10]
  4. 7009da50: 9808         	ldr	r0, [sp, #0x20]
  5. 7009da52: 9000         	str	r0, [sp]
  6. 7009da54: e7ff         	b	0x7009da56 <xQueueGenericSend+0x16> @ imm = #-0x2
  7. 7009da56: f006 fc7b    	bl	0x700a4350 <vTaskEnterCritical> @ imm = #0x68f6
  8. 700a4350: b672         	cpsid i
  9. 700a4352: f247 5034    	movw	r0, #0x7534
  10. 700a4356: f2c7 000a    	movt	r0, #0x700a
  11. 700a435a: 6800         	ldr	r0, [r0]
  12. 700a435c: b178         	cbz	r0, 0x700a437e <vTaskEnterCritical+0x2e> @ imm = #0x1e

P_HDR Event: Idx:61062 (Pattern: EEEEEEEEEEN, Function: vTaskEnterCritical)
Executed Assembly Steps:
  1. 700a435e: e7ff         	b	0x700a4360 <vTaskEnterCritical+0x10> @ imm = #-0x2
  2. 700a4360: f247 40f0    	movw	r0, #0x74f0
  3. 700a4364: f2c7 000a    	movt	r0, #0x700a
  4. 700a4368: 6802         	ldr	r2, [r0]
  5. 700a436a: 6d51         	ldr	r1, [r2, #0x54]
  6. 700a436c: 3101         	adds	r1, #0x1
  7. 700a436e: 6551         	str	r1, [r2, #0x54]
  8. 700a4370: 6800         	ldr	r0, [r0]
  9. 700a4372: 6d40         	ldr	r0, [r0, #0x54]
  10. 700a4374: 2801         	cmp	r0, #0x1
  11. 700a4376: d101         	bne	0x700a437c <vTaskEnterCritical+0x2c> @ imm = #0x2

P_HDR Event: Idx:61063 (Pattern: EEEE, Function: vTaskEnterCritical)
Executed Assembly Steps:
  1. 700a4378: e7ff         	b	0x700a437a <vTaskEnterCritical+0x2a> @ imm = #-0x2
  2. 700a437a: e7ff         	b	0x700a437c <vTaskEnterCritical+0x2c> @ imm = #-0x2
  3. 700a437c: e000         	b	0x700a4380 <vTaskEnterCritical+0x30> @ imm = #0x0
  4. 700a4380: 4770         	bx	lr

Sync: Idx:61064; ID:10;	BRANCH_ADDRESS : Branch address.; Addr=0x7009DA5A ~[0x9DA5A];

P_HDR Event: Idx:61067 (Pattern: EEEEEEEEEEEEEE, Function: xQueueGenericSend)
Executed Assembly Steps:
  1. 7009da5a: 9800         	ldr	r0, [sp]
  2. 7009da5c: 6b80         	ldr	r0, [r0, #0x38]
  3. 7009da5e: 9900         	ldr	r1, [sp]
  4. 7009da60: 6bc9         	ldr	r1, [r1, #0x3c]
  5. 7009da62: 4288         	cmp	r0, r1
  6. 7009da64: d304         	blo	0x7009da70 <xQueueGenericSend+0x30> @ imm = #0x8
  7. 7009da70: 9800         	ldr	r0, [sp]
  8. 7009da72: 9907         	ldr	r1, [sp, #0x1c]
  9. 7009da74: 9a05         	ldr	r2, [sp, #0x14]
  10. 7009da76: f001 fddb    	bl	0x7009f630 <prvCopyDataToQueue> @ imm = #0x1bb6
  11. 7009f630: b580         	push	{r7, lr}
  12. 7009f632: b086         	sub	sp, #0x18
  13. 7009f634: 9005         	str	r0, [sp, #0x14]
  14. 7009f636: 9104         	str	r1, [sp, #0x10]

P_HDR Event: Idx:61068 (Pattern: EEEEEEEEEEN, Function: prvCopyDataToQueue)
Executed Assembly Steps:
  1. 7009f638: 9203         	str	r2, [sp, #0xc]
  2. 7009f63a: 2000         	movs	r0, #0x0
  3. 7009f63c: 9002         	str	r0, [sp, #0x8]
  4. 7009f63e: 9805         	ldr	r0, [sp, #0x14]
  5. 7009f640: 6b80         	ldr	r0, [r0, #0x38]
  6. 7009f642: 9001         	str	r0, [sp, #0x4]
  7. 7009f644: 9805         	ldr	r0, [sp, #0x14]
  8. 7009f646: 6c00         	ldr	r0, [r0, #0x40]
  9. 7009f648: b978         	cbnz	r0, 0x7009f66a <prvCopyDataToQueue+0x3a> @ imm = #0x1e
  10. 7009f66a: 9803         	ldr	r0, [sp, #0xc]
  11. 7009f66c: b9b8         	cbnz	r0, 0x7009f69e <prvCopyDataToQueue+0x6e> @ imm = #0x2e

P_HDR Event: Idx:61069 (Pattern: EEEEEE, Function: prvCopyDataToQueue)
Executed Assembly Steps:
  1. 7009f66e: e7ff         	b	0x7009f670 <prvCopyDataToQueue+0x40> @ imm = #-0x2
  2. 7009f670: 9a05         	ldr	r2, [sp, #0x14]
  3. 7009f672: 9904         	ldr	r1, [sp, #0x10]
  4. 7009f674: 6850         	ldr	r0, [r2, #0x4]
  5. 7009f676: 6c12         	ldr	r2, [r2, #0x40]
  6. 7009f678: f7fa ee2e    	blx	0x7009a2d8 <__aeabi_memcpy8> @ imm = #-0x53a4

Sync: Idx:61070; ID:10;	BRANCH_ADDRESS : Branch address.; Addr=0x7009A2D8 ~[0x7009A2D8]; ISA=ARM(32);

P_HDR Event: Idx:61076 (Pattern: EEEN, Function: __aeabi_memcpy8)
Executed Assembly Steps:
  1. 7009a2d8: ea002aaf     	b	0x700a4d9c <TI_memcpy_small> @ imm = #0xaabc
  2. 700a4d9c: e3a0c000     	mov	r12, #0
  3. 700a4da0: e152000c     	cmp	r2, r12
  4. 700a4da4: 012fff1e     	bxeq	lr

P_HDR Event: Idx:61077 (Pattern: EEEEEN, Function: _loop)
Executed Assembly Steps:
  1. 700a4da8: e7d1300c     	ldrb	r3, [r1, r12]
  2. 700a4dac: e7c0300c     	strb	r3, [r0, r12]
  3. 700a4db0: e28cc001     	add	r12, r12, #1
  4. 700a4db4: eafffff9     	b	0x700a4da0 <_loop>      @ imm = #-0x1c
  5. 700a4da0: e152000c     	cmp	r2, r12
  6. 700a4da4: 012fff1e     	bxeq	lr

P_HDR Event: Idx:61078 (Pattern: EEEEEN, Function: _loop)
Executed Assembly Steps:
  1. 700a4da8: e7d1300c     	ldrb	r3, [r1, r12]
  2. 700a4dac: e7c0300c     	strb	r3, [r0, r12]
  3. 700a4db0: e28cc001     	add	r12, r12, #1
  4. 700a4db4: eafffff9     	b	0x700a4da0 <_loop>      @ imm = #-0x1c
  5. 700a4da0: e152000c     	cmp	r2, r12
  6. 700a4da4: 012fff1e     	bxeq	lr

P_HDR Event: Idx:61079 (Pattern: EEEEEN, Function: _loop)
Executed Assembly Steps:
  1. 700a4da8: e7d1300c     	ldrb	r3, [r1, r12]
  2. 700a4dac: e7c0300c     	strb	r3, [r0, r12]
  3. 700a4db0: e28cc001     	add	r12, r12, #1
  4. 700a4db4: eafffff9     	b	0x700a4da0 <_loop>      @ imm = #-0x1c
  5. 700a4da0: e152000c     	cmp	r2, r12
  6. 700a4da4: 012fff1e     	bxeq	lr

P_HDR Event: Idx:61080 (Pattern: EEEEEN, Function: _loop)
Executed Assembly Steps:
  1. 700a4da8: e7d1300c     	ldrb	r3, [r1, r12]
  2. 700a4dac: e7c0300c     	strb	r3, [r0, r12]
  3. 700a4db0: e28cc001     	add	r12, r12, #1
  4. 700a4db4: eafffff9     	b	0x700a4da0 <_loop>      @ imm = #-0x1c
  5. 700a4da0: e152000c     	cmp	r2, r12
  6. 700a4da4: 012fff1e     	bxeq	lr

P_HDR Event: Idx:61081 (Pattern: EEEEEN, Function: _loop)
Executed Assembly Steps:
  1. 700a4da8: e7d1300c     	ldrb	r3, [r1, r12]
  2. 700a4dac: e7c0300c     	strb	r3, [r0, r12]
  3. 700a4db0: e28cc001     	add	r12, r12, #1
  4. 700a4db4: eafffff9     	b	0x700a4da0 <_loop>      @ imm = #-0x1c
  5. 700a4da0: e152000c     	cmp	r2, r12
  6. 700a4da4: 012fff1e     	bxeq	lr

P_HDR Event: Idx:61082 (Pattern: EEEEEN, Function: _loop)
Executed Assembly Steps:
  1. 700a4da8: e7d1300c     	ldrb	r3, [r1, r12]
  2. 700a4dac: e7c0300c     	strb	r3, [r0, r12]
  3. 700a4db0: e28cc001     	add	r12, r12, #1
  4. 700a4db4: eafffff9     	b	0x700a4da0 <_loop>      @ imm = #-0x1c
  5. 700a4da0: e152000c     	cmp	r2, r12
  6. 700a4da4: 012fff1e     	bxeq	lr

P_HDR Event: Idx:61083 (Pattern: EEEEEN, Function: _loop)
Executed Assembly Steps:
  1. 700a4da8: e7d1300c     	ldrb	r3, [r1, r12]
  2. 700a4dac: e7c0300c     	strb	r3, [r0, r12]
  3. 700a4db0: e28cc001     	add	r12, r12, #1
  4. 700a4db4: eafffff9     	b	0x700a4da0 <_loop>      @ imm = #-0x1c
  5. 700a4da0: e152000c     	cmp	r2, r12
  6. 700a4da4: 012fff1e     	bxeq	lr

P_HDR Event: Idx:61084 (Pattern: EEEEEN, Function: _loop)
Executed Assembly Steps:
  1. 700a4da8: e7d1300c     	ldrb	r3, [r1, r12]
  2. 700a4dac: e7c0300c     	strb	r3, [r0, r12]
  3. 700a4db0: e28cc001     	add	r12, r12, #1
  4. 700a4db4: eafffff9     	b	0x700a4da0 <_loop>      @ imm = #-0x1c
  5. 700a4da0: e152000c     	cmp	r2, r12
  6. 700a4da4: 012fff1e     	bxeq	lr

P_HDR Event: Idx:61085 (Pattern: EEEEEN, Function: _loop)
Executed Assembly Steps:
  1. 700a4da8: e7d1300c     	ldrb	r3, [r1, r12]
  2. 700a4dac: e7c0300c     	strb	r3, [r0, r12]
  3. 700a4db0: e28cc001     	add	r12, r12, #1
  4. 700a4db4: eafffff9     	b	0x700a4da0 <_loop>      @ imm = #-0x1c
  5. 700a4da0: e152000c     	cmp	r2, r12
  6. 700a4da4: 012fff1e     	bxeq	lr

P_HDR Event: Idx:61086 (Pattern: EEEEEN, Function: _loop)
Executed Assembly Steps:
  1. 700a4da8: e7d1300c     	ldrb	r3, [r1, r12]
  2. 700a4dac: e7c0300c     	strb	r3, [r0, r12]
  3. 700a4db0: e28cc001     	add	r12, r12, #1
  4. 700a4db4: eafffff9     	b	0x700a4da0 <_loop>      @ imm = #-0x1c
  5. 700a4da0: e152000c     	cmp	r2, r12
  6. 700a4da4: 012fff1e     	bxeq	lr

P_HDR Event: Idx:61088 (Pattern: EEEEEN, Function: _loop)
Executed Assembly Steps:
  1. 700a4da8: e7d1300c     	ldrb	r3, [r1, r12]
  2. 700a4dac: e7c0300c     	strb	r3, [r0, r12]
  3. 700a4db0: e28cc001     	add	r12, r12, #1
  4. 700a4db4: eafffff9     	b	0x700a4da0 <_loop>      @ imm = #-0x1c
  5. 700a4da0: e152000c     	cmp	r2, r12
  6. 700a4da4: 012fff1e     	bxeq	lr

P_HDR Event: Idx:61089 (Pattern: EEEEEN, Function: _loop)
Executed Assembly Steps:
  1. 700a4da8: e7d1300c     	ldrb	r3, [r1, r12]
  2. 700a4dac: e7c0300c     	strb	r3, [r0, r12]
  3. 700a4db0: e28cc001     	add	r12, r12, #1
  4. 700a4db4: eafffff9     	b	0x700a4da0 <_loop>      @ imm = #-0x1c
  5. 700a4da0: e152000c     	cmp	r2, r12
  6. 700a4da4: 012fff1e     	bxeq	lr

P_HDR Event: Idx:61090 (Pattern: EEEEEN, Function: _loop)
Executed Assembly Steps:
  1. 700a4da8: e7d1300c     	ldrb	r3, [r1, r12]
  2. 700a4dac: e7c0300c     	strb	r3, [r0, r12]
  3. 700a4db0: e28cc001     	add	r12, r12, #1
  4. 700a4db4: eafffff9     	b	0x700a4da0 <_loop>      @ imm = #-0x1c
  5. 700a4da0: e152000c     	cmp	r2, r12
  6. 700a4da4: 012fff1e     	bxeq	lr

P_HDR Event: Idx:61091 (Pattern: EEEEEN, Function: _loop)
Executed Assembly Steps:
  1. 700a4da8: e7d1300c     	ldrb	r3, [r1, r12]
  2. 700a4dac: e7c0300c     	strb	r3, [r0, r12]
  3. 700a4db0: e28cc001     	add	r12, r12, #1
  4. 700a4db4: eafffff9     	b	0x700a4da0 <_loop>      @ imm = #-0x1c
  5. 700a4da0: e152000c     	cmp	r2, r12
  6. 700a4da4: 012fff1e     	bxeq	lr

P_HDR Event: Idx:61092 (Pattern: EEEEEN, Function: _loop)
Executed Assembly Steps:
  1. 700a4da8: e7d1300c     	ldrb	r3, [r1, r12]
  2. 700a4dac: e7c0300c     	strb	r3, [r0, r12]
  3. 700a4db0: e28cc001     	add	r12, r12, #1
  4. 700a4db4: eafffff9     	b	0x700a4da0 <_loop>      @ imm = #-0x1c
  5. 700a4da0: e152000c     	cmp	r2, r12
  6. 700a4da4: 012fff1e     	bxeq	lr

P_HDR Event: Idx:61093 (Pattern: EEEEEE, Function: _loop)
Executed Assembly Steps:
  1. 700a4da8: e7d1300c     	ldrb	r3, [r1, r12]
  2. 700a4dac: e7c0300c     	strb	r3, [r0, r12]
  3. 700a4db0: e28cc001     	add	r12, r12, #1
  4. 700a4db4: eafffff9     	b	0x700a4da0 <_loop>      @ imm = #-0x1c
  5. 700a4da0: e152000c     	cmp	r2, r12
  6. 700a4da4: 012fff1e     	bxeq	lr

Sync: Idx:61094; ID:10;	BRANCH_ADDRESS : Branch address.; Addr=0x7009F67C ~[0x7009F67C]; ISA=Thumb2;

P_HDR Event: Idx:61099 (Pattern: EEEEEEEEEEEEEEE, Function: prvCopyDataToQueue)
Executed Assembly Steps:
  1. 7009f67c: 9905         	ldr	r1, [sp, #0x14]
  2. 7009f67e: 6848         	ldr	r0, [r1, #0x4]
  3. 7009f680: 6c0a         	ldr	r2, [r1, #0x40]
  4. 7009f682: 4410         	add	r0, r2
  5. 7009f684: 6048         	str	r0, [r1, #0x4]
  6. 7009f686: 9905         	ldr	r1, [sp, #0x14]
  7. 7009f688: 6848         	ldr	r0, [r1, #0x4]
  8. 7009f68a: 6889         	ldr	r1, [r1, #0x8]
  9. 7009f68c: 4288         	cmp	r0, r1
  10. 7009f68e: d304         	blo	0x7009f69a <prvCopyDataToQueue+0x6a> @ imm = #0x8
  11. 7009f69a: e7ff         	b	0x7009f69c <prvCopyDataToQueue+0x6c> @ imm = #-0x2
  12. 7009f69c: e026         	b	0x7009f6ec <prvCopyDataToQueue+0xbc> @ imm = #0x4c
  13. 7009f6ec: e7ff         	b	0x7009f6ee <prvCopyDataToQueue+0xbe> @ imm = #-0x2
  14. 7009f6ee: 9801         	ldr	r0, [sp, #0x4]
  15. 7009f6f0: 3001         	adds	r0, #0x1

P_HDR Event: Idx:61100 (Pattern: EEEEE, Function: prvCopyDataToQueue)
Executed Assembly Steps:
  1. 7009f6f2: 9905         	ldr	r1, [sp, #0x14]
  2. 7009f6f4: 6388         	str	r0, [r1, #0x38]
  3. 7009f6f6: 9802         	ldr	r0, [sp, #0x8]
  4. 7009f6f8: b006         	add	sp, #0x18
  5. 7009f6fa: bd80         	pop	{r7, pc}

Sync: Idx:61101; ID:10;	BRANCH_ADDRESS : Branch address.; Addr=0x7009DA7A ~[0x1A7A];

P_HDR Event: Idx:61104 (Pattern: EEEEEEEEEEEEN, Function: xQueueGenericSend)
Executed Assembly Steps:
  1. 7009da7a: 9003         	str	r0, [sp, #0xc]
  2. 7009da7c: 9800         	ldr	r0, [sp]
  3. 7009da7e: 6a40         	ldr	r0, [r0, #0x24]
  4. 7009da80: b150         	cbz	r0, 0x7009da98 <xQueueGenericSend+0x58> @ imm = #0x14
  5. 7009da98: 9803         	ldr	r0, [sp, #0xc]
  6. 7009da9a: b110         	cbz	r0, 0x7009daa2 <xQueueGenericSend+0x62> @ imm = #0x4
  7. 7009daa2: e7ff         	b	0x7009daa4 <xQueueGenericSend+0x64> @ imm = #-0x2
  8. 7009daa4: e7ff         	b	0x7009daa6 <xQueueGenericSend+0x66> @ imm = #-0x2
  9. 7009daa6: f005 ff9b    	bl	0x700a39e0 <vTaskExitCritical> @ imm = #0x5f36
  10. 700a39e0: f247 5034    	movw	r0, #0x7534
  11. 700a39e4: f2c7 000a    	movt	r0, #0x700a
  12. 700a39e8: 6800         	ldr	r0, [r0]
  13. 700a39ea: b1d0         	cbz	r0, 0x700a3a22 <vTaskExitCritical+0x42> @ imm = #0x34

P_HDR Event: Idx:61105 (Pattern: EEEEEN, Function: vTaskExitCritical)
Executed Assembly Steps:
  1. 700a39ec: e7ff         	b	0x700a39ee <vTaskExitCritical+0xe> @ imm = #-0x2
  2. 700a39ee: f247 40f0    	movw	r0, #0x74f0
  3. 700a39f2: f2c7 000a    	movt	r0, #0x700a
  4. 700a39f6: 6800         	ldr	r0, [r0]
  5. 700a39f8: 6d40         	ldr	r0, [r0, #0x54]
  6. 700a39fa: b180         	cbz	r0, 0x700a3a1e <vTaskExitCritical+0x3e> @ imm = #0x20

P_HDR Event: Idx:61106 (Pattern: EEEEEEEEEN, Function: vTaskExitCritical)
Executed Assembly Steps:
  1. 700a39fc: e7ff         	b	0x700a39fe <vTaskExitCritical+0x1e> @ imm = #-0x2
  2. 700a39fe: f247 40f0    	movw	r0, #0x74f0
  3. 700a3a02: f2c7 000a    	movt	r0, #0x700a
  4. 700a3a06: 6802         	ldr	r2, [r0]
  5. 700a3a08: 6d51         	ldr	r1, [r2, #0x54]
  6. 700a3a0a: 3901         	subs	r1, #0x1
  7. 700a3a0c: 6551         	str	r1, [r2, #0x54]
  8. 700a3a0e: 6800         	ldr	r0, [r0]
  9. 700a3a10: 6d40         	ldr	r0, [r0, #0x54]
  10. 700a3a12: b910         	cbnz	r0, 0x700a3a1a <vTaskExitCritical+0x3a> @ imm = #0x4

P_HDR Event: Idx:61107 (Pattern: EEEEEE, Function: vTaskExitCritical)
Executed Assembly Steps:
  1. 700a3a14: e7ff         	b	0x700a3a16 <vTaskExitCritical+0x36> @ imm = #-0x2
  2. 700a3a16: b662         	cpsie i
  3. 700a3a18: e000         	b	0x700a3a1c <vTaskExitCritical+0x3c> @ imm = #0x0
  4. 700a3a1c: e000         	b	0x700a3a20 <vTaskExitCritical+0x40> @ imm = #0x0
  5. 700a3a20: e000         	b	0x700a3a24 <vTaskExitCritical+0x44> @ imm = #0x0
  6. 700a3a24: 4770         	bx	lr

Sync: Idx:61108; ID:10;	BRANCH_ADDRESS : Branch address.; Addr=0x7009DAAA ~[0x1AAA];

P_HDR Event: Idx:61110 (Pattern: EEEEEE, Function: xQueueGenericSend)
Executed Assembly Steps:
  1. 7009daaa: 2001         	movs	r0, #0x1
  2. 7009daac: 9009         	str	r0, [sp, #0x24]
  3. 7009daae: e05b         	b	0x7009db68 <xQueueGenericSend+0x128> @ imm = #0xb6
  4. 7009db68: 9809         	ldr	r0, [sp, #0x24]
  5. 7009db6a: b00a         	add	sp, #0x28
  6. 7009db6c: bd80         	pop	{r7, pc}

Sync: Idx:61111; ID:10;	BRANCH_ADDRESS : Branch address.; Addr=0x700A4CD6 ~[0xA4CD6];

P_HDR Event: Idx:61114 (Pattern: EEN, Function: tm_queue_send)
Executed Assembly Steps:
  1. 700a4cd6: 3801         	subs	r0, #0x1
  2. 700a4cd8: bf18         	it	ne
  3. 700a4cda: 2001         	movne	r0, #0x1

P_HDR Event: Idx:61115 (Pattern: E, Function: tm_queue_send)
Executed Assembly Steps:
  1. 700a4cdc: bd80         	pop	{r7, pc}

Sync: Idx:61116; ID:10;	BRANCH_ADDRESS : Branch address.; Addr=0x700A3C6A ~[0xA3C6A];

P_HDR Event: Idx:61120 (Pattern: EE, Function: tm_isr_message_handler)
Executed Assembly Steps:
  1. 700a3c6a: b140         	cbz	r0, 0x700a3c7e <tm_isr_message_handler+0x3e> @ imm = #0x10
  2. 700a3c7e: bd80         	pop	{r7, pc}

Sync: Idx:61121; ID:10;	BRANCH_ADDRESS : Branch address.; Addr=0x700A5984 ~[0xA5984];

P_HDR Event: Idx:61124 (Pattern: EE, Function: HwiP_irq_handler_c)
Executed Assembly Steps:
  1. 700a5984: e7ff         	b	0x700a5986 <HwiP_irq_handler_c+0x56> @ imm = #-0x2
  2. 700a5986: f000 ea9c    	blx	0x700a5ec0 <HwiP_disable> @ imm = #0x538

Sync: Idx:61125; ID:10;	BRANCH_ADDRESS : Branch address.; Addr=0x700A5EC0 ~[0x700A5EC0]; ISA=ARM(32);

P_HDR Event: Idx:61130 (Pattern: EEEE, Function: HwiP_disable)
Executed Assembly Steps:
  1. 700a5ec0: e10f0000     	mrs	r0, apsr
  2. 700a5ec4: e380c080     	orr	r12, r0, #128
  3. 700a5ec8: e129f00c     	msr	CPSR_fc, r12
  4. 700a5ecc: e12fff1e     	bx	lr

Sync: Idx:61131; ID:10;	BRANCH_ADDRESS : Branch address.; Addr=0x700A598A ~[0x700A598A]; ISA=Thumb2;

P_HDR Event: Idx:61137 (Pattern: EN, Function: HwiP_irq_handler_c)
Executed Assembly Steps:
  1. 700a598a: 9803         	ldr	r0, [sp, #0xc]
  2. 700a598c: b920         	cbnz	r0, 0x700a5998 <HwiP_irq_handler_c+0x68> @ imm = #0x8

P_HDR Event: Idx:61138 (Pattern: EEEEEEEEEEEEEEE, Function: HwiP_irq_handler_c)
Executed Assembly Steps:
  1. 700a598e: e7ff         	b	0x700a5990 <HwiP_irq_handler_c+0x60> @ imm = #-0x2
  2. 700a5990: 9804         	ldr	r0, [sp, #0x10]
  3. 700a5992: f7ff fd4d    	bl	0x700a5430 <HwiP_clearInt> @ imm = #-0x566
  4. 700a5430: b083         	sub	sp, #0xc
  5. 700a5432: 9002         	str	r0, [sp, #0x8]
  6. 700a5434: f247 40e4    	movw	r0, #0x74e4
  7. 700a5438: f2c7 000a    	movt	r0, #0x700a
  8. 700a543c: 6801         	ldr	r1, [r0]
  9. 700a543e: 9802         	ldr	r0, [sp, #0x8]
  10. 700a5440: f400 70f0    	and	r0, r0, #0x1e0
  11. 700a5444: 4408         	add	r0, r1
  12. 700a5446: f200 4004    	addw	r0, r0, #0x404
  13. 700a544a: 9001         	str	r0, [sp, #0x4]
  14. 700a544c: 9802         	ldr	r0, [sp, #0x8]
  15. 700a544e: f000 001f    	and	r0, r0, #0x1f

P_HDR Event: Idx:61139 (Pattern: EEEEEEEE, Function: HwiP_clearInt)
Executed Assembly Steps:
  1. 700a5452: 9000         	str	r0, [sp]
  2. 700a5454: 9900         	ldr	r1, [sp]
  3. 700a5456: 2001         	movs	r0, #0x1
  4. 700a5458: 4088         	lsls	r0, r1
  5. 700a545a: 9901         	ldr	r1, [sp, #0x4]
  6. 700a545c: 6008         	str	r0, [r1]
  7. 700a545e: b003         	add	sp, #0xc
  8. 700a5460: 4770         	bx	lr

Sync: Idx:61140; ID:10;	BRANCH_ADDRESS : Branch address.; Addr=0x700A5996 ~[0x16];

P_HDR Event: Idx:61141 (Pattern: EEEEEEEEEEEEEEE, Function: HwiP_irq_handler_c)
Executed Assembly Steps:
  1. 700a5996: e7ff         	b	0x700a5998 <HwiP_irq_handler_c+0x68> @ imm = #-0x2
  2. 700a5998: 9804         	ldr	r0, [sp, #0x10]
  3. 700a599a: f000 f859    	bl	0x700a5a50 <HwiP_ackIRQ> @ imm = #0xb2
  4. 700a5a50: b082         	sub	sp, #0x8
  5. 700a5a52: 9001         	str	r0, [sp, #0x4]
  6. 700a5a54: f247 40e4    	movw	r0, #0x74e4
  7. 700a5a58: f2c7 000a    	movt	r0, #0x700a
  8. 700a5a5c: 6800         	ldr	r0, [r0]
  9. 700a5a5e: 3018         	adds	r0, #0x18
  10. 700a5a60: 9000         	str	r0, [sp]
  11. 700a5a62: 9801         	ldr	r0, [sp, #0x4]
  12. 700a5a64: 9900         	ldr	r1, [sp]
  13. 700a5a66: 6008         	str	r0, [r1]
  14. 700a5a68: b002         	add	sp, #0x8
  15. 700a5a6a: 4770         	bx	lr

Sync: Idx:61142; ID:10;	BRANCH_ADDRESS : Branch address.; Addr=0x700A599E ~[0x1E];

P_HDR Event: Idx:61143 (Pattern: EEE, Function: HwiP_irq_handler_c)
Executed Assembly Steps:
  1. 700a599e: e00c         	b	0x700a59ba <HwiP_irq_handler_c+0x8a> @ imm = #0x18
  2. 700a59ba: b006         	add	sp, #0x18
  3. 700a59bc: bd80         	pop	{r7, pc}

Sync: Idx:61144; ID:10;	BRANCH_ADDRESS : Branch address.; Addr=0x700A5DC8 ~[0x700A5DC8]; ISA=ARM(32);

P_HDR Event: Idx:61149 (Pattern: EEEEEEEEEEN, Function: HwiP_irq_handler)
Executed Assembly Steps:
  1. 700a5dc8: e8bd401f     	pop	{r0, r1, r2, r3, r4, lr}
  2. 700a5dcc: e08dd002     	add	sp, sp, r2
  3. 700a5dd0: f10c0080     	cpsid	i
  4. 700a5dd4: f57ff04f     	dsb	sy
  5. 700a5dd8: f57ff06f     	isb	sy
  6. 700a5ddc: e49d0004     	ldr	r0, [sp], #4
  7. 700a5de0: ecbd0b20     	vpop	{d0, d1, d2, d3, d4, d5, d6, d7, d8, d9, d10, d11, d12, d13, d14, d15}
  8. 700a5de4: eee10a10     	vmsr	fpscr, r0
  9. 700a5de8: e5831000     	str	r1, [r3]
  10. 700a5dec: e3510000     	cmp	r1, #0
  11. 700a5df0: 1a000003     	bne	0x700a5e04 <exit_without_switch> @ imm = #0xc

P_HDR Event: Idx:61150 (Pattern: EEEN, Function: HwiP_irq_handler)
Executed Assembly Steps:
  1. 700a5df4: e59f10c0     	ldr	r1, [pc, #0xc0]         @ 0x700a5ebc <vApplicationIRQHandlerConst+0x4>
  2. 700a5df8: e5910000     	ldr	r0, [r1]
  3. 700a5dfc: e3500000     	cmp	r0, #0
  4. 700a5e00: 1a000005     	bne	0x700a5e1c <switch_before_exit> @ imm = #0x14

P_HDR Event: Idx:61152 (Pattern: EEEEEE, Function: exit_without_switch)
Executed Assembly Steps:
  1. 700a5e04: e8bd101f     	pop	{r0, r1, r2, r3, r4, r12}
  2. 700a5e08: f1020012     	cps	#0x12
  3. 700a5e0c: e49de004     	ldr	lr, [sp], #4
  4. 700a5e10: e16ff00e     	msr	SPSR_fsxc, lr
  5. 700a5e14: e49de004     	ldr	lr, [sp], #4
  6. 700a5e18: e1b0f00e     	movs	pc, lr

Sync: Idx:61153; ID:10;	BRANCH_ADDRESS : Branch address.; Addr=0x700A5D7C ~[0x700A5D7C]; S; Exception=IRQ;

P_HDR Event: Idx:61159 (Pattern: EEEEEEEEEEEEEEE, Function: HwiP_irq_handler)
Executed Assembly Steps:
  1. 700a5d7c: e24ee004     	sub	lr, lr, #4
  2. 700a5d80: e52de004     	str	lr, [sp, #-0x4]!
  3. 700a5d84: e14fe000     	mrs	lr, spsr
  4. 700a5d88: e52de004     	str	lr, [sp, #-0x4]!
  5. 700a5d8c: f1020013     	cps	#0x13
  6. 700a5d90: e92d101f     	push	{r0, r1, r2, r3, r4, r12}
  7. 700a5d94: e59f3118     	ldr	r3, [pc, #0x118]        @ 0x700a5eb4 <ulPortInterruptNestingConst>
  8. 700a5d98: e5931000     	ldr	r1, [r3]
  9. 700a5d9c: e2814001     	add	r4, r1, #1
  10. 700a5da0: e5834000     	str	r4, [r3]
  11. 700a5da4: eef10a10     	vmrs	r0, fpscr
  12. 700a5da8: ed2d0b20     	vpush	{d0, d1, d2, d3, d4, d5, d6, d7, d8, d9, d10, d11, d12, d13, d14, d15}
  13. 700a5dac: e52d0004     	str	r0, [sp, #-0x4]!
  14. 700a5db0: e1a0200d     	mov	r2, sp
  15. 700a5db4: e2022004     	and	r2, r2, #4

P_HDR Event: Idx:61160 (Pattern: EEEE, Function: HwiP_irq_handler)
Executed Assembly Steps:
  1. 700a5db8: e04dd002     	sub	sp, sp, r2
  2. 700a5dbc: e92d401f     	push	{r0, r1, r2, r3, r4, lr}
  3. 700a5dc0: e59f10f0     	ldr	r1, [pc, #0xf0]         @ 0x700a5eb8 <vApplicationIRQHandlerConst>
  4. 700a5dc4: e12fff31     	blx	r1

Sync: Idx:61161; ID:10;	BRANCH_ADDRESS : Branch address.; Addr=0x700A5930 ~[0x700A5930]; ISA=Thumb2;

P_HDR Event: Idx:61166 (Pattern: EEEEEEEEEEEEEEE, Function: HwiP_irq_handler_c)
Executed Assembly Steps:
  1. 700a5930: b580         	push	{r7, lr}
  2. 700a5932: b086         	sub	sp, #0x18
  3. 700a5934: a804         	add	r0, sp, #0x10
  4. 700a5936: f000 f843    	bl	0x700a59c0 <HwiP_getIRQ> @ imm = #0x86
  5. 700a59c0: b084         	sub	sp, #0x10
  6. 700a59c2: 9003         	str	r0, [sp, #0xc]
  7. 700a59c4: f04f 30ff    	mov.w	r0, #0xffffffff
  8. 700a59c8: 9001         	str	r0, [sp, #0x4]
  9. 700a59ca: 9903         	ldr	r1, [sp, #0xc]
  10. 700a59cc: 2000         	movs	r0, #0x0
  11. 700a59ce: 6008         	str	r0, [r1]
  12. 700a59d0: f247 40e4    	movw	r0, #0x74e4
  13. 700a59d4: f2c7 000a    	movt	r0, #0x700a
  14. 700a59d8: 6800         	ldr	r0, [r0]
  15. 700a59da: 3020         	adds	r0, #0x20

P_HDR Event: Idx:61168 (Pattern: EEEEEEEN, Function: HwiP_getIRQ)
Executed Assembly Steps:
  1. 700a59dc: 9002         	str	r0, [sp, #0x8]
  2. 700a59de: 9802         	ldr	r0, [sp, #0x8]
  3. 700a59e0: 6800         	ldr	r0, [r0]
  4. 700a59e2: 9000         	str	r0, [sp]
  5. 700a59e4: f89d 0003    	ldrb.w	r0, [sp, #0x3]
  6. 700a59e8: 0600         	lsls	r0, r0, #0x18
  7. 700a59ea: 2800         	cmp	r0, #0x0
  8. 700a59ec: d508         	bpl	0x700a5a00 <HwiP_getIRQ+0x40> @ imm = #0x10

P_HDR Event: Idx:61169 (Pattern: EEEEEEEEEEE, Function: HwiP_getIRQ)
Executed Assembly Steps:
  1. 700a59ee: e7ff         	b	0x700a59f0 <HwiP_getIRQ+0x30> @ imm = #-0x2
  2. 700a59f0: 9800         	ldr	r0, [sp]
  3. 700a59f2: f36f 205f    	bfc	r0, #9, #23
  4. 700a59f6: 9903         	ldr	r1, [sp, #0xc]
  5. 700a59f8: 6008         	str	r0, [r1]
  6. 700a59fa: 2000         	movs	r0, #0x0
  7. 700a59fc: 9001         	str	r0, [sp, #0x4]
  8. 700a59fe: e7ff         	b	0x700a5a00 <HwiP_getIRQ+0x40> @ imm = #-0x2
  9. 700a5a00: 9801         	ldr	r0, [sp, #0x4]
  10. 700a5a02: b004         	add	sp, #0x10
  11. 700a5a04: 4770         	bx	lr

Sync: Idx:61170; ID:10;	BRANCH_ADDRESS : Branch address.; Addr=0x700A593A ~[0x3A];

P_HDR Event: Idx:61171 (Pattern: EEN, Function: HwiP_irq_handler_c)
Executed Assembly Steps:
  1. 700a593a: 9005         	str	r0, [sp, #0x14]
  2. 700a593c: 9805         	ldr	r0, [sp, #0x14]
  3. 700a593e: bb78         	cbnz	r0, 0x700a59a0 <HwiP_irq_handler_c+0x70> @ imm = #0x5e

P_HDR Event: Idx:61172 (Pattern: EEEEEEEEEEEEEEE, Function: HwiP_irq_handler_c)
Executed Assembly Steps:
  1. 700a5940: e7ff         	b	0x700a5942 <HwiP_irq_handler_c+0x12> @ imm = #-0x2
  2. 700a5942: 9804         	ldr	r0, [sp, #0x10]
  3. 700a5944: f000 f864    	bl	0x700a5a10 <HwiP_isPulse> @ imm = #0xc8
  4. 700a5a10: b083         	sub	sp, #0xc
  5. 700a5a12: 9002         	str	r0, [sp, #0x8]
  6. 700a5a14: f247 40e4    	movw	r0, #0x74e4
  7. 700a5a18: f2c7 000a    	movt	r0, #0x700a
  8. 700a5a1c: 6801         	ldr	r1, [r0]
  9. 700a5a1e: 9802         	ldr	r0, [sp, #0x8]
  10. 700a5a20: f400 70f0    	and	r0, r0, #0x1e0
  11. 700a5a24: 4408         	add	r0, r1
  12. 700a5a26: f200 401c    	addw	r0, r0, #0x41c
  13. 700a5a2a: 9001         	str	r0, [sp, #0x4]
  14. 700a5a2c: 9802         	ldr	r0, [sp, #0x8]
  15. 700a5a2e: f000 001f    	and	r0, r0, #0x1f

P_HDR Event: Idx:61173 (Pattern: EEEEEEEE, Function: HwiP_isPulse)
Executed Assembly Steps:
  1. 700a5a32: 9000         	str	r0, [sp]
  2. 700a5a34: 9801         	ldr	r0, [sp, #0x4]
  3. 700a5a36: 6800         	ldr	r0, [r0]
  4. 700a5a38: 9900         	ldr	r1, [sp]
  5. 700a5a3a: 40c8         	lsrs	r0, r1
  6. 700a5a3c: f000 0001    	and	r0, r0, #0x1
  7. 700a5a40: b003         	add	sp, #0xc
  8. 700a5a42: 4770         	bx	lr

Sync: Idx:61174; ID:10;	BRANCH_ADDRESS : Branch address.; Addr=0x700A5948 ~[0x48];

P_HDR Event: Idx:61175 (Pattern: EEEEEEEEEEEEE, Function: HwiP_irq_handler_c)
Executed Assembly Steps:
  1. 700a5948: 9003         	str	r0, [sp, #0xc]
  2. 700a594a: 9803         	ldr	r0, [sp, #0xc]
  3. 700a594c: b120         	cbz	r0, 0x700a5958 <HwiP_irq_handler_c+0x28> @ imm = #0x8
  4. 700a5958: 9904         	ldr	r1, [sp, #0x10]
  5. 700a595a: f240 0000    	movw	r0, #0x0
  6. 700a595e: f2c7 0008    	movt	r0, #0x7008
  7. 700a5962: f850 1021    	ldr.w	r1, [r0, r1, lsl #2]
  8. 700a5966: 9102         	str	r1, [sp, #0x8]
  9. 700a5968: 9904         	ldr	r1, [sp, #0x10]
  10. 700a596a: eb00 0081    	add.w	r0, r0, r1, lsl #2
  11. 700a596e: f8d0 0800    	ldr.w	r0, [r0, #0x800]
  12. 700a5972: 9001         	str	r0, [sp, #0x4]
  13. 700a5974: f000 eab4    	blx	0x700a5ee0 <HwiP_enable> @ imm = #0x568

Sync: Idx:61176; ID:10;	BRANCH_ADDRESS : Branch address.; Addr=0x700A5EE0 ~[0x700A5EE0]; ISA=ARM(32);

P_HDR Event: Idx:61181 (Pattern: EEEE, Function: HwiP_enable)
Executed Assembly Steps:
  1. 700a5ee0: e10f0000     	mrs	r0, apsr
  2. 700a5ee4: e3c0c080     	bic	r12, r0, #128
  3. 700a5ee8: e129f00c     	msr	CPSR_fc, r12
  4. 700a5eec: e12fff1e     	bx	lr

Sync: Idx:61182; ID:10;	BRANCH_ADDRESS : Branch address.; Addr=0x700A5978 ~[0x700A5978]; ISA=Thumb2;

P_HDR Event: Idx:61188 (Pattern: EN, Function: HwiP_irq_handler_c)
Executed Assembly Steps:
  1. 700a5978: 9802         	ldr	r0, [sp, #0x8]
  2. 700a597a: b120         	cbz	r0, 0x700a5986 <HwiP_irq_handler_c+0x56> @ imm = #0x8

P_HDR Event: Idx:61189 (Pattern: EEEE, Function: HwiP_irq_handler_c)
Executed Assembly Steps:
  1. 700a597c: e7ff         	b	0x700a597e <HwiP_irq_handler_c+0x4e> @ imm = #-0x2
  2. 700a597e: 9902         	ldr	r1, [sp, #0x8]
  3. 700a5980: 9801         	ldr	r0, [sp, #0x4]
  4. 700a5982: 4788         	blx	r1

Sync: Idx:61190; ID:10;	BRANCH_ADDRESS : Branch address.; Addr=0x700A42D0 ~[0x2D0];

P_HDR Event: Idx:61192 (Pattern: EEEEEEEEEEEEEEE, Function: ClockP_timerTickIsr)
Executed Assembly Steps:
  1. 700a42d0: b580         	push	{r7, lr}
  2. 700a42d2: b082         	sub	sp, #0x8
  3. 700a42d4: 9001         	str	r0, [sp, #0x4]
  4. 700a42d6: f644 51b0    	movw	r1, #0x4db0
  5. 700a42da: f2c7 0108    	movt	r1, #0x7008
  6. 700a42de: 680a         	ldr	r2, [r1]
  7. 700a42e0: 6848         	ldr	r0, [r1, #0x4]
  8. 700a42e2: 3201         	adds	r2, #0x1
  9. 700a42e4: f140 0000    	adc	r0, r0, #0x0
  10. 700a42e8: 600a         	str	r2, [r1]
  11. 700a42ea: 6048         	str	r0, [r1, #0x4]
  12. 700a42ec: f7ff ffb8    	bl	0x700a4260 <vPortTimerTickHandler> @ imm = #-0x90
  13. 700a4260: b580         	push	{r7, lr}
  14. 700a4262: f000 f875    	bl	0x700a4350 <vTaskEnterCritical> @ imm = #0xea
  15. 700a4350: b672         	cpsid i

P_HDR Event: Idx:61193 (Pattern: EEEN, Function: vTaskEnterCritical)
Executed Assembly Steps:
  1. 700a4352: f247 5034    	movw	r0, #0x7534
  2. 700a4356: f2c7 000a    	movt	r0, #0x700a
  3. 700a435a: 6800         	ldr	r0, [r0]
  4. 700a435c: b178         	cbz	r0, 0x700a437e <vTaskEnterCritical+0x2e> @ imm = #0x1e

P_HDR Event: Idx:61194 (Pattern: EEEEEEEEEEN, Function: vTaskEnterCritical)
Executed Assembly Steps:
  1. 700a435e: e7ff         	b	0x700a4360 <vTaskEnterCritical+0x10> @ imm = #-0x2
  2. 700a4360: f247 40f0    	movw	r0, #0x74f0
  3. 700a4364: f2c7 000a    	movt	r0, #0x700a
  4. 700a4368: 6802         	ldr	r2, [r0]
  5. 700a436a: 6d51         	ldr	r1, [r2, #0x54]
  6. 700a436c: 3101         	adds	r1, #0x1
  7. 700a436e: 6551         	str	r1, [r2, #0x54]
  8. 700a4370: 6800         	ldr	r0, [r0]
  9. 700a4372: 6d40         	ldr	r0, [r0, #0x54]
  10. 700a4374: 2801         	cmp	r0, #0x1
  11. 700a4376: d101         	bne	0x700a437c <vTaskEnterCritical+0x2c> @ imm = #0x2

P_HDR Event: Idx:61195 (Pattern: EEEE, Function: vTaskEnterCritical)
Executed Assembly Steps:
  1. 700a4378: e7ff         	b	0x700a437a <vTaskEnterCritical+0x2a> @ imm = #-0x2
  2. 700a437a: e7ff         	b	0x700a437c <vTaskEnterCritical+0x2c> @ imm = #-0x2
  3. 700a437c: e000         	b	0x700a4380 <vTaskEnterCritical+0x30> @ imm = #0x0
  4. 700a4380: 4770         	bx	lr

Sync: Idx:61196; ID:10;	BRANCH_ADDRESS : Branch address.; Addr=0x700A4266 ~[0x266];

P_HDR Event: Idx:61198 (Pattern: EEEEN, Function: vPortTimerTickHandler)
Executed Assembly Steps:
  1. 700a4266: f247 5004    	movw	r0, #0x7504
  2. 700a426a: f2c7 000a    	movt	r0, #0x700a
  3. 700a426e: 6800         	ldr	r0, [r0]
  4. 700a4270: 2801         	cmp	r0, #0x1
  5. 700a4272: d10c         	bne	0x700a428e <vPortTimerTickHandler+0x2e> @ imm = #0x18

P_HDR Event: Idx:61200 (Pattern: EEEEEEEEEEN, Function: vPortTimerTickHandler)
Executed Assembly Steps:
  1. 700a4274: e7ff         	b	0x700a4276 <vPortTimerTickHandler+0x16> @ imm = #-0x2
  2. 700a4276: f7f8 fb43    	bl	0x7009c900 <xTaskIncrementTick> @ imm = #-0x797a
  3. 7009c900: b580         	push	{r7, lr}
  4. 7009c902: b086         	sub	sp, #0x18
  5. 7009c904: 2000         	movs	r0, #0x0
  6. 7009c906: 9003         	str	r0, [sp, #0xc]
  7. 7009c908: f247 5018    	movw	r0, #0x7518
  8. 7009c90c: f2c7 000a    	movt	r0, #0x700a
  9. 7009c910: 6800         	ldr	r0, [r0]
  10. 7009c912: 2800         	cmp	r0, #0x0
  11. 7009c914: f040 80a3    	bne.w	0x7009ca5e <xTaskIncrementTick+0x15e> @ imm = #0x146

P_HDR Event: Idx:61201 (Pattern: EEEEEEEEEEEEEEE, Function: xTaskIncrementTick)
Executed Assembly Steps:
  1. 7009c918: e7ff         	b	0x7009c91a <xTaskIncrementTick+0x1a> @ imm = #-0x2
  2. 7009c91a: f247 5138    	movw	r1, #0x7538
  3. 7009c91e: f2c7 010a    	movt	r1, #0x700a
  4. 7009c922: 6808         	ldr	r0, [r1]
  5. 7009c924: 3001         	adds	r0, #0x1
  6. 7009c926: 9002         	str	r0, [sp, #0x8]
  7. 7009c928: 9802         	ldr	r0, [sp, #0x8]
  8. 7009c92a: 6008         	str	r0, [r1]
  9. 7009c92c: 9802         	ldr	r0, [sp, #0x8]
  10. 7009c92e: b9c0         	cbnz	r0, 0x7009c962 <xTaskIncrementTick+0x62> @ imm = #0x30
  11. 7009c962: e7ff         	b	0x7009c964 <xTaskIncrementTick+0x64> @ imm = #-0x2
  12. 7009c964: 9802         	ldr	r0, [sp, #0x8]
  13. 7009c966: f247 5128    	movw	r1, #0x7528
  14. 7009c96a: f2c7 010a    	movt	r1, #0x700a
  15. 7009c96e: 6809         	ldr	r1, [r1]

P_HDR Event: Idx:61202 (Pattern: EEEEEEEEEEE, Function: xTaskIncrementTick)
Executed Assembly Steps:
  1. 7009c970: 4288         	cmp	r0, r1
  2. 7009c972: d368         	blo	0x7009ca46 <xTaskIncrementTick+0x146> @ imm = #0xd0
  3. 7009ca46: f247 5044    	movw	r0, #0x7544
  4. 7009ca4a: f2c7 000a    	movt	r0, #0x700a
  5. 7009ca4e: 6800         	ldr	r0, [r0]
  6. 7009ca50: b118         	cbz	r0, 0x7009ca5a <xTaskIncrementTick+0x15a> @ imm = #0x6
  7. 7009ca5a: e7ff         	b	0x7009ca5c <xTaskIncrementTick+0x15c> @ imm = #-0x2
  8. 7009ca5c: e007         	b	0x7009ca6e <xTaskIncrementTick+0x16e> @ imm = #0xe
  9. 7009ca6e: 9803         	ldr	r0, [sp, #0xc]
  10. 7009ca70: b006         	add	sp, #0x18
  11. 7009ca72: bd80         	pop	{r7, pc}

Sync: Idx:61203; ID:10;	BRANCH_ADDRESS : Branch address.; Addr=0x700A427A ~[0x7A];

P_HDR Event: Idx:61204 (Pattern: EEEEEEN, Function: vPortTimerTickHandler)
Executed Assembly Steps:
  1. 700a427a: b138         	cbz	r0, 0x700a428c <vPortTimerTickHandler+0x2c> @ imm = #0xe
  2. 700a428c: e7ff         	b	0x700a428e <vPortTimerTickHandler+0x2e> @ imm = #-0x2
  3. 700a428e: f7ff fba7    	bl	0x700a39e0 <vTaskExitCritical> @ imm = #-0x8b2
  4. 700a39e0: f247 5034    	movw	r0, #0x7534
  5. 700a39e4: f2c7 000a    	movt	r0, #0x700a
  6. 700a39e8: 6800         	ldr	r0, [r0]
  7. 700a39ea: b1d0         	cbz	r0, 0x700a3a22 <vTaskExitCritical+0x42> @ imm = #0x34

P_HDR Event: Idx:61205 (Pattern: EEEEEN, Function: vTaskExitCritical)
Executed Assembly Steps:
  1. 700a39ec: e7ff         	b	0x700a39ee <vTaskExitCritical+0xe> @ imm = #-0x2
  2. 700a39ee: f247 40f0    	movw	r0, #0x74f0
  3. 700a39f2: f2c7 000a    	movt	r0, #0x700a
  4. 700a39f6: 6800         	ldr	r0, [r0]
  5. 700a39f8: 6d40         	ldr	r0, [r0, #0x54]
  6. 700a39fa: b180         	cbz	r0, 0x700a3a1e <vTaskExitCritical+0x3e> @ imm = #0x20

P_HDR Event: Idx:61206 (Pattern: EEEEEEEEEN, Function: vTaskExitCritical)
Executed Assembly Steps:
  1. 700a39fc: e7ff         	b	0x700a39fe <vTaskExitCritical+0x1e> @ imm = #-0x2
  2. 700a39fe: f247 40f0    	movw	r0, #0x74f0
  3. 700a3a02: f2c7 000a    	movt	r0, #0x700a
  4. 700a3a06: 6802         	ldr	r2, [r0]
  5. 700a3a08: 6d51         	ldr	r1, [r2, #0x54]
  6. 700a3a0a: 3901         	subs	r1, #0x1
  7. 700a3a0c: 6551         	str	r1, [r2, #0x54]
  8. 700a3a0e: 6800         	ldr	r0, [r0]
  9. 700a3a10: 6d40         	ldr	r0, [r0, #0x54]
  10. 700a3a12: b910         	cbnz	r0, 0x700a3a1a <vTaskExitCritical+0x3a> @ imm = #0x4

P_HDR Event: Idx:61207 (Pattern: EEEEEE, Function: vTaskExitCritical)
Executed Assembly Steps:
  1. 700a3a14: e7ff         	b	0x700a3a16 <vTaskExitCritical+0x36> @ imm = #-0x2
  2. 700a3a16: b662         	cpsie i
  3. 700a3a18: e000         	b	0x700a3a1c <vTaskExitCritical+0x3c> @ imm = #0x0
  4. 700a3a1c: e000         	b	0x700a3a20 <vTaskExitCritical+0x40> @ imm = #0x0
  5. 700a3a20: e000         	b	0x700a3a24 <vTaskExitCritical+0x44> @ imm = #0x0
  6. 700a3a24: 4770         	bx	lr

Sync: Idx:61208; ID:10;	BRANCH_ADDRESS : Branch address.; Addr=0x700A4292 ~[0x292];

P_HDR Event: Idx:61210 (Pattern: E, Function: vPortTimerTickHandler)
Executed Assembly Steps:
  1. 700a4292: bd80         	pop	{r7, pc}

Sync: Idx:61211; ID:10;	BRANCH_ADDRESS : Branch address.; Addr=0x700A42F0 ~[0x70];

P_HDR Event: Idx:61212 (Pattern: EEEEEEEEEEEEEEE, Function: ClockP_timerTickIsr)
Executed Assembly Steps:
  1. 700a42f0: f247 4010    	movw	r0, #0x7410
  2. 700a42f4: f2c7 000a    	movt	r0, #0x700a
  3. 700a42f8: 6800         	ldr	r0, [r0]
  4. 700a42fa: f000 ff41    	bl	0x700a5180 <ClockP_timerClearOverflowInt> @ imm = #0xe82
  5. 700a5180: b580         	push	{r7, lr}
  6. 700a5182: b082         	sub	sp, #0x8
  7. 700a5184: 9001         	str	r0, [sp, #0x4]
  8. 700a5186: 9801         	ldr	r0, [sp, #0x4]
  9. 700a5188: f7ff fa72    	bl	0x700a4670 <TimerP_clearOverflowInt> @ imm = #-0xb1c
  10. 700a4670: b083         	sub	sp, #0xc
  11. 700a4672: 9002         	str	r0, [sp, #0x8]
  12. 700a4674: 2002         	movs	r0, #0x2
  13. 700a4676: 9000         	str	r0, [sp]
  14. 700a4678: 9802         	ldr	r0, [sp, #0x8]
  15. 700a467a: 3028         	adds	r0, #0x28

P_HDR Event: Idx:61213 (Pattern: EEEEEEEEEEE, Function: TimerP_clearOverflowInt)
Executed Assembly Steps:
  1. 700a467c: 9001         	str	r0, [sp, #0x4]
  2. 700a467e: 9800         	ldr	r0, [sp]
  3. 700a4680: 9901         	ldr	r1, [sp, #0x4]
  4. 700a4682: 6008         	str	r0, [r1]
  5. 700a4684: 9801         	ldr	r0, [sp, #0x4]
  6. 700a4686: 6800         	ldr	r0, [r0]
  7. 700a4688: 9900         	ldr	r1, [sp]
  8. 700a468a: 4208         	tst	r0, r1
  9. 700a468c: d004         	beq	0x700a4698 <TimerP_clearOverflowInt+0x28> @ imm = #0x8
  10. 700a4698: b003         	add	sp, #0xc
  11. 700a469a: 4770         	bx	lr

Sync: Idx:61214; ID:10;	BRANCH_ADDRESS : Branch address.; Addr=0x700A518C ~[0x118C];

P_HDR Event: Idx:61217 (Pattern: EE, Function: ClockP_timerClearOverflowInt)
Executed Assembly Steps:
  1. 700a518c: b002         	add	sp, #0x8
  2. 700a518e: bd80         	pop	{r7, pc}

Sync: Idx:61218; ID:10;	BRANCH_ADDRESS : Branch address.; Addr=0x700A42FE ~[0x2FE];

P_HDR Event: Idx:61220 (Pattern: EE, Function: ClockP_timerTickIsr)
Executed Assembly Steps:
  1. 700a42fe: b002         	add	sp, #0x8
  2. 700a4300: bd80         	pop	{r7, pc}

Sync: Idx:61221; ID:10;	BRANCH_ADDRESS : Branch address.; Addr=0x700A5984 ~[0x1984];

P_HDR Event: Idx:61223 (Pattern: EE, Function: HwiP_irq_handler_c)
Executed Assembly Steps:
  1. 700a5984: e7ff         	b	0x700a5986 <HwiP_irq_handler_c+0x56> @ imm = #-0x2
  2. 700a5986: f000 ea9c    	blx	0x700a5ec0 <HwiP_disable> @ imm = #0x538

Sync: Idx:61224; ID:10;	BRANCH_ADDRESS : Branch address.; Addr=0x700A5EC0 ~[0x700A5EC0]; ISA=ARM(32);

P_HDR Event: Idx:61229 (Pattern: EEEE, Function: HwiP_disable)
Executed Assembly Steps:
  1. 700a5ec0: e10f0000     	mrs	r0, apsr
  2. 700a5ec4: e380c080     	orr	r12, r0, #128
  3. 700a5ec8: e129f00c     	msr	CPSR_fc, r12
  4. 700a5ecc: e12fff1e     	bx	lr

Sync: Idx:61230; ID:10;	BRANCH_ADDRESS : Branch address.; Addr=0x700A598A ~[0x700A598A]; ISA=Thumb2;

P_HDR Event: Idx:61236 (Pattern: EN, Function: HwiP_irq_handler_c)
Executed Assembly Steps:
  1. 700a598a: 9803         	ldr	r0, [sp, #0xc]
  2. 700a598c: b920         	cbnz	r0, 0x700a5998 <HwiP_irq_handler_c+0x68> @ imm = #0x8

P_HDR Event: Idx:61237 (Pattern: EEEEEEEEEEEEEEE, Function: HwiP_irq_handler_c)
Executed Assembly Steps:
  1. 700a598e: e7ff         	b	0x700a5990 <HwiP_irq_handler_c+0x60> @ imm = #-0x2
  2. 700a5990: 9804         	ldr	r0, [sp, #0x10]
  3. 700a5992: f7ff fd4d    	bl	0x700a5430 <HwiP_clearInt> @ imm = #-0x566
  4. 700a5430: b083         	sub	sp, #0xc
  5. 700a5432: 9002         	str	r0, [sp, #0x8]
  6. 700a5434: f247 40e4    	movw	r0, #0x74e4
  7. 700a5438: f2c7 000a    	movt	r0, #0x700a
  8. 700a543c: 6801         	ldr	r1, [r0]
  9. 700a543e: 9802         	ldr	r0, [sp, #0x8]
  10. 700a5440: f400 70f0    	and	r0, r0, #0x1e0
  11. 700a5444: 4408         	add	r0, r1
  12. 700a5446: f200 4004    	addw	r0, r0, #0x404
  13. 700a544a: 9001         	str	r0, [sp, #0x4]
  14. 700a544c: 9802         	ldr	r0, [sp, #0x8]
  15. 700a544e: f000 001f    	and	r0, r0, #0x1f

P_HDR Event: Idx:61238 (Pattern: EEEEEEEE, Function: HwiP_clearInt)
Executed Assembly Steps:
  1. 700a5452: 9000         	str	r0, [sp]
  2. 700a5454: 9900         	ldr	r1, [sp]
  3. 700a5456: 2001         	movs	r0, #0x1
  4. 700a5458: 4088         	lsls	r0, r1
  5. 700a545a: 9901         	ldr	r1, [sp, #0x4]
  6. 700a545c: 6008         	str	r0, [r1]
  7. 700a545e: b003         	add	sp, #0xc
  8. 700a5460: 4770         	bx	lr

Sync: Idx:61239; ID:10;	BRANCH_ADDRESS : Branch address.; Addr=0x700A5996 ~[0x16];

P_HDR Event: Idx:61240 (Pattern: EEEEEEEEEEEEEEE, Function: HwiP_irq_handler_c)
Executed Assembly Steps:
  1. 700a5996: e7ff         	b	0x700a5998 <HwiP_irq_handler_c+0x68> @ imm = #-0x2
  2. 700a5998: 9804         	ldr	r0, [sp, #0x10]
  3. 700a599a: f000 f859    	bl	0x700a5a50 <HwiP_ackIRQ> @ imm = #0xb2
  4. 700a5a50: b082         	sub	sp, #0x8
  5. 700a5a52: 9001         	str	r0, [sp, #0x4]
  6. 700a5a54: f247 40e4    	movw	r0, #0x74e4
  7. 700a5a58: f2c7 000a    	movt	r0, #0x700a
  8. 700a5a5c: 6800         	ldr	r0, [r0]
  9. 700a5a5e: 3018         	adds	r0, #0x18
  10. 700a5a60: 9000         	str	r0, [sp]
  11. 700a5a62: 9801         	ldr	r0, [sp, #0x4]
  12. 700a5a64: 9900         	ldr	r1, [sp]
  13. 700a5a66: 6008         	str	r0, [r1]
  14. 700a5a68: b002         	add	sp, #0x8
  15. 700a5a6a: 4770         	bx	lr

Sync: Idx:61241; ID:10;	BRANCH_ADDRESS : Branch address.; Addr=0x700A599E ~[0x1E];

P_HDR Event: Idx:61242 (Pattern: EEE, Function: HwiP_irq_handler_c)
Executed Assembly Steps:
  1. 700a599e: e00c         	b	0x700a59ba <HwiP_irq_handler_c+0x8a> @ imm = #0x18
  2. 700a59ba: b006         	add	sp, #0x18
  3. 700a59bc: bd80         	pop	{r7, pc}

Sync: Idx:61243; ID:10;	BRANCH_ADDRESS : Branch address.; Addr=0x700A5DC8 ~[0x700A5DC8]; ISA=ARM(32);

P_HDR Event: Idx:61249 (Pattern: EEEEEEEEEEN, Function: HwiP_irq_handler)
Executed Assembly Steps:
  1. 700a5dc8: e8bd401f     	pop	{r0, r1, r2, r3, r4, lr}
  2. 700a5dcc: e08dd002     	add	sp, sp, r2
  3. 700a5dd0: f10c0080     	cpsid	i
  4. 700a5dd4: f57ff04f     	dsb	sy
  5. 700a5dd8: f57ff06f     	isb	sy
  6. 700a5ddc: e49d0004     	ldr	r0, [sp], #4
  7. 700a5de0: ecbd0b20     	vpop	{d0, d1, d2, d3, d4, d5, d6, d7, d8, d9, d10, d11, d12, d13, d14, d15}
  8. 700a5de4: eee10a10     	vmsr	fpscr, r0
  9. 700a5de8: e5831000     	str	r1, [r3]
  10. 700a5dec: e3510000     	cmp	r1, #0
  11. 700a5df0: 1a000003     	bne	0x700a5e04 <exit_without_switch> @ imm = #0xc

P_HDR Event: Idx:61250 (Pattern: EEEN, Function: HwiP_irq_handler)
Executed Assembly Steps:
  1. 700a5df4: e59f10c0     	ldr	r1, [pc, #0xc0]         @ 0x700a5ebc <vApplicationIRQHandlerConst+0x4>
  2. 700a5df8: e5910000     	ldr	r0, [r1]
  3. 700a5dfc: e3500000     	cmp	r0, #0
  4. 700a5e00: 1a000005     	bne	0x700a5e1c <switch_before_exit> @ imm = #0x14

P_HDR Event: Idx:61251 (Pattern: EEEEEE, Function: exit_without_switch)
Executed Assembly Steps:
  1. 700a5e04: e8bd101f     	pop	{r0, r1, r2, r3, r4, r12}
  2. 700a5e08: f1020012     	cps	#0x12
  3. 700a5e0c: e49de004     	ldr	lr, [sp], #4
  4. 700a5e10: e16ff00e     	msr	SPSR_fsxc, lr
  5. 700a5e14: e49de004     	ldr	lr, [sp], #4
  6. 700a5e18: e1b0f00e     	movs	pc, lr

Sync: Idx:61252; ID:10;	BRANCH_ADDRESS : Branch address.; Addr=0x700A5294 ~[0x700A5294]; ISA=Thumb2;

P_HDR Event: Idx:61257 (Pattern: EE, Function: Hwip_dataAndInstructionBarrier)
Executed Assembly Steps:
  1. 700a5294: f3bf 8f4f    	dsb	sy
  2. 700a5298: 4770         	bx	lr

Sync: Idx:61258; ID:10;	BRANCH_ADDRESS : Branch address.; Addr=0x700A54A4 ~[0x14A4];

P_HDR Event: Idx:61260 (Pattern: EE, Function: HwiP_post)
Executed Assembly Steps:
  1. 700a54a4: b004         	add	sp, #0x10
  2. 700a54a6: bd80         	pop	{r7, pc}

Sync: Idx:61261; ID:10;	BRANCH_ADDRESS : Branch address.; Addr=0x700A51F6 ~[0x11F6];

P_HDR Event: Idx:61264 (Pattern: EEEEEEEEEEEEE, Function: tm_interrupt_simulator_thread_entry)
Executed Assembly Steps:
  1. 700a51f6: 2001         	movs	r0, #0x1
  2. 700a51f8: e8bd 4080    	pop.w	{r7, lr}
  3. 700a51fc: f7ff bc88    	b.w	0x700a4b10 <tm_thread_exit> @ imm = #-0x6f0
  4. 700a4b10: b580         	push	{r7, lr}
  5. 700a4b12: f000 fa75    	bl	0x700a5000 <xTaskGetCurrentTaskHandle> @ imm = #0x4ea
  6. 700a5000: b081         	sub	sp, #0x4
  7. 700a5002: f247 40f0    	movw	r0, #0x74f0
  8. 700a5006: f2c7 000a    	movt	r0, #0x700a
  9. 700a500a: 6800         	ldr	r0, [r0]
  10. 700a500c: 9000         	str	r0, [sp]
  11. 700a500e: 9800         	ldr	r0, [sp]
  12. 700a5010: b001         	add	sp, #0x4
  13. 700a5012: 4770         	bx	lr

Sync: Idx:61265; ID:10;	BRANCH_ADDRESS : Branch address.; Addr=0x700A4B16 ~[0xB16];

P_HDR Event: Idx:61267 (Pattern: N, Function: tm_thread_exit)
Executed Assembly Steps:
  1. 700a4b16: b120         	cbz	r0, 0x700a4b22 <tm_thread_exit+0x12> @ imm = #0x8

P_HDR Event: Idx:61268 (Pattern: EEEEEEEEEEEN, Function: tm_thread_exit)
Executed Assembly Steps:
  1. 700a4b18: 2000         	movs	r0, #0x0
  2. 700a4b1a: e8bd 4080    	pop.w	{r7, lr}
  3. 700a4b1e: f7fa bae7    	b.w	0x7009f0f0 <vTaskDelete> @ imm = #-0x5a32
  4. 7009f0f0: b580         	push	{r7, lr}
  5. 7009f0f2: b084         	sub	sp, #0x10
  6. 7009f0f4: 9003         	str	r0, [sp, #0xc]
  7. 7009f0f6: f005 f92b    	bl	0x700a4350 <vTaskEnterCritical> @ imm = #0x5256
  8. 700a4350: b672         	cpsid i
  9. 700a4352: f247 5034    	movw	r0, #0x7534
  10. 700a4356: f2c7 000a    	movt	r0, #0x700a
  11. 700a435a: 6800         	ldr	r0, [r0]
  12. 700a435c: b178         	cbz	r0, 0x700a437e <vTaskEnterCritical+0x2e> @ imm = #0x1e

P_HDR Event: Idx:61269 (Pattern: EEEEEEEEEEN, Function: vTaskEnterCritical)
Executed Assembly Steps:
  1. 700a435e: e7ff         	b	0x700a4360 <vTaskEnterCritical+0x10> @ imm = #-0x2
  2. 700a4360: f247 40f0    	movw	r0, #0x74f0
  3. 700a4364: f2c7 000a    	movt	r0, #0x700a
  4. 700a4368: 6802         	ldr	r2, [r0]
  5. 700a436a: 6d51         	ldr	r1, [r2, #0x54]
  6. 700a436c: 3101         	adds	r1, #0x1
  7. 700a436e: 6551         	str	r1, [r2, #0x54]
  8. 700a4370: 6800         	ldr	r0, [r0]
  9. 700a4372: 6d40         	ldr	r0, [r0, #0x54]
  10. 700a4374: 2801         	cmp	r0, #0x1
  11. 700a4376: d101         	bne	0x700a437c <vTaskEnterCritical+0x2c> @ imm = #0x2

P_HDR Event: Idx:61270 (Pattern: EEEE, Function: vTaskEnterCritical)
Executed Assembly Steps:
  1. 700a4378: e7ff         	b	0x700a437a <vTaskEnterCritical+0x2a> @ imm = #-0x2
  2. 700a437a: e7ff         	b	0x700a437c <vTaskEnterCritical+0x2c> @ imm = #-0x2
  3. 700a437c: e000         	b	0x700a4380 <vTaskEnterCritical+0x30> @ imm = #0x0
  4. 700a4380: 4770         	bx	lr

Sync: Idx:61271; ID:10;	BRANCH_ADDRESS : Branch address.; Addr=0x7009F0FA ~[0x9F0FA];

P_HDR Event: Idx:61274 (Pattern: EN, Function: vTaskDelete)
Executed Assembly Steps:
  1. 7009f0fa: 9803         	ldr	r0, [sp, #0xc]
  2. 7009f0fc: b938         	cbnz	r0, 0x7009f10e <vTaskDelete+0x1e> @ imm = #0xe

P_HDR Event: Idx:61275 (Pattern: EEEEEEEEEEEEEEE, Function: vTaskDelete)
Executed Assembly Steps:
  1. 7009f0fe: e7ff         	b	0x7009f100 <vTaskDelete+0x10> @ imm = #-0x2
  2. 7009f100: f247 40f0    	movw	r0, #0x74f0
  3. 7009f104: f2c7 000a    	movt	r0, #0x700a
  4. 7009f108: 6800         	ldr	r0, [r0]
  5. 7009f10a: 9001         	str	r0, [sp, #0x4]
  6. 7009f10c: e002         	b	0x7009f114 <vTaskDelete+0x24> @ imm = #0x4
  7. 7009f114: 9801         	ldr	r0, [sp, #0x4]
  8. 7009f116: 9002         	str	r0, [sp, #0x8]
  9. 7009f118: 9802         	ldr	r0, [sp, #0x8]
  10. 7009f11a: 3004         	adds	r0, #0x4
  11. 7009f11c: f004 fb70    	bl	0x700a3800 <uxListRemove> @ imm = #0x46e0
  12. 700a3800: b082         	sub	sp, #0x8
  13. 700a3802: 9001         	str	r0, [sp, #0x4]
  14. 700a3804: 9801         	ldr	r0, [sp, #0x4]
  15. 700a3806: 6900         	ldr	r0, [r0, #0x10]

P_HDR Event: Idx:61276 (Pattern: EEEEEEEEEEEEEN, Function: uxListRemove)
Executed Assembly Steps:
  1. 700a3808: 9000         	str	r0, [sp]
  2. 700a380a: 9801         	ldr	r0, [sp, #0x4]
  3. 700a380c: 6841         	ldr	r1, [r0, #0x4]
  4. 700a380e: 6880         	ldr	r0, [r0, #0x8]
  5. 700a3810: 6088         	str	r0, [r1, #0x8]
  6. 700a3812: 9901         	ldr	r1, [sp, #0x4]
  7. 700a3814: 6848         	ldr	r0, [r1, #0x4]
  8. 700a3816: 6889         	ldr	r1, [r1, #0x8]
  9. 700a3818: 6048         	str	r0, [r1, #0x4]
  10. 700a381a: 9800         	ldr	r0, [sp]
  11. 700a381c: 6840         	ldr	r0, [r0, #0x4]
  12. 700a381e: 9901         	ldr	r1, [sp, #0x4]
  13. 700a3820: 4288         	cmp	r0, r1
  14. 700a3822: d105         	bne	0x700a3830 <uxListRemove+0x30> @ imm = #0xa

P_HDR Event: Idx:61277 (Pattern: EEEEEEEEEEEEEE, Function: uxListRemove)
Executed Assembly Steps:
  1. 700a3824: e7ff         	b	0x700a3826 <uxListRemove+0x26> @ imm = #-0x2
  2. 700a3826: 9801         	ldr	r0, [sp, #0x4]
  3. 700a3828: 6880         	ldr	r0, [r0, #0x8]
  4. 700a382a: 9900         	ldr	r1, [sp]
  5. 700a382c: 6048         	str	r0, [r1, #0x4]
  6. 700a382e: e000         	b	0x700a3832 <uxListRemove+0x32> @ imm = #0x0
  7. 700a3832: 9901         	ldr	r1, [sp, #0x4]
  8. 700a3834: 2000         	movs	r0, #0x0
  9. 700a3836: 6108         	str	r0, [r1, #0x10]
  10. 700a3838: 9900         	ldr	r1, [sp]
  11. 700a383a: 6808         	ldr	r0, [r1]
  12. 700a383c: 3801         	subs	r0, #0x1
  13. 700a383e: 6008         	str	r0, [r1]
  14. 700a3840: 9800         	ldr	r0, [sp]

P_HDR Event: Idx:61278 (Pattern: EEE, Function: uxListRemove)
Executed Assembly Steps:
  1. 700a3842: 6800         	ldr	r0, [r0]
  2. 700a3844: b002         	add	sp, #0x8
  3. 700a3846: 4770         	bx	lr

Sync: Idx:61280; ID:10;	BRANCH_ADDRESS : Branch address.; Addr=0x7009F120 ~[0x3120];

P_HDR Event: Idx:61282 (Pattern: N, Function: vTaskDelete)
Executed Assembly Steps:
  1. 7009f120: b908         	cbnz	r0, 0x7009f126 <vTaskDelete+0x36> @ imm = #0x2

P_HDR Event: Idx:61283 (Pattern: EEEEEEEEEEEEEEE, Function: vTaskDelete)
Executed Assembly Steps:
  1. 7009f122: e7ff         	b	0x7009f124 <vTaskDelete+0x34> @ imm = #-0x2
  2. 7009f124: e000         	b	0x7009f128 <vTaskDelete+0x38> @ imm = #0x0
  3. 7009f128: 9802         	ldr	r0, [sp, #0x8]
  4. 7009f12a: 6a80         	ldr	r0, [r0, #0x28]
  5. 7009f12c: b128         	cbz	r0, 0x7009f13a <vTaskDelete+0x4a> @ imm = #0xa
  6. 7009f13a: e7ff         	b	0x7009f13c <vTaskDelete+0x4c> @ imm = #-0x2
  7. 7009f13c: f247 511c    	movw	r1, #0x751c
  8. 7009f140: f2c7 010a    	movt	r1, #0x700a
  9. 7009f144: 6808         	ldr	r0, [r1]
  10. 7009f146: 3001         	adds	r0, #0x1
  11. 7009f148: 6008         	str	r0, [r1]
  12. 7009f14a: 9802         	ldr	r0, [sp, #0x8]
  13. 7009f14c: f247 41f0    	movw	r1, #0x74f0
  14. 7009f150: f2c7 010a    	movt	r1, #0x700a
  15. 7009f154: 6809         	ldr	r1, [r1]

P_HDR Event: Idx:61286 (Pattern: EN, Function: vTaskDelete)
Executed Assembly Steps:
  1. 7009f156: 4288         	cmp	r0, r1
  2. 7009f158: d110         	bne	0x7009f17c <vTaskDelete+0x8c> @ imm = #0x20

P_HDR Event: Idx:61287 (Pattern: EEEEEEEEEEEEEEE, Function: vTaskDelete)
Executed Assembly Steps:
  1. 7009f15a: e7ff         	b	0x7009f15c <vTaskDelete+0x6c> @ imm = #-0x2
  2. 7009f15c: 9802         	ldr	r0, [sp, #0x8]
  3. 7009f15e: 1d01         	adds	r1, r0, #0x4
  4. 7009f160: f644 6080    	movw	r0, #0x4e80
  5. 7009f164: f2c7 0008    	movt	r0, #0x7008
  6. 7009f168: f004 feaa    	bl	0x700a3ec0 <vListInsertEnd> @ imm = #0x4d54
  7. 700a3ec0: b083         	sub	sp, #0xc
  8. 700a3ec2: 9002         	str	r0, [sp, #0x8]
  9. 700a3ec4: 9101         	str	r1, [sp, #0x4]
  10. 700a3ec6: 9802         	ldr	r0, [sp, #0x8]
  11. 700a3ec8: 6840         	ldr	r0, [r0, #0x4]
  12. 700a3eca: 9000         	str	r0, [sp]
  13. 700a3ecc: 9800         	ldr	r0, [sp]
  14. 700a3ece: 9901         	ldr	r1, [sp, #0x4]
  15. 700a3ed0: 6048         	str	r0, [r1, #0x4]

P_HDR Event: Idx:61288 (Pattern: EEEEEEEEEEEEEEE, Function: vListInsertEnd)
Executed Assembly Steps:
  1. 700a3ed2: 9800         	ldr	r0, [sp]
  2. 700a3ed4: 6880         	ldr	r0, [r0, #0x8]
  3. 700a3ed6: 9901         	ldr	r1, [sp, #0x4]
  4. 700a3ed8: 6088         	str	r0, [r1, #0x8]
  5. 700a3eda: 9801         	ldr	r0, [sp, #0x4]
  6. 700a3edc: 9900         	ldr	r1, [sp]
  7. 700a3ede: 6889         	ldr	r1, [r1, #0x8]
  8. 700a3ee0: 6048         	str	r0, [r1, #0x4]
  9. 700a3ee2: 9801         	ldr	r0, [sp, #0x4]
  10. 700a3ee4: 9900         	ldr	r1, [sp]
  11. 700a3ee6: 6088         	str	r0, [r1, #0x8]
  12. 700a3ee8: 9802         	ldr	r0, [sp, #0x8]
  13. 700a3eea: 9901         	ldr	r1, [sp, #0x4]
  14. 700a3eec: 6108         	str	r0, [r1, #0x10]
  15. 700a3eee: 9902         	ldr	r1, [sp, #0x8]

P_HDR Event: Idx:61289 (Pattern: EEEEE, Function: vListInsertEnd)
Executed Assembly Steps:
  1. 700a3ef0: 6808         	ldr	r0, [r1]
  2. 700a3ef2: 3001         	adds	r0, #0x1
  3. 700a3ef4: 6008         	str	r0, [r1]
  4. 700a3ef6: b003         	add	sp, #0xc
  5. 700a3ef8: 4770         	bx	lr

Sync: Idx:61290; ID:10;	BRANCH_ADDRESS : Branch address.; Addr=0x7009F16C ~[0x6C];

P_HDR Event: Idx:61291 (Pattern: EEEEEEEEEEN, Function: vTaskDelete)
Executed Assembly Steps:
  1. 7009f16c: f247 5114    	movw	r1, #0x7514
  2. 7009f170: f2c7 010a    	movt	r1, #0x700a
  3. 7009f174: 6808         	ldr	r0, [r1]
  4. 7009f176: 3001         	adds	r0, #0x1
  5. 7009f178: 6008         	str	r0, [r1]
  6. 7009f17a: e00c         	b	0x7009f196 <vTaskDelete+0xa6> @ imm = #0x18
  7. 7009f196: f004 fc23    	bl	0x700a39e0 <vTaskExitCritical> @ imm = #0x4846
  8. 700a39e0: f247 5034    	movw	r0, #0x7534
  9. 700a39e4: f2c7 000a    	movt	r0, #0x700a
  10. 700a39e8: 6800         	ldr	r0, [r0]
  11. 700a39ea: b1d0         	cbz	r0, 0x700a3a22 <vTaskExitCritical+0x42> @ imm = #0x34

P_HDR Event: Idx:61292 (Pattern: EEEEEN, Function: vTaskExitCritical)
Executed Assembly Steps:
  1. 700a39ec: e7ff         	b	0x700a39ee <vTaskExitCritical+0xe> @ imm = #-0x2
  2. 700a39ee: f247 40f0    	movw	r0, #0x74f0
  3. 700a39f2: f2c7 000a    	movt	r0, #0x700a
  4. 700a39f6: 6800         	ldr	r0, [r0]
  5. 700a39f8: 6d40         	ldr	r0, [r0, #0x54]
  6. 700a39fa: b180         	cbz	r0, 0x700a3a1e <vTaskExitCritical+0x3e> @ imm = #0x20

P_HDR Event: Idx:61293 (Pattern: EEEEEEEEEN, Function: vTaskExitCritical)
Executed Assembly Steps:
  1. 700a39fc: e7ff         	b	0x700a39fe <vTaskExitCritical+0x1e> @ imm = #-0x2
  2. 700a39fe: f247 40f0    	movw	r0, #0x74f0
  3. 700a3a02: f2c7 000a    	movt	r0, #0x700a
  4. 700a3a06: 6802         	ldr	r2, [r0]
  5. 700a3a08: 6d51         	ldr	r1, [r2, #0x54]
  6. 700a3a0a: 3901         	subs	r1, #0x1
  7. 700a3a0c: 6551         	str	r1, [r2, #0x54]
  8. 700a3a0e: 6800         	ldr	r0, [r0]
  9. 700a3a10: 6d40         	ldr	r0, [r0, #0x54]
  10. 700a3a12: b910         	cbnz	r0, 0x700a3a1a <vTaskExitCritical+0x3a> @ imm = #0x4

P_HDR Event: Idx:61296 (Pattern: EEEEEE, Function: vTaskExitCritical)
Executed Assembly Steps:
  1. 700a3a14: e7ff         	b	0x700a3a16 <vTaskExitCritical+0x36> @ imm = #-0x2
  2. 700a3a16: b662         	cpsie i
  3. 700a3a18: e000         	b	0x700a3a1c <vTaskExitCritical+0x3c> @ imm = #0x0
  4. 700a3a1c: e000         	b	0x700a3a20 <vTaskExitCritical+0x40> @ imm = #0x0
  5. 700a3a20: e000         	b	0x700a3a24 <vTaskExitCritical+0x44> @ imm = #0x0
  6. 700a3a24: 4770         	bx	lr

Sync: Idx:61297; ID:10;	BRANCH_ADDRESS : Branch address.; Addr=0x7009F19A ~[0x319A];

P_HDR Event: Idx:61299 (Pattern: EEEN, Function: vTaskDelete)
Executed Assembly Steps:
  1. 7009f19a: f247 5034    	movw	r0, #0x7534
  2. 7009f19e: f2c7 000a    	movt	r0, #0x700a
  3. 7009f1a2: 6800         	ldr	r0, [r0]
  4. 7009f1a4: b168         	cbz	r0, 0x7009f1c2 <vTaskDelete+0xd2> @ imm = #0x1a

P_HDR Event: Idx:61300 (Pattern: EEEEEEN, Function: vTaskDelete)
Executed Assembly Steps:
  1. 7009f1a6: e7ff         	b	0x7009f1a8 <vTaskDelete+0xb8> @ imm = #-0x2
  2. 7009f1a8: 9802         	ldr	r0, [sp, #0x8]
  3. 7009f1aa: f247 41f0    	movw	r1, #0x74f0
  4. 7009f1ae: f2c7 010a    	movt	r1, #0x700a
  5. 7009f1b2: 6809         	ldr	r1, [r1]
  6. 7009f1b4: 4288         	cmp	r0, r1
  7. 7009f1b6: d102         	bne	0x7009f1be <vTaskDelete+0xce> @ imm = #0x4

P_HDR Event: Idx:61301 (Pattern: EE, Function: vTaskDelete)
Executed Assembly Steps:
  1. 7009f1b8: e7ff         	b	0x7009f1ba <vTaskDelete+0xca> @ imm = #-0x2
  2. 7009f1ba: df00         	svc	#0x0

Sync: Idx:61302; ID:10;	BRANCH_ADDRESS : Branch address.; Addr=0x00000008 ~[0x8]; ISA=ARM(32); S; Exception=SVC;

P_HDR Event: Idx:61308 (Pattern: E, Function: vTaskDelete)
Executed Assembly Steps:
  1. 7009f1bc: e000         	b	0x7009f1c0 <vTaskDelete+0xd0> @ imm = #0x0

Sync: Idx:61309; ID:10;	BRANCH_ADDRESS : Branch address.; Addr=0x700A5D0C ~[0x700A5D0C];

P_HDR Event: Idx:61315 (Pattern: EEEEEEN, Function: HwiP_svc_handler)
Executed Assembly Steps:
  1. 700a5d0c: f96d051f     	srsdb	sp!, #0x1f
  2. 700a5d10: f102001f     	cps	#0x1f
  3. 700a5d14: e92d5fff     	push	{r0, r1, r2, r3, r4, r5, r6, r7, r8, r9, r10, r11, r12, lr}
  4. 700a5d18: e59f218c     	ldr	r2, [pc, #0x18c]        @ 0x700a5eac <ulPortTaskHasFPUContextConst>
  5. 700a5d1c: e5923000     	ldr	r3, [r2]
  6. 700a5d20: e3530000     	cmp	r3, #0
  7. 700a5d24: 1ef11a10     	vmrsne	r1, fpscr

P_HDR Event: Idx:61316 (Pattern: N, Function: HwiP_svc_handler)
Executed Assembly Steps:
  1. 700a5d28: 1d2d0b20     	vpushne	{d0, d1, d2, d3, d4, d5, d6, d7, d8, d9, d10, d11, d12, d13, d14, d15}

P_HDR Event: Idx:61317 (Pattern: N, Function: HwiP_svc_handler)
Executed Assembly Steps:
  1. 700a5d2c: 152d1004     	strne	r1, [sp, #-0x4]!

P_HDR Event: Idx:61318 (Pattern: EEEEEE, Function: HwiP_svc_handler)
Executed Assembly Steps:
  1. 700a5d30: e52d3004     	str	r3, [sp, #-0x4]!
  2. 700a5d34: e59f016c     	ldr	r0, [pc, #0x16c]        @ 0x700a5ea8 <pxCurrentTCBConst>
  3. 700a5d38: e5901000     	ldr	r1, [r0]
  4. 700a5d3c: e581d000     	str	sp, [r1]
  5. 700a5d40: e59f0168     	ldr	r0, [pc, #0x168]        @ 0x700a5eb0 <vTaskSwitchContextConst>
  6. 700a5d44: e12fff30     	blx	r0

Sync: Idx:61319; ID:10;	BRANCH_ADDRESS : Branch address.; Addr=0x7009F550 ~[0x7009F550]; ISA=Thumb2;

P_HDR Event: Idx:61324 (Pattern: EEEEEEEEEEEEEEE, Function: vTaskSwitchContext)
Executed Assembly Steps:
  1. 7009f550: b082         	sub	sp, #0x8
  2. 7009f552: f247 5018    	movw	r0, #0x7518
  3. 7009f556: f2c7 000a    	movt	r0, #0x700a
  4. 7009f55a: 6800         	ldr	r0, [r0]
  5. 7009f55c: b138         	cbz	r0, 0x7009f56e <vTaskSwitchContext+0x1e> @ imm = #0xe
  6. 7009f56e: f247 5144    	movw	r1, #0x7544
  7. 7009f572: f2c7 010a    	movt	r1, #0x700a
  8. 7009f576: 2000         	movs	r0, #0x0
  9. 7009f578: 6008         	str	r0, [r1]
  10. 7009f57a: f247 40b8    	movw	r0, #0x74b8
  11. 7009f57e: f2c7 000a    	movt	r0, #0x700a
  12. 7009f582: 6800         	ldr	r0, [r0]
  13. 7009f584: f247 41f0    	movw	r1, #0x74f0
  14. 7009f588: f2c7 010a    	movt	r1, #0x700a
  15. 7009f58c: 6809         	ldr	r1, [r1]

P_HDR Event: Idx:61325 (Pattern: EEEEEEEEEEEN, Function: vTaskSwitchContext)
Executed Assembly Steps:
  1. 7009f58e: f8c1 0084    	str.w	r0, [r1, #0x84]
  2. 7009f592: f247 5020    	movw	r0, #0x7520
  3. 7009f596: f2c7 000a    	movt	r0, #0x700a
  4. 7009f59a: 6800         	ldr	r0, [r0]
  5. 7009f59c: 9001         	str	r0, [sp, #0x4]
  6. 7009f59e: e7ff         	b	0x7009f5a0 <vTaskSwitchContext+0x50> @ imm = #-0x2
  7. 7009f5a0: 9801         	ldr	r0, [sp, #0x4]
  8. 7009f5a2: eb00 0180    	add.w	r1, r0, r0, lsl #2
  9. 7009f5a6: f244 40f8    	movw	r0, #0x44f8
  10. 7009f5aa: f2c7 0008    	movt	r0, #0x7008
  11. 7009f5ae: f850 0021    	ldr.w	r0, [r0, r1, lsl #2]
  12. 7009f5b2: b920         	cbnz	r0, 0x7009f5be <vTaskSwitchContext+0x6e> @ imm = #0x8

P_HDR Event: Idx:61326 (Pattern: EEEEEEEEEEEEEEE, Function: vTaskSwitchContext)
Executed Assembly Steps:
  1. 7009f5b4: e7ff         	b	0x7009f5b6 <vTaskSwitchContext+0x66> @ imm = #-0x2
  2. 7009f5b6: 9801         	ldr	r0, [sp, #0x4]
  3. 7009f5b8: 3801         	subs	r0, #0x1
  4. 7009f5ba: 9001         	str	r0, [sp, #0x4]
  5. 7009f5bc: e7f0         	b	0x7009f5a0 <vTaskSwitchContext+0x50> @ imm = #-0x20
  6. 7009f5a0: 9801         	ldr	r0, [sp, #0x4]
  7. 7009f5a2: eb00 0180    	add.w	r1, r0, r0, lsl #2
  8. 7009f5a6: f244 40f8    	movw	r0, #0x44f8
  9. 7009f5aa: f2c7 0008    	movt	r0, #0x7008
  10. 7009f5ae: f850 0021    	ldr.w	r0, [r0, r1, lsl #2]
  11. 7009f5b2: b920         	cbnz	r0, 0x7009f5be <vTaskSwitchContext+0x6e> @ imm = #0x8
  12. 7009f5be: 9801         	ldr	r0, [sp, #0x4]
  13. 7009f5c0: eb00 0180    	add.w	r1, r0, r0, lsl #2
  14. 7009f5c4: f244 40f8    	movw	r0, #0x44f8
  15. 7009f5c8: f2c7 0008    	movt	r0, #0x7008

P_HDR Event: Idx:61328 (Pattern: EEEEEEEEEEN, Function: vTaskSwitchContext)
Executed Assembly Steps:
  1. 7009f5cc: eb00 0081    	add.w	r0, r0, r1, lsl #2
  2. 7009f5d0: 9000         	str	r0, [sp]
  3. 7009f5d2: 9900         	ldr	r1, [sp]
  4. 7009f5d4: 6848         	ldr	r0, [r1, #0x4]
  5. 7009f5d6: 6840         	ldr	r0, [r0, #0x4]
  6. 7009f5d8: 6048         	str	r0, [r1, #0x4]
  7. 7009f5da: 9900         	ldr	r1, [sp]
  8. 7009f5dc: 6848         	ldr	r0, [r1, #0x4]
  9. 7009f5de: 3108         	adds	r1, #0x8
  10. 7009f5e0: 4288         	cmp	r0, r1
  11. 7009f5e2: d105         	bne	0x7009f5f0 <vTaskSwitchContext+0xa0> @ imm = #0xa

P_HDR Event: Idx:61329 (Pattern: EEEEEEEEEEEEEEE, Function: vTaskSwitchContext)
Executed Assembly Steps:
  1. 7009f5e4: e7ff         	b	0x7009f5e6 <vTaskSwitchContext+0x96> @ imm = #-0x2
  2. 7009f5e6: 9900         	ldr	r1, [sp]
  3. 7009f5e8: 6848         	ldr	r0, [r1, #0x4]
  4. 7009f5ea: 6840         	ldr	r0, [r0, #0x4]
  5. 7009f5ec: 6048         	str	r0, [r1, #0x4]
  6. 7009f5ee: e7ff         	b	0x7009f5f0 <vTaskSwitchContext+0xa0> @ imm = #-0x2
  7. 7009f5f0: 9800         	ldr	r0, [sp]
  8. 7009f5f2: 6840         	ldr	r0, [r0, #0x4]
  9. 7009f5f4: 68c1         	ldr	r1, [r0, #0xc]
  10. 7009f5f6: f247 40f0    	movw	r0, #0x74f0
  11. 7009f5fa: f2c7 000a    	movt	r0, #0x700a
  12. 7009f5fe: 6001         	str	r1, [r0]
  13. 7009f600: 9901         	ldr	r1, [sp, #0x4]
  14. 7009f602: f247 5220    	movw	r2, #0x7520
  15. 7009f606: f2c7 020a    	movt	r2, #0x700a

P_HDR Event: Idx:61330 (Pattern: EEEEEEEEE, Function: vTaskSwitchContext)
Executed Assembly Steps:
  1. 7009f60a: 6011         	str	r1, [r2]
  2. 7009f60c: 6800         	ldr	r0, [r0]
  3. 7009f60e: f8d0 0084    	ldr.w	r0, [r0, #0x84]
  4. 7009f612: f247 41b8    	movw	r1, #0x74b8
  5. 7009f616: f2c7 010a    	movt	r1, #0x700a
  6. 7009f61a: 6008         	str	r0, [r1]
  7. 7009f61c: e7ff         	b	0x7009f61e <vTaskSwitchContext+0xce> @ imm = #-0x2
  8. 7009f61e: b002         	add	sp, #0x8
  9. 7009f620: 4770         	bx	lr

Sync: Idx:61331; ID:10;	BRANCH_ADDRESS : Branch address.; Addr=0x700A5D48 ~[0x700A5D48]; ISA=ARM(32);

P_HDR Event: Idx:61336 (Pattern: EEEEEEEN, Function: HwiP_svc_handler)
Executed Assembly Steps:
  1. 700a5d48: e59f0158     	ldr	r0, [pc, #0x158]        @ 0x700a5ea8 <pxCurrentTCBConst>
  2. 700a5d4c: e5901000     	ldr	r1, [r0]
  3. 700a5d50: e591d000     	ldr	sp, [r1]
  4. 700a5d54: e59f0150     	ldr	r0, [pc, #0x150]        @ 0x700a5eac <ulPortTaskHasFPUContextConst>
  5. 700a5d58: e49d1004     	ldr	r1, [sp], #4
  6. 700a5d5c: e5801000     	str	r1, [r0]
  7. 700a5d60: e3510000     	cmp	r1, #0
  8. 700a5d64: 149d0004     	ldrne	r0, [sp], #4

P_HDR Event: Idx:61337 (Pattern: N, Function: HwiP_svc_handler)
Executed Assembly Steps:
  1. 700a5d68: 1cbd0b20     	vpopne	{d0, d1, d2, d3, d4, d5, d6, d7, d8, d9, d10, d11, d12, d13, d14, d15}

P_HDR Event: Idx:61338 (Pattern: N, Function: HwiP_svc_handler)
Executed Assembly Steps:
  1. 700a5d6c: 1ee10a10     	vmsrne	fpscr, r0

P_HDR Event: Idx:61339 (Pattern: EEE, Function: HwiP_svc_handler)
Executed Assembly Steps:
  1. 700a5d70: f57ff01f     	clrex
  2. 700a5d74: e8bd5fff     	pop	{r0, r1, r2, r3, r4, r5, r6, r7, r8, r9, r10, r11, r12, lr}
  3. 700a5d78: f8bd0a00     	rfeia	sp!

Sync: Idx:61340; ID:10;	BRANCH_ADDRESS : Branch address.; Addr=0x7009E692 ~[0x7009E692]; ISA=Thumb2;

P_HDR Event: Idx:61346 (Pattern: EEEE, Function: prvAddNewTaskToReadyList)
Executed Assembly Steps:
  1. 7009e692: e000         	b	0x7009e696 <prvAddNewTaskToReadyList+0x106> @ imm = #0x0
  2. 7009e696: e000         	b	0x7009e69a <prvAddNewTaskToReadyList+0x10a> @ imm = #0x0
  3. 7009e69a: b002         	add	sp, #0x8
  4. 7009e69c: bd80         	pop	{r7, pc}

Sync: Idx:61347; ID:10;	BRANCH_ADDRESS : Branch address.; Addr=0x700A1554 ~[0xA1554];

P_HDR Event: Idx:61350 (Pattern: EEEEEE, Function: xTaskCreate)
Executed Assembly Steps:
  1. 700a1554: 2001         	movs	r0, #0x1
  2. 700a1556: 9006         	str	r0, [sp, #0x18]
  3. 700a1558: e003         	b	0x700a1562 <xTaskCreate+0x92> @ imm = #0x6
  4. 700a1562: 9806         	ldr	r0, [sp, #0x18]
  5. 700a1564: b00c         	add	sp, #0x30
  6. 700a1566: bd70         	pop	{r4, r5, r6, pc}

Sync: Idx:61351; ID:10;	BRANCH_ADDRESS : Branch address.; Addr=0x700A406C ~[0xA406C];

P_HDR Event: Idx:61354 (Pattern: EE, Function: tm_thread_create)
Executed Assembly Steps:
  1. 700a406c: 3801         	subs	r0, #0x1
  2. 700a406e: bf18         	it	ne

P_HDR Event: Idx:61355 (Pattern: NE, Function: tm_thread_create)
Executed Assembly Steps:
  1. 700a4070: 2001         	movne	r0, #0x1
  2. 700a4072: b002         	add	sp, #0x8

P_HDR Event: Idx:61356 (Pattern: E, Function: tm_thread_create)
Executed Assembly Steps:
  1. 700a4074: bd80         	pop	{r7, pc}

Sync: Idx:61357; ID:10;	BRANCH_ADDRESS : Branch address.; Addr=0x700A27BC ~[0xA27BC];

P_HDR Event: Idx:61361 (Pattern: EEEEEEEEEEEEEEE, Function: tm_message_isr_to_task_initialize)
Executed Assembly Steps:
  1. 700a27bc: 2000         	movs	r0, #0x0
  2. 700a27be: f002 fbe7    	bl	0x700a4f90 <tm_thread_resume> @ imm = #0x27ce
  3. 700a4f90: b580         	push	{r7, lr}
  4. 700a4f92: f241 0158    	movw	r1, #0x1058
  5. 700a4f96: f2c7 0108    	movt	r1, #0x7008
  6. 700a4f9a: f851 0020    	ldr.w	r0, [r1, r0, lsl #2]
  7. 700a4f9e: f7fb fd37    	bl	0x700a0a10 <vTaskResume> @ imm = #-0x4592
  8. 700a0a10: b580         	push	{r7, lr}
  9. 700a0a12: b082         	sub	sp, #0x8
  10. 700a0a14: 9001         	str	r0, [sp, #0x4]
  11. 700a0a16: 9801         	ldr	r0, [sp, #0x4]
  12. 700a0a18: 9000         	str	r0, [sp]
  13. 700a0a1a: 9800         	ldr	r0, [sp]
  14. 700a0a1c: f247 41f0    	movw	r1, #0x74f0
  15. 700a0a20: f2c7 010a    	movt	r1, #0x700a

P_HDR Event: Idx:61362 (Pattern: EEN, Function: vTaskResume)
Executed Assembly Steps:
  1. 700a0a24: 6809         	ldr	r1, [r1]
  2. 700a0a26: 4288         	cmp	r0, r1
  3. 700a0a28: d041         	beq	0x700a0aae <vTaskResume+0x9e> @ imm = #0x82

P_HDR Event: Idx:61363 (Pattern: EEEN, Function: vTaskResume)
Executed Assembly Steps:
  1. 700a0a2a: e7ff         	b	0x700a0a2c <vTaskResume+0x1c> @ imm = #-0x2
  2. 700a0a2c: 9800         	ldr	r0, [sp]
  3. 700a0a2e: 2800         	cmp	r0, #0x0
  4. 700a0a30: d03d         	beq	0x700a0aae <vTaskResume+0x9e> @ imm = #0x7a

P_HDR Event: Idx:61364 (Pattern: EEEEEEN, Function: vTaskResume)
Executed Assembly Steps:
  1. 700a0a32: e7ff         	b	0x700a0a34 <vTaskResume+0x24> @ imm = #-0x2
  2. 700a0a34: f003 fc8c    	bl	0x700a4350 <vTaskEnterCritical> @ imm = #0x3918
  3. 700a4350: b672         	cpsid i
  4. 700a4352: f247 5034    	movw	r0, #0x7534
  5. 700a4356: f2c7 000a    	movt	r0, #0x700a
  6. 700a435a: 6800         	ldr	r0, [r0]
  7. 700a435c: b178         	cbz	r0, 0x700a437e <vTaskEnterCritical+0x2e> @ imm = #0x1e

P_HDR Event: Idx:61365 (Pattern: EEEEEEEEEEN, Function: vTaskEnterCritical)
Executed Assembly Steps:
  1. 700a435e: e7ff         	b	0x700a4360 <vTaskEnterCritical+0x10> @ imm = #-0x2
  2. 700a4360: f247 40f0    	movw	r0, #0x74f0
  3. 700a4364: f2c7 000a    	movt	r0, #0x700a
  4. 700a4368: 6802         	ldr	r2, [r0]
  5. 700a436a: 6d51         	ldr	r1, [r2, #0x54]
  6. 700a436c: 3101         	adds	r1, #0x1
  7. 700a436e: 6551         	str	r1, [r2, #0x54]
  8. 700a4370: 6800         	ldr	r0, [r0]
  9. 700a4372: 6d40         	ldr	r0, [r0, #0x54]
  10. 700a4374: 2801         	cmp	r0, #0x1
  11. 700a4376: d101         	bne	0x700a437c <vTaskEnterCritical+0x2c> @ imm = #0x2

P_HDR Event: Idx:61366 (Pattern: EEEE, Function: vTaskEnterCritical)
Executed Assembly Steps:
  1. 700a4378: e7ff         	b	0x700a437a <vTaskEnterCritical+0x2a> @ imm = #-0x2
  2. 700a437a: e7ff         	b	0x700a437c <vTaskEnterCritical+0x2c> @ imm = #-0x2
  3. 700a437c: e000         	b	0x700a4380 <vTaskEnterCritical+0x30> @ imm = #0x0
  4. 700a4380: 4770         	bx	lr

Sync: Idx:61367; ID:10;	BRANCH_ADDRESS : Branch address.; Addr=0x700A0A38 ~[0xA38];

P_HDR Event: Idx:61369 (Pattern: EEEEEEEEEEEEEEE, Function: vTaskResume)
Executed Assembly Steps:
  1. 700a0a38: 9800         	ldr	r0, [sp]
  2. 700a0a3a: f002 fdd1    	bl	0x700a35e0 <prvTaskIsTaskSuspended> @ imm = #0x2ba2
  3. 700a35e0: b083         	sub	sp, #0xc
  4. 700a35e2: 9002         	str	r0, [sp, #0x8]
  5. 700a35e4: 2000         	movs	r0, #0x0
  6. 700a35e6: 9001         	str	r0, [sp, #0x4]
  7. 700a35e8: 9802         	ldr	r0, [sp, #0x8]
  8. 700a35ea: 9000         	str	r0, [sp]
  9. 700a35ec: 9800         	ldr	r0, [sp]
  10. 700a35ee: 6940         	ldr	r0, [r0, #0x14]
  11. 700a35f0: f644 616c    	movw	r1, #0x4e6c
  12. 700a35f4: f2c7 0108    	movt	r1, #0x7008
  13. 700a35f8: 4288         	cmp	r0, r1
  14. 700a35fa: d114         	bne	0x700a3626 <prvTaskIsTaskSuspended+0x46> @ imm = #0x28
  15. 700a3626: e7ff         	b	0x700a3628 <prvTaskIsTaskSuspended+0x48> @ imm = #-0x2

P_HDR Event: Idx:61370 (Pattern: EEE, Function: prvTaskIsTaskSuspended)
Executed Assembly Steps:
  1. 700a3628: 9801         	ldr	r0, [sp, #0x4]
  2. 700a362a: b003         	add	sp, #0xc
  3. 700a362c: 4770         	bx	lr

Sync: Idx:61371; ID:10;	BRANCH_ADDRESS : Branch address.; Addr=0x700A0A3E ~[0x3E];

P_HDR Event: Idx:61372 (Pattern: EEEEEEN, Function: vTaskResume)
Executed Assembly Steps:
  1. 700a0a3e: b390         	cbz	r0, 0x700a0aa6 <vTaskResume+0x96> @ imm = #0x64
  2. 700a0aa6: e7ff         	b	0x700a0aa8 <vTaskResume+0x98> @ imm = #-0x2
  3. 700a0aa8: f002 ff9a    	bl	0x700a39e0 <vTaskExitCritical> @ imm = #0x2f34
  4. 700a39e0: f247 5034    	movw	r0, #0x7534
  5. 700a39e4: f2c7 000a    	movt	r0, #0x700a
  6. 700a39e8: 6800         	ldr	r0, [r0]
  7. 700a39ea: b1d0         	cbz	r0, 0x700a3a22 <vTaskExitCritical+0x42> @ imm = #0x34

P_HDR Event: Idx:61373 (Pattern: EEEEEN, Function: vTaskExitCritical)
Executed Assembly Steps:
  1. 700a39ec: e7ff         	b	0x700a39ee <vTaskExitCritical+0xe> @ imm = #-0x2
  2. 700a39ee: f247 40f0    	movw	r0, #0x74f0
  3. 700a39f2: f2c7 000a    	movt	r0, #0x700a
  4. 700a39f6: 6800         	ldr	r0, [r0]
  5. 700a39f8: 6d40         	ldr	r0, [r0, #0x54]
  6. 700a39fa: b180         	cbz	r0, 0x700a3a1e <vTaskExitCritical+0x3e> @ imm = #0x20

P_HDR Event: Idx:61374 (Pattern: EEEEEEEEEN, Function: vTaskExitCritical)
Executed Assembly Steps:
  1. 700a39fc: e7ff         	b	0x700a39fe <vTaskExitCritical+0x1e> @ imm = #-0x2
  2. 700a39fe: f247 40f0    	movw	r0, #0x74f0
  3. 700a3a02: f2c7 000a    	movt	r0, #0x700a
  4. 700a3a06: 6802         	ldr	r2, [r0]
  5. 700a3a08: 6d51         	ldr	r1, [r2, #0x54]
  6. 700a3a0a: 3901         	subs	r1, #0x1
  7. 700a3a0c: 6551         	str	r1, [r2, #0x54]
  8. 700a3a0e: 6800         	ldr	r0, [r0]
  9. 700a3a10: 6d40         	ldr	r0, [r0, #0x54]
  10. 700a3a12: b910         	cbnz	r0, 0x700a3a1a <vTaskExitCritical+0x3a> @ imm = #0x4

P_HDR Event: Idx:61376 (Pattern: EEEEEE, Function: vTaskExitCritical)
Executed Assembly Steps:
  1. 700a3a14: e7ff         	b	0x700a3a16 <vTaskExitCritical+0x36> @ imm = #-0x2
  2. 700a3a16: b662         	cpsie i
  3. 700a3a18: e000         	b	0x700a3a1c <vTaskExitCritical+0x3c> @ imm = #0x0
  4. 700a3a1c: e000         	b	0x700a3a20 <vTaskExitCritical+0x40> @ imm = #0x0
  5. 700a3a20: e000         	b	0x700a3a24 <vTaskExitCritical+0x44> @ imm = #0x0
  6. 700a3a24: 4770         	bx	lr

Sync: Idx:61377; ID:10;	BRANCH_ADDRESS : Branch address.; Addr=0x700A0AAC ~[0xAAC];

P_HDR Event: Idx:61379 (Pattern: EEE, Function: vTaskResume)
Executed Assembly Steps:
  1. 700a0aac: e000         	b	0x700a0ab0 <vTaskResume+0xa0> @ imm = #0x0
  2. 700a0ab0: b002         	add	sp, #0x8
  3. 700a0ab2: bd80         	pop	{r7, pc}

Sync: Idx:61380; ID:10;	BRANCH_ADDRESS : Branch address.; Addr=0x700A4FA2 ~[0xA4FA2];

P_HDR Event: Idx:61383 (Pattern: EE, Function: tm_thread_resume)
Executed Assembly Steps:
  1. 700a4fa2: 2000         	movs	r0, #0x0
  2. 700a4fa4: bd80         	pop	{r7, pc}

Sync: Idx:61384; ID:10;	BRANCH_ADDRESS : Branch address.; Addr=0x700A27C2 ~[0xA27C2];

P_HDR Event: Idx:61387 (Pattern: EEEEEEEEEEEEEEE, Function: tm_message_isr_to_task_initialize)
Executed Assembly Steps:
  1. 700a27c2: 2001         	movs	r0, #0x1
  2. 700a27c4: f002 fbe4    	bl	0x700a4f90 <tm_thread_resume> @ imm = #0x27c8
  3. 700a4f90: b580         	push	{r7, lr}
  4. 700a4f92: f241 0158    	movw	r1, #0x1058
  5. 700a4f96: f2c7 0108    	movt	r1, #0x7008
  6. 700a4f9a: f851 0020    	ldr.w	r0, [r1, r0, lsl #2]
  7. 700a4f9e: f7fb fd37    	bl	0x700a0a10 <vTaskResume> @ imm = #-0x4592
  8. 700a0a10: b580         	push	{r7, lr}
  9. 700a0a12: b082         	sub	sp, #0x8
  10. 700a0a14: 9001         	str	r0, [sp, #0x4]
  11. 700a0a16: 9801         	ldr	r0, [sp, #0x4]
  12. 700a0a18: 9000         	str	r0, [sp]
  13. 700a0a1a: 9800         	ldr	r0, [sp]
  14. 700a0a1c: f247 41f0    	movw	r1, #0x74f0
  15. 700a0a20: f2c7 010a    	movt	r1, #0x700a

P_HDR Event: Idx:61388 (Pattern: EEN, Function: vTaskResume)
Executed Assembly Steps:
  1. 700a0a24: 6809         	ldr	r1, [r1]
  2. 700a0a26: 4288         	cmp	r0, r1
  3. 700a0a28: d041         	beq	0x700a0aae <vTaskResume+0x9e> @ imm = #0x82

P_HDR Event: Idx:61389 (Pattern: EEEN, Function: vTaskResume)
Executed Assembly Steps:
  1. 700a0a2a: e7ff         	b	0x700a0a2c <vTaskResume+0x1c> @ imm = #-0x2
  2. 700a0a2c: 9800         	ldr	r0, [sp]
  3. 700a0a2e: 2800         	cmp	r0, #0x0
  4. 700a0a30: d03d         	beq	0x700a0aae <vTaskResume+0x9e> @ imm = #0x7a

P_HDR Event: Idx:61390 (Pattern: EEEEEEN, Function: vTaskResume)
Executed Assembly Steps:
  1. 700a0a32: e7ff         	b	0x700a0a34 <vTaskResume+0x24> @ imm = #-0x2
  2. 700a0a34: f003 fc8c    	bl	0x700a4350 <vTaskEnterCritical> @ imm = #0x3918
  3. 700a4350: b672         	cpsid i
  4. 700a4352: f247 5034    	movw	r0, #0x7534
  5. 700a4356: f2c7 000a    	movt	r0, #0x700a
  6. 700a435a: 6800         	ldr	r0, [r0]
  7. 700a435c: b178         	cbz	r0, 0x700a437e <vTaskEnterCritical+0x2e> @ imm = #0x1e

P_HDR Event: Idx:61392 (Pattern: EEEEEEEEEEN, Function: vTaskEnterCritical)
Executed Assembly Steps:
  1. 700a435e: e7ff         	b	0x700a4360 <vTaskEnterCritical+0x10> @ imm = #-0x2
  2. 700a4360: f247 40f0    	movw	r0, #0x74f0
  3. 700a4364: f2c7 000a    	movt	r0, #0x700a
  4. 700a4368: 6802         	ldr	r2, [r0]
  5. 700a436a: 6d51         	ldr	r1, [r2, #0x54]
  6. 700a436c: 3101         	adds	r1, #0x1
  7. 700a436e: 6551         	str	r1, [r2, #0x54]
  8. 700a4370: 6800         	ldr	r0, [r0]
  9. 700a4372: 6d40         	ldr	r0, [r0, #0x54]
  10. 700a4374: 2801         	cmp	r0, #0x1
  11. 700a4376: d101         	bne	0x700a437c <vTaskEnterCritical+0x2c> @ imm = #0x2

P_HDR Event: Idx:61393 (Pattern: EEEE, Function: vTaskEnterCritical)
Executed Assembly Steps:
  1. 700a4378: e7ff         	b	0x700a437a <vTaskEnterCritical+0x2a> @ imm = #-0x2
  2. 700a437a: e7ff         	b	0x700a437c <vTaskEnterCritical+0x2c> @ imm = #-0x2
  3. 700a437c: e000         	b	0x700a4380 <vTaskEnterCritical+0x30> @ imm = #0x0
  4. 700a4380: 4770         	bx	lr

Sync: Idx:61394; ID:10;	BRANCH_ADDRESS : Branch address.; Addr=0x700A0A38 ~[0xA38];

P_HDR Event: Idx:61396 (Pattern: EEEEEEEEEEEEEEE, Function: vTaskResume)
Executed Assembly Steps:
  1. 700a0a38: 9800         	ldr	r0, [sp]
  2. 700a0a3a: f002 fdd1    	bl	0x700a35e0 <prvTaskIsTaskSuspended> @ imm = #0x2ba2
  3. 700a35e0: b083         	sub	sp, #0xc
  4. 700a35e2: 9002         	str	r0, [sp, #0x8]
  5. 700a35e4: 2000         	movs	r0, #0x0
  6. 700a35e6: 9001         	str	r0, [sp, #0x4]
  7. 700a35e8: 9802         	ldr	r0, [sp, #0x8]
  8. 700a35ea: 9000         	str	r0, [sp]
  9. 700a35ec: 9800         	ldr	r0, [sp]
  10. 700a35ee: 6940         	ldr	r0, [r0, #0x14]
  11. 700a35f0: f644 616c    	movw	r1, #0x4e6c
  12. 700a35f4: f2c7 0108    	movt	r1, #0x7008
  13. 700a35f8: 4288         	cmp	r0, r1
  14. 700a35fa: d114         	bne	0x700a3626 <prvTaskIsTaskSuspended+0x46> @ imm = #0x28
  15. 700a3626: e7ff         	b	0x700a3628 <prvTaskIsTaskSuspended+0x48> @ imm = #-0x2

P_HDR Event: Idx:61397 (Pattern: EEE, Function: prvTaskIsTaskSuspended)
Executed Assembly Steps:
  1. 700a3628: 9801         	ldr	r0, [sp, #0x4]
  2. 700a362a: b003         	add	sp, #0xc
  3. 700a362c: 4770         	bx	lr

Sync: Idx:61398; ID:10;	BRANCH_ADDRESS : Branch address.; Addr=0x700A0A3E ~[0x3E];

P_HDR Event: Idx:61399 (Pattern: EEEEEEN, Function: vTaskResume)
Executed Assembly Steps:
  1. 700a0a3e: b390         	cbz	r0, 0x700a0aa6 <vTaskResume+0x96> @ imm = #0x64
  2. 700a0aa6: e7ff         	b	0x700a0aa8 <vTaskResume+0x98> @ imm = #-0x2
  3. 700a0aa8: f002 ff9a    	bl	0x700a39e0 <vTaskExitCritical> @ imm = #0x2f34
  4. 700a39e0: f247 5034    	movw	r0, #0x7534
  5. 700a39e4: f2c7 000a    	movt	r0, #0x700a
  6. 700a39e8: 6800         	ldr	r0, [r0]
  7. 700a39ea: b1d0         	cbz	r0, 0x700a3a22 <vTaskExitCritical+0x42> @ imm = #0x34

P_HDR Event: Idx:61400 (Pattern: EEEEEN, Function: vTaskExitCritical)
Executed Assembly Steps:
  1. 700a39ec: e7ff         	b	0x700a39ee <vTaskExitCritical+0xe> @ imm = #-0x2
  2. 700a39ee: f247 40f0    	movw	r0, #0x74f0
  3. 700a39f2: f2c7 000a    	movt	r0, #0x700a
  4. 700a39f6: 6800         	ldr	r0, [r0]
  5. 700a39f8: 6d40         	ldr	r0, [r0, #0x54]
  6. 700a39fa: b180         	cbz	r0, 0x700a3a1e <vTaskExitCritical+0x3e> @ imm = #0x20

P_HDR Event: Idx:61401 (Pattern: EEEEEEEEEN, Function: vTaskExitCritical)
Executed Assembly Steps:
  1. 700a39fc: e7ff         	b	0x700a39fe <vTaskExitCritical+0x1e> @ imm = #-0x2
  2. 700a39fe: f247 40f0    	movw	r0, #0x74f0
  3. 700a3a02: f2c7 000a    	movt	r0, #0x700a
  4. 700a3a06: 6802         	ldr	r2, [r0]
  5. 700a3a08: 6d51         	ldr	r1, [r2, #0x54]
  6. 700a3a0a: 3901         	subs	r1, #0x1
  7. 700a3a0c: 6551         	str	r1, [r2, #0x54]
  8. 700a3a0e: 6800         	ldr	r0, [r0]
  9. 700a3a10: 6d40         	ldr	r0, [r0, #0x54]
  10. 700a3a12: b910         	cbnz	r0, 0x700a3a1a <vTaskExitCritical+0x3a> @ imm = #0x4

P_HDR Event: Idx:61402 (Pattern: EEEEEE, Function: vTaskExitCritical)
Executed Assembly Steps:
  1. 700a3a14: e7ff         	b	0x700a3a16 <vTaskExitCritical+0x36> @ imm = #-0x2
  2. 700a3a16: b662         	cpsie i
  3. 700a3a18: e000         	b	0x700a3a1c <vTaskExitCritical+0x3c> @ imm = #0x0
  4. 700a3a1c: e000         	b	0x700a3a20 <vTaskExitCritical+0x40> @ imm = #0x0
  5. 700a3a20: e000         	b	0x700a3a24 <vTaskExitCritical+0x44> @ imm = #0x0
  6. 700a3a24: 4770         	bx	lr

Sync: Idx:61403; ID:10;	BRANCH_ADDRESS : Branch address.; Addr=0x700A0AAC ~[0xAAC];

P_HDR Event: Idx:61405 (Pattern: EEE, Function: vTaskResume)
Executed Assembly Steps:
  1. 700a0aac: e000         	b	0x700a0ab0 <vTaskResume+0xa0> @ imm = #0x0
  2. 700a0ab0: b002         	add	sp, #0x8
  3. 700a0ab2: bd80         	pop	{r7, pc}

Sync: Idx:61406; ID:10;	BRANCH_ADDRESS : Branch address.; Addr=0x700A4FA2 ~[0xA4FA2];

P_HDR Event: Idx:61410 (Pattern: EE, Function: tm_thread_resume)
Executed Assembly Steps:
  1. 700a4fa2: 2000         	movs	r0, #0x0
  2. 700a4fa4: bd80         	pop	{r7, pc}

Sync: Idx:61411; ID:10;	BRANCH_ADDRESS : Branch address.; Addr=0x700A27C8 ~[0xA27C8];

P_HDR Event: Idx:61414 (Pattern: EEEEEEEEEEEEEEE, Function: tm_message_isr_to_task_initialize)
Executed Assembly Steps:
  1. 700a27c8: f646 31dd    	movw	r1, #0x6bdd
  2. 700a27cc: 2001         	movs	r0, #0x1
  3. 700a27ce: f2c7 010a    	movt	r1, #0x700a
  4. 700a27d2: e8bd 4080    	pop.w	{r7, lr}
  5. 700a27d6: f7ff b8f3    	b.w	0x700a19c0 <_DebugP_logZone> @ imm = #-0xe1a
  6. 700a19c0: b082         	sub	sp, #0x8
  7. 700a19c2: b580         	push	{r7, lr}
  8. 700a19c4: b086         	sub	sp, #0x18
  9. 700a19c6: 9309         	str	r3, [sp, #0x24]
  10. 700a19c8: 9208         	str	r2, [sp, #0x20]
  11. 700a19ca: 9005         	str	r0, [sp, #0x14]
  12. 700a19cc: 9104         	str	r1, [sp, #0x10]
  13. 700a19ce: f003 ff97    	bl	0x700a5900 <HwiP_inISR> @ imm = #0x3f2e
  14. 700a5900: b580         	push	{r7, lr}
  15. 700a5902: b082         	sub	sp, #0x8

P_HDR Event: Idx:61415 (Pattern: E, Function: HwiP_inISR)
Executed Assembly Steps:
  1. 700a5904: f000 eb10    	blx	0x700a5f28 <HwiP_getCPSR> @ imm = #0x620

Sync: Idx:61416; ID:10;	BRANCH_ADDRESS : Branch address.; Addr=0x700A5F28 ~[0x700A5F28]; ISA=ARM(32);

P_HDR Event: Idx:61421 (Pattern: EE, Function: HwiP_getCPSR)
Executed Assembly Steps:
  1. 700a5f28: e10f0000     	mrs	r0, apsr
  2. 700a5f2c: e12fff1e     	bx	lr

Sync: Idx:61422; ID:10;	BRANCH_ADDRESS : Branch address.; Addr=0x700A5908 ~[0x700A5908]; ISA=Thumb2;

P_HDR Event: Idx:61428 (Pattern: EEEEEEEEEE, Function: HwiP_inISR)
Executed Assembly Steps:
  1. 700a5908: f000 001f    	and	r0, r0, #0x1f
  2. 700a590c: 9001         	str	r0, [sp, #0x4]
  3. 700a590e: 2000         	movs	r0, #0x0
  4. 700a5910: 9000         	str	r0, [sp]
  5. 700a5912: 9801         	ldr	r0, [sp, #0x4]
  6. 700a5914: 281f         	cmp	r0, #0x1f
  7. 700a5916: d003         	beq	0x700a5920 <HwiP_inISR+0x20> @ imm = #0x6
  8. 700a5920: 9800         	ldr	r0, [sp]
  9. 700a5922: b002         	add	sp, #0x8
  10. 700a5924: bd80         	pop	{r7, pc}

Sync: Idx:61429; ID:10;	BRANCH_ADDRESS : Branch address.; Addr=0x700A19D2 ~[0xA19D2];

P_HDR Event: Idx:61432 (Pattern: N, Function: _DebugP_logZone)
Executed Assembly Steps:
  1. 700a19d2: bbc8         	cbnz	r0, 0x700a1a48 <_DebugP_logZone+0x88> @ imm = #0x72

P_HDR Event: Idx:61433 (Pattern: EEEEEEEEEEEN, Function: _DebugP_logZone)
Executed Assembly Steps:
  1. 700a19d4: e7ff         	b	0x700a19d6 <_DebugP_logZone+0x16> @ imm = #-0x2
  2. 700a19d6: f247 40c8    	movw	r0, #0x74c8
  3. 700a19da: f2c7 000a    	movt	r0, #0x700a
  4. 700a19de: 6800         	ldr	r0, [r0]
  5. 700a19e0: b9a0         	cbnz	r0, 0x700a1a0c <_DebugP_logZone+0x4c> @ imm = #0x28
  6. 700a1a0c: f247 40cc    	movw	r0, #0x74cc
  7. 700a1a10: f2c7 000a    	movt	r0, #0x700a
  8. 700a1a14: 6800         	ldr	r0, [r0]
  9. 700a1a16: 9905         	ldr	r1, [sp, #0x14]
  10. 700a1a18: 4008         	ands	r0, r1
  11. 700a1a1a: 4288         	cmp	r0, r1
  12. 700a1a1c: d113         	bne	0x700a1a46 <_DebugP_logZone+0x86> @ imm = #0x26

P_HDR Event: Idx:61434 (Pattern: EEEEEEEEEEEEEEE, Function: _DebugP_logZone)
Executed Assembly Steps:
  1. 700a1a1e: e7ff         	b	0x700a1a20 <_DebugP_logZone+0x60> @ imm = #-0x2
  2. 700a1a20: f644 3038    	movw	r0, #0x4b38
  3. 700a1a24: f2c7 0008    	movt	r0, #0x7008
  4. 700a1a28: 9001         	str	r0, [sp, #0x4]
  5. 700a1a2a: f04f 31ff    	mov.w	r1, #0xffffffff
  6. 700a1a2e: f000 fccf    	bl	0x700a23d0 <SemaphoreP_pend> @ imm = #0x99e
  7. 700a23d0: b580         	push	{r7, lr}
  8. 700a23d2: b086         	sub	sp, #0x18
  9. 700a23d4: 9005         	str	r0, [sp, #0x14]
  10. 700a23d6: 9104         	str	r1, [sp, #0x10]
  11. 700a23d8: 9805         	ldr	r0, [sp, #0x14]
  12. 700a23da: 9003         	str	r0, [sp, #0xc]
  13. 700a23dc: 2000         	movs	r0, #0x0
  14. 700a23de: 9002         	str	r0, [sp, #0x8]
  15. 700a23e0: 9803         	ldr	r0, [sp, #0xc]

P_HDR Event: Idx:61435 (Pattern: EN, Function: SemaphoreP_pend)
Executed Assembly Steps:
  1. 700a23e2: 6d40         	ldr	r0, [r0, #0x54]
  2. 700a23e4: b180         	cbz	r0, 0x700a2408 <SemaphoreP_pend+0x38> @ imm = #0x20

P_HDR Event: Idx:61436 (Pattern: EEEEE, Function: SemaphoreP_pend)
Executed Assembly Steps:
  1. 700a23e6: e7ff         	b	0x700a23e8 <SemaphoreP_pend+0x18> @ imm = #-0x2
  2. 700a23e8: f003 fa8a    	bl	0x700a5900 <HwiP_inISR> @ imm = #0x3514
  3. 700a5900: b580         	push	{r7, lr}
  4. 700a5902: b082         	sub	sp, #0x8
  5. 700a5904: f000 eb10    	blx	0x700a5f28 <HwiP_getCPSR> @ imm = #0x620

Sync: Idx:61437; ID:10;	BRANCH_ADDRESS : Branch address.; Addr=0x700A5F28 ~[0x700A5F28]; ISA=ARM(32);

P_HDR Event: Idx:61443 (Pattern: EE, Function: HwiP_getCPSR)
Executed Assembly Steps:
  1. 700a5f28: e10f0000     	mrs	r0, apsr
  2. 700a5f2c: e12fff1e     	bx	lr

Sync: Idx:61444; ID:10;	BRANCH_ADDRESS : Branch address.; Addr=0x700A5908 ~[0x700A5908]; ISA=Thumb2;

P_HDR Event: Idx:61449 (Pattern: EEEEEEEEEE, Function: HwiP_inISR)
Executed Assembly Steps:
  1. 700a5908: f000 001f    	and	r0, r0, #0x1f
  2. 700a590c: 9001         	str	r0, [sp, #0x4]
  3. 700a590e: 2000         	movs	r0, #0x0
  4. 700a5910: 9000         	str	r0, [sp]
  5. 700a5912: 9801         	ldr	r0, [sp, #0x4]
  6. 700a5914: 281f         	cmp	r0, #0x1f
  7. 700a5916: d003         	beq	0x700a5920 <HwiP_inISR+0x20> @ imm = #0x6
  8. 700a5920: 9800         	ldr	r0, [sp]
  9. 700a5922: b002         	add	sp, #0x8
  10. 700a5924: bd80         	pop	{r7, pc}

Sync: Idx:61450; ID:10;	BRANCH_ADDRESS : Branch address.; Addr=0x700A23EC ~[0xA23EC];

P_HDR Event: Idx:61453 (Pattern: N, Function: SemaphoreP_pend)
Executed Assembly Steps:
  1. 700a23ec: b938         	cbnz	r0, 0x700a23fe <SemaphoreP_pend+0x2e> @ imm = #0xe

P_HDR Event: Idx:61454 (Pattern: EEEEEEEEEEEEEEE, Function: SemaphoreP_pend)
Executed Assembly Steps:
  1. 700a23ee: e7ff         	b	0x700a23f0 <SemaphoreP_pend+0x20> @ imm = #-0x2
  2. 700a23f0: 9803         	ldr	r0, [sp, #0xc]
  3. 700a23f2: 6d00         	ldr	r0, [r0, #0x50]
  4. 700a23f4: 9904         	ldr	r1, [sp, #0x10]
  5. 700a23f6: f001 f84b    	bl	0x700a3490 <xQueueTakeMutexRecursive> @ imm = #0x1096
  6. 700a3490: b580         	push	{r7, lr}
  7. 700a3492: b086         	sub	sp, #0x18
  8. 700a3494: 9005         	str	r0, [sp, #0x14]
  9. 700a3496: 9104         	str	r1, [sp, #0x10]
  10. 700a3498: 9805         	ldr	r0, [sp, #0x14]
  11. 700a349a: 9002         	str	r0, [sp, #0x8]
  12. 700a349c: 9802         	ldr	r0, [sp, #0x8]
  13. 700a349e: 6880         	ldr	r0, [r0, #0x8]
  14. 700a34a0: 9001         	str	r0, [sp, #0x4]
  15. 700a34a2: f001 fdad    	bl	0x700a5000 <xTaskGetCurrentTaskHandle> @ imm = #0x1b5a

P_HDR Event: Idx:61456 (Pattern: EEEEEEEE, Function: xTaskGetCurrentTaskHandle)
Executed Assembly Steps:
  1. 700a5000: b081         	sub	sp, #0x4
  2. 700a5002: f247 40f0    	movw	r0, #0x74f0
  3. 700a5006: f2c7 000a    	movt	r0, #0x700a
  4. 700a500a: 6800         	ldr	r0, [r0]
  5. 700a500c: 9000         	str	r0, [sp]
  6. 700a500e: 9800         	ldr	r0, [sp]
  7. 700a5010: b001         	add	sp, #0x4
  8. 700a5012: 4770         	bx	lr

Sync: Idx:61457; ID:10;	BRANCH_ADDRESS : Branch address.; Addr=0x700A34A6 ~[0x34A6];

P_HDR Event: Idx:61459 (Pattern: EEEEEEEEEEEEEEE, Function: xQueueTakeMutexRecursive)
Executed Assembly Steps:
  1. 700a34a6: 4601         	mov	r1, r0
  2. 700a34a8: 9801         	ldr	r0, [sp, #0x4]
  3. 700a34aa: 4288         	cmp	r0, r1
  4. 700a34ac: d107         	bne	0x700a34be <xQueueTakeMutexRecursive+0x2e> @ imm = #0xe
  5. 700a34be: 9802         	ldr	r0, [sp, #0x8]
  6. 700a34c0: 9904         	ldr	r1, [sp, #0x10]
  7. 700a34c2: f7f9 f95d    	bl	0x7009c780 <xQueueSemaphoreTake> @ imm = #-0x6d46
  8. 7009c780: b580         	push	{r7, lr}
  9. 7009c782: b08a         	sub	sp, #0x28
  10. 7009c784: 9008         	str	r0, [sp, #0x20]
  11. 7009c786: 9107         	str	r1, [sp, #0x1c]
  12. 7009c788: 2000         	movs	r0, #0x0
  13. 7009c78a: 9006         	str	r0, [sp, #0x18]
  14. 7009c78c: 9908         	ldr	r1, [sp, #0x20]
  15. 7009c78e: 9103         	str	r1, [sp, #0xc]

P_HDR Event: Idx:61460 (Pattern: EEEEEEEN, Function: xQueueSemaphoreTake)
Executed Assembly Steps:
  1. 7009c790: 9002         	str	r0, [sp, #0x8]
  2. 7009c792: e7ff         	b	0x7009c794 <xQueueSemaphoreTake+0x14> @ imm = #-0x2
  3. 7009c794: f007 fddc    	bl	0x700a4350 <vTaskEnterCritical> @ imm = #0x7bb8
  4. 700a4350: b672         	cpsid i
  5. 700a4352: f247 5034    	movw	r0, #0x7534
  6. 700a4356: f2c7 000a    	movt	r0, #0x700a
  7. 700a435a: 6800         	ldr	r0, [r0]
  8. 700a435c: b178         	cbz	r0, 0x700a437e <vTaskEnterCritical+0x2e> @ imm = #0x1e

P_HDR Event: Idx:61461 (Pattern: EEEEEEEEEEN, Function: vTaskEnterCritical)
Executed Assembly Steps:
  1. 700a435e: e7ff         	b	0x700a4360 <vTaskEnterCritical+0x10> @ imm = #-0x2
  2. 700a4360: f247 40f0    	movw	r0, #0x74f0
  3. 700a4364: f2c7 000a    	movt	r0, #0x700a
  4. 700a4368: 6802         	ldr	r2, [r0]
  5. 700a436a: 6d51         	ldr	r1, [r2, #0x54]
  6. 700a436c: 3101         	adds	r1, #0x1
  7. 700a436e: 6551         	str	r1, [r2, #0x54]
  8. 700a4370: 6800         	ldr	r0, [r0]
  9. 700a4372: 6d40         	ldr	r0, [r0, #0x54]
  10. 700a4374: 2801         	cmp	r0, #0x1
  11. 700a4376: d101         	bne	0x700a437c <vTaskEnterCritical+0x2c> @ imm = #0x2

P_HDR Event: Idx:61462 (Pattern: EEEE, Function: vTaskEnterCritical)
Executed Assembly Steps:
  1. 700a4378: e7ff         	b	0x700a437a <vTaskEnterCritical+0x2a> @ imm = #-0x2
  2. 700a437a: e7ff         	b	0x700a437c <vTaskEnterCritical+0x2c> @ imm = #-0x2
  3. 700a437c: e000         	b	0x700a4380 <vTaskEnterCritical+0x30> @ imm = #0x0
  4. 700a4380: 4770         	bx	lr

Sync: Idx:61463; ID:10;	BRANCH_ADDRESS : Branch address.; Addr=0x7009C798 ~[0x9C798];

P_HDR Event: Idx:61466 (Pattern: EEEEN, Function: xQueueSemaphoreTake)
Executed Assembly Steps:
  1. 7009c798: 9803         	ldr	r0, [sp, #0xc]
  2. 7009c79a: 6b80         	ldr	r0, [r0, #0x38]
  3. 7009c79c: 9001         	str	r0, [sp, #0x4]
  4. 7009c79e: 9801         	ldr	r0, [sp, #0x4]
  5. 7009c7a0: b310         	cbz	r0, 0x7009c7e8 <xQueueSemaphoreTake+0x68> @ imm = #0x44

P_HDR Event: Idx:61467 (Pattern: EEEEEEEN, Function: xQueueSemaphoreTake)
Executed Assembly Steps:
  1. 7009c7a2: e7ff         	b	0x7009c7a4 <xQueueSemaphoreTake+0x24> @ imm = #-0x2
  2. 7009c7a4: 9801         	ldr	r0, [sp, #0x4]
  3. 7009c7a6: 3801         	subs	r0, #0x1
  4. 7009c7a8: 9903         	ldr	r1, [sp, #0xc]
  5. 7009c7aa: 6388         	str	r0, [r1, #0x38]
  6. 7009c7ac: 9803         	ldr	r0, [sp, #0xc]
  7. 7009c7ae: 6800         	ldr	r0, [r0]
  8. 7009c7b0: b928         	cbnz	r0, 0x7009c7be <xQueueSemaphoreTake+0x3e> @ imm = #0xa

P_HDR Event: Idx:61468 (Pattern: EEEEEN, Function: xQueueSemaphoreTake)
Executed Assembly Steps:
  1. 7009c7b2: e7ff         	b	0x7009c7b4 <xQueueSemaphoreTake+0x34> @ imm = #-0x2
  2. 7009c7b4: f007 ff8c    	bl	0x700a46d0 <pvTaskIncrementMutexHeldCount> @ imm = #0x7f18
  3. 700a46d0: f247 40f0    	movw	r0, #0x74f0
  4. 700a46d4: f2c7 000a    	movt	r0, #0x700a
  5. 700a46d8: 6800         	ldr	r0, [r0]
  6. 700a46da: b148         	cbz	r0, 0x700a46f0 <pvTaskIncrementMutexHeldCount+0x20> @ imm = #0x12

P_HDR Event: Idx:61469 (Pattern: EEEEEEEEEEEE, Function: pvTaskIncrementMutexHeldCount)
Executed Assembly Steps:
  1. 700a46dc: e7ff         	b	0x700a46de <pvTaskIncrementMutexHeldCount+0xe> @ imm = #-0x2
  2. 700a46de: f247 40f0    	movw	r0, #0x74f0
  3. 700a46e2: f2c7 000a    	movt	r0, #0x700a
  4. 700a46e6: 6801         	ldr	r1, [r0]
  5. 700a46e8: 6e48         	ldr	r0, [r1, #0x64]
  6. 700a46ea: 3001         	adds	r0, #0x1
  7. 700a46ec: 6648         	str	r0, [r1, #0x64]
  8. 700a46ee: e7ff         	b	0x700a46f0 <pvTaskIncrementMutexHeldCount+0x20> @ imm = #-0x2
  9. 700a46f0: f247 40f0    	movw	r0, #0x74f0
  10. 700a46f4: f2c7 000a    	movt	r0, #0x700a
  11. 700a46f8: 6800         	ldr	r0, [r0]
  12. 700a46fa: 4770         	bx	lr

Sync: Idx:61470; ID:10;	BRANCH_ADDRESS : Branch address.; Addr=0x7009C7B8 ~[0x38];

P_HDR Event: Idx:61472 (Pattern: EEEEEEEEEEEN, Function: xQueueSemaphoreTake)
Executed Assembly Steps:
  1. 7009c7b8: 9903         	ldr	r1, [sp, #0xc]
  2. 7009c7ba: 6088         	str	r0, [r1, #0x8]
  3. 7009c7bc: e000         	b	0x7009c7c0 <xQueueSemaphoreTake+0x40> @ imm = #0x0
  4. 7009c7c0: 9803         	ldr	r0, [sp, #0xc]
  5. 7009c7c2: 6900         	ldr	r0, [r0, #0x10]
  6. 7009c7c4: b150         	cbz	r0, 0x7009c7dc <xQueueSemaphoreTake+0x5c> @ imm = #0x14
  7. 7009c7dc: e7ff         	b	0x7009c7de <xQueueSemaphoreTake+0x5e> @ imm = #-0x2
  8. 7009c7de: f007 f8ff    	bl	0x700a39e0 <vTaskExitCritical> @ imm = #0x71fe
  9. 700a39e0: f247 5034    	movw	r0, #0x7534
  10. 700a39e4: f2c7 000a    	movt	r0, #0x700a
  11. 700a39e8: 6800         	ldr	r0, [r0]
  12. 700a39ea: b1d0         	cbz	r0, 0x700a3a22 <vTaskExitCritical+0x42> @ imm = #0x34

P_HDR Event: Idx:61473 (Pattern: EEEEEN, Function: vTaskExitCritical)
Executed Assembly Steps:
  1. 700a39ec: e7ff         	b	0x700a39ee <vTaskExitCritical+0xe> @ imm = #-0x2
  2. 700a39ee: f247 40f0    	movw	r0, #0x74f0
  3. 700a39f2: f2c7 000a    	movt	r0, #0x700a
  4. 700a39f6: 6800         	ldr	r0, [r0]
  5. 700a39f8: 6d40         	ldr	r0, [r0, #0x54]
  6. 700a39fa: b180         	cbz	r0, 0x700a3a1e <vTaskExitCritical+0x3e> @ imm = #0x20

P_HDR Event: Idx:61474 (Pattern: EEEEEEEEEN, Function: vTaskExitCritical)
Executed Assembly Steps:
  1. 700a39fc: e7ff         	b	0x700a39fe <vTaskExitCritical+0x1e> @ imm = #-0x2
  2. 700a39fe: f247 40f0    	movw	r0, #0x74f0
  3. 700a3a02: f2c7 000a    	movt	r0, #0x700a
  4. 700a3a06: 6802         	ldr	r2, [r0]
  5. 700a3a08: 6d51         	ldr	r1, [r2, #0x54]
  6. 700a3a0a: 3901         	subs	r1, #0x1
  7. 700a3a0c: 6551         	str	r1, [r2, #0x54]
  8. 700a3a0e: 6800         	ldr	r0, [r0]
  9. 700a3a10: 6d40         	ldr	r0, [r0, #0x54]
  10. 700a3a12: b910         	cbnz	r0, 0x700a3a1a <vTaskExitCritical+0x3a> @ imm = #0x4

P_HDR Event: Idx:61475 (Pattern: EEEEEE, Function: vTaskExitCritical)
Executed Assembly Steps:
  1. 700a3a14: e7ff         	b	0x700a3a16 <vTaskExitCritical+0x36> @ imm = #-0x2
  2. 700a3a16: b662         	cpsie i
  3. 700a3a18: e000         	b	0x700a3a1c <vTaskExitCritical+0x3c> @ imm = #0x0
  4. 700a3a1c: e000         	b	0x700a3a20 <vTaskExitCritical+0x40> @ imm = #0x0
  5. 700a3a20: e000         	b	0x700a3a24 <vTaskExitCritical+0x44> @ imm = #0x0
  6. 700a3a24: 4770         	bx	lr

Sync: Idx:61476; ID:10;	BRANCH_ADDRESS : Branch address.; Addr=0x7009C7E2 ~[0x62];

P_HDR Event: Idx:61477 (Pattern: EEEEEE, Function: xQueueSemaphoreTake)
Executed Assembly Steps:
  1. 7009c7e2: 2001         	movs	r0, #0x1
  2. 7009c7e4: 9009         	str	r0, [sp, #0x24]
  3. 7009c7e6: e083         	b	0x7009c8f0 <xQueueSemaphoreTake+0x170> @ imm = #0x106
  4. 7009c8f0: 9809         	ldr	r0, [sp, #0x24]
  5. 7009c8f2: b00a         	add	sp, #0x28
  6. 7009c8f4: bd80         	pop	{r7, pc}

Sync: Idx:61478; ID:10;	BRANCH_ADDRESS : Branch address.; Addr=0x700A34C6 ~[0xA34C6];

P_HDR Event: Idx:61481 (Pattern: EEN, Function: xQueueTakeMutexRecursive)
Executed Assembly Steps:
  1. 700a34c6: 9003         	str	r0, [sp, #0xc]
  2. 700a34c8: 9803         	ldr	r0, [sp, #0xc]
  3. 700a34ca: b128         	cbz	r0, 0x700a34d8 <xQueueTakeMutexRecursive+0x48> @ imm = #0xa

P_HDR Event: Idx:61482 (Pattern: EEEEEEEEEE, Function: xQueueTakeMutexRecursive)
Executed Assembly Steps:
  1. 700a34cc: e7ff         	b	0x700a34ce <xQueueTakeMutexRecursive+0x3e> @ imm = #-0x2
  2. 700a34ce: 9902         	ldr	r1, [sp, #0x8]
  3. 700a34d0: 68c8         	ldr	r0, [r1, #0xc]
  4. 700a34d2: 3001         	adds	r0, #0x1
  5. 700a34d4: 60c8         	str	r0, [r1, #0xc]
  6. 700a34d6: e000         	b	0x700a34da <xQueueTakeMutexRecursive+0x4a> @ imm = #0x0
  7. 700a34da: e7ff         	b	0x700a34dc <xQueueTakeMutexRecursive+0x4c> @ imm = #-0x2
  8. 700a34dc: 9803         	ldr	r0, [sp, #0xc]
  9. 700a34de: b006         	add	sp, #0x18
  10. 700a34e0: bd80         	pop	{r7, pc}

Sync: Idx:61483; ID:10;	BRANCH_ADDRESS : Branch address.; Addr=0x700A23FA ~[0x23FA];

P_HDR Event: Idx:61485 (Pattern: EEEEN, Function: SemaphoreP_pend)
Executed Assembly Steps:
  1. 700a23fa: 9002         	str	r0, [sp, #0x8]
  2. 700a23fc: e003         	b	0x700a2406 <SemaphoreP_pend+0x36> @ imm = #0x6
  3. 700a2406: e017         	b	0x700a2438 <SemaphoreP_pend+0x68> @ imm = #0x2e
  4. 700a2438: 9802         	ldr	r0, [sp, #0x8]
  5. 700a243a: b118         	cbz	r0, 0x700a2444 <SemaphoreP_pend+0x74> @ imm = #0x6

P_HDR Event: Idx:61486 (Pattern: EEEEEEE, Function: SemaphoreP_pend)
Executed Assembly Steps:
  1. 700a243c: e7ff         	b	0x700a243e <SemaphoreP_pend+0x6e> @ imm = #-0x2
  2. 700a243e: 2000         	movs	r0, #0x0
  3. 700a2440: 9001         	str	r0, [sp, #0x4]
  4. 700a2442: e003         	b	0x700a244c <SemaphoreP_pend+0x7c> @ imm = #0x6
  5. 700a244c: 9801         	ldr	r0, [sp, #0x4]
  6. 700a244e: b006         	add	sp, #0x18
  7. 700a2450: bd80         	pop	{r7, pc}

Sync: Idx:61488; ID:10;	BRANCH_ADDRESS : Branch address.; Addr=0x700A1A32 ~[0x1A32];

P_HDR Event: Idx:61490 (Pattern: EEEEEEEEEEEEEEE, Function: _DebugP_logZone)
Executed Assembly Steps:
  1. 700a1a32: a808         	add	r0, sp, #0x20
  2. 700a1a34: 9002         	str	r0, [sp, #0x8]
  3. 700a1a36: 9804         	ldr	r0, [sp, #0x10]
  4. 700a1a38: 9902         	ldr	r1, [sp, #0x8]
  5. 700a1a3a: f002 ff09    	bl	0x700a4850 <vprintf_>   @ imm = #0x2e12
  6. 700a4850: b580         	push	{r7, lr}
  7. 700a4852: b084         	sub	sp, #0x10
  8. 700a4854: 9103         	str	r1, [sp, #0xc]
  9. 700a4856: 9002         	str	r0, [sp, #0x8]
  10. 700a4858: 9b02         	ldr	r3, [sp, #0x8]
  11. 700a485a: 9803         	ldr	r0, [sp, #0xc]
  12. 700a485c: 4669         	mov	r1, sp
  13. 700a485e: 6008         	str	r0, [r1]
  14. 700a4860: f644 2021    	movw	r0, #0x4a21
  15. 700a4864: f2c7 000a    	movt	r0, #0x700a

P_HDR Event: Idx:61491 (Pattern: EEEEEEEEEEEEEEE, Function: vprintf_)
Executed Assembly Steps:
  1. 700a4868: f10d 0107    	add.w	r1, sp, #0x7
  2. 700a486c: f04f 32ff    	mov.w	r2, #0xffffffff
  3. 700a4870: f7f4 fb46    	bl	0x70098f00 <_vsnprintf> @ imm = #-0xb974
  4. 70098f00: e92d 43f0    	push.w	{r4, r5, r6, r7, r8, r9, lr}
  5. 70098f04: b0c1         	sub	sp, #0x104
  6. 70098f06: f8dd c120    	ldr.w	r12, [sp, #0x120]
  7. 70098f0a: f8cd c100    	str.w	r12, [sp, #0x100]
  8. 70098f0e: 903f         	str	r0, [sp, #0xfc]
  9. 70098f10: 913e         	str	r1, [sp, #0xf8]
  10. 70098f12: 923d         	str	r2, [sp, #0xf4]
  11. 70098f14: 933c         	str	r3, [sp, #0xf0]
  12. 70098f16: 2000         	movs	r0, #0x0
  13. 70098f18: 9037         	str	r0, [sp, #0xdc]
  14. 70098f1a: 983e         	ldr	r0, [sp, #0xf8]
  15. 70098f1c: b930         	cbnz	r0, 0x70098f2c <_vsnprintf+0x2c> @ imm = #0xc

P_HDR Event: Idx:61492 (Pattern: EEEEN, Function: _vsnprintf)
Executed Assembly Steps:
  1. 70098f2c: e7ff         	b	0x70098f2e <_vsnprintf+0x2e> @ imm = #-0x2
  2. 70098f2e: 983c         	ldr	r0, [sp, #0xf0]
  3. 70098f30: 7800         	ldrb	r0, [r0]
  4. 70098f32: 2800         	cmp	r0, #0x0
  5. 70098f34: f000 84e3    	beq.w	0x700998fe <_vsnprintf+0x9fe> @ imm = #0x9c6

P_HDR Event: Idx:61493 (Pattern: EEEEN, Function: _vsnprintf)
Executed Assembly Steps:
  1. 70098f38: e7ff         	b	0x70098f3a <_vsnprintf+0x3a> @ imm = #-0x2
  2. 70098f3a: 983c         	ldr	r0, [sp, #0xf0]
  3. 70098f3c: 7800         	ldrb	r0, [r0]
  4. 70098f3e: 2825         	cmp	r0, #0x25
  5. 70098f40: d00e         	beq	0x70098f60 <_vsnprintf+0x60> @ imm = #0x1c

P_HDR Event: Idx:61494 (Pattern: EEEEEEEEEE, Function: _vsnprintf)
Executed Assembly Steps:
  1. 70098f42: e7ff         	b	0x70098f44 <_vsnprintf+0x44> @ imm = #-0x2
  2. 70098f44: f8dd c0fc    	ldr.w	r12, [sp, #0xfc]
  3. 70098f48: 983c         	ldr	r0, [sp, #0xf0]
  4. 70098f4a: 7800         	ldrb	r0, [r0]
  5. 70098f4c: 993e         	ldr	r1, [sp, #0xf8]
  6. 70098f4e: 9a37         	ldr	r2, [sp, #0xdc]
  7. 70098f50: 1c53         	adds	r3, r2, #0x1
  8. 70098f52: 9337         	str	r3, [sp, #0xdc]
  9. 70098f54: 9b3d         	ldr	r3, [sp, #0xf4]
  10. 70098f56: 47e0         	blx	r12

Sync: Idx:61495; ID:10;	BRANCH_ADDRESS : Branch address.; Addr=0x700A4A20 ~[0xA4A20];

P_HDR Event: Idx:61498 (Pattern: EEEEEEEN, Function: _out_char)
Executed Assembly Steps:
  1. 700a4a20: b580         	push	{r7, lr}
  2. 700a4a22: b084         	sub	sp, #0x10
  3. 700a4a24: f88d 000f    	strb.w	r0, [sp, #0xf]
  4. 700a4a28: 9102         	str	r1, [sp, #0x8]
  5. 700a4a2a: 9201         	str	r2, [sp, #0x4]
  6. 700a4a2c: 9300         	str	r3, [sp]
  7. 700a4a2e: f89d 000f    	ldrb.w	r0, [sp, #0xf]
  8. 700a4a32: b128         	cbz	r0, 0x700a4a40 <_out_char+0x20> @ imm = #0xa

P_HDR Event: Idx:61499 (Pattern: EEEEEE, Function: _out_char)
Executed Assembly Steps:
  1. 700a4a34: e7ff         	b	0x700a4a36 <_out_char+0x16> @ imm = #-0x2
  2. 700a4a36: f89d 000f    	ldrb.w	r0, [sp, #0xf]
  3. 700a4a3a: f000 fa21    	bl	0x700a4e80 <putchar_>   @ imm = #0x442
  4. 700a4e80: b510         	push	{r4, lr}
  5. 700a4e82: 4604         	mov	r4, r0
  6. 700a4e84: f000 e9ac    	blx	0x700a51e0 <putchar>    @ imm = #0x358

Sync: Idx:61500; ID:10;	BRANCH_ADDRESS : Branch address.; Addr=0x700A51E0 ~[0x700A51E0]; ISA=ARM(32);

P_HDR Event: Idx:61506 (Pattern: EEEEEEEEE, Function: putchar)
Executed Assembly Steps:
  1. 700a51e0: e59f1004     	ldr	r1, [pc, #0x4]          @ 0x700a51ec <putchar+0xc>
  2. 700a51e4: e2811018     	add	r1, r1, #24
  3. 700a51e8: eaffe5b1     	b	0x7009e8b4 <fputc>      @ imm = #-0x693c
  4. 7009e8b4: e92d483c     	push	{r2, r3, r4, r5, r11, lr}
  5. 7009e8b8: e59f20e0     	ldr	r2, [pc, #0xe0]         @ 0x7009e9a0 <fputc+0xec>
  6. 7009e8bc: e1a04001     	mov	r4, r1
  7. 7009e8c0: e1a05000     	mov	r5, r0
  8. 7009e8c4: e5922000     	ldr	r2, [r2]
  9. 7009e8c8: e12fff32     	blx	r2

Sync: Idx:61507; ID:10;	BRANCH_ADDRESS : Branch address.; Addr=0x7009A2DC ~[0x9A2DC];

P_HDR Event: Idx:61510 (Pattern: E, Function: _nop)
Executed Assembly Steps:
  1. 7009a2dc: e12fff1e     	bx	lr

Sync: Idx:61511; ID:10;	BRANCH_ADDRESS : Branch address.; Addr=0x7009E8CC ~[0x68CC];

P_HDR Event: Idx:61513 (Pattern: EEEEEEEN, Function: fputc)
Executed Assembly Steps:
  1. 7009e8cc: e1a00004     	mov	r0, r4
  2. 7009e8d0: eb000949     	bl	0x700a0dfc <__TI_wrt_ok> @ imm = #0x2524
  3. 700a0dfc: e92d4010     	push	{r4, lr}
  4. 700a0e00: e1a04000     	mov	r4, r0
  5. 700a0e04: e5901000     	ldr	r1, [r0]
  6. 700a0e08: e3a00000     	mov	r0, #0
  7. 700a0e0c: e3710001     	cmn	r1, #1
  8. 700a0e10: 0a00001c     	beq	0x700a0e88 <__TI_wrt_ok+0x8c> @ imm = #0x70

P_HDR Event: Idx:61514 (Pattern: EEN, Function: __TI_wrt_ok)
Executed Assembly Steps:
  1. 700a0e14: e5941014     	ldr	r1, [r4, #0x14]
  2. 700a0e18: e3110010     	tst	r1, #16
  3. 700a0e1c: 1a00001a     	bne	0x700a0e8c <__TI_wrt_ok+0x90> @ imm = #0x68

P_HDR Event: Idx:61515 (Pattern: EEEEEEEE, Function: __TI_wrt_ok)
Executed Assembly Steps:
  1. 700a0e20: e3110080     	tst	r1, #128
  2. 700a0e24: 0a000004     	beq	0x700a0e3c <__TI_wrt_ok+0x40> @ imm = #0x10
  3. 700a0e3c: e2010060     	and	r0, r1, #96
  4. 700a0e40: e3500040     	cmp	r0, #64
  5. 700a0e44: 1a000001     	bne	0x700a0e50 <__TI_wrt_ok+0x54> @ imm = #0x4
  6. 700a0e50: e5942004     	ldr	r2, [r4, #0x4]
  7. 700a0e54: e3a00001     	mov	r0, #1
  8. 700a0e58: e3520000     	cmp	r2, #0

P_HDR Event: Idx:61516 (Pattern: NE, Function: __TI_wrt_ok)
Executed Assembly Steps:
  1. 700a0e5c: 02112004     	andseq	r2, r1, #4
  2. 700a0e60: 1a000006     	bne	0x700a0e80 <__TI_wrt_ok+0x84> @ imm = #0x18

P_HDR Event: Idx:61517 (Pattern: EEE, Function: __TI_wrt_ok)
Executed Assembly Steps:
  1. 700a0e80: e594100c     	ldr	r1, [r4, #0xc]
  2. 700a0e84: e5841010     	str	r1, [r4, #0x10]
  3. 700a0e88: e8bd8010     	pop	{r4, pc}

Sync: Idx:61518; ID:10;	BRANCH_ADDRESS : Branch address.; Addr=0x7009E8D4 ~[0xD4];

P_HDR Event: Idx:61520 (Pattern: EN, Function: fputc)
Executed Assembly Steps:
  1. 7009e8d4: e3500000     	cmp	r0, #0
  2. 7009e8d8: 0a00000b     	beq	0x7009e90c <fputc+0x58> @ imm = #0x2c

P_HDR Event: Idx:61521 (Pattern: EEEEEEEEEEEEEEE, Function: fputc)
Executed Assembly Steps:
  1. 7009e8dc: e5940014     	ldr	r0, [r4, #0x14]
  2. 7009e8e0: e2000007     	and	r0, r0, #7
  3. 7009e8e4: e3500004     	cmp	r0, #4
  4. 7009e8e8: 1a00000a     	bne	0x7009e918 <fputc+0x64> @ imm = #0x28
  5. 7009e918: e5940008     	ldr	r0, [r4, #0x8]
  6. 7009e91c: e594100c     	ldr	r1, [r4, #0xc]
  7. 7009e920: e1500001     	cmp	r0, r1
  8. 7009e924: 3a000004     	blo	0x7009e93c <fputc+0x88> @ imm = #0x10
  9. 7009e93c: e2801001     	add	r1, r0, #1
  10. 7009e940: e355000a     	cmp	r5, #10
  11. 7009e944: e5841008     	str	r1, [r4, #0x8]
  12. 7009e948: e5c05000     	strb	r5, [r0]
  13. 7009e94c: 1a00000e     	bne	0x7009e98c <fputc+0xd8> @ imm = #0x38
  14. 7009e98c: e59f0010     	ldr	r0, [pc, #0x10]         @ 0x7009e9a4 <fputc+0xf0>
  15. 7009e990: e5900000     	ldr	r0, [r0]

P_HDR Event: Idx:61522 (Pattern: E, Function: fputc)
Executed Assembly Steps:
  1. 7009e994: e12fff30     	blx	r0

Sync: Idx:61523; ID:10;	BRANCH_ADDRESS : Branch address.; Addr=0x7009A2DC ~[0x22DC];

P_HDR Event: Idx:61525 (Pattern: E, Function: _nop)
Executed Assembly Steps:
  1. 7009a2dc: e12fff1e     	bx	lr

Sync: Idx:61526; ID:10;	BRANCH_ADDRESS : Branch address.; Addr=0x7009E998 ~[0x6998];

P_HDR Event: Idx:61528 (Pattern: EE, Function: fputc)
Executed Assembly Steps:
  1. 7009e998: e6ef0075     	uxtb	r0, r5
  2. 7009e99c: e8bd883c     	pop	{r2, r3, r4, r5, r11, pc}

Sync: Idx:61529; ID:10;	BRANCH_ADDRESS : Branch address.; Addr=0x700A4E88 ~[0x700A4E88]; ISA=Thumb2;

P_HDR Event: Idx:61534 (Pattern: EEEEEEEEN, Function: putchar_)
Executed Assembly Steps:
  1. 700a4e88: 4620         	mov	r0, r4
  2. 700a4e8a: f7f8 fa11    	bl	0x7009d2b0 <DebugP_memLogWriterPutChar> @ imm = #-0x7bde
  3. 7009d2b0: b580         	push	{r7, lr}
  4. 7009d2b2: b088         	sub	sp, #0x20
  5. 7009d2b4: f88d 001f    	strb.w	r0, [sp, #0x1f]
  6. 7009d2b8: f247 30cc    	movw	r0, #0x73cc
  7. 7009d2bc: f2c7 000a    	movt	r0, #0x700a
  8. 7009d2c0: 6800         	ldr	r0, [r0]
  9. 7009d2c2: bb40         	cbnz	r0, 0x7009d316 <DebugP_memLogWriterPutChar+0x66> @ imm = #0x50

P_HDR Event: Idx:61536 (Pattern: EEEEEEEEEEEEEEE, Function: DebugP_memLogWriterPutChar)
Executed Assembly Steps:
  1. 7009d2c4: e7ff         	b	0x7009d2c6 <DebugP_memLogWriterPutChar+0x16> @ imm = #-0x2
  2. 7009d2c6: f005 f98b    	bl	0x700a25e0 <ClockP_getTimeUsec> @ imm = #0x5316
  3. 700a25e0: b580         	push	{r7, lr}
  4. 700a25e2: b08a         	sub	sp, #0x28
  5. 700a25e4: 2000         	movs	r0, #0x0
  6. 700a25e6: 9009         	str	r0, [sp, #0x24]
  7. 700a25e8: 9008         	str	r0, [sp, #0x20]
  8. 700a25ea: e7ff         	b	0x700a25ec <ClockP_getTimeUsec+0xc> @ imm = #-0x2
  9. 700a25ec: f644 50b0    	movw	r0, #0x4db0
  10. 700a25f0: f2c7 0008    	movt	r0, #0x7008
  11. 700a25f4: 9001         	str	r0, [sp, #0x4]
  12. 700a25f6: 6801         	ldr	r1, [r0]
  13. 700a25f8: 6842         	ldr	r2, [r0, #0x4]
  14. 700a25fa: 9205         	str	r2, [sp, #0x14]
  15. 700a25fc: 9104         	str	r1, [sp, #0x10]

P_HDR Event: Idx:61537 (Pattern: EEEEEEEEEEEEEEE, Function: ClockP_getTimeUsec)
Executed Assembly Steps:
  1. 700a25fe: 6ac0         	ldr	r0, [r0, #0x2c]
  2. 700a2600: f002 fdae    	bl	0x700a5160 <ClockP_getTimerCount> @ imm = #0x2b5c
  3. 700a5160: b580         	push	{r7, lr}
  4. 700a5162: b082         	sub	sp, #0x8
  5. 700a5164: 9001         	str	r0, [sp, #0x4]
  6. 700a5166: 9801         	ldr	r0, [sp, #0x4]
  7. 700a5168: f7ff ff6a    	bl	0x700a5040 <TimerP_getCount> @ imm = #-0x12c
  8. 700a5040: b082         	sub	sp, #0x8
  9. 700a5042: 9001         	str	r0, [sp, #0x4]
  10. 700a5044: 9801         	ldr	r0, [sp, #0x4]
  11. 700a5046: 303c         	adds	r0, #0x3c
  12. 700a5048: 9000         	str	r0, [sp]
  13. 700a504a: 9800         	ldr	r0, [sp]
  14. 700a504c: 6800         	ldr	r0, [r0]
  15. 700a504e: b002         	add	sp, #0x8

P_HDR Event: Idx:61538 (Pattern: E, Function: TimerP_getCount)
Executed Assembly Steps:
  1. 700a5050: 4770         	bx	lr

Sync: Idx:61539; ID:10;	BRANCH_ADDRESS : Branch address.; Addr=0x700A516C ~[0x116C];

P_HDR Event: Idx:61541 (Pattern: EE, Function: ClockP_getTimerCount)
Executed Assembly Steps:
  1. 700a516c: b002         	add	sp, #0x8
  2. 700a516e: bd80         	pop	{r7, pc}

Sync: Idx:61542; ID:10;	BRANCH_ADDRESS : Branch address.; Addr=0x700A2604 ~[0xA2604];

P_HDR Event: Idx:61546 (Pattern: EEEEEEEEEEEEEE, Function: ClockP_getTimeUsec)
Executed Assembly Steps:
  1. 700a2604: 9901         	ldr	r1, [sp, #0x4]
  2. 700a2606: 9007         	str	r0, [sp, #0x1c]
  3. 700a2608: 6808         	ldr	r0, [r1]
  4. 700a260a: 6849         	ldr	r1, [r1, #0x4]
  5. 700a260c: 9103         	str	r1, [sp, #0xc]
  6. 700a260e: 9002         	str	r0, [sp, #0x8]
  7. 700a2610: e7ff         	b	0x700a2612 <ClockP_getTimeUsec+0x32> @ imm = #-0x2
  8. 700a2612: 9804         	ldr	r0, [sp, #0x10]
  9. 700a2614: 9905         	ldr	r1, [sp, #0x14]
  10. 700a2616: 9a02         	ldr	r2, [sp, #0x8]
  11. 700a2618: 9b03         	ldr	r3, [sp, #0xc]
  12. 700a261a: 4059         	eors	r1, r3
  13. 700a261c: ea80 0002    	eor.w	r0, r0, r2
  14. 700a2620: 4308         	orrs	r0, r1

P_HDR Event: Idx:61547 (Pattern: EN, Function: ClockP_getTimeUsec)
Executed Assembly Steps:
  1. 700a2622: 2800         	cmp	r0, #0x0
  2. 700a2624: d1e2         	bne	0x700a25ec <ClockP_getTimeUsec+0xc> @ imm = #-0x3c

P_HDR Event: Idx:61548 (Pattern: EEEEEEEEEEEEEEE, Function: ClockP_getTimeUsec)
Executed Assembly Steps:
  1. 700a2626: e7ff         	b	0x700a2628 <ClockP_getTimeUsec+0x48> @ imm = #-0x2
  2. 700a2628: 9a02         	ldr	r2, [sp, #0x8]
  3. 700a262a: 9803         	ldr	r0, [sp, #0xc]
  4. 700a262c: f644 51b0    	movw	r1, #0x4db0
  5. 700a2630: f2c7 0108    	movt	r1, #0x7008
  6. 700a2634: 688b         	ldr	r3, [r1, #0x8]
  7. 700a2636: f8d1 c030    	ldr.w	r12, [r1, #0x30]
  8. 700a263a: fb00 f103    	mul	r1, r0, r3
  9. 700a263e: 9807         	ldr	r0, [sp, #0x1c]
  10. 700a2640: eba0 000c    	sub.w	r0, r0, r12
  11. 700a2644: 4358         	muls	r0, r3, r0
  12. 700a2646: ea6f 0c0c    	mvn.w	r12, r12
  13. 700a264a: fbb0 f0fc    	udiv	r0, r0, r12
  14. 700a264e: fbe2 0103    	umlal	r0, r1, r2, r3
  15. 700a2652: 9109         	str	r1, [sp, #0x24]

P_HDR Event: Idx:61552 (Pattern: EEEEE, Function: ClockP_getTimeUsec)
Executed Assembly Steps:
  1. 700a2654: 9008         	str	r0, [sp, #0x20]
  2. 700a2656: 9808         	ldr	r0, [sp, #0x20]
  3. 700a2658: 9909         	ldr	r1, [sp, #0x24]
  4. 700a265a: b00a         	add	sp, #0x28
  5. 700a265c: bd80         	pop	{r7, pc}

Sync: Idx:61553; ID:10;	BRANCH_ADDRESS : Branch address.; Addr=0x7009D2CA ~[0x9D2CA];

P_HDR Event: Idx:61556 (Pattern: EEEEEEEEEEEE, Function: DebugP_memLogWriterPutChar)
Executed Assembly Steps:
  1. 7009d2ca: 9105         	str	r1, [sp, #0x14]
  2. 7009d2cc: 9004         	str	r0, [sp, #0x10]
  3. 7009d2ce: f247 40dc    	movw	r0, #0x74dc
  4. 7009d2d2: f2c7 000a    	movt	r0, #0x700a
  5. 7009d2d6: 6800         	ldr	r0, [r0]
  6. 7009d2d8: 9003         	str	r0, [sp, #0xc]
  7. 7009d2da: 9804         	ldr	r0, [sp, #0x10]
  8. 7009d2dc: 9905         	ldr	r1, [sp, #0x14]
  9. 7009d2de: f244 2240    	movw	r2, #0x4240
  10. 7009d2e2: f2c0 020f    	movt	r2, #0xf
  11. 7009d2e6: 2300         	movs	r3, #0x0
  12. 7009d2e8: f007 eb84    	blx	0x700a49f4 <__aeabi_uldivmod> @ imm = #0x7708

Sync: Idx:61557; ID:10;	BRANCH_ADDRESS : Branch address.; Addr=0x700A49F4 ~[0x700A49F4]; ISA=ARM(32);

P_HDR Event: Idx:61562 (Pattern: EEEEEEEN, Function: __aeabi_uldivmod)
Executed Assembly Steps:
  1. 700a49f4: e92d4040     	push	{r6, lr}
  2. 700a49f8: e24dd010     	sub	sp, sp, #16
  3. 700a49fc: e28d6008     	add	r6, sp, #8
  4. 700a4a00: e58d6000     	str	r6, [sp]
  5. 700a4a04: ebffe53b     	bl	0x7009def8 <__udivmoddi4> @ imm = #-0x6b14
  6. 7009def8: e1530001     	cmp	r3, r1
  7. 7009defc: 01520000     	cmpeq	r2, r0
  8. 7009df00: 9a000007     	bls	0x7009df24 <__udivmoddi4+0x2c> @ imm = #0x1c

P_HDR Event: Idx:61563 (Pattern: EEN, Function: __udivmoddi4)
Executed Assembly Steps:
  1. 7009df04: e59d2000     	ldr	r2, [sp]
  2. 7009df08: e3520000     	cmp	r2, #0
  3. 7009df0c: 0a000001     	beq	0x7009df18 <__udivmoddi4+0x20> @ imm = #0x4

P_HDR Event: Idx:61564 (Pattern: EEEEE, Function: __udivmoddi4)
Executed Assembly Steps:
  1. 7009df10: e5820000     	str	r0, [r2]
  2. 7009df14: e5821004     	str	r1, [r2, #0x4]
  3. 7009df18: e3b01000     	movs	r1, #0
  4. 7009df1c: e3b00000     	movs	r0, #0
  5. 7009df20: e12fff1e     	bx	lr

Sync: Idx:61565; ID:10;	BRANCH_ADDRESS : Branch address.; Addr=0x700A4A08 ~[0x4A08];

P_HDR Event: Idx:61568 (Pattern: EEEE, Function: __aeabi_uldivmod)
Executed Assembly Steps:
  1. 700a4a08: e59d2008     	ldr	r2, [sp, #0x8]
  2. 700a4a0c: e59d300c     	ldr	r3, [sp, #0xc]
  3. 700a4a10: e28dd010     	add	sp, sp, #16
  4. 700a4a14: e8bd8040     	pop	{r6, pc}

Sync: Idx:61569; ID:10;	BRANCH_ADDRESS : Branch address.; Addr=0x7009D2EC ~[0x7009D2EC]; ISA=Thumb2;

P_HDR Event: Idx:61574 (Pattern: EEEEEEEEEEEEEEE, Function: DebugP_memLogWriterPutChar)
Executed Assembly Steps:
  1. 7009d2ec: 9b03         	ldr	r3, [sp, #0xc]
  2. 7009d2ee: 4669         	mov	r1, sp
  3. 7009d2f0: 604a         	str	r2, [r1, #0x4]
  4. 7009d2f2: 6008         	str	r0, [r1]
  5. 7009d2f4: f644 40e0    	movw	r0, #0x4ce0
  6. 7009d2f8: f2c7 0008    	movt	r0, #0x7008
  7. 7009d2fc: f646 72cd    	movw	r2, #0x6fcd
  8. 7009d300: f2c7 020a    	movt	r2, #0x700a
  9. 7009d304: 2178         	movs	r1, #0x78
  10. 7009d306: f006 fdbb    	bl	0x700a3e80 <snprintf_>  @ imm = #0x6b76
  11. 700a3e80: b081         	sub	sp, #0x4
  12. 700a3e82: b580         	push	{r7, lr}
  13. 700a3e84: b087         	sub	sp, #0x1c
  14. 700a3e86: 9309         	str	r3, [sp, #0x24]
  15. 700a3e88: 9006         	str	r0, [sp, #0x18]

P_HDR Event: Idx:61575 (Pattern: EEEEEEEEEEEEEEE, Function: snprintf_)
Executed Assembly Steps:
  1. 700a3e8a: 9105         	str	r1, [sp, #0x14]
  2. 700a3e8c: 9204         	str	r2, [sp, #0x10]
  3. 700a3e8e: a809         	add	r0, sp, #0x24
  4. 700a3e90: 9003         	str	r0, [sp, #0xc]
  5. 700a3e92: 9906         	ldr	r1, [sp, #0x18]
  6. 700a3e94: 9a05         	ldr	r2, [sp, #0x14]
  7. 700a3e96: 9b04         	ldr	r3, [sp, #0x10]
  8. 700a3e98: 9803         	ldr	r0, [sp, #0xc]
  9. 700a3e9a: 46ec         	mov	r12, sp
  10. 700a3e9c: f8cc 0000    	str.w	r0, [r12]
  11. 700a3ea0: f644 00b1    	movw	r0, #0x48b1
  12. 700a3ea4: f2c7 000a    	movt	r0, #0x700a
  13. 700a3ea8: f7f5 f82a    	bl	0x70098f00 <_vsnprintf> @ imm = #-0xafac
  14. 70098f00: e92d 43f0    	push.w	{r4, r5, r6, r7, r8, r9, lr}
  15. 70098f04: b0c1         	sub	sp, #0x104

P_HDR Event: Idx:61576 (Pattern: EEEEEEEEEEEEEEN, Function: _vsnprintf)
Executed Assembly Steps:
  1. 70098f06: f8dd c120    	ldr.w	r12, [sp, #0x120]
  2. 70098f0a: f8cd c100    	str.w	r12, [sp, #0x100]
  3. 70098f0e: 903f         	str	r0, [sp, #0xfc]
  4. 70098f10: 913e         	str	r1, [sp, #0xf8]
  5. 70098f12: 923d         	str	r2, [sp, #0xf4]
  6. 70098f14: 933c         	str	r3, [sp, #0xf0]
  7. 70098f16: 2000         	movs	r0, #0x0
  8. 70098f18: 9037         	str	r0, [sp, #0xdc]
  9. 70098f1a: 983e         	ldr	r0, [sp, #0xf8]
  10. 70098f1c: b930         	cbnz	r0, 0x70098f2c <_vsnprintf+0x2c> @ imm = #0xc
  11. 70098f2c: e7ff         	b	0x70098f2e <_vsnprintf+0x2e> @ imm = #-0x2
  12. 70098f2e: 983c         	ldr	r0, [sp, #0xf0]
  13. 70098f30: 7800         	ldrb	r0, [r0]
  14. 70098f32: 2800         	cmp	r0, #0x0
  15. 70098f34: f000 84e3    	beq.w	0x700998fe <_vsnprintf+0x9fe> @ imm = #0x9c6

P_HDR Event: Idx:61577 (Pattern: EEEEN, Function: _vsnprintf)
Executed Assembly Steps:
  1. 70098f38: e7ff         	b	0x70098f3a <_vsnprintf+0x3a> @ imm = #-0x2
  2. 70098f3a: 983c         	ldr	r0, [sp, #0xf0]
  3. 70098f3c: 7800         	ldrb	r0, [r0]
  4. 70098f3e: 2825         	cmp	r0, #0x25
  5. 70098f40: d00e         	beq	0x70098f60 <_vsnprintf+0x60> @ imm = #0x1c

P_HDR Event: Idx:61578 (Pattern: EEEEEEEEEE, Function: _vsnprintf)
Executed Assembly Steps:
  1. 70098f42: e7ff         	b	0x70098f44 <_vsnprintf+0x44> @ imm = #-0x2
  2. 70098f44: f8dd c0fc    	ldr.w	r12, [sp, #0xfc]
  3. 70098f48: 983c         	ldr	r0, [sp, #0xf0]
  4. 70098f4a: 7800         	ldrb	r0, [r0]
  5. 70098f4c: 993e         	ldr	r1, [sp, #0xf8]
  6. 70098f4e: 9a37         	ldr	r2, [sp, #0xdc]
  7. 70098f50: 1c53         	adds	r3, r2, #0x1
  8. 70098f52: 9337         	str	r3, [sp, #0xdc]
  9. 70098f54: 9b3d         	ldr	r3, [sp, #0xf4]
  10. 70098f56: 47e0         	blx	r12

Sync: Idx:61579; ID:10;	BRANCH_ADDRESS : Branch address.; Addr=0x700A48B0 ~[0xA48B0];

P_HDR Event: Idx:61582 (Pattern: EEEEEEEEN, Function: _out_buffer)
Executed Assembly Steps:
  1. 700a48b0: b084         	sub	sp, #0x10
  2. 700a48b2: f88d 000f    	strb.w	r0, [sp, #0xf]
  3. 700a48b6: 9102         	str	r1, [sp, #0x8]
  4. 700a48b8: 9201         	str	r2, [sp, #0x4]
  5. 700a48ba: 9300         	str	r3, [sp]
  6. 700a48bc: 9801         	ldr	r0, [sp, #0x4]
  7. 700a48be: 9900         	ldr	r1, [sp]
  8. 700a48c0: 4288         	cmp	r0, r1
  9. 700a48c2: d206         	bhs	0x700a48d2 <_out_buffer+0x22> @ imm = #0xc

P_HDR Event: Idx:61584 (Pattern: EEEEEEEE, Function: _out_buffer)
Executed Assembly Steps:
  1. 700a48c4: e7ff         	b	0x700a48c6 <_out_buffer+0x16> @ imm = #-0x2
  2. 700a48c6: f89d 000f    	ldrb.w	r0, [sp, #0xf]
  3. 700a48ca: 9902         	ldr	r1, [sp, #0x8]
  4. 700a48cc: 9a01         	ldr	r2, [sp, #0x4]
  5. 700a48ce: 5488         	strb	r0, [r1, r2]
  6. 700a48d0: e7ff         	b	0x700a48d2 <_out_buffer+0x22> @ imm = #-0x2
  7. 700a48d2: b004         	add	sp, #0x10
  8. 700a48d4: 4770         	bx	lr

Sync: Idx:61585; ID:10;	BRANCH_ADDRESS : Branch address.; Addr=0x70098F58 ~[0x98F58];

P_HDR Event: Idx:61588 (Pattern: EEEEEEEN, Function: _vsnprintf)
Executed Assembly Steps:
  1. 70098f58: 983c         	ldr	r0, [sp, #0xf0]
  2. 70098f5a: 3001         	adds	r0, #0x1
  3. 70098f5c: 903c         	str	r0, [sp, #0xf0]
  4. 70098f5e: e7e6         	b	0x70098f2e <_vsnprintf+0x2e> @ imm = #-0x34
  5. 70098f2e: 983c         	ldr	r0, [sp, #0xf0]
  6. 70098f30: 7800         	ldrb	r0, [r0]
  7. 70098f32: 2800         	cmp	r0, #0x0
  8. 70098f34: f000 84e3    	beq.w	0x700998fe <_vsnprintf+0x9fe> @ imm = #0x9c6

P_HDR Event: Idx:61589 (Pattern: EEEEEEEEEEEEEEE, Function: _vsnprintf)
Executed Assembly Steps:
  1. 70098f38: e7ff         	b	0x70098f3a <_vsnprintf+0x3a> @ imm = #-0x2
  2. 70098f3a: 983c         	ldr	r0, [sp, #0xf0]
  3. 70098f3c: 7800         	ldrb	r0, [r0]
  4. 70098f3e: 2825         	cmp	r0, #0x25
  5. 70098f40: d00e         	beq	0x70098f60 <_vsnprintf+0x60> @ imm = #0x1c
  6. 70098f60: 983c         	ldr	r0, [sp, #0xf0]
  7. 70098f62: 3001         	adds	r0, #0x1
  8. 70098f64: 903c         	str	r0, [sp, #0xf0]
  9. 70098f66: e7ff         	b	0x70098f68 <_vsnprintf+0x68> @ imm = #-0x2
  10. 70098f68: 2000         	movs	r0, #0x0
  11. 70098f6a: 903b         	str	r0, [sp, #0xec]
  12. 70098f6c: e7ff         	b	0x70098f6e <_vsnprintf+0x6e> @ imm = #-0x2
  13. 70098f6e: 983c         	ldr	r0, [sp, #0xf0]
  14. 70098f70: 7800         	ldrb	r0, [r0]
  15. 70098f72: 3820         	subs	r0, #0x20

P_HDR Event: Idx:61590 (Pattern: EEEEEEEEEEN, Function: _vsnprintf)
Executed Assembly Steps:
  1. 70098f74: 4601         	mov	r1, r0
  2. 70098f76: 912a         	str	r1, [sp, #0xa8]
  3. 70098f78: 2810         	cmp	r0, #0x10
  4. 70098f7a: d83d         	bhi	0x70098ff8 <_vsnprintf+0xf8> @ imm = #0x7a
  5. 70098ff8: 2000         	movs	r0, #0x0
  6. 70098ffa: 9038         	str	r0, [sp, #0xe0]
  7. 70098ffc: e7ff         	b	0x70098ffe <_vsnprintf+0xfe> @ imm = #-0x2
  8. 70098ffe: e7ff         	b	0x70099000 <_vsnprintf+0x100> @ imm = #-0x2
  9. 70099000: 9838         	ldr	r0, [sp, #0xe0]
  10. 70099002: 2800         	cmp	r0, #0x0
  11. 70099004: d1b3         	bne	0x70098f6e <_vsnprintf+0x6e> @ imm = #-0x9a

P_HDR Event: Idx:61591 (Pattern: EEEEEEEEEEEEN, Function: _vsnprintf)
Executed Assembly Steps:
  1. 70099006: e7ff         	b	0x70099008 <_vsnprintf+0x108> @ imm = #-0x2
  2. 70099008: 2000         	movs	r0, #0x0
  3. 7009900a: 903a         	str	r0, [sp, #0xe8]
  4. 7009900c: 983c         	ldr	r0, [sp, #0xf0]
  5. 7009900e: 7800         	ldrb	r0, [r0]
  6. 70099010: f00b fa6e    	bl	0x700a44f0 <_is_digit>  @ imm = #0xb4dc
  7. 700a44f0: b082         	sub	sp, #0x8
  8. 700a44f2: f88d 0007    	strb.w	r0, [sp, #0x7]
  9. 700a44f6: f89d 1007    	ldrb.w	r1, [sp, #0x7]
  10. 700a44fa: 2000         	movs	r0, #0x0
  11. 700a44fc: 2930         	cmp	r1, #0x30
  12. 700a44fe: 9000         	str	r0, [sp]
  13. 700a4500: db08         	blt	0x700a4514 <_is_digit+0x24> @ imm = #0x10

P_HDR Event: Idx:61592 (Pattern: EEEEEEEEEEEE, Function: _is_digit)
Executed Assembly Steps:
  1. 700a4502: e7ff         	b	0x700a4504 <_is_digit+0x14> @ imm = #-0x2
  2. 700a4504: f89d 1007    	ldrb.w	r1, [sp, #0x7]
  3. 700a4508: 2000         	movs	r0, #0x0
  4. 700a450a: 293a         	cmp	r1, #0x3a
  5. 700a450c: bfb8         	it	lt
  6. 700a450e: 2001         	movlt	r0, #0x1
  7. 700a4510: 9000         	str	r0, [sp]
  8. 700a4512: e7ff         	b	0x700a4514 <_is_digit+0x24> @ imm = #-0x2
  9. 700a4514: 9800         	ldr	r0, [sp]
  10. 700a4516: f000 0001    	and	r0, r0, #0x1
  11. 700a451a: b002         	add	sp, #0x8
  12. 700a451c: 4770         	bx	lr

Sync: Idx:61593; ID:10;	BRANCH_ADDRESS : Branch address.; Addr=0x70099014 ~[0x1014];

P_HDR Event: Idx:61595 (Pattern: N, Function: _vsnprintf)
Executed Assembly Steps:
  1. 70099014: b128         	cbz	r0, 0x70099022 <_vsnprintf+0x122> @ imm = #0xa

P_HDR Event: Idx:61596 (Pattern: EEEEEEEEEEEEEEE, Function: _vsnprintf)
Executed Assembly Steps:
  1. 70099016: e7ff         	b	0x70099018 <_vsnprintf+0x118> @ imm = #-0x2
  2. 70099018: a83c         	add	r0, sp, #0xf0
  3. 7009901a: f00a ff11    	bl	0x700a3e40 <_atoi>      @ imm = #0xae22
  4. 700a3e40: b580         	push	{r7, lr}
  5. 700a3e42: b082         	sub	sp, #0x8
  6. 700a3e44: 9001         	str	r0, [sp, #0x4]
  7. 700a3e46: 2000         	movs	r0, #0x0
  8. 700a3e48: 9000         	str	r0, [sp]
  9. 700a3e4a: e7ff         	b	0x700a3e4c <_atoi+0xc>  @ imm = #-0x2
  10. 700a3e4c: 9801         	ldr	r0, [sp, #0x4]
  11. 700a3e4e: 6800         	ldr	r0, [r0]
  12. 700a3e50: 7800         	ldrb	r0, [r0]
  13. 700a3e52: f000 fb4d    	bl	0x700a44f0 <_is_digit>  @ imm = #0x69a
  14. 700a44f0: b082         	sub	sp, #0x8
  15. 700a44f2: f88d 0007    	strb.w	r0, [sp, #0x7]

P_HDR Event: Idx:61597 (Pattern: EEEEN, Function: _is_digit)
Executed Assembly Steps:
  1. 700a44f6: f89d 1007    	ldrb.w	r1, [sp, #0x7]
  2. 700a44fa: 2000         	movs	r0, #0x0
  3. 700a44fc: 2930         	cmp	r1, #0x30
  4. 700a44fe: 9000         	str	r0, [sp]
  5. 700a4500: db08         	blt	0x700a4514 <_is_digit+0x24> @ imm = #0x10

P_HDR Event: Idx:61598 (Pattern: EEEEEEEEEEEE, Function: _is_digit)
Executed Assembly Steps:
  1. 700a4502: e7ff         	b	0x700a4504 <_is_digit+0x14> @ imm = #-0x2
  2. 700a4504: f89d 1007    	ldrb.w	r1, [sp, #0x7]
  3. 700a4508: 2000         	movs	r0, #0x0
  4. 700a450a: 293a         	cmp	r1, #0x3a
  5. 700a450c: bfb8         	it	lt
  6. 700a450e: 2001         	movlt	r0, #0x1
  7. 700a4510: 9000         	str	r0, [sp]
  8. 700a4512: e7ff         	b	0x700a4514 <_is_digit+0x24> @ imm = #-0x2
  9. 700a4514: 9800         	ldr	r0, [sp]
  10. 700a4516: f000 0001    	and	r0, r0, #0x1
  11. 700a451a: b002         	add	sp, #0x8
  12. 700a451c: 4770         	bx	lr

Sync: Idx:61600; ID:10;	BRANCH_ADDRESS : Branch address.; Addr=0x700A3E56 ~[0xA3E56];

P_HDR Event: Idx:61603 (Pattern: N, Function: _atoi)
Executed Assembly Steps:
  1. 700a3e56: b168         	cbz	r0, 0x700a3e74 <_atoi+0x34> @ imm = #0x1a

P_HDR Event: Idx:61604 (Pattern: EEEEEEEEEEEEEEE, Function: _atoi)
Executed Assembly Steps:
  1. 700a3e58: e7ff         	b	0x700a3e5a <_atoi+0x1a> @ imm = #-0x2
  2. 700a3e5a: 9800         	ldr	r0, [sp]
  3. 700a3e5c: eb00 0180    	add.w	r1, r0, r0, lsl #2
  4. 700a3e60: 9b01         	ldr	r3, [sp, #0x4]
  5. 700a3e62: 6818         	ldr	r0, [r3]
  6. 700a3e64: 1c42         	adds	r2, r0, #0x1
  7. 700a3e66: 601a         	str	r2, [r3]
  8. 700a3e68: 7800         	ldrb	r0, [r0]
  9. 700a3e6a: eb00 0041    	add.w	r0, r0, r1, lsl #1
  10. 700a3e6e: 3830         	subs	r0, #0x30
  11. 700a3e70: 9000         	str	r0, [sp]
  12. 700a3e72: e7eb         	b	0x700a3e4c <_atoi+0xc>  @ imm = #-0x2a
  13. 700a3e4c: 9801         	ldr	r0, [sp, #0x4]
  14. 700a3e4e: 6800         	ldr	r0, [r0]
  15. 700a3e50: 7800         	ldrb	r0, [r0]

P_HDR Event: Idx:61605 (Pattern: EEEEEEEN, Function: _atoi)
Executed Assembly Steps:
  1. 700a3e52: f000 fb4d    	bl	0x700a44f0 <_is_digit>  @ imm = #0x69a
  2. 700a44f0: b082         	sub	sp, #0x8
  3. 700a44f2: f88d 0007    	strb.w	r0, [sp, #0x7]
  4. 700a44f6: f89d 1007    	ldrb.w	r1, [sp, #0x7]
  5. 700a44fa: 2000         	movs	r0, #0x0
  6. 700a44fc: 2930         	cmp	r1, #0x30
  7. 700a44fe: 9000         	str	r0, [sp]
  8. 700a4500: db08         	blt	0x700a4514 <_is_digit+0x24> @ imm = #0x10

P_HDR Event: Idx:61606 (Pattern: EEEEEN, Function: _is_digit)
Executed Assembly Steps:
  1. 700a4502: e7ff         	b	0x700a4504 <_is_digit+0x14> @ imm = #-0x2
  2. 700a4504: f89d 1007    	ldrb.w	r1, [sp, #0x7]
  3. 700a4508: 2000         	movs	r0, #0x0
  4. 700a450a: 293a         	cmp	r1, #0x3a
  5. 700a450c: bfb8         	it	lt
  6. 700a450e: 2001         	movlt	r0, #0x1

P_HDR Event: Idx:61607 (Pattern: EEEEEE, Function: _is_digit)
Executed Assembly Steps:
  1. 700a4510: 9000         	str	r0, [sp]
  2. 700a4512: e7ff         	b	0x700a4514 <_is_digit+0x24> @ imm = #-0x2
  3. 700a4514: 9800         	ldr	r0, [sp]
  4. 700a4516: f000 0001    	and	r0, r0, #0x1
  5. 700a451a: b002         	add	sp, #0x8
  6. 700a451c: 4770         	bx	lr

Sync: Idx:61608; ID:10;	BRANCH_ADDRESS : Branch address.; Addr=0x700A3E56 ~[0x56];

P_HDR Event: Idx:61609 (Pattern: EEEE, Function: _atoi)
Executed Assembly Steps:
  1. 700a3e56: b168         	cbz	r0, 0x700a3e74 <_atoi+0x34> @ imm = #0x1a
  2. 700a3e74: 9800         	ldr	r0, [sp]
  3. 700a3e76: b002         	add	sp, #0x8
  4. 700a3e78: bd80         	pop	{r7, pc}

Sync: Idx:61610; ID:10;	BRANCH_ADDRESS : Branch address.; Addr=0x7009901E ~[0x9901E];

P_HDR Event: Idx:61613 (Pattern: EEEEEEEEEEEEEEN, Function: _vsnprintf)
Executed Assembly Steps:
  1. 7009901e: 903a         	str	r0, [sp, #0xe8]
  2. 70099020: e01e         	b	0x70099060 <_vsnprintf+0x160> @ imm = #0x3c
  3. 70099060: 2000         	movs	r0, #0x0
  4. 70099062: 9039         	str	r0, [sp, #0xe4]
  5. 70099064: 983c         	ldr	r0, [sp, #0xf0]
  6. 70099066: 7800         	ldrb	r0, [r0]
  7. 70099068: 282e         	cmp	r0, #0x2e
  8. 7009906a: d12e         	bne	0x700990ca <_vsnprintf+0x1ca> @ imm = #0x5c
  9. 700990ca: 983c         	ldr	r0, [sp, #0xf0]
  10. 700990cc: 7800         	ldrb	r0, [r0]
  11. 700990ce: 3868         	subs	r0, #0x68
  12. 700990d0: 4601         	mov	r1, r0
  13. 700990d2: 9128         	str	r1, [sp, #0xa0]
  14. 700990d4: 2812         	cmp	r0, #0x12
  15. 700990d6: d84e         	bhi	0x70099176 <_vsnprintf+0x276> @ imm = #0x9c

P_HDR Event: Idx:61614 (Pattern: EE, Function: _vsnprintf)
Executed Assembly Steps:
  1. 700990d8: 9928         	ldr	r1, [sp, #0xa0]
  2. 700990da: e8df f001    	tbb	[pc, r1]

Sync: Idx:61616; ID:10;	BRANCH_ADDRESS : Branch address.; Addr=0x70099176 ~[0x1176];

P_HDR Event: Idx:61618 (Pattern: EEEEEEEN, Function: _vsnprintf)
Executed Assembly Steps:
  1. 70099176: e7ff         	b	0x70099178 <_vsnprintf+0x278> @ imm = #-0x2
  2. 70099178: 983c         	ldr	r0, [sp, #0xf0]
  3. 7009917a: 7800         	ldrb	r0, [r0]
  4. 7009917c: 3825         	subs	r0, #0x25
  5. 7009917e: 4601         	mov	r1, r0
  6. 70099180: 9127         	str	r1, [sp, #0x9c]
  7. 70099182: 2853         	cmp	r0, #0x53
  8. 70099184: f200 83ab    	bhi.w	0x700998de <_vsnprintf+0x9de> @ imm = #0x756

P_HDR Event: Idx:61619 (Pattern: EE, Function: _vsnprintf)
Executed Assembly Steps:
  1. 70099188: 9927         	ldr	r1, [sp, #0x9c]
  2. 7009918a: e8df f011    	tbh	[pc, r1, lsl #1]

Sync: Idx:61620; ID:10;	BRANCH_ADDRESS : Branch address.; Addr=0x70099752 ~[0x1752];

P_HDR Event: Idx:61622 (Pattern: EEEEEEEEEEEEEEE, Function: _vsnprintf)
Executed Assembly Steps:
  1. 70099752: 9840         	ldr	r0, [sp, #0x100]
  2. 70099754: 1d01         	adds	r1, r0, #0x4
  3. 70099756: 9140         	str	r1, [sp, #0x100]
  4. 70099758: 6800         	ldr	r0, [r0]
  5. 7009975a: 902d         	str	r0, [sp, #0xb4]
  6. 7009975c: 982d         	ldr	r0, [sp, #0xb4]
  7. 7009975e: 9010         	str	r0, [sp, #0x40]
  8. 70099760: 9839         	ldr	r0, [sp, #0xe4]
  9. 70099762: b118         	cbz	r0, 0x7009976c <_vsnprintf+0x86c> @ imm = #0x6
  10. 7009976c: f04f 30ff    	mov.w	r0, #0xffffffff
  11. 70099770: 900f         	str	r0, [sp, #0x3c]
  12. 70099772: e7ff         	b	0x70099774 <_vsnprintf+0x874> @ imm = #-0x2
  13. 70099774: 9810         	ldr	r0, [sp, #0x40]
  14. 70099776: 990f         	ldr	r1, [sp, #0x3c]
  15. 70099778: f00a f982    	bl	0x700a3a80 <_strnlen_s> @ imm = #0xa304

P_HDR Event: Idx:61623 (Pattern: EEEEEEEEEEN, Function: _strnlen_s)
Executed Assembly Steps:
  1. 700a3a80: b084         	sub	sp, #0x10
  2. 700a3a82: 9003         	str	r0, [sp, #0xc]
  3. 700a3a84: 9102         	str	r1, [sp, #0x8]
  4. 700a3a86: 9803         	ldr	r0, [sp, #0xc]
  5. 700a3a88: 9001         	str	r0, [sp, #0x4]
  6. 700a3a8a: e7ff         	b	0x700a3a8c <_strnlen_s+0xc> @ imm = #-0x2
  7. 700a3a8c: 9801         	ldr	r0, [sp, #0x4]
  8. 700a3a8e: 7801         	ldrb	r1, [r0]
  9. 700a3a90: 2000         	movs	r0, #0x0
  10. 700a3a92: 9000         	str	r0, [sp]
  11. 700a3a94: b141         	cbz	r1, 0x700a3aa8 <_strnlen_s+0x28> @ imm = #0x10

P_HDR Event: Idx:61624 (Pattern: EEEEEEEEEEEN, Function: _strnlen_s)
Executed Assembly Steps:
  1. 700a3a96: e7ff         	b	0x700a3a98 <_strnlen_s+0x18> @ imm = #-0x2
  2. 700a3a98: 9802         	ldr	r0, [sp, #0x8]
  3. 700a3a9a: 1e41         	subs	r1, r0, #0x1
  4. 700a3a9c: 9102         	str	r1, [sp, #0x8]
  5. 700a3a9e: 2800         	cmp	r0, #0x0
  6. 700a3aa0: bf18         	it	ne
  7. 700a3aa2: 2001         	movne	r0, #0x1
  8. 700a3aa4: 9000         	str	r0, [sp]
  9. 700a3aa6: e7ff         	b	0x700a3aa8 <_strnlen_s+0x28> @ imm = #-0x2
  10. 700a3aa8: 9800         	ldr	r0, [sp]
  11. 700a3aaa: 07c0         	lsls	r0, r0, #0x1f
  12. 700a3aac: b128         	cbz	r0, 0x700a3aba <_strnlen_s+0x3a> @ imm = #0xa

P_HDR Event: Idx:61625 (Pattern: EEEEEEEEEEN, Function: _strnlen_s)
Executed Assembly Steps:
  1. 700a3aae: e7ff         	b	0x700a3ab0 <_strnlen_s+0x30> @ imm = #-0x2
  2. 700a3ab0: e7ff         	b	0x700a3ab2 <_strnlen_s+0x32> @ imm = #-0x2
  3. 700a3ab2: 9801         	ldr	r0, [sp, #0x4]
  4. 700a3ab4: 3001         	adds	r0, #0x1
  5. 700a3ab6: 9001         	str	r0, [sp, #0x4]
  6. 700a3ab8: e7e8         	b	0x700a3a8c <_strnlen_s+0xc> @ imm = #-0x30
  7. 700a3a8c: 9801         	ldr	r0, [sp, #0x4]
  8. 700a3a8e: 7801         	ldrb	r1, [r0]
  9. 700a3a90: 2000         	movs	r0, #0x0
  10. 700a3a92: 9000         	str	r0, [sp]
  11. 700a3a94: b141         	cbz	r1, 0x700a3aa8 <_strnlen_s+0x28> @ imm = #0x10

P_HDR Event: Idx:61626 (Pattern: EEEEEEEEEEEN, Function: _strnlen_s)
Executed Assembly Steps:
  1. 700a3a96: e7ff         	b	0x700a3a98 <_strnlen_s+0x18> @ imm = #-0x2
  2. 700a3a98: 9802         	ldr	r0, [sp, #0x8]
  3. 700a3a9a: 1e41         	subs	r1, r0, #0x1
  4. 700a3a9c: 9102         	str	r1, [sp, #0x8]
  5. 700a3a9e: 2800         	cmp	r0, #0x0
  6. 700a3aa0: bf18         	it	ne
  7. 700a3aa2: 2001         	movne	r0, #0x1
  8. 700a3aa4: 9000         	str	r0, [sp]
  9. 700a3aa6: e7ff         	b	0x700a3aa8 <_strnlen_s+0x28> @ imm = #-0x2
  10. 700a3aa8: 9800         	ldr	r0, [sp]
  11. 700a3aaa: 07c0         	lsls	r0, r0, #0x1f
  12. 700a3aac: b128         	cbz	r0, 0x700a3aba <_strnlen_s+0x3a> @ imm = #0xa

P_HDR Event: Idx:61627 (Pattern: EEEEEEEEEEN, Function: _strnlen_s)
Executed Assembly Steps:
  1. 700a3aae: e7ff         	b	0x700a3ab0 <_strnlen_s+0x30> @ imm = #-0x2
  2. 700a3ab0: e7ff         	b	0x700a3ab2 <_strnlen_s+0x32> @ imm = #-0x2
  3. 700a3ab2: 9801         	ldr	r0, [sp, #0x4]
  4. 700a3ab4: 3001         	adds	r0, #0x1
  5. 700a3ab6: 9001         	str	r0, [sp, #0x4]
  6. 700a3ab8: e7e8         	b	0x700a3a8c <_strnlen_s+0xc> @ imm = #-0x30
  7. 700a3a8c: 9801         	ldr	r0, [sp, #0x4]
  8. 700a3a8e: 7801         	ldrb	r1, [r0]
  9. 700a3a90: 2000         	movs	r0, #0x0
  10. 700a3a92: 9000         	str	r0, [sp]
  11. 700a3a94: b141         	cbz	r1, 0x700a3aa8 <_strnlen_s+0x28> @ imm = #0x10

P_HDR Event: Idx:61628 (Pattern: EEEEEEEEEEEN, Function: _strnlen_s)
Executed Assembly Steps:
  1. 700a3a96: e7ff         	b	0x700a3a98 <_strnlen_s+0x18> @ imm = #-0x2
  2. 700a3a98: 9802         	ldr	r0, [sp, #0x8]
  3. 700a3a9a: 1e41         	subs	r1, r0, #0x1
  4. 700a3a9c: 9102         	str	r1, [sp, #0x8]
  5. 700a3a9e: 2800         	cmp	r0, #0x0
  6. 700a3aa0: bf18         	it	ne
  7. 700a3aa2: 2001         	movne	r0, #0x1
  8. 700a3aa4: 9000         	str	r0, [sp]
  9. 700a3aa6: e7ff         	b	0x700a3aa8 <_strnlen_s+0x28> @ imm = #-0x2
  10. 700a3aa8: 9800         	ldr	r0, [sp]
  11. 700a3aaa: 07c0         	lsls	r0, r0, #0x1f
  12. 700a3aac: b128         	cbz	r0, 0x700a3aba <_strnlen_s+0x3a> @ imm = #0xa

P_HDR Event: Idx:61629 (Pattern: EEEEEEEEEEN, Function: _strnlen_s)
Executed Assembly Steps:
  1. 700a3aae: e7ff         	b	0x700a3ab0 <_strnlen_s+0x30> @ imm = #-0x2
  2. 700a3ab0: e7ff         	b	0x700a3ab2 <_strnlen_s+0x32> @ imm = #-0x2
  3. 700a3ab2: 9801         	ldr	r0, [sp, #0x4]
  4. 700a3ab4: 3001         	adds	r0, #0x1
  5. 700a3ab6: 9001         	str	r0, [sp, #0x4]
  6. 700a3ab8: e7e8         	b	0x700a3a8c <_strnlen_s+0xc> @ imm = #-0x30
  7. 700a3a8c: 9801         	ldr	r0, [sp, #0x4]
  8. 700a3a8e: 7801         	ldrb	r1, [r0]
  9. 700a3a90: 2000         	movs	r0, #0x0
  10. 700a3a92: 9000         	str	r0, [sp]
  11. 700a3a94: b141         	cbz	r1, 0x700a3aa8 <_strnlen_s+0x28> @ imm = #0x10

P_HDR Event: Idx:61630 (Pattern: EEEEEEEEEEEN, Function: _strnlen_s)
Executed Assembly Steps:
  1. 700a3a96: e7ff         	b	0x700a3a98 <_strnlen_s+0x18> @ imm = #-0x2
  2. 700a3a98: 9802         	ldr	r0, [sp, #0x8]
  3. 700a3a9a: 1e41         	subs	r1, r0, #0x1
  4. 700a3a9c: 9102         	str	r1, [sp, #0x8]
  5. 700a3a9e: 2800         	cmp	r0, #0x0
  6. 700a3aa0: bf18         	it	ne
  7. 700a3aa2: 2001         	movne	r0, #0x1
  8. 700a3aa4: 9000         	str	r0, [sp]
  9. 700a3aa6: e7ff         	b	0x700a3aa8 <_strnlen_s+0x28> @ imm = #-0x2
  10. 700a3aa8: 9800         	ldr	r0, [sp]
  11. 700a3aaa: 07c0         	lsls	r0, r0, #0x1f
  12. 700a3aac: b128         	cbz	r0, 0x700a3aba <_strnlen_s+0x3a> @ imm = #0xa

P_HDR Event: Idx:61632 (Pattern: EEEEEEEEEEN, Function: _strnlen_s)
Executed Assembly Steps:
  1. 700a3aae: e7ff         	b	0x700a3ab0 <_strnlen_s+0x30> @ imm = #-0x2
  2. 700a3ab0: e7ff         	b	0x700a3ab2 <_strnlen_s+0x32> @ imm = #-0x2
  3. 700a3ab2: 9801         	ldr	r0, [sp, #0x4]
  4. 700a3ab4: 3001         	adds	r0, #0x1
  5. 700a3ab6: 9001         	str	r0, [sp, #0x4]
  6. 700a3ab8: e7e8         	b	0x700a3a8c <_strnlen_s+0xc> @ imm = #-0x30
  7. 700a3a8c: 9801         	ldr	r0, [sp, #0x4]
  8. 700a3a8e: 7801         	ldrb	r1, [r0]
  9. 700a3a90: 2000         	movs	r0, #0x0
  10. 700a3a92: 9000         	str	r0, [sp]
  11. 700a3a94: b141         	cbz	r1, 0x700a3aa8 <_strnlen_s+0x28> @ imm = #0x10

P_HDR Event: Idx:61633 (Pattern: EEEEEEEEEEEN, Function: _strnlen_s)
Executed Assembly Steps:
  1. 700a3a96: e7ff         	b	0x700a3a98 <_strnlen_s+0x18> @ imm = #-0x2
  2. 700a3a98: 9802         	ldr	r0, [sp, #0x8]
  3. 700a3a9a: 1e41         	subs	r1, r0, #0x1
  4. 700a3a9c: 9102         	str	r1, [sp, #0x8]
  5. 700a3a9e: 2800         	cmp	r0, #0x0
  6. 700a3aa0: bf18         	it	ne
  7. 700a3aa2: 2001         	movne	r0, #0x1
  8. 700a3aa4: 9000         	str	r0, [sp]
  9. 700a3aa6: e7ff         	b	0x700a3aa8 <_strnlen_s+0x28> @ imm = #-0x2
  10. 700a3aa8: 9800         	ldr	r0, [sp]
  11. 700a3aaa: 07c0         	lsls	r0, r0, #0x1f
  12. 700a3aac: b128         	cbz	r0, 0x700a3aba <_strnlen_s+0x3a> @ imm = #0xa

P_HDR Event: Idx:61634 (Pattern: EEEEEEEEEEN, Function: _strnlen_s)
Executed Assembly Steps:
  1. 700a3aae: e7ff         	b	0x700a3ab0 <_strnlen_s+0x30> @ imm = #-0x2
  2. 700a3ab0: e7ff         	b	0x700a3ab2 <_strnlen_s+0x32> @ imm = #-0x2
  3. 700a3ab2: 9801         	ldr	r0, [sp, #0x4]
  4. 700a3ab4: 3001         	adds	r0, #0x1
  5. 700a3ab6: 9001         	str	r0, [sp, #0x4]
  6. 700a3ab8: e7e8         	b	0x700a3a8c <_strnlen_s+0xc> @ imm = #-0x30
  7. 700a3a8c: 9801         	ldr	r0, [sp, #0x4]
  8. 700a3a8e: 7801         	ldrb	r1, [r0]
  9. 700a3a90: 2000         	movs	r0, #0x0
  10. 700a3a92: 9000         	str	r0, [sp]
  11. 700a3a94: b141         	cbz	r1, 0x700a3aa8 <_strnlen_s+0x28> @ imm = #0x10

P_HDR Event: Idx:61635 (Pattern: EEEEEEEEEEEN, Function: _strnlen_s)
Executed Assembly Steps:
  1. 700a3a96: e7ff         	b	0x700a3a98 <_strnlen_s+0x18> @ imm = #-0x2
  2. 700a3a98: 9802         	ldr	r0, [sp, #0x8]
  3. 700a3a9a: 1e41         	subs	r1, r0, #0x1
  4. 700a3a9c: 9102         	str	r1, [sp, #0x8]
  5. 700a3a9e: 2800         	cmp	r0, #0x0
  6. 700a3aa0: bf18         	it	ne
  7. 700a3aa2: 2001         	movne	r0, #0x1
  8. 700a3aa4: 9000         	str	r0, [sp]
  9. 700a3aa6: e7ff         	b	0x700a3aa8 <_strnlen_s+0x28> @ imm = #-0x2
  10. 700a3aa8: 9800         	ldr	r0, [sp]
  11. 700a3aaa: 07c0         	lsls	r0, r0, #0x1f
  12. 700a3aac: b128         	cbz	r0, 0x700a3aba <_strnlen_s+0x3a> @ imm = #0xa

P_HDR Event: Idx:61636 (Pattern: EEEEEEEEEEEEEEE, Function: _strnlen_s)
Executed Assembly Steps:
  1. 700a3aae: e7ff         	b	0x700a3ab0 <_strnlen_s+0x30> @ imm = #-0x2
  2. 700a3ab0: e7ff         	b	0x700a3ab2 <_strnlen_s+0x32> @ imm = #-0x2
  3. 700a3ab2: 9801         	ldr	r0, [sp, #0x4]
  4. 700a3ab4: 3001         	adds	r0, #0x1
  5. 700a3ab6: 9001         	str	r0, [sp, #0x4]
  6. 700a3ab8: e7e8         	b	0x700a3a8c <_strnlen_s+0xc> @ imm = #-0x30
  7. 700a3a8c: 9801         	ldr	r0, [sp, #0x4]
  8. 700a3a8e: 7801         	ldrb	r1, [r0]
  9. 700a3a90: 2000         	movs	r0, #0x0
  10. 700a3a92: 9000         	str	r0, [sp]
  11. 700a3a94: b141         	cbz	r1, 0x700a3aa8 <_strnlen_s+0x28> @ imm = #0x10
  12. 700a3aa8: 9800         	ldr	r0, [sp]
  13. 700a3aaa: 07c0         	lsls	r0, r0, #0x1f
  14. 700a3aac: b128         	cbz	r0, 0x700a3aba <_strnlen_s+0x3a> @ imm = #0xa
  15. 700a3aba: 9801         	ldr	r0, [sp, #0x4]

P_HDR Event: Idx:61637 (Pattern: EEEE, Function: _strnlen_s)
Executed Assembly Steps:
  1. 700a3abc: 9903         	ldr	r1, [sp, #0xc]
  2. 700a3abe: 1a40         	subs	r0, r0, r1
  3. 700a3ac0: b004         	add	sp, #0x10
  4. 700a3ac2: 4770         	bx	lr

Sync: Idx:61638; ID:10;	BRANCH_ADDRESS : Branch address.; Addr=0x7009977C ~[0x7C];

P_HDR Event: Idx:61639 (Pattern: EEEEEEEEN, Function: _vsnprintf)
Executed Assembly Steps:
  1. 7009977c: 902c         	str	r0, [sp, #0xb0]
  2. 7009977e: f89d 00ed    	ldrb.w	r0, [sp, #0xed]
  3. 70099782: 0740         	lsls	r0, r0, #0x1d
  4. 70099784: 2800         	cmp	r0, #0x0
  5. 70099786: d50e         	bpl	0x700997a6 <_vsnprintf+0x8a6> @ imm = #0x1c
  6. 700997a6: f89d 00ec    	ldrb.w	r0, [sp, #0xec]
  7. 700997aa: 0780         	lsls	r0, r0, #0x1e
  8. 700997ac: 2800         	cmp	r0, #0x0
  9. 700997ae: d413         	bmi	0x700997d8 <_vsnprintf+0x8d8> @ imm = #0x26

P_HDR Event: Idx:61640 (Pattern: EEEEEEEEEEEEEEN, Function: _vsnprintf)
Executed Assembly Steps:
  1. 700997b0: e7ff         	b	0x700997b2 <_vsnprintf+0x8b2> @ imm = #-0x2
  2. 700997b2: e7ff         	b	0x700997b4 <_vsnprintf+0x8b4> @ imm = #-0x2
  3. 700997b4: 982c         	ldr	r0, [sp, #0xb0]
  4. 700997b6: 1c41         	adds	r1, r0, #0x1
  5. 700997b8: 912c         	str	r1, [sp, #0xb0]
  6. 700997ba: 993a         	ldr	r1, [sp, #0xe8]
  7. 700997bc: 4288         	cmp	r0, r1
  8. 700997be: d20a         	bhs	0x700997d6 <_vsnprintf+0x8d6> @ imm = #0x14
  9. 700997d6: e7ff         	b	0x700997d8 <_vsnprintf+0x8d8> @ imm = #-0x2
  10. 700997d8: e7ff         	b	0x700997da <_vsnprintf+0x8da> @ imm = #-0x2
  11. 700997da: 982d         	ldr	r0, [sp, #0xb4]
  12. 700997dc: 7801         	ldrb	r1, [r0]
  13. 700997de: 2000         	movs	r0, #0x0
  14. 700997e0: 900d         	str	r0, [sp, #0x34]
  15. 700997e2: b1a1         	cbz	r1, 0x7009980e <_vsnprintf+0x90e> @ imm = #0x28

P_HDR Event: Idx:61641 (Pattern: EEEEEEEEEEEEN, Function: _vsnprintf)
Executed Assembly Steps:
  1. 700997e4: e7ff         	b	0x700997e6 <_vsnprintf+0x8e6> @ imm = #-0x2
  2. 700997e6: 2001         	movs	r0, #0x1
  3. 700997e8: f89d 10ed    	ldrb.w	r1, [sp, #0xed]
  4. 700997ec: ea4f 7141    	lsl.w	r1, r1, #0x1d
  5. 700997f0: 2900         	cmp	r1, #0x0
  6. 700997f2: 900c         	str	r0, [sp, #0x30]
  7. 700997f4: d508         	bpl	0x70099808 <_vsnprintf+0x908> @ imm = #0x10
  8. 70099808: 980c         	ldr	r0, [sp, #0x30]
  9. 7009980a: 900d         	str	r0, [sp, #0x34]
  10. 7009980c: e7ff         	b	0x7009980e <_vsnprintf+0x90e> @ imm = #-0x2
  11. 7009980e: 980d         	ldr	r0, [sp, #0x34]
  12. 70099810: 07c0         	lsls	r0, r0, #0x1f
  13. 70099812: b168         	cbz	r0, 0x70099830 <_vsnprintf+0x930> @ imm = #0x1a

P_HDR Event: Idx:61642 (Pattern: EEEEEEEEEEEE, Function: _vsnprintf)
Executed Assembly Steps:
  1. 70099814: e7ff         	b	0x70099816 <_vsnprintf+0x916> @ imm = #-0x2
  2. 70099816: f8dd c0fc    	ldr.w	r12, [sp, #0xfc]
  3. 7009981a: 982d         	ldr	r0, [sp, #0xb4]
  4. 7009981c: 1c41         	adds	r1, r0, #0x1
  5. 7009981e: 912d         	str	r1, [sp, #0xb4]
  6. 70099820: 7800         	ldrb	r0, [r0]
  7. 70099822: 993e         	ldr	r1, [sp, #0xf8]
  8. 70099824: 9a37         	ldr	r2, [sp, #0xdc]
  9. 70099826: 1c53         	adds	r3, r2, #0x1
  10. 70099828: 9337         	str	r3, [sp, #0xdc]
  11. 7009982a: 9b3d         	ldr	r3, [sp, #0xf4]
  12. 7009982c: 47e0         	blx	r12

Sync: Idx:61643; ID:10;	BRANCH_ADDRESS : Branch address.; Addr=0x700A48B0 ~[0xA48B0];

P_HDR Event: Idx:61646 (Pattern: EEEEEEEEN, Function: _out_buffer)
Executed Assembly Steps:
  1. 700a48b0: b084         	sub	sp, #0x10
  2. 700a48b2: f88d 000f    	strb.w	r0, [sp, #0xf]
  3. 700a48b6: 9102         	str	r1, [sp, #0x8]
  4. 700a48b8: 9201         	str	r2, [sp, #0x4]
  5. 700a48ba: 9300         	str	r3, [sp]
  6. 700a48bc: 9801         	ldr	r0, [sp, #0x4]
  7. 700a48be: 9900         	ldr	r1, [sp]
  8. 700a48c0: 4288         	cmp	r0, r1
  9. 700a48c2: d206         	bhs	0x700a48d2 <_out_buffer+0x22> @ imm = #0xc

P_HDR Event: Idx:61648 (Pattern: EEEEEEEE, Function: _out_buffer)
Executed Assembly Steps:
  1. 700a48c4: e7ff         	b	0x700a48c6 <_out_buffer+0x16> @ imm = #-0x2
  2. 700a48c6: f89d 000f    	ldrb.w	r0, [sp, #0xf]
  3. 700a48ca: 9902         	ldr	r1, [sp, #0x8]
  4. 700a48cc: 9a01         	ldr	r2, [sp, #0x4]
  5. 700a48ce: 5488         	strb	r0, [r1, r2]
  6. 700a48d0: e7ff         	b	0x700a48d2 <_out_buffer+0x22> @ imm = #-0x2
  7. 700a48d2: b004         	add	sp, #0x10
  8. 700a48d4: 4770         	bx	lr

Sync: Idx:61649; ID:10;	BRANCH_ADDRESS : Branch address.; Addr=0x7009982E ~[0x9982E];

P_HDR Event: Idx:61652 (Pattern: EEEEEN, Function: _vsnprintf)
Executed Assembly Steps:
  1. 7009982e: e7d4         	b	0x700997da <_vsnprintf+0x8da> @ imm = #-0x58
  2. 700997da: 982d         	ldr	r0, [sp, #0xb4]
  3. 700997dc: 7801         	ldrb	r1, [r0]
  4. 700997de: 2000         	movs	r0, #0x0
  5. 700997e0: 900d         	str	r0, [sp, #0x34]
  6. 700997e2: b1a1         	cbz	r1, 0x7009980e <_vsnprintf+0x90e> @ imm = #0x28

P_HDR Event: Idx:61653 (Pattern: EEEEEEEEEEEEN, Function: _vsnprintf)
Executed Assembly Steps:
  1. 700997e4: e7ff         	b	0x700997e6 <_vsnprintf+0x8e6> @ imm = #-0x2
  2. 700997e6: 2001         	movs	r0, #0x1
  3. 700997e8: f89d 10ed    	ldrb.w	r1, [sp, #0xed]
  4. 700997ec: ea4f 7141    	lsl.w	r1, r1, #0x1d
  5. 700997f0: 2900         	cmp	r1, #0x0
  6. 700997f2: 900c         	str	r0, [sp, #0x30]
  7. 700997f4: d508         	bpl	0x70099808 <_vsnprintf+0x908> @ imm = #0x10
  8. 70099808: 980c         	ldr	r0, [sp, #0x30]
  9. 7009980a: 900d         	str	r0, [sp, #0x34]
  10. 7009980c: e7ff         	b	0x7009980e <_vsnprintf+0x90e> @ imm = #-0x2
  11. 7009980e: 980d         	ldr	r0, [sp, #0x34]
  12. 70099810: 07c0         	lsls	r0, r0, #0x1f
  13. 70099812: b168         	cbz	r0, 0x70099830 <_vsnprintf+0x930> @ imm = #0x1a

P_HDR Event: Idx:61654 (Pattern: EEEEEEEEEEEE, Function: _vsnprintf)
Executed Assembly Steps:
  1. 70099814: e7ff         	b	0x70099816 <_vsnprintf+0x916> @ imm = #-0x2
  2. 70099816: f8dd c0fc    	ldr.w	r12, [sp, #0xfc]
  3. 7009981a: 982d         	ldr	r0, [sp, #0xb4]
  4. 7009981c: 1c41         	adds	r1, r0, #0x1
  5. 7009981e: 912d         	str	r1, [sp, #0xb4]
  6. 70099820: 7800         	ldrb	r0, [r0]
  7. 70099822: 993e         	ldr	r1, [sp, #0xf8]
  8. 70099824: 9a37         	ldr	r2, [sp, #0xdc]
  9. 70099826: 1c53         	adds	r3, r2, #0x1
  10. 70099828: 9337         	str	r3, [sp, #0xdc]
  11. 7009982a: 9b3d         	ldr	r3, [sp, #0xf4]
  12. 7009982c: 47e0         	blx	r12

Sync: Idx:61655; ID:10;	BRANCH_ADDRESS : Branch address.; Addr=0x700A48B0 ~[0xA48B0];

P_HDR Event: Idx:61658 (Pattern: EEEEEEEEN, Function: _out_buffer)
Executed Assembly Steps:
  1. 700a48b0: b084         	sub	sp, #0x10
  2. 700a48b2: f88d 000f    	strb.w	r0, [sp, #0xf]
  3. 700a48b6: 9102         	str	r1, [sp, #0x8]
  4. 700a48b8: 9201         	str	r2, [sp, #0x4]
  5. 700a48ba: 9300         	str	r3, [sp]
  6. 700a48bc: 9801         	ldr	r0, [sp, #0x4]
  7. 700a48be: 9900         	ldr	r1, [sp]
  8. 700a48c0: 4288         	cmp	r0, r1
  9. 700a48c2: d206         	bhs	0x700a48d2 <_out_buffer+0x22> @ imm = #0xc

P_HDR Event: Idx:61659 (Pattern: EEEEEEEE, Function: _out_buffer)
Executed Assembly Steps:
  1. 700a48c4: e7ff         	b	0x700a48c6 <_out_buffer+0x16> @ imm = #-0x2
  2. 700a48c6: f89d 000f    	ldrb.w	r0, [sp, #0xf]
  3. 700a48ca: 9902         	ldr	r1, [sp, #0x8]
  4. 700a48cc: 9a01         	ldr	r2, [sp, #0x4]
  5. 700a48ce: 5488         	strb	r0, [r1, r2]
  6. 700a48d0: e7ff         	b	0x700a48d2 <_out_buffer+0x22> @ imm = #-0x2
  7. 700a48d2: b004         	add	sp, #0x10
  8. 700a48d4: 4770         	bx	lr

Sync: Idx:61660; ID:10;	BRANCH_ADDRESS : Branch address.; Addr=0x7009982E ~[0x9982E];

P_HDR Event: Idx:61664 (Pattern: EEEEEN, Function: _vsnprintf)
Executed Assembly Steps:
  1. 7009982e: e7d4         	b	0x700997da <_vsnprintf+0x8da> @ imm = #-0x58
  2. 700997da: 982d         	ldr	r0, [sp, #0xb4]
  3. 700997dc: 7801         	ldrb	r1, [r0]
  4. 700997de: 2000         	movs	r0, #0x0
  5. 700997e0: 900d         	str	r0, [sp, #0x34]
  6. 700997e2: b1a1         	cbz	r1, 0x7009980e <_vsnprintf+0x90e> @ imm = #0x28

P_HDR Event: Idx:61665 (Pattern: EEEEEEEEEEEEN, Function: _vsnprintf)
Executed Assembly Steps:
  1. 700997e4: e7ff         	b	0x700997e6 <_vsnprintf+0x8e6> @ imm = #-0x2
  2. 700997e6: 2001         	movs	r0, #0x1
  3. 700997e8: f89d 10ed    	ldrb.w	r1, [sp, #0xed]
  4. 700997ec: ea4f 7141    	lsl.w	r1, r1, #0x1d
  5. 700997f0: 2900         	cmp	r1, #0x0
  6. 700997f2: 900c         	str	r0, [sp, #0x30]
  7. 700997f4: d508         	bpl	0x70099808 <_vsnprintf+0x908> @ imm = #0x10
  8. 70099808: 980c         	ldr	r0, [sp, #0x30]
  9. 7009980a: 900d         	str	r0, [sp, #0x34]
  10. 7009980c: e7ff         	b	0x7009980e <_vsnprintf+0x90e> @ imm = #-0x2
  11. 7009980e: 980d         	ldr	r0, [sp, #0x34]
  12. 70099810: 07c0         	lsls	r0, r0, #0x1f
  13. 70099812: b168         	cbz	r0, 0x70099830 <_vsnprintf+0x930> @ imm = #0x1a

P_HDR Event: Idx:61666 (Pattern: EEEEEEEEEEEE, Function: _vsnprintf)
Executed Assembly Steps:
  1. 70099814: e7ff         	b	0x70099816 <_vsnprintf+0x916> @ imm = #-0x2
  2. 70099816: f8dd c0fc    	ldr.w	r12, [sp, #0xfc]
  3. 7009981a: 982d         	ldr	r0, [sp, #0xb4]
  4. 7009981c: 1c41         	adds	r1, r0, #0x1
  5. 7009981e: 912d         	str	r1, [sp, #0xb4]
  6. 70099820: 7800         	ldrb	r0, [r0]
  7. 70099822: 993e         	ldr	r1, [sp, #0xf8]
  8. 70099824: 9a37         	ldr	r2, [sp, #0xdc]
  9. 70099826: 1c53         	adds	r3, r2, #0x1
  10. 70099828: 9337         	str	r3, [sp, #0xdc]
  11. 7009982a: 9b3d         	ldr	r3, [sp, #0xf4]
  12. 7009982c: 47e0         	blx	r12

Sync: Idx:61667; ID:10;	BRANCH_ADDRESS : Branch address.; Addr=0x700A48B0 ~[0xA48B0];

P_HDR Event: Idx:61670 (Pattern: EEEEEEEEN, Function: _out_buffer)
Executed Assembly Steps:
  1. 700a48b0: b084         	sub	sp, #0x10
  2. 700a48b2: f88d 000f    	strb.w	r0, [sp, #0xf]
  3. 700a48b6: 9102         	str	r1, [sp, #0x8]
  4. 700a48b8: 9201         	str	r2, [sp, #0x4]
  5. 700a48ba: 9300         	str	r3, [sp]
  6. 700a48bc: 9801         	ldr	r0, [sp, #0x4]
  7. 700a48be: 9900         	ldr	r1, [sp]
  8. 700a48c0: 4288         	cmp	r0, r1
  9. 700a48c2: d206         	bhs	0x700a48d2 <_out_buffer+0x22> @ imm = #0xc

P_HDR Event: Idx:61671 (Pattern: EEEEEEEE, Function: _out_buffer)
Executed Assembly Steps:
  1. 700a48c4: e7ff         	b	0x700a48c6 <_out_buffer+0x16> @ imm = #-0x2
  2. 700a48c6: f89d 000f    	ldrb.w	r0, [sp, #0xf]
  3. 700a48ca: 9902         	ldr	r1, [sp, #0x8]
  4. 700a48cc: 9a01         	ldr	r2, [sp, #0x4]
  5. 700a48ce: 5488         	strb	r0, [r1, r2]
  6. 700a48d0: e7ff         	b	0x700a48d2 <_out_buffer+0x22> @ imm = #-0x2
  7. 700a48d2: b004         	add	sp, #0x10
  8. 700a48d4: 4770         	bx	lr

Sync: Idx:61672; ID:10;	BRANCH_ADDRESS : Branch address.; Addr=0x7009982E ~[0x9982E];

P_HDR Event: Idx:61675 (Pattern: EEEEEN, Function: _vsnprintf)
Executed Assembly Steps:
  1. 7009982e: e7d4         	b	0x700997da <_vsnprintf+0x8da> @ imm = #-0x58
  2. 700997da: 982d         	ldr	r0, [sp, #0xb4]
  3. 700997dc: 7801         	ldrb	r1, [r0]
  4. 700997de: 2000         	movs	r0, #0x0
  5. 700997e0: 900d         	str	r0, [sp, #0x34]
  6. 700997e2: b1a1         	cbz	r1, 0x7009980e <_vsnprintf+0x90e> @ imm = #0x28

P_HDR Event: Idx:61676 (Pattern: EEEEEEEEEEEEN, Function: _vsnprintf)
Executed Assembly Steps:
  1. 700997e4: e7ff         	b	0x700997e6 <_vsnprintf+0x8e6> @ imm = #-0x2
  2. 700997e6: 2001         	movs	r0, #0x1
  3. 700997e8: f89d 10ed    	ldrb.w	r1, [sp, #0xed]
  4. 700997ec: ea4f 7141    	lsl.w	r1, r1, #0x1d
  5. 700997f0: 2900         	cmp	r1, #0x0
  6. 700997f2: 900c         	str	r0, [sp, #0x30]
  7. 700997f4: d508         	bpl	0x70099808 <_vsnprintf+0x908> @ imm = #0x10
  8. 70099808: 980c         	ldr	r0, [sp, #0x30]
  9. 7009980a: 900d         	str	r0, [sp, #0x34]
  10. 7009980c: e7ff         	b	0x7009980e <_vsnprintf+0x90e> @ imm = #-0x2
  11. 7009980e: 980d         	ldr	r0, [sp, #0x34]
  12. 70099810: 07c0         	lsls	r0, r0, #0x1f
  13. 70099812: b168         	cbz	r0, 0x70099830 <_vsnprintf+0x930> @ imm = #0x1a

P_HDR Event: Idx:61677 (Pattern: EEEEEEEEEEEE, Function: _vsnprintf)
Executed Assembly Steps:
  1. 70099814: e7ff         	b	0x70099816 <_vsnprintf+0x916> @ imm = #-0x2
  2. 70099816: f8dd c0fc    	ldr.w	r12, [sp, #0xfc]
  3. 7009981a: 982d         	ldr	r0, [sp, #0xb4]
  4. 7009981c: 1c41         	adds	r1, r0, #0x1
  5. 7009981e: 912d         	str	r1, [sp, #0xb4]
  6. 70099820: 7800         	ldrb	r0, [r0]
  7. 70099822: 993e         	ldr	r1, [sp, #0xf8]
  8. 70099824: 9a37         	ldr	r2, [sp, #0xdc]
  9. 70099826: 1c53         	adds	r3, r2, #0x1
  10. 70099828: 9337         	str	r3, [sp, #0xdc]
  11. 7009982a: 9b3d         	ldr	r3, [sp, #0xf4]
  12. 7009982c: 47e0         	blx	r12

Sync: Idx:61678; ID:10;	BRANCH_ADDRESS : Branch address.; Addr=0x700A48B0 ~[0xA48B0];

P_HDR Event: Idx:61682 (Pattern: EEEEEEEEN, Function: _out_buffer)
Executed Assembly Steps:
  1. 700a48b0: b084         	sub	sp, #0x10
  2. 700a48b2: f88d 000f    	strb.w	r0, [sp, #0xf]
  3. 700a48b6: 9102         	str	r1, [sp, #0x8]
  4. 700a48b8: 9201         	str	r2, [sp, #0x4]
  5. 700a48ba: 9300         	str	r3, [sp]
  6. 700a48bc: 9801         	ldr	r0, [sp, #0x4]
  7. 700a48be: 9900         	ldr	r1, [sp]
  8. 700a48c0: 4288         	cmp	r0, r1
  9. 700a48c2: d206         	bhs	0x700a48d2 <_out_buffer+0x22> @ imm = #0xc

P_HDR Event: Idx:61689 (Pattern: EEEEEEEE, Function: _out_buffer)
Executed Assembly Steps:
  1. 700a48c4: e7ff         	b	0x700a48c6 <_out_buffer+0x16> @ imm = #-0x2
  2. 700a48c6: f89d 000f    	ldrb.w	r0, [sp, #0xf]
  3. 700a48ca: 9902         	ldr	r1, [sp, #0x8]
  4. 700a48cc: 9a01         	ldr	r2, [sp, #0x4]
  5. 700a48ce: 5488         	strb	r0, [r1, r2]
  6. 700a48d0: e7ff         	b	0x700a48d2 <_out_buffer+0x22> @ imm = #-0x2
  7. 700a48d2: b004         	add	sp, #0x10
  8. 700a48d4: 4770         	bx	lr

Sync: Idx:61690; ID:10;	BRANCH_ADDRESS : Branch address.; Addr=0x7009982E ~[0x9982E];

P_HDR Event: Idx:61693 (Pattern: EEEEEN, Function: _vsnprintf)
Executed Assembly Steps:
  1. 7009982e: e7d4         	b	0x700997da <_vsnprintf+0x8da> @ imm = #-0x58
  2. 700997da: 982d         	ldr	r0, [sp, #0xb4]
  3. 700997dc: 7801         	ldrb	r1, [r0]
  4. 700997de: 2000         	movs	r0, #0x0
  5. 700997e0: 900d         	str	r0, [sp, #0x34]
  6. 700997e2: b1a1         	cbz	r1, 0x7009980e <_vsnprintf+0x90e> @ imm = #0x28

P_HDR Event: Idx:61694 (Pattern: EEEEEEEEEEEEN, Function: _vsnprintf)
Executed Assembly Steps:
  1. 700997e4: e7ff         	b	0x700997e6 <_vsnprintf+0x8e6> @ imm = #-0x2
  2. 700997e6: 2001         	movs	r0, #0x1
  3. 700997e8: f89d 10ed    	ldrb.w	r1, [sp, #0xed]
  4. 700997ec: ea4f 7141    	lsl.w	r1, r1, #0x1d
  5. 700997f0: 2900         	cmp	r1, #0x0
  6. 700997f2: 900c         	str	r0, [sp, #0x30]
  7. 700997f4: d508         	bpl	0x70099808 <_vsnprintf+0x908> @ imm = #0x10
  8. 70099808: 980c         	ldr	r0, [sp, #0x30]
  9. 7009980a: 900d         	str	r0, [sp, #0x34]
  10. 7009980c: e7ff         	b	0x7009980e <_vsnprintf+0x90e> @ imm = #-0x2
  11. 7009980e: 980d         	ldr	r0, [sp, #0x34]
  12. 70099810: 07c0         	lsls	r0, r0, #0x1f
  13. 70099812: b168         	cbz	r0, 0x70099830 <_vsnprintf+0x930> @ imm = #0x1a

P_HDR Event: Idx:61696 (Pattern: EEEEEEEEEEEE, Function: _vsnprintf)
Executed Assembly Steps:
  1. 70099814: e7ff         	b	0x70099816 <_vsnprintf+0x916> @ imm = #-0x2
  2. 70099816: f8dd c0fc    	ldr.w	r12, [sp, #0xfc]
  3. 7009981a: 982d         	ldr	r0, [sp, #0xb4]
  4. 7009981c: 1c41         	adds	r1, r0, #0x1
  5. 7009981e: 912d         	str	r1, [sp, #0xb4]
  6. 70099820: 7800         	ldrb	r0, [r0]
  7. 70099822: 993e         	ldr	r1, [sp, #0xf8]
  8. 70099824: 9a37         	ldr	r2, [sp, #0xdc]
  9. 70099826: 1c53         	adds	r3, r2, #0x1
  10. 70099828: 9337         	str	r3, [sp, #0xdc]
  11. 7009982a: 9b3d         	ldr	r3, [sp, #0xf4]
  12. 7009982c: 47e0         	blx	r12

Sync: Idx:61697; ID:10;	BRANCH_ADDRESS : Branch address.; Addr=0x700A48B0 ~[0xA48B0];

P_HDR Event: Idx:61700 (Pattern: EEEEEEEEN, Function: _out_buffer)
Executed Assembly Steps:
  1. 700a48b0: b084         	sub	sp, #0x10
  2. 700a48b2: f88d 000f    	strb.w	r0, [sp, #0xf]
  3. 700a48b6: 9102         	str	r1, [sp, #0x8]
  4. 700a48b8: 9201         	str	r2, [sp, #0x4]
  5. 700a48ba: 9300         	str	r3, [sp]
  6. 700a48bc: 9801         	ldr	r0, [sp, #0x4]
  7. 700a48be: 9900         	ldr	r1, [sp]
  8. 700a48c0: 4288         	cmp	r0, r1
  9. 700a48c2: d206         	bhs	0x700a48d2 <_out_buffer+0x22> @ imm = #0xc

P_HDR Event: Idx:61701 (Pattern: EEEEEEEE, Function: _out_buffer)
Executed Assembly Steps:
  1. 700a48c4: e7ff         	b	0x700a48c6 <_out_buffer+0x16> @ imm = #-0x2
  2. 700a48c6: f89d 000f    	ldrb.w	r0, [sp, #0xf]
  3. 700a48ca: 9902         	ldr	r1, [sp, #0x8]
  4. 700a48cc: 9a01         	ldr	r2, [sp, #0x4]
  5. 700a48ce: 5488         	strb	r0, [r1, r2]
  6. 700a48d0: e7ff         	b	0x700a48d2 <_out_buffer+0x22> @ imm = #-0x2
  7. 700a48d2: b004         	add	sp, #0x10
  8. 700a48d4: 4770         	bx	lr

Sync: Idx:61702; ID:10;	BRANCH_ADDRESS : Branch address.; Addr=0x7009982E ~[0x9982E];

P_HDR Event: Idx:61705 (Pattern: EEEEEN, Function: _vsnprintf)
Executed Assembly Steps:
  1. 7009982e: e7d4         	b	0x700997da <_vsnprintf+0x8da> @ imm = #-0x58
  2. 700997da: 982d         	ldr	r0, [sp, #0xb4]
  3. 700997dc: 7801         	ldrb	r1, [r0]
  4. 700997de: 2000         	movs	r0, #0x0
  5. 700997e0: 900d         	str	r0, [sp, #0x34]
  6. 700997e2: b1a1         	cbz	r1, 0x7009980e <_vsnprintf+0x90e> @ imm = #0x28

P_HDR Event: Idx:61706 (Pattern: EEEEEEEEEEEEN, Function: _vsnprintf)
Executed Assembly Steps:
  1. 700997e4: e7ff         	b	0x700997e6 <_vsnprintf+0x8e6> @ imm = #-0x2
  2. 700997e6: 2001         	movs	r0, #0x1
  3. 700997e8: f89d 10ed    	ldrb.w	r1, [sp, #0xed]
  4. 700997ec: ea4f 7141    	lsl.w	r1, r1, #0x1d
  5. 700997f0: 2900         	cmp	r1, #0x0
  6. 700997f2: 900c         	str	r0, [sp, #0x30]
  7. 700997f4: d508         	bpl	0x70099808 <_vsnprintf+0x908> @ imm = #0x10
  8. 70099808: 980c         	ldr	r0, [sp, #0x30]
  9. 7009980a: 900d         	str	r0, [sp, #0x34]
  10. 7009980c: e7ff         	b	0x7009980e <_vsnprintf+0x90e> @ imm = #-0x2
  11. 7009980e: 980d         	ldr	r0, [sp, #0x34]
  12. 70099810: 07c0         	lsls	r0, r0, #0x1f
  13. 70099812: b168         	cbz	r0, 0x70099830 <_vsnprintf+0x930> @ imm = #0x1a

P_HDR Event: Idx:61707 (Pattern: EEEEEEEEEEEE, Function: _vsnprintf)
Executed Assembly Steps:
  1. 70099814: e7ff         	b	0x70099816 <_vsnprintf+0x916> @ imm = #-0x2
  2. 70099816: f8dd c0fc    	ldr.w	r12, [sp, #0xfc]
  3. 7009981a: 982d         	ldr	r0, [sp, #0xb4]
  4. 7009981c: 1c41         	adds	r1, r0, #0x1
  5. 7009981e: 912d         	str	r1, [sp, #0xb4]
  6. 70099820: 7800         	ldrb	r0, [r0]
  7. 70099822: 993e         	ldr	r1, [sp, #0xf8]
  8. 70099824: 9a37         	ldr	r2, [sp, #0xdc]
  9. 70099826: 1c53         	adds	r3, r2, #0x1
  10. 70099828: 9337         	str	r3, [sp, #0xdc]
  11. 7009982a: 9b3d         	ldr	r3, [sp, #0xf4]
  12. 7009982c: 47e0         	blx	r12

Sync: Idx:61708; ID:10;	BRANCH_ADDRESS : Branch address.; Addr=0x700A48B0 ~[0xA48B0];

P_HDR Event: Idx:61712 (Pattern: EEEEEEEEN, Function: _out_buffer)
Executed Assembly Steps:
  1. 700a48b0: b084         	sub	sp, #0x10
  2. 700a48b2: f88d 000f    	strb.w	r0, [sp, #0xf]
  3. 700a48b6: 9102         	str	r1, [sp, #0x8]
  4. 700a48b8: 9201         	str	r2, [sp, #0x4]
  5. 700a48ba: 9300         	str	r3, [sp]
  6. 700a48bc: 9801         	ldr	r0, [sp, #0x4]
  7. 700a48be: 9900         	ldr	r1, [sp]
  8. 700a48c0: 4288         	cmp	r0, r1
  9. 700a48c2: d206         	bhs	0x700a48d2 <_out_buffer+0x22> @ imm = #0xc

P_HDR Event: Idx:61713 (Pattern: EEEEEEEE, Function: _out_buffer)
Executed Assembly Steps:
  1. 700a48c4: e7ff         	b	0x700a48c6 <_out_buffer+0x16> @ imm = #-0x2
  2. 700a48c6: f89d 000f    	ldrb.w	r0, [sp, #0xf]
  3. 700a48ca: 9902         	ldr	r1, [sp, #0x8]
  4. 700a48cc: 9a01         	ldr	r2, [sp, #0x4]
  5. 700a48ce: 5488         	strb	r0, [r1, r2]
  6. 700a48d0: e7ff         	b	0x700a48d2 <_out_buffer+0x22> @ imm = #-0x2
  7. 700a48d2: b004         	add	sp, #0x10
  8. 700a48d4: 4770         	bx	lr

Sync: Idx:61714; ID:10;	BRANCH_ADDRESS : Branch address.; Addr=0x7009982E ~[0x9982E];

P_HDR Event: Idx:61717 (Pattern: EEEEEEEEEEEEEEE, Function: _vsnprintf)
Executed Assembly Steps:
  1. 7009982e: e7d4         	b	0x700997da <_vsnprintf+0x8da> @ imm = #-0x58
  2. 700997da: 982d         	ldr	r0, [sp, #0xb4]
  3. 700997dc: 7801         	ldrb	r1, [r0]
  4. 700997de: 2000         	movs	r0, #0x0
  5. 700997e0: 900d         	str	r0, [sp, #0x34]
  6. 700997e2: b1a1         	cbz	r1, 0x7009980e <_vsnprintf+0x90e> @ imm = #0x28
  7. 7009980e: 980d         	ldr	r0, [sp, #0x34]
  8. 70099810: 07c0         	lsls	r0, r0, #0x1f
  9. 70099812: b168         	cbz	r0, 0x70099830 <_vsnprintf+0x930> @ imm = #0x1a
  10. 70099830: f89d 00ec    	ldrb.w	r0, [sp, #0xec]
  11. 70099834: 0780         	lsls	r0, r0, #0x1e
  12. 70099836: 2800         	cmp	r0, #0x0
  13. 70099838: d513         	bpl	0x70099862 <_vsnprintf+0x962> @ imm = #0x26
  14. 70099862: 983c         	ldr	r0, [sp, #0xf0]
  15. 70099864: 3001         	adds	r0, #0x1

P_HDR Event: Idx:61718 (Pattern: EEEEEEN, Function: _vsnprintf)
Executed Assembly Steps:
  1. 70099866: 903c         	str	r0, [sp, #0xf0]
  2. 70099868: e047         	b	0x700998fa <_vsnprintf+0x9fa> @ imm = #0x8e
  3. 700998fa: f7ff bb18    	b.w	0x70098f2e <_vsnprintf+0x2e> @ imm = #-0x9d0
  4. 70098f2e: 983c         	ldr	r0, [sp, #0xf0]
  5. 70098f30: 7800         	ldrb	r0, [r0]
  6. 70098f32: 2800         	cmp	r0, #0x0
  7. 70098f34: f000 84e3    	beq.w	0x700998fe <_vsnprintf+0x9fe> @ imm = #0x9c6

P_HDR Event: Idx:61719 (Pattern: EEEEN, Function: _vsnprintf)
Executed Assembly Steps:
  1. 70098f38: e7ff         	b	0x70098f3a <_vsnprintf+0x3a> @ imm = #-0x2
  2. 70098f3a: 983c         	ldr	r0, [sp, #0xf0]
  3. 70098f3c: 7800         	ldrb	r0, [r0]
  4. 70098f3e: 2825         	cmp	r0, #0x25
  5. 70098f40: d00e         	beq	0x70098f60 <_vsnprintf+0x60> @ imm = #0x1c

P_HDR Event: Idx:61720 (Pattern: EEEEEEEEEE, Function: _vsnprintf)
Executed Assembly Steps:
  1. 70098f42: e7ff         	b	0x70098f44 <_vsnprintf+0x44> @ imm = #-0x2
  2. 70098f44: f8dd c0fc    	ldr.w	r12, [sp, #0xfc]
  3. 70098f48: 983c         	ldr	r0, [sp, #0xf0]
  4. 70098f4a: 7800         	ldrb	r0, [r0]
  5. 70098f4c: 993e         	ldr	r1, [sp, #0xf8]
  6. 70098f4e: 9a37         	ldr	r2, [sp, #0xdc]
  7. 70098f50: 1c53         	adds	r3, r2, #0x1
  8. 70098f52: 9337         	str	r3, [sp, #0xdc]
  9. 70098f54: 9b3d         	ldr	r3, [sp, #0xf4]
  10. 70098f56: 47e0         	blx	r12

Sync: Idx:61721; ID:10;	BRANCH_ADDRESS : Branch address.; Addr=0x700A48B0 ~[0xA48B0];

P_HDR Event: Idx:61724 (Pattern: EEEEEEEEN, Function: _out_buffer)
Executed Assembly Steps:
  1. 700a48b0: b084         	sub	sp, #0x10
  2. 700a48b2: f88d 000f    	strb.w	r0, [sp, #0xf]
  3. 700a48b6: 9102         	str	r1, [sp, #0x8]
  4. 700a48b8: 9201         	str	r2, [sp, #0x4]
  5. 700a48ba: 9300         	str	r3, [sp]
  6. 700a48bc: 9801         	ldr	r0, [sp, #0x4]
  7. 700a48be: 9900         	ldr	r1, [sp]
  8. 700a48c0: 4288         	cmp	r0, r1
  9. 700a48c2: d206         	bhs	0x700a48d2 <_out_buffer+0x22> @ imm = #0xc

P_HDR Event: Idx:61725 (Pattern: EEEEEEEE, Function: _out_buffer)
Executed Assembly Steps:
  1. 700a48c4: e7ff         	b	0x700a48c6 <_out_buffer+0x16> @ imm = #-0x2
  2. 700a48c6: f89d 000f    	ldrb.w	r0, [sp, #0xf]
  3. 700a48ca: 9902         	ldr	r1, [sp, #0x8]
  4. 700a48cc: 9a01         	ldr	r2, [sp, #0x4]
  5. 700a48ce: 5488         	strb	r0, [r1, r2]
  6. 700a48d0: e7ff         	b	0x700a48d2 <_out_buffer+0x22> @ imm = #-0x2
  7. 700a48d2: b004         	add	sp, #0x10
  8. 700a48d4: 4770         	bx	lr

Sync: Idx:61726; ID:10;	BRANCH_ADDRESS : Branch address.; Addr=0x70098F58 ~[0x98F58];

P_HDR Event: Idx:61730 (Pattern: EEEEEEEN, Function: _vsnprintf)
Executed Assembly Steps:
  1. 70098f58: 983c         	ldr	r0, [sp, #0xf0]
  2. 70098f5a: 3001         	adds	r0, #0x1
  3. 70098f5c: 903c         	str	r0, [sp, #0xf0]
  4. 70098f5e: e7e6         	b	0x70098f2e <_vsnprintf+0x2e> @ imm = #-0x34
  5. 70098f2e: 983c         	ldr	r0, [sp, #0xf0]
  6. 70098f30: 7800         	ldrb	r0, [r0]
  7. 70098f32: 2800         	cmp	r0, #0x0
  8. 70098f34: f000 84e3    	beq.w	0x700998fe <_vsnprintf+0x9fe> @ imm = #0x9c6

P_HDR Event: Idx:61731 (Pattern: EEEEN, Function: _vsnprintf)
Executed Assembly Steps:
  1. 70098f38: e7ff         	b	0x70098f3a <_vsnprintf+0x3a> @ imm = #-0x2
  2. 70098f3a: 983c         	ldr	r0, [sp, #0xf0]
  3. 70098f3c: 7800         	ldrb	r0, [r0]
  4. 70098f3e: 2825         	cmp	r0, #0x25
  5. 70098f40: d00e         	beq	0x70098f60 <_vsnprintf+0x60> @ imm = #0x1c

P_HDR Event: Idx:61732 (Pattern: EEEEEEEEEE, Function: _vsnprintf)
Executed Assembly Steps:
  1. 70098f42: e7ff         	b	0x70098f44 <_vsnprintf+0x44> @ imm = #-0x2
  2. 70098f44: f8dd c0fc    	ldr.w	r12, [sp, #0xfc]
  3. 70098f48: 983c         	ldr	r0, [sp, #0xf0]
  4. 70098f4a: 7800         	ldrb	r0, [r0]
  5. 70098f4c: 993e         	ldr	r1, [sp, #0xf8]
  6. 70098f4e: 9a37         	ldr	r2, [sp, #0xdc]
  7. 70098f50: 1c53         	adds	r3, r2, #0x1
  8. 70098f52: 9337         	str	r3, [sp, #0xdc]
  9. 70098f54: 9b3d         	ldr	r3, [sp, #0xf4]
  10. 70098f56: 47e0         	blx	r12

Sync: Idx:61733; ID:10;	BRANCH_ADDRESS : Branch address.; Addr=0x700A48B0 ~[0xA48B0];

P_HDR Event: Idx:61736 (Pattern: EEEEEEEEN, Function: _out_buffer)
Executed Assembly Steps:
  1. 700a48b0: b084         	sub	sp, #0x10
  2. 700a48b2: f88d 000f    	strb.w	r0, [sp, #0xf]
  3. 700a48b6: 9102         	str	r1, [sp, #0x8]
  4. 700a48b8: 9201         	str	r2, [sp, #0x4]
  5. 700a48ba: 9300         	str	r3, [sp]
  6. 700a48bc: 9801         	ldr	r0, [sp, #0x4]
  7. 700a48be: 9900         	ldr	r1, [sp]
  8. 700a48c0: 4288         	cmp	r0, r1
  9. 700a48c2: d206         	bhs	0x700a48d2 <_out_buffer+0x22> @ imm = #0xc

P_HDR Event: Idx:61737 (Pattern: EEEEEEEE, Function: _out_buffer)
Executed Assembly Steps:
  1. 700a48c4: e7ff         	b	0x700a48c6 <_out_buffer+0x16> @ imm = #-0x2
  2. 700a48c6: f89d 000f    	ldrb.w	r0, [sp, #0xf]
  3. 700a48ca: 9902         	ldr	r1, [sp, #0x8]
  4. 700a48cc: 9a01         	ldr	r2, [sp, #0x4]
  5. 700a48ce: 5488         	strb	r0, [r1, r2]
  6. 700a48d0: e7ff         	b	0x700a48d2 <_out_buffer+0x22> @ imm = #-0x2
  7. 700a48d2: b004         	add	sp, #0x10
  8. 700a48d4: 4770         	bx	lr

Sync: Idx:61738; ID:10;	BRANCH_ADDRESS : Branch address.; Addr=0x70098F58 ~[0x98F58];

P_HDR Event: Idx:61741 (Pattern: EEEEEEEN, Function: _vsnprintf)
Executed Assembly Steps:
  1. 70098f58: 983c         	ldr	r0, [sp, #0xf0]
  2. 70098f5a: 3001         	adds	r0, #0x1
  3. 70098f5c: 903c         	str	r0, [sp, #0xf0]
  4. 70098f5e: e7e6         	b	0x70098f2e <_vsnprintf+0x2e> @ imm = #-0x34
  5. 70098f2e: 983c         	ldr	r0, [sp, #0xf0]
  6. 70098f30: 7800         	ldrb	r0, [r0]
  7. 70098f32: 2800         	cmp	r0, #0x0
  8. 70098f34: f000 84e3    	beq.w	0x700998fe <_vsnprintf+0x9fe> @ imm = #0x9c6

P_HDR Event: Idx:61742 (Pattern: EEEEEEEEEEEEEEE, Function: _vsnprintf)
Executed Assembly Steps:
  1. 70098f38: e7ff         	b	0x70098f3a <_vsnprintf+0x3a> @ imm = #-0x2
  2. 70098f3a: 983c         	ldr	r0, [sp, #0xf0]
  3. 70098f3c: 7800         	ldrb	r0, [r0]
  4. 70098f3e: 2825         	cmp	r0, #0x25
  5. 70098f40: d00e         	beq	0x70098f60 <_vsnprintf+0x60> @ imm = #0x1c
  6. 70098f60: 983c         	ldr	r0, [sp, #0xf0]
  7. 70098f62: 3001         	adds	r0, #0x1
  8. 70098f64: 903c         	str	r0, [sp, #0xf0]
  9. 70098f66: e7ff         	b	0x70098f68 <_vsnprintf+0x68> @ imm = #-0x2
  10. 70098f68: 2000         	movs	r0, #0x0
  11. 70098f6a: 903b         	str	r0, [sp, #0xec]
  12. 70098f6c: e7ff         	b	0x70098f6e <_vsnprintf+0x6e> @ imm = #-0x2
  13. 70098f6e: 983c         	ldr	r0, [sp, #0xf0]
  14. 70098f70: 7800         	ldrb	r0, [r0]
  15. 70098f72: 3820         	subs	r0, #0x20

P_HDR Event: Idx:61744 (Pattern: EEEEEEEEEEN, Function: _vsnprintf)
Executed Assembly Steps:
  1. 70098f74: 4601         	mov	r1, r0
  2. 70098f76: 912a         	str	r1, [sp, #0xa8]
  3. 70098f78: 2810         	cmp	r0, #0x10
  4. 70098f7a: d83d         	bhi	0x70098ff8 <_vsnprintf+0xf8> @ imm = #0x7a
  5. 70098ff8: 2000         	movs	r0, #0x0
  6. 70098ffa: 9038         	str	r0, [sp, #0xe0]
  7. 70098ffc: e7ff         	b	0x70098ffe <_vsnprintf+0xfe> @ imm = #-0x2
  8. 70098ffe: e7ff         	b	0x70099000 <_vsnprintf+0x100> @ imm = #-0x2
  9. 70099000: 9838         	ldr	r0, [sp, #0xe0]
  10. 70099002: 2800         	cmp	r0, #0x0
  11. 70099004: d1b3         	bne	0x70098f6e <_vsnprintf+0x6e> @ imm = #-0x9a

P_HDR Event: Idx:61745 (Pattern: EEEEEEEEEEEEN, Function: _vsnprintf)
Executed Assembly Steps:
  1. 70099006: e7ff         	b	0x70099008 <_vsnprintf+0x108> @ imm = #-0x2
  2. 70099008: 2000         	movs	r0, #0x0
  3. 7009900a: 903a         	str	r0, [sp, #0xe8]
  4. 7009900c: 983c         	ldr	r0, [sp, #0xf0]
  5. 7009900e: 7800         	ldrb	r0, [r0]
  6. 70099010: f00b fa6e    	bl	0x700a44f0 <_is_digit>  @ imm = #0xb4dc
  7. 700a44f0: b082         	sub	sp, #0x8
  8. 700a44f2: f88d 0007    	strb.w	r0, [sp, #0x7]
  9. 700a44f6: f89d 1007    	ldrb.w	r1, [sp, #0x7]
  10. 700a44fa: 2000         	movs	r0, #0x0
  11. 700a44fc: 2930         	cmp	r1, #0x30
  12. 700a44fe: 9000         	str	r0, [sp]
  13. 700a4500: db08         	blt	0x700a4514 <_is_digit+0x24> @ imm = #0x10

P_HDR Event: Idx:61746 (Pattern: EEEEEEEEEEEE, Function: _is_digit)
Executed Assembly Steps:
  1. 700a4502: e7ff         	b	0x700a4504 <_is_digit+0x14> @ imm = #-0x2
  2. 700a4504: f89d 1007    	ldrb.w	r1, [sp, #0x7]
  3. 700a4508: 2000         	movs	r0, #0x0
  4. 700a450a: 293a         	cmp	r1, #0x3a
  5. 700a450c: bfb8         	it	lt
  6. 700a450e: 2001         	movlt	r0, #0x1
  7. 700a4510: 9000         	str	r0, [sp]
  8. 700a4512: e7ff         	b	0x700a4514 <_is_digit+0x24> @ imm = #-0x2
  9. 700a4514: 9800         	ldr	r0, [sp]
  10. 700a4516: f000 0001    	and	r0, r0, #0x1
  11. 700a451a: b002         	add	sp, #0x8
  12. 700a451c: 4770         	bx	lr

Sync: Idx:61747; ID:10;	BRANCH_ADDRESS : Branch address.; Addr=0x70099014 ~[0x1014];

P_HDR Event: Idx:61749 (Pattern: N, Function: _vsnprintf)
Executed Assembly Steps:
  1. 70099014: b128         	cbz	r0, 0x70099022 <_vsnprintf+0x122> @ imm = #0xa

P_HDR Event: Idx:61750 (Pattern: EEEEEEEEEEEEEEE, Function: _vsnprintf)
Executed Assembly Steps:
  1. 70099016: e7ff         	b	0x70099018 <_vsnprintf+0x118> @ imm = #-0x2
  2. 70099018: a83c         	add	r0, sp, #0xf0
  3. 7009901a: f00a ff11    	bl	0x700a3e40 <_atoi>      @ imm = #0xae22
  4. 700a3e40: b580         	push	{r7, lr}
  5. 700a3e42: b082         	sub	sp, #0x8
  6. 700a3e44: 9001         	str	r0, [sp, #0x4]
  7. 700a3e46: 2000         	movs	r0, #0x0
  8. 700a3e48: 9000         	str	r0, [sp]
  9. 700a3e4a: e7ff         	b	0x700a3e4c <_atoi+0xc>  @ imm = #-0x2
  10. 700a3e4c: 9801         	ldr	r0, [sp, #0x4]
  11. 700a3e4e: 6800         	ldr	r0, [r0]
  12. 700a3e50: 7800         	ldrb	r0, [r0]
  13. 700a3e52: f000 fb4d    	bl	0x700a44f0 <_is_digit>  @ imm = #0x69a
  14. 700a44f0: b082         	sub	sp, #0x8
  15. 700a44f2: f88d 0007    	strb.w	r0, [sp, #0x7]

P_HDR Event: Idx:61751 (Pattern: EEEEN, Function: _is_digit)
Executed Assembly Steps:
  1. 700a44f6: f89d 1007    	ldrb.w	r1, [sp, #0x7]
  2. 700a44fa: 2000         	movs	r0, #0x0
  3. 700a44fc: 2930         	cmp	r1, #0x30
  4. 700a44fe: 9000         	str	r0, [sp]
  5. 700a4500: db08         	blt	0x700a4514 <_is_digit+0x24> @ imm = #0x10

P_HDR Event: Idx:61752 (Pattern: EEEEEEEEEEEE, Function: _is_digit)
Executed Assembly Steps:
  1. 700a4502: e7ff         	b	0x700a4504 <_is_digit+0x14> @ imm = #-0x2
  2. 700a4504: f89d 1007    	ldrb.w	r1, [sp, #0x7]
  3. 700a4508: 2000         	movs	r0, #0x0
  4. 700a450a: 293a         	cmp	r1, #0x3a
  5. 700a450c: bfb8         	it	lt
  6. 700a450e: 2001         	movlt	r0, #0x1
  7. 700a4510: 9000         	str	r0, [sp]
  8. 700a4512: e7ff         	b	0x700a4514 <_is_digit+0x24> @ imm = #-0x2
  9. 700a4514: 9800         	ldr	r0, [sp]
  10. 700a4516: f000 0001    	and	r0, r0, #0x1
  11. 700a451a: b002         	add	sp, #0x8
  12. 700a451c: 4770         	bx	lr

Sync: Idx:61753; ID:10;	BRANCH_ADDRESS : Branch address.; Addr=0x700A3E56 ~[0xA3E56];

P_HDR Event: Idx:61756 (Pattern: N, Function: _atoi)
Executed Assembly Steps:
  1. 700a3e56: b168         	cbz	r0, 0x700a3e74 <_atoi+0x34> @ imm = #0x1a

P_HDR Event: Idx:61757 (Pattern: EEEEEEEEEEEEEEE, Function: _atoi)
Executed Assembly Steps:
  1. 700a3e58: e7ff         	b	0x700a3e5a <_atoi+0x1a> @ imm = #-0x2
  2. 700a3e5a: 9800         	ldr	r0, [sp]
  3. 700a3e5c: eb00 0180    	add.w	r1, r0, r0, lsl #2
  4. 700a3e60: 9b01         	ldr	r3, [sp, #0x4]
  5. 700a3e62: 6818         	ldr	r0, [r3]
  6. 700a3e64: 1c42         	adds	r2, r0, #0x1
  7. 700a3e66: 601a         	str	r2, [r3]
  8. 700a3e68: 7800         	ldrb	r0, [r0]
  9. 700a3e6a: eb00 0041    	add.w	r0, r0, r1, lsl #1
  10. 700a3e6e: 3830         	subs	r0, #0x30
  11. 700a3e70: 9000         	str	r0, [sp]
  12. 700a3e72: e7eb         	b	0x700a3e4c <_atoi+0xc>  @ imm = #-0x2a
  13. 700a3e4c: 9801         	ldr	r0, [sp, #0x4]
  14. 700a3e4e: 6800         	ldr	r0, [r0]
  15. 700a3e50: 7800         	ldrb	r0, [r0]

P_HDR Event: Idx:61758 (Pattern: EEEEEEEN, Function: _atoi)
Executed Assembly Steps:
  1. 700a3e52: f000 fb4d    	bl	0x700a44f0 <_is_digit>  @ imm = #0x69a
  2. 700a44f0: b082         	sub	sp, #0x8
  3. 700a44f2: f88d 0007    	strb.w	r0, [sp, #0x7]
  4. 700a44f6: f89d 1007    	ldrb.w	r1, [sp, #0x7]
  5. 700a44fa: 2000         	movs	r0, #0x0
  6. 700a44fc: 2930         	cmp	r1, #0x30
  7. 700a44fe: 9000         	str	r0, [sp]
  8. 700a4500: db08         	blt	0x700a4514 <_is_digit+0x24> @ imm = #0x10

P_HDR Event: Idx:61760 (Pattern: EEEEEN, Function: _is_digit)
Executed Assembly Steps:
  1. 700a4502: e7ff         	b	0x700a4504 <_is_digit+0x14> @ imm = #-0x2
  2. 700a4504: f89d 1007    	ldrb.w	r1, [sp, #0x7]
  3. 700a4508: 2000         	movs	r0, #0x0
  4. 700a450a: 293a         	cmp	r1, #0x3a
  5. 700a450c: bfb8         	it	lt
  6. 700a450e: 2001         	movlt	r0, #0x1

P_HDR Event: Idx:61761 (Pattern: EEEEEE, Function: _is_digit)
Executed Assembly Steps:
  1. 700a4510: 9000         	str	r0, [sp]
  2. 700a4512: e7ff         	b	0x700a4514 <_is_digit+0x24> @ imm = #-0x2
  3. 700a4514: 9800         	ldr	r0, [sp]
  4. 700a4516: f000 0001    	and	r0, r0, #0x1
  5. 700a451a: b002         	add	sp, #0x8
  6. 700a451c: 4770         	bx	lr

Sync: Idx:61762; ID:10;	BRANCH_ADDRESS : Branch address.; Addr=0x700A3E56 ~[0x56];

P_HDR Event: Idx:61763 (Pattern: EEEE, Function: _atoi)
Executed Assembly Steps:
  1. 700a3e56: b168         	cbz	r0, 0x700a3e74 <_atoi+0x34> @ imm = #0x1a
  2. 700a3e74: 9800         	ldr	r0, [sp]
  3. 700a3e76: b002         	add	sp, #0x8
  4. 700a3e78: bd80         	pop	{r7, pc}

Sync: Idx:61764; ID:10;	BRANCH_ADDRESS : Branch address.; Addr=0x7009901E ~[0x9901E];

P_HDR Event: Idx:61767 (Pattern: EEEEEEEEEEEEEEE, Function: _vsnprintf)
Executed Assembly Steps:
  1. 7009901e: 903a         	str	r0, [sp, #0xe8]
  2. 70099020: e01e         	b	0x70099060 <_vsnprintf+0x160> @ imm = #0x3c
  3. 70099060: 2000         	movs	r0, #0x0
  4. 70099062: 9039         	str	r0, [sp, #0xe4]
  5. 70099064: 983c         	ldr	r0, [sp, #0xf0]
  6. 70099066: 7800         	ldrb	r0, [r0]
  7. 70099068: 282e         	cmp	r0, #0x2e
  8. 7009906a: d12e         	bne	0x700990ca <_vsnprintf+0x1ca> @ imm = #0x5c
  9. 700990ca: 983c         	ldr	r0, [sp, #0xf0]
  10. 700990cc: 7800         	ldrb	r0, [r0]
  11. 700990ce: 3868         	subs	r0, #0x68
  12. 700990d0: 4601         	mov	r1, r0
  13. 700990d2: 9128         	str	r1, [sp, #0xa0]
  14. 700990d4: 2812         	cmp	r0, #0x12
  15. 700990d6: d84e         	bhi	0x70099176 <_vsnprintf+0x276> @ imm = #0x9c

P_HDR Event: Idx:61768 (Pattern: EEEEEEEN, Function: _vsnprintf)
Executed Assembly Steps:
  1. 70099176: e7ff         	b	0x70099178 <_vsnprintf+0x278> @ imm = #-0x2
  2. 70099178: 983c         	ldr	r0, [sp, #0xf0]
  3. 7009917a: 7800         	ldrb	r0, [r0]
  4. 7009917c: 3825         	subs	r0, #0x25
  5. 7009917e: 4601         	mov	r1, r0
  6. 70099180: 9127         	str	r1, [sp, #0x9c]
  7. 70099182: 2853         	cmp	r0, #0x53
  8. 70099184: f200 83ab    	bhi.w	0x700998de <_vsnprintf+0x9de> @ imm = #0x756

P_HDR Event: Idx:61769 (Pattern: EE, Function: _vsnprintf)
Executed Assembly Steps:
  1. 70099188: 9927         	ldr	r1, [sp, #0x9c]
  2. 7009918a: e8df f011    	tbh	[pc, r1, lsl #1]

Sync: Idx:61770; ID:10;	BRANCH_ADDRESS : Branch address.; Addr=0x70099236 ~[0x1236];

P_HDR Event: Idx:61772 (Pattern: EEEN, Function: _vsnprintf)
Executed Assembly Steps:
  1. 70099236: 983c         	ldr	r0, [sp, #0xf0]
  2. 70099238: 7800         	ldrb	r0, [r0]
  3. 7009923a: 2878         	cmp	r0, #0x78
  4. 7009923c: d005         	beq	0x7009924a <_vsnprintf+0x34a> @ imm = #0xa

P_HDR Event: Idx:61773 (Pattern: EEEEEEEEEEEEEEE, Function: _vsnprintf)
Executed Assembly Steps:
  1. 7009923e: e7ff         	b	0x70099240 <_vsnprintf+0x340> @ imm = #-0x2
  2. 70099240: 983c         	ldr	r0, [sp, #0xf0]
  3. 70099242: 7800         	ldrb	r0, [r0]
  4. 70099244: 2858         	cmp	r0, #0x58
  5. 70099246: d103         	bne	0x70099250 <_vsnprintf+0x350> @ imm = #0x6
  6. 70099250: 983c         	ldr	r0, [sp, #0xf0]
  7. 70099252: 7800         	ldrb	r0, [r0]
  8. 70099254: 286f         	cmp	r0, #0x6f
  9. 70099256: d103         	bne	0x70099260 <_vsnprintf+0x360> @ imm = #0x6
  10. 70099260: 983c         	ldr	r0, [sp, #0xf0]
  11. 70099262: 7800         	ldrb	r0, [r0]
  12. 70099264: 2862         	cmp	r0, #0x62
  13. 70099266: d103         	bne	0x70099270 <_vsnprintf+0x370> @ imm = #0x6
  14. 70099270: 200a         	movs	r0, #0xa
  15. 70099272: 9034         	str	r0, [sp, #0xd0]

P_HDR Event: Idx:61774 (Pattern: EEEEEEEEEEEEEN, Function: _vsnprintf)
Executed Assembly Steps:
  1. 70099274: 983b         	ldr	r0, [sp, #0xec]
  2. 70099276: f020 0010    	bic	r0, r0, #0x10
  3. 7009927a: 903b         	str	r0, [sp, #0xec]
  4. 7009927c: e7ff         	b	0x7009927e <_vsnprintf+0x37e> @ imm = #-0x2
  5. 7009927e: e7ff         	b	0x70099280 <_vsnprintf+0x380> @ imm = #-0x2
  6. 70099280: e7ff         	b	0x70099282 <_vsnprintf+0x382> @ imm = #-0x2
  7. 70099282: 983c         	ldr	r0, [sp, #0xf0]
  8. 70099284: 7800         	ldrb	r0, [r0]
  9. 70099286: 2858         	cmp	r0, #0x58
  10. 70099288: d105         	bne	0x70099296 <_vsnprintf+0x396> @ imm = #0xa
  11. 70099296: 983c         	ldr	r0, [sp, #0xf0]
  12. 70099298: 7800         	ldrb	r0, [r0]
  13. 7009929a: 2869         	cmp	r0, #0x69
  14. 7009929c: d00a         	beq	0x700992b4 <_vsnprintf+0x3b4> @ imm = #0x14

P_HDR Event: Idx:61776 (Pattern: EEEEEEEEEEEEN, Function: _vsnprintf)
Executed Assembly Steps:
  1. 7009929e: e7ff         	b	0x700992a0 <_vsnprintf+0x3a0> @ imm = #-0x2
  2. 700992a0: 983c         	ldr	r0, [sp, #0xf0]
  3. 700992a2: 7800         	ldrb	r0, [r0]
  4. 700992a4: 2864         	cmp	r0, #0x64
  5. 700992a6: d005         	beq	0x700992b4 <_vsnprintf+0x3b4> @ imm = #0xa
  6. 700992b4: f89d 00ed    	ldrb.w	r0, [sp, #0xed]
  7. 700992b8: 0740         	lsls	r0, r0, #0x1d
  8. 700992ba: 2800         	cmp	r0, #0x0
  9. 700992bc: d505         	bpl	0x700992ca <_vsnprintf+0x3ca> @ imm = #0xa
  10. 700992ca: 983c         	ldr	r0, [sp, #0xf0]
  11. 700992cc: 7800         	ldrb	r0, [r0]
  12. 700992ce: 2869         	cmp	r0, #0x69
  13. 700992d0: d006         	beq	0x700992e0 <_vsnprintf+0x3e0> @ imm = #0xc

P_HDR Event: Idx:61777 (Pattern: EEEEN, Function: _vsnprintf)
Executed Assembly Steps:
  1. 700992d2: e7ff         	b	0x700992d4 <_vsnprintf+0x3d4> @ imm = #-0x2
  2. 700992d4: 983c         	ldr	r0, [sp, #0xf0]
  3. 700992d6: 7800         	ldrb	r0, [r0]
  4. 700992d8: 2864         	cmp	r0, #0x64
  5. 700992da: f040 80e9    	bne.w	0x700994b0 <_vsnprintf+0x5b0> @ imm = #0x1d2

P_HDR Event: Idx:61778 (Pattern: EEEEEEEEEEEEEE, Function: _vsnprintf)
Executed Assembly Steps:
  1. 700992de: e7ff         	b	0x700992e0 <_vsnprintf+0x3e0> @ imm = #-0x2
  2. 700992e0: f89d 00ed    	ldrb.w	r0, [sp, #0xed]
  3. 700992e4: 0780         	lsls	r0, r0, #0x1e
  4. 700992e6: 2800         	cmp	r0, #0x0
  5. 700992e8: d550         	bpl	0x7009938c <_vsnprintf+0x48c> @ imm = #0xa0
  6. 7009938c: f89d 00ed    	ldrb.w	r0, [sp, #0xed]
  7. 70099390: 07c0         	lsls	r0, r0, #0x1f
  8. 70099392: b3b0         	cbz	r0, 0x70099402 <_vsnprintf+0x502> @ imm = #0x6c
  9. 70099402: f89d 00ec    	ldrb.w	r0, [sp, #0xec]
  10. 70099406: 0640         	lsls	r0, r0, #0x19
  11. 70099408: 2800         	cmp	r0, #0x0
  12. 7009940a: d506         	bpl	0x7009941a <_vsnprintf+0x51a> @ imm = #0xc
  13. 7009941a: f89d 00ec    	ldrb.w	r0, [sp, #0xec]
  14. 7009941e: 0600         	lsls	r0, r0, #0x18

P_HDR Event: Idx:61779 (Pattern: EEEEEEEEEEEEEEE, Function: _vsnprintf)
Executed Assembly Steps:
  1. 70099420: 2800         	cmp	r0, #0x0
  2. 70099422: d507         	bpl	0x70099434 <_vsnprintf+0x534> @ imm = #0xe
  3. 70099434: 9840         	ldr	r0, [sp, #0x100]
  4. 70099436: 1d01         	adds	r1, r0, #0x4
  5. 70099438: 9140         	str	r1, [sp, #0x100]
  6. 7009943a: 6800         	ldr	r0, [r0]
  7. 7009943c: 9019         	str	r0, [sp, #0x64]
  8. 7009943e: e7ff         	b	0x70099440 <_vsnprintf+0x540> @ imm = #-0x2
  9. 70099440: 9819         	ldr	r0, [sp, #0x64]
  10. 70099442: 901a         	str	r0, [sp, #0x68]
  11. 70099444: e7ff         	b	0x70099446 <_vsnprintf+0x546> @ imm = #-0x2
  12. 70099446: 981a         	ldr	r0, [sp, #0x68]
  13. 70099448: 9030         	str	r0, [sp, #0xc0]
  14. 7009944a: 983f         	ldr	r0, [sp, #0xfc]
  15. 7009944c: 9015         	str	r0, [sp, #0x54]

P_HDR Event: Idx:61780 (Pattern: EEEEEEEEEEEEEEE, Function: _vsnprintf)
Executed Assembly Steps:
  1. 7009944e: 983e         	ldr	r0, [sp, #0xf8]
  2. 70099450: 9016         	str	r0, [sp, #0x58]
  3. 70099452: 9837         	ldr	r0, [sp, #0xdc]
  4. 70099454: 9017         	str	r0, [sp, #0x5c]
  5. 70099456: 983d         	ldr	r0, [sp, #0xf4]
  6. 70099458: 9018         	str	r0, [sp, #0x60]
  7. 7009945a: 9830         	ldr	r0, [sp, #0xc0]
  8. 7009945c: 2801         	cmp	r0, #0x1
  9. 7009945e: db03         	blt	0x70099468 <_vsnprintf+0x568> @ imm = #0x6
  10. 70099468: 9830         	ldr	r0, [sp, #0xc0]
  11. 7009946a: 4240         	rsbs	r0, r0, #0
  12. 7009946c: 9014         	str	r0, [sp, #0x50]
  13. 7009946e: e7ff         	b	0x70099470 <_vsnprintf+0x570> @ imm = #-0x2
  14. 70099470: 9b18         	ldr	r3, [sp, #0x60]
  15. 70099472: 9a17         	ldr	r2, [sp, #0x5c]

P_HDR Event: Idx:61781 (Pattern: EEEEEEEEEEEEEEE, Function: _vsnprintf)
Executed Assembly Steps:
  1. 70099474: 9916         	ldr	r1, [sp, #0x58]
  2. 70099476: 9815         	ldr	r0, [sp, #0x54]
  3. 70099478: f8dd c050    	ldr.w	r12, [sp, #0x50]
  4. 7009947c: 9c30         	ldr	r4, [sp, #0xc0]
  5. 7009947e: 9d34         	ldr	r5, [sp, #0xd0]
  6. 70099480: 9e39         	ldr	r6, [sp, #0xe4]
  7. 70099482: 9f3a         	ldr	r7, [sp, #0xe8]
  8. 70099484: f8dd 80ec    	ldr.w	r8, [sp, #0xec]
  9. 70099488: 46ee         	mov	lr, sp
  10. 7009948a: f8ce 8014    	str.w	r8, [lr, #0x14]
  11. 7009948e: f8ce 7010    	str.w	r7, [lr, #0x10]
  12. 70099492: f8ce 600c    	str.w	r6, [lr, #0xc]
  13. 70099496: f8ce 5008    	str.w	r5, [lr, #0x8]
  14. 7009949a: 0fe4         	lsrs	r4, r4, #0x1f
  15. 7009949c: f8ce 4004    	str.w	r4, [lr, #0x4]

P_HDR Event: Idx:61782 (Pattern: EEEEEEEEEEEEEEE, Function: _vsnprintf)
Executed Assembly Steps:
  1. 700994a0: f8ce c000    	str.w	r12, [lr]
  2. 700994a4: f004 fe44    	bl	0x7009e130 <_ntoa_long> @ imm = #0x4c88
  3. 7009e130: e92d 41f0    	push.w	{r4, r5, r6, r7, r8, lr}
  4. 7009e134: b098         	sub	sp, #0x60
  5. 7009e136: 4684         	mov	r12, r0
  6. 7009e138: 9823         	ldr	r0, [sp, #0x8c]
  7. 7009e13a: 9822         	ldr	r0, [sp, #0x88]
  8. 7009e13c: 9821         	ldr	r0, [sp, #0x84]
  9. 7009e13e: 9820         	ldr	r0, [sp, #0x80]
  10. 7009e140: 981f         	ldr	r0, [sp, #0x7c]
  11. 7009e142: f8dd e078    	ldr.w	lr, [sp, #0x78]
  12. 7009e146: f8cd c05c    	str.w	r12, [sp, #0x5c]
  13. 7009e14a: 9116         	str	r1, [sp, #0x58]
  14. 7009e14c: 9215         	str	r2, [sp, #0x54]
  15. 7009e14e: 9314         	str	r3, [sp, #0x50]

P_HDR Event: Idx:61783 (Pattern: EEEEN, Function: _ntoa_long)
Executed Assembly Steps:
  1. 7009e150: f88d 004f    	strb.w	r0, [sp, #0x4f]
  2. 7009e154: 2000         	movs	r0, #0x0
  3. 7009e156: 900a         	str	r0, [sp, #0x28]
  4. 7009e158: 981e         	ldr	r0, [sp, #0x78]
  5. 7009e15a: b928         	cbnz	r0, 0x7009e168 <_ntoa_long+0x38> @ imm = #0xa

P_HDR Event: Idx:61784 (Pattern: EEEEEEEEEEEEEEE, Function: _ntoa_long)
Executed Assembly Steps:
  1. 7009e15c: e7ff         	b	0x7009e15e <_ntoa_long+0x2e> @ imm = #-0x2
  2. 7009e15e: 9823         	ldr	r0, [sp, #0x8c]
  3. 7009e160: f020 0010    	bic	r0, r0, #0x10
  4. 7009e164: 9023         	str	r0, [sp, #0x8c]
  5. 7009e166: e7ff         	b	0x7009e168 <_ntoa_long+0x38> @ imm = #-0x2
  6. 7009e168: f89d 008d    	ldrb.w	r0, [sp, #0x8d]
  7. 7009e16c: 0740         	lsls	r0, r0, #0x1d
  8. 7009e16e: 2800         	cmp	r0, #0x0
  9. 7009e170: d504         	bpl	0x7009e17c <_ntoa_long+0x4c> @ imm = #0x8
  10. 7009e17c: e7ff         	b	0x7009e17e <_ntoa_long+0x4e> @ imm = #-0x2
  11. 7009e17e: 9a1e         	ldr	r2, [sp, #0x78]
  12. 7009e180: 9920         	ldr	r1, [sp, #0x80]
  13. 7009e182: fbb2 f0f1    	udiv	r0, r2, r1
  14. 7009e186: fb00 2011    	mls	r0, r0, r1, r2
  15. 7009e18a: f88d 0027    	strb.w	r0, [sp, #0x27]

P_HDR Event: Idx:61785 (Pattern: EEN, Function: _ntoa_long)
Executed Assembly Steps:
  1. 7009e18e: f89d 0027    	ldrb.w	r0, [sp, #0x27]
  2. 7009e192: 2809         	cmp	r0, #0x9
  3. 7009e194: dc05         	bgt	0x7009e1a2 <_ntoa_long+0x72> @ imm = #0xa

P_HDR Event: Idx:61786 (Pattern: EEEEEEEEEEEEEE, Function: _ntoa_long)
Executed Assembly Steps:
  1. 7009e196: e7ff         	b	0x7009e198 <_ntoa_long+0x68> @ imm = #-0x2
  2. 7009e198: f89d 0027    	ldrb.w	r0, [sp, #0x27]
  3. 7009e19c: 3030         	adds	r0, #0x30
  4. 7009e19e: 9008         	str	r0, [sp, #0x20]
  5. 7009e1a0: e00c         	b	0x7009e1bc <_ntoa_long+0x8c> @ imm = #0x18
  6. 7009e1bc: 9808         	ldr	r0, [sp, #0x20]
  7. 7009e1be: 9a0a         	ldr	r2, [sp, #0x28]
  8. 7009e1c0: 1c51         	adds	r1, r2, #0x1
  9. 7009e1c2: 910a         	str	r1, [sp, #0x28]
  10. 7009e1c4: f10d 012f    	add.w	r1, sp, #0x2f
  11. 7009e1c8: 5488         	strb	r0, [r1, r2]
  12. 7009e1ca: 9920         	ldr	r1, [sp, #0x80]
  13. 7009e1cc: 981e         	ldr	r0, [sp, #0x78]
  14. 7009e1ce: fbb0 f0f1    	udiv	r0, r0, r1

P_HDR Event: Idx:61787 (Pattern: EEEEEEEEEN, Function: _ntoa_long)
Executed Assembly Steps:
  1. 7009e1d2: 901e         	str	r0, [sp, #0x78]
  2. 7009e1d4: e7ff         	b	0x7009e1d6 <_ntoa_long+0xa6> @ imm = #-0x2
  3. 7009e1d6: 991e         	ldr	r1, [sp, #0x78]
  4. 7009e1d8: 2000         	movs	r0, #0x0
  5. 7009e1da: 9007         	str	r0, [sp, #0x1c]
  6. 7009e1dc: b139         	cbz	r1, 0x7009e1ee <_ntoa_long+0xbe> @ imm = #0xe
  7. 7009e1ee: 9807         	ldr	r0, [sp, #0x1c]
  8. 7009e1f0: 07c0         	lsls	r0, r0, #0x1f
  9. 7009e1f2: 2800         	cmp	r0, #0x0
  10. 7009e1f4: d1c3         	bne	0x7009e17e <_ntoa_long+0x4e> @ imm = #-0x7a

P_HDR Event: Idx:61788 (Pattern: EEEEEEEEEEEEEEE, Function: _ntoa_long)
Executed Assembly Steps:
  1. 7009e1f6: e7ff         	b	0x7009e1f8 <_ntoa_long+0xc8> @ imm = #-0x2
  2. 7009e1f8: e7ff         	b	0x7009e1fa <_ntoa_long+0xca> @ imm = #-0x2
  3. 7009e1fa: 9817         	ldr	r0, [sp, #0x5c]
  4. 7009e1fc: 9916         	ldr	r1, [sp, #0x58]
  5. 7009e1fe: 9a15         	ldr	r2, [sp, #0x54]
  6. 7009e200: 9b14         	ldr	r3, [sp, #0x50]
  7. 7009e202: f8dd c028    	ldr.w	r12, [sp, #0x28]
  8. 7009e206: 9d20         	ldr	r5, [sp, #0x80]
  9. 7009e208: 9e21         	ldr	r6, [sp, #0x84]
  10. 7009e20a: 9f22         	ldr	r7, [sp, #0x88]
  11. 7009e20c: f8dd 808c    	ldr.w	r8, [sp, #0x8c]
  12. 7009e210: f89d 404f    	ldrb.w	r4, [sp, #0x4f]
  13. 7009e214: 46ee         	mov	lr, sp
  14. 7009e216: f8ce 8018    	str.w	r8, [lr, #0x18]
  15. 7009e21a: f8ce 7014    	str.w	r7, [lr, #0x14]

P_HDR Event: Idx:61789 (Pattern: EEEEEEEEEEEEEEE, Function: _ntoa_long)
Executed Assembly Steps:
  1. 7009e21e: f8ce 6010    	str.w	r6, [lr, #0x10]
  2. 7009e222: f8ce 500c    	str.w	r5, [lr, #0xc]
  3. 7009e226: f004 0401    	and	r4, r4, #0x1
  4. 7009e22a: f8ce 4008    	str.w	r4, [lr, #0x8]
  5. 7009e22e: f8ce c004    	str.w	r12, [lr, #0x4]
  6. 7009e232: f10d 0c2f    	add.w	r12, sp, #0x2f
  7. 7009e236: f8ce c000    	str.w	r12, [lr]
  8. 7009e23a: f7fd f929    	bl	0x7009b490 <_ntoa_format> @ imm = #-0x2dae
  9. 7009b490: b570         	push	{r4, r5, r6, lr}
  10. 7009b492: b08c         	sub	sp, #0x30
  11. 7009b494: 4684         	mov	r12, r0
  12. 7009b496: 9816         	ldr	r0, [sp, #0x58]
  13. 7009b498: 9815         	ldr	r0, [sp, #0x54]
  14. 7009b49a: 9814         	ldr	r0, [sp, #0x50]
  15. 7009b49c: 9813         	ldr	r0, [sp, #0x4c]

P_HDR Event: Idx:61790 (Pattern: EEEEEEEEEEEN, Function: _ntoa_format)
Executed Assembly Steps:
  1. 7009b49e: 9812         	ldr	r0, [sp, #0x48]
  2. 7009b4a0: f8dd e044    	ldr.w	lr, [sp, #0x44]
  3. 7009b4a4: f8dd e040    	ldr.w	lr, [sp, #0x40]
  4. 7009b4a8: f8cd c02c    	str.w	r12, [sp, #0x2c]
  5. 7009b4ac: 910a         	str	r1, [sp, #0x28]
  6. 7009b4ae: 9209         	str	r2, [sp, #0x24]
  7. 7009b4b0: 9308         	str	r3, [sp, #0x20]
  8. 7009b4b2: f88d 001f    	strb.w	r0, [sp, #0x1f]
  9. 7009b4b6: f89d 0058    	ldrb.w	r0, [sp, #0x58]
  10. 7009b4ba: 0780         	lsls	r0, r0, #0x1e
  11. 7009b4bc: 2800         	cmp	r0, #0x0
  12. 7009b4be: d454         	bmi	0x7009b56a <_ntoa_format+0xda> @ imm = #0xa8

P_HDR Event: Idx:61794 (Pattern: EEN, Function: _ntoa_format)
Executed Assembly Steps:
  1. 7009b4c0: e7ff         	b	0x7009b4c2 <_ntoa_format+0x32> @ imm = #-0x2
  2. 7009b4c2: 9815         	ldr	r0, [sp, #0x54]
  3. 7009b4c4: b1a0         	cbz	r0, 0x7009b4f0 <_ntoa_format+0x60> @ imm = #0x28

P_HDR Event: Idx:61795 (Pattern: EEEEEEEEEEEEEEE, Function: _ntoa_format)
Executed Assembly Steps:
  1. 7009b4c6: e7ff         	b	0x7009b4c8 <_ntoa_format+0x38> @ imm = #-0x2
  2. 7009b4c8: f89d 0058    	ldrb.w	r0, [sp, #0x58]
  3. 7009b4cc: 07c0         	lsls	r0, r0, #0x1f
  4. 7009b4ce: b178         	cbz	r0, 0x7009b4f0 <_ntoa_format+0x60> @ imm = #0x1e
  5. 7009b4f0: e7ff         	b	0x7009b4f2 <_ntoa_format+0x62> @ imm = #-0x2
  6. 7009b4f2: 9911         	ldr	r1, [sp, #0x44]
  7. 7009b4f4: 9a14         	ldr	r2, [sp, #0x50]
  8. 7009b4f6: 2000         	movs	r0, #0x0
  9. 7009b4f8: 4291         	cmp	r1, r2
  10. 7009b4fa: 9006         	str	r0, [sp, #0x18]
  11. 7009b4fc: d207         	bhs	0x7009b50e <_ntoa_format+0x7e> @ imm = #0xe
  12. 7009b50e: 9806         	ldr	r0, [sp, #0x18]
  13. 7009b510: 07c0         	lsls	r0, r0, #0x1f
  14. 7009b512: b138         	cbz	r0, 0x7009b524 <_ntoa_format+0x94> @ imm = #0xe
  15. 7009b524: e7ff         	b	0x7009b526 <_ntoa_format+0x96> @ imm = #-0x2

P_HDR Event: Idx:61796 (Pattern: EEEEEEEEEEEEEE, Function: _ntoa_format)
Executed Assembly Steps:
  1. 7009b526: 2000         	movs	r0, #0x0
  2. 7009b528: f89d 1058    	ldrb.w	r1, [sp, #0x58]
  3. 7009b52c: ea4f 71c1    	lsl.w	r1, r1, #0x1f
  4. 7009b530: 9005         	str	r0, [sp, #0x14]
  5. 7009b532: b171         	cbz	r1, 0x7009b552 <_ntoa_format+0xc2> @ imm = #0x1c
  6. 7009b552: 9805         	ldr	r0, [sp, #0x14]
  7. 7009b554: 07c0         	lsls	r0, r0, #0x1f
  8. 7009b556: b138         	cbz	r0, 0x7009b568 <_ntoa_format+0xd8> @ imm = #0xe
  9. 7009b568: e7ff         	b	0x7009b56a <_ntoa_format+0xda> @ imm = #-0x2
  10. 7009b56a: f89d 0058    	ldrb.w	r0, [sp, #0x58]
  11. 7009b56e: 06c0         	lsls	r0, r0, #0x1b
  12. 7009b570: 2800         	cmp	r0, #0x0
  13. 7009b572: d569         	bpl	0x7009b648 <_ntoa_format+0x1b8> @ imm = #0xd2
  14. 7009b648: 9811         	ldr	r0, [sp, #0x44]

P_HDR Event: Idx:61797 (Pattern: EN, Function: _ntoa_format)
Executed Assembly Steps:
  1. 7009b64a: 281f         	cmp	r0, #0x1f
  2. 7009b64c: d829         	bhi	0x7009b6a2 <_ntoa_format+0x212> @ imm = #0x52

P_HDR Event: Idx:61798 (Pattern: EEEEEEEEEEEEEEE, Function: _ntoa_format)
Executed Assembly Steps:
  1. 7009b64e: e7ff         	b	0x7009b650 <_ntoa_format+0x1c0> @ imm = #-0x2
  2. 7009b650: f89d 001f    	ldrb.w	r0, [sp, #0x1f]
  3. 7009b654: 07c0         	lsls	r0, r0, #0x1f
  4. 7009b656: b138         	cbz	r0, 0x7009b668 <_ntoa_format+0x1d8> @ imm = #0xe
  5. 7009b668: f89d 0058    	ldrb.w	r0, [sp, #0x58]
  6. 7009b66c: 0740         	lsls	r0, r0, #0x1d
  7. 7009b66e: 2800         	cmp	r0, #0x0
  8. 7009b670: d507         	bpl	0x7009b682 <_ntoa_format+0x1f2> @ imm = #0xe
  9. 7009b682: f89d 0058    	ldrb.w	r0, [sp, #0x58]
  10. 7009b686: 0700         	lsls	r0, r0, #0x1c
  11. 7009b688: 2800         	cmp	r0, #0x0
  12. 7009b68a: d507         	bpl	0x7009b69c <_ntoa_format+0x20c> @ imm = #0xe
  13. 7009b69c: e7ff         	b	0x7009b69e <_ntoa_format+0x20e> @ imm = #-0x2
  14. 7009b69e: e7ff         	b	0x7009b6a0 <_ntoa_format+0x210> @ imm = #-0x2
  15. 7009b6a0: e7ff         	b	0x7009b6a2 <_ntoa_format+0x212> @ imm = #-0x2

P_HDR Event: Idx:61799 (Pattern: EEEEEEEEEEEEEEE, Function: _ntoa_format)
Executed Assembly Steps:
  1. 7009b6a2: 980b         	ldr	r0, [sp, #0x2c]
  2. 7009b6a4: 990a         	ldr	r1, [sp, #0x28]
  3. 7009b6a6: 9a09         	ldr	r2, [sp, #0x24]
  4. 7009b6a8: 9b08         	ldr	r3, [sp, #0x20]
  5. 7009b6aa: f8dd c040    	ldr.w	r12, [sp, #0x40]
  6. 7009b6ae: 9c11         	ldr	r4, [sp, #0x44]
  7. 7009b6b0: 9d15         	ldr	r5, [sp, #0x54]
  8. 7009b6b2: 9e16         	ldr	r6, [sp, #0x58]
  9. 7009b6b4: 46ee         	mov	lr, sp
  10. 7009b6b6: f8ce 600c    	str.w	r6, [lr, #0xc]
  11. 7009b6ba: f8ce 5008    	str.w	r5, [lr, #0x8]
  12. 7009b6be: f8ce 4004    	str.w	r4, [lr, #0x4]
  13. 7009b6c2: f8ce c000    	str.w	r12, [lr]
  14. 7009b6c6: f004 fae3    	bl	0x7009fc90 <_out_rev>   @ imm = #0x45c6
  15. 7009fc90: b580         	push	{r7, lr}

P_HDR Event: Idx:61800 (Pattern: EEEEEEEEEEEEEEN, Function: _out_rev)
Executed Assembly Steps:
  1. 7009fc92: b086         	sub	sp, #0x18
  2. 7009fc94: f8dd c02c    	ldr.w	r12, [sp, #0x2c]
  3. 7009fc98: f8dd c028    	ldr.w	r12, [sp, #0x28]
  4. 7009fc9c: f8dd c024    	ldr.w	r12, [sp, #0x24]
  5. 7009fca0: f8dd c020    	ldr.w	r12, [sp, #0x20]
  6. 7009fca4: 9005         	str	r0, [sp, #0x14]
  7. 7009fca6: 9104         	str	r1, [sp, #0x10]
  8. 7009fca8: 9203         	str	r2, [sp, #0xc]
  9. 7009fcaa: 9302         	str	r3, [sp, #0x8]
  10. 7009fcac: 9803         	ldr	r0, [sp, #0xc]
  11. 7009fcae: 9001         	str	r0, [sp, #0x4]
  12. 7009fcb0: f89d 002c    	ldrb.w	r0, [sp, #0x2c]
  13. 7009fcb4: 0780         	lsls	r0, r0, #0x1e
  14. 7009fcb6: 2800         	cmp	r0, #0x0
  15. 7009fcb8: d41c         	bmi	0x7009fcf4 <_out_rev+0x64> @ imm = #0x38

P_HDR Event: Idx:61801 (Pattern: EEEN, Function: _out_rev)
Executed Assembly Steps:
  1. 7009fcba: e7ff         	b	0x7009fcbc <_out_rev+0x2c> @ imm = #-0x2
  2. 7009fcbc: f89d 002c    	ldrb.w	r0, [sp, #0x2c]
  3. 7009fcc0: 07c0         	lsls	r0, r0, #0x1f
  4. 7009fcc2: b9b8         	cbnz	r0, 0x7009fcf4 <_out_rev+0x64> @ imm = #0x2e

P_HDR Event: Idx:61802 (Pattern: EEEEEEEN, Function: _out_rev)
Executed Assembly Steps:
  1. 7009fcc4: e7ff         	b	0x7009fcc6 <_out_rev+0x36> @ imm = #-0x2
  2. 7009fcc6: 9809         	ldr	r0, [sp, #0x24]
  3. 7009fcc8: 9000         	str	r0, [sp]
  4. 7009fcca: e7ff         	b	0x7009fccc <_out_rev+0x3c> @ imm = #-0x2
  5. 7009fccc: 9800         	ldr	r0, [sp]
  6. 7009fcce: 990a         	ldr	r1, [sp, #0x28]
  7. 7009fcd0: 4288         	cmp	r0, r1
  8. 7009fcd2: d20e         	bhs	0x7009fcf2 <_out_rev+0x62> @ imm = #0x1c

P_HDR Event: Idx:61803 (Pattern: EEEEEEEEE, Function: _out_rev)
Executed Assembly Steps:
  1. 7009fcd4: e7ff         	b	0x7009fcd6 <_out_rev+0x46> @ imm = #-0x2
  2. 7009fcd6: f8dd c014    	ldr.w	r12, [sp, #0x14]
  3. 7009fcda: 9904         	ldr	r1, [sp, #0x10]
  4. 7009fcdc: 9a03         	ldr	r2, [sp, #0xc]
  5. 7009fcde: 1c50         	adds	r0, r2, #0x1
  6. 7009fce0: 9003         	str	r0, [sp, #0xc]
  7. 7009fce2: 9b02         	ldr	r3, [sp, #0x8]
  8. 7009fce4: 2020         	movs	r0, #0x20
  9. 7009fce6: 47e0         	blx	r12

Sync: Idx:61804; ID:10;	BRANCH_ADDRESS : Branch address.; Addr=0x700A48B0 ~[0xA48B0];

P_HDR Event: Idx:61809 (Pattern: EEEEEEEEN, Function: _out_buffer)
Executed Assembly Steps:
  1. 700a48b0: b084         	sub	sp, #0x10
  2. 700a48b2: f88d 000f    	strb.w	r0, [sp, #0xf]
  3. 700a48b6: 9102         	str	r1, [sp, #0x8]
  4. 700a48b8: 9201         	str	r2, [sp, #0x4]
  5. 700a48ba: 9300         	str	r3, [sp]
  6. 700a48bc: 9801         	ldr	r0, [sp, #0x4]
  7. 700a48be: 9900         	ldr	r1, [sp]
  8. 700a48c0: 4288         	cmp	r0, r1
  9. 700a48c2: d206         	bhs	0x700a48d2 <_out_buffer+0x22> @ imm = #0xc

P_HDR Event: Idx:61810 (Pattern: EEEEEEEE, Function: _out_buffer)
Executed Assembly Steps:
  1. 700a48c4: e7ff         	b	0x700a48c6 <_out_buffer+0x16> @ imm = #-0x2
  2. 700a48c6: f89d 000f    	ldrb.w	r0, [sp, #0xf]
  3. 700a48ca: 9902         	ldr	r1, [sp, #0x8]
  4. 700a48cc: 9a01         	ldr	r2, [sp, #0x4]
  5. 700a48ce: 5488         	strb	r0, [r1, r2]
  6. 700a48d0: e7ff         	b	0x700a48d2 <_out_buffer+0x22> @ imm = #-0x2
  7. 700a48d2: b004         	add	sp, #0x10
  8. 700a48d4: 4770         	bx	lr

Sync: Idx:61811; ID:10;	BRANCH_ADDRESS : Branch address.; Addr=0x7009FCE8 ~[0x9FCE8];

P_HDR Event: Idx:61814 (Pattern: EEEEEEEEN, Function: _out_rev)
Executed Assembly Steps:
  1. 7009fce8: e7ff         	b	0x7009fcea <_out_rev+0x5a> @ imm = #-0x2
  2. 7009fcea: 9800         	ldr	r0, [sp]
  3. 7009fcec: 3001         	adds	r0, #0x1
  4. 7009fcee: 9000         	str	r0, [sp]
  5. 7009fcf0: e7ec         	b	0x7009fccc <_out_rev+0x3c> @ imm = #-0x28
  6. 7009fccc: 9800         	ldr	r0, [sp]
  7. 7009fcce: 990a         	ldr	r1, [sp, #0x28]
  8. 7009fcd0: 4288         	cmp	r0, r1
  9. 7009fcd2: d20e         	bhs	0x7009fcf2 <_out_rev+0x62> @ imm = #0x1c

P_HDR Event: Idx:61815 (Pattern: EEEEEEEEE, Function: _out_rev)
Executed Assembly Steps:
  1. 7009fcd4: e7ff         	b	0x7009fcd6 <_out_rev+0x46> @ imm = #-0x2
  2. 7009fcd6: f8dd c014    	ldr.w	r12, [sp, #0x14]
  3. 7009fcda: 9904         	ldr	r1, [sp, #0x10]
  4. 7009fcdc: 9a03         	ldr	r2, [sp, #0xc]
  5. 7009fcde: 1c50         	adds	r0, r2, #0x1
  6. 7009fce0: 9003         	str	r0, [sp, #0xc]
  7. 7009fce2: 9b02         	ldr	r3, [sp, #0x8]
  8. 7009fce4: 2020         	movs	r0, #0x20
  9. 7009fce6: 47e0         	blx	r12

Sync: Idx:61816; ID:10;	BRANCH_ADDRESS : Branch address.; Addr=0x700A48B0 ~[0xA48B0];

P_HDR Event: Idx:61819 (Pattern: EEEEEEEEN, Function: _out_buffer)
Executed Assembly Steps:
  1. 700a48b0: b084         	sub	sp, #0x10
  2. 700a48b2: f88d 000f    	strb.w	r0, [sp, #0xf]
  3. 700a48b6: 9102         	str	r1, [sp, #0x8]
  4. 700a48b8: 9201         	str	r2, [sp, #0x4]
  5. 700a48ba: 9300         	str	r3, [sp]
  6. 700a48bc: 9801         	ldr	r0, [sp, #0x4]
  7. 700a48be: 9900         	ldr	r1, [sp]
  8. 700a48c0: 4288         	cmp	r0, r1
  9. 700a48c2: d206         	bhs	0x700a48d2 <_out_buffer+0x22> @ imm = #0xc

P_HDR Event: Idx:61820 (Pattern: EEEEEEEE, Function: _out_buffer)
Executed Assembly Steps:
  1. 700a48c4: e7ff         	b	0x700a48c6 <_out_buffer+0x16> @ imm = #-0x2
  2. 700a48c6: f89d 000f    	ldrb.w	r0, [sp, #0xf]
  3. 700a48ca: 9902         	ldr	r1, [sp, #0x8]
  4. 700a48cc: 9a01         	ldr	r2, [sp, #0x4]
  5. 700a48ce: 5488         	strb	r0, [r1, r2]
  6. 700a48d0: e7ff         	b	0x700a48d2 <_out_buffer+0x22> @ imm = #-0x2
  7. 700a48d2: b004         	add	sp, #0x10
  8. 700a48d4: 4770         	bx	lr

Sync: Idx:61821; ID:10;	BRANCH_ADDRESS : Branch address.; Addr=0x7009FCE8 ~[0x9FCE8];

P_HDR Event: Idx:61825 (Pattern: EEEEEEEEN, Function: _out_rev)
Executed Assembly Steps:
  1. 7009fce8: e7ff         	b	0x7009fcea <_out_rev+0x5a> @ imm = #-0x2
  2. 7009fcea: 9800         	ldr	r0, [sp]
  3. 7009fcec: 3001         	adds	r0, #0x1
  4. 7009fcee: 9000         	str	r0, [sp]
  5. 7009fcf0: e7ec         	b	0x7009fccc <_out_rev+0x3c> @ imm = #-0x28
  6. 7009fccc: 9800         	ldr	r0, [sp]
  7. 7009fcce: 990a         	ldr	r1, [sp, #0x28]
  8. 7009fcd0: 4288         	cmp	r0, r1
  9. 7009fcd2: d20e         	bhs	0x7009fcf2 <_out_rev+0x62> @ imm = #0x1c

P_HDR Event: Idx:61826 (Pattern: EEEEEEEEE, Function: _out_rev)
Executed Assembly Steps:
  1. 7009fcd4: e7ff         	b	0x7009fcd6 <_out_rev+0x46> @ imm = #-0x2
  2. 7009fcd6: f8dd c014    	ldr.w	r12, [sp, #0x14]
  3. 7009fcda: 9904         	ldr	r1, [sp, #0x10]
  4. 7009fcdc: 9a03         	ldr	r2, [sp, #0xc]
  5. 7009fcde: 1c50         	adds	r0, r2, #0x1
  6. 7009fce0: 9003         	str	r0, [sp, #0xc]
  7. 7009fce2: 9b02         	ldr	r3, [sp, #0x8]
  8. 7009fce4: 2020         	movs	r0, #0x20
  9. 7009fce6: 47e0         	blx	r12

Sync: Idx:61827; ID:10;	BRANCH_ADDRESS : Branch address.; Addr=0x700A48B0 ~[0xA48B0];

P_HDR Event: Idx:61830 (Pattern: EEEEEEEEN, Function: _out_buffer)
Executed Assembly Steps:
  1. 700a48b0: b084         	sub	sp, #0x10
  2. 700a48b2: f88d 000f    	strb.w	r0, [sp, #0xf]
  3. 700a48b6: 9102         	str	r1, [sp, #0x8]
  4. 700a48b8: 9201         	str	r2, [sp, #0x4]
  5. 700a48ba: 9300         	str	r3, [sp]
  6. 700a48bc: 9801         	ldr	r0, [sp, #0x4]
  7. 700a48be: 9900         	ldr	r1, [sp]
  8. 700a48c0: 4288         	cmp	r0, r1
  9. 700a48c2: d206         	bhs	0x700a48d2 <_out_buffer+0x22> @ imm = #0xc

P_HDR Event: Idx:61831 (Pattern: EEEEEEEE, Function: _out_buffer)
Executed Assembly Steps:
  1. 700a48c4: e7ff         	b	0x700a48c6 <_out_buffer+0x16> @ imm = #-0x2
  2. 700a48c6: f89d 000f    	ldrb.w	r0, [sp, #0xf]
  3. 700a48ca: 9902         	ldr	r1, [sp, #0x8]
  4. 700a48cc: 9a01         	ldr	r2, [sp, #0x4]
  5. 700a48ce: 5488         	strb	r0, [r1, r2]
  6. 700a48d0: e7ff         	b	0x700a48d2 <_out_buffer+0x22> @ imm = #-0x2
  7. 700a48d2: b004         	add	sp, #0x10
  8. 700a48d4: 4770         	bx	lr

Sync: Idx:61832; ID:10;	BRANCH_ADDRESS : Branch address.; Addr=0x7009FCE8 ~[0x9FCE8];

P_HDR Event: Idx:61835 (Pattern: EEEEEEEEN, Function: _out_rev)
Executed Assembly Steps:
  1. 7009fce8: e7ff         	b	0x7009fcea <_out_rev+0x5a> @ imm = #-0x2
  2. 7009fcea: 9800         	ldr	r0, [sp]
  3. 7009fcec: 3001         	adds	r0, #0x1
  4. 7009fcee: 9000         	str	r0, [sp]
  5. 7009fcf0: e7ec         	b	0x7009fccc <_out_rev+0x3c> @ imm = #-0x28
  6. 7009fccc: 9800         	ldr	r0, [sp]
  7. 7009fcce: 990a         	ldr	r1, [sp, #0x28]
  8. 7009fcd0: 4288         	cmp	r0, r1
  9. 7009fcd2: d20e         	bhs	0x7009fcf2 <_out_rev+0x62> @ imm = #0x1c

P_HDR Event: Idx:61836 (Pattern: EEEEEEEEE, Function: _out_rev)
Executed Assembly Steps:
  1. 7009fcd4: e7ff         	b	0x7009fcd6 <_out_rev+0x46> @ imm = #-0x2
  2. 7009fcd6: f8dd c014    	ldr.w	r12, [sp, #0x14]
  3. 7009fcda: 9904         	ldr	r1, [sp, #0x10]
  4. 7009fcdc: 9a03         	ldr	r2, [sp, #0xc]
  5. 7009fcde: 1c50         	adds	r0, r2, #0x1
  6. 7009fce0: 9003         	str	r0, [sp, #0xc]
  7. 7009fce2: 9b02         	ldr	r3, [sp, #0x8]
  8. 7009fce4: 2020         	movs	r0, #0x20
  9. 7009fce6: 47e0         	blx	r12

Sync: Idx:61837; ID:10;	BRANCH_ADDRESS : Branch address.; Addr=0x700A48B0 ~[0xA48B0];

P_HDR Event: Idx:61841 (Pattern: EEEEEEEEN, Function: _out_buffer)
Executed Assembly Steps:
  1. 700a48b0: b084         	sub	sp, #0x10
  2. 700a48b2: f88d 000f    	strb.w	r0, [sp, #0xf]
  3. 700a48b6: 9102         	str	r1, [sp, #0x8]
  4. 700a48b8: 9201         	str	r2, [sp, #0x4]
  5. 700a48ba: 9300         	str	r3, [sp]
  6. 700a48bc: 9801         	ldr	r0, [sp, #0x4]
  7. 700a48be: 9900         	ldr	r1, [sp]
  8. 700a48c0: 4288         	cmp	r0, r1
  9. 700a48c2: d206         	bhs	0x700a48d2 <_out_buffer+0x22> @ imm = #0xc

P_HDR Event: Idx:61842 (Pattern: EEEEEEEE, Function: _out_buffer)
Executed Assembly Steps:
  1. 700a48c4: e7ff         	b	0x700a48c6 <_out_buffer+0x16> @ imm = #-0x2
  2. 700a48c6: f89d 000f    	ldrb.w	r0, [sp, #0xf]
  3. 700a48ca: 9902         	ldr	r1, [sp, #0x8]
  4. 700a48cc: 9a01         	ldr	r2, [sp, #0x4]
  5. 700a48ce: 5488         	strb	r0, [r1, r2]
  6. 700a48d0: e7ff         	b	0x700a48d2 <_out_buffer+0x22> @ imm = #-0x2
  7. 700a48d2: b004         	add	sp, #0x10
  8. 700a48d4: 4770         	bx	lr

Sync: Idx:61843; ID:10;	BRANCH_ADDRESS : Branch address.; Addr=0x7009FCE8 ~[0x9FCE8];

P_HDR Event: Idx:61846 (Pattern: EEEEEEEEEEEEN, Function: _out_rev)
Executed Assembly Steps:
  1. 7009fce8: e7ff         	b	0x7009fcea <_out_rev+0x5a> @ imm = #-0x2
  2. 7009fcea: 9800         	ldr	r0, [sp]
  3. 7009fcec: 3001         	adds	r0, #0x1
  4. 7009fcee: 9000         	str	r0, [sp]
  5. 7009fcf0: e7ec         	b	0x7009fccc <_out_rev+0x3c> @ imm = #-0x28
  6. 7009fccc: 9800         	ldr	r0, [sp]
  7. 7009fcce: 990a         	ldr	r1, [sp, #0x28]
  8. 7009fcd0: 4288         	cmp	r0, r1
  9. 7009fcd2: d20e         	bhs	0x7009fcf2 <_out_rev+0x62> @ imm = #0x1c
  10. 7009fcf2: e7ff         	b	0x7009fcf4 <_out_rev+0x64> @ imm = #-0x2
  11. 7009fcf4: e7ff         	b	0x7009fcf6 <_out_rev+0x66> @ imm = #-0x2
  12. 7009fcf6: 9809         	ldr	r0, [sp, #0x24]
  13. 7009fcf8: b170         	cbz	r0, 0x7009fd18 <_out_rev+0x88> @ imm = #0x1c

P_HDR Event: Idx:61847 (Pattern: EEEEEEEEEEEEE, Function: _out_rev)
Executed Assembly Steps:
  1. 7009fcfa: e7ff         	b	0x7009fcfc <_out_rev+0x6c> @ imm = #-0x2
  2. 7009fcfc: f8dd c014    	ldr.w	r12, [sp, #0x14]
  3. 7009fd00: 9808         	ldr	r0, [sp, #0x20]
  4. 7009fd02: 9909         	ldr	r1, [sp, #0x24]
  5. 7009fd04: 3901         	subs	r1, #0x1
  6. 7009fd06: 9109         	str	r1, [sp, #0x24]
  7. 7009fd08: 5c40         	ldrb	r0, [r0, r1]
  8. 7009fd0a: 9904         	ldr	r1, [sp, #0x10]
  9. 7009fd0c: 9a03         	ldr	r2, [sp, #0xc]
  10. 7009fd0e: 1c53         	adds	r3, r2, #0x1
  11. 7009fd10: 9303         	str	r3, [sp, #0xc]
  12. 7009fd12: 9b02         	ldr	r3, [sp, #0x8]
  13. 7009fd14: 47e0         	blx	r12

Sync: Idx:61848; ID:10;	BRANCH_ADDRESS : Branch address.; Addr=0x700A48B0 ~[0xA48B0];

P_HDR Event: Idx:61851 (Pattern: EEEEEEEEN, Function: _out_buffer)
Executed Assembly Steps:
  1. 700a48b0: b084         	sub	sp, #0x10
  2. 700a48b2: f88d 000f    	strb.w	r0, [sp, #0xf]
  3. 700a48b6: 9102         	str	r1, [sp, #0x8]
  4. 700a48b8: 9201         	str	r2, [sp, #0x4]
  5. 700a48ba: 9300         	str	r3, [sp]
  6. 700a48bc: 9801         	ldr	r0, [sp, #0x4]
  7. 700a48be: 9900         	ldr	r1, [sp]
  8. 700a48c0: 4288         	cmp	r0, r1
  9. 700a48c2: d206         	bhs	0x700a48d2 <_out_buffer+0x22> @ imm = #0xc

P_HDR Event: Idx:61852 (Pattern: EEEEEEEE, Function: _out_buffer)
Executed Assembly Steps:
  1. 700a48c4: e7ff         	b	0x700a48c6 <_out_buffer+0x16> @ imm = #-0x2
  2. 700a48c6: f89d 000f    	ldrb.w	r0, [sp, #0xf]
  3. 700a48ca: 9902         	ldr	r1, [sp, #0x8]
  4. 700a48cc: 9a01         	ldr	r2, [sp, #0x4]
  5. 700a48ce: 5488         	strb	r0, [r1, r2]
  6. 700a48d0: e7ff         	b	0x700a48d2 <_out_buffer+0x22> @ imm = #-0x2
  7. 700a48d2: b004         	add	sp, #0x10
  8. 700a48d4: 4770         	bx	lr

Sync: Idx:61853; ID:10;	BRANCH_ADDRESS : Branch address.; Addr=0x7009FD16 ~[0x9FD16];

P_HDR Event: Idx:61857 (Pattern: EEEEEEEEEE, Function: _out_rev)
Executed Assembly Steps:
  1. 7009fd16: e7ee         	b	0x7009fcf6 <_out_rev+0x66> @ imm = #-0x24
  2. 7009fcf6: 9809         	ldr	r0, [sp, #0x24]
  3. 7009fcf8: b170         	cbz	r0, 0x7009fd18 <_out_rev+0x88> @ imm = #0x1c
  4. 7009fd18: f89d 002c    	ldrb.w	r0, [sp, #0x2c]
  5. 7009fd1c: 0780         	lsls	r0, r0, #0x1e
  6. 7009fd1e: 2800         	cmp	r0, #0x0
  7. 7009fd20: d513         	bpl	0x7009fd4a <_out_rev+0xba> @ imm = #0x26
  8. 7009fd4a: 9803         	ldr	r0, [sp, #0xc]
  9. 7009fd4c: b006         	add	sp, #0x18
  10. 7009fd4e: bd80         	pop	{r7, pc}

Sync: Idx:61858; ID:10;	BRANCH_ADDRESS : Branch address.; Addr=0x7009B6CA ~[0x9B6CA];

P_HDR Event: Idx:61861 (Pattern: EE, Function: _ntoa_format)
Executed Assembly Steps:
  1. 7009b6ca: b00c         	add	sp, #0x30
  2. 7009b6cc: bd70         	pop	{r4, r5, r6, pc}

Sync: Idx:61862; ID:10;	BRANCH_ADDRESS : Branch address.; Addr=0x7009E23E ~[0x9E23E];

P_HDR Event: Idx:61865 (Pattern: EE, Function: _ntoa_long)
Executed Assembly Steps:
  1. 7009e23e: b018         	add	sp, #0x60
  2. 7009e240: e8bd 81f0    	pop.w	{r4, r5, r6, r7, r8, pc}

Sync: Idx:61866; ID:10;	BRANCH_ADDRESS : Branch address.; Addr=0x700994A8 ~[0x994A8];

P_HDR Event: Idx:61869 (Pattern: EEEEEEEEEEEEN, Function: _vsnprintf)
Executed Assembly Steps:
  1. 700994a8: 9037         	str	r0, [sp, #0xdc]
  2. 700994aa: e7ff         	b	0x700994ac <_vsnprintf+0x5ac> @ imm = #-0x2
  3. 700994ac: e7ff         	b	0x700994ae <_vsnprintf+0x5ae> @ imm = #-0x2
  4. 700994ae: e09c         	b	0x700995ea <_vsnprintf+0x6ea> @ imm = #0x138
  5. 700995ea: 983c         	ldr	r0, [sp, #0xf0]
  6. 700995ec: 3001         	adds	r0, #0x1
  7. 700995ee: 903c         	str	r0, [sp, #0xf0]
  8. 700995f0: e183         	b	0x700998fa <_vsnprintf+0x9fa> @ imm = #0x306
  9. 700998fa: f7ff bb18    	b.w	0x70098f2e <_vsnprintf+0x2e> @ imm = #-0x9d0
  10. 70098f2e: 983c         	ldr	r0, [sp, #0xf0]
  11. 70098f30: 7800         	ldrb	r0, [r0]
  12. 70098f32: 2800         	cmp	r0, #0x0
  13. 70098f34: f000 84e3    	beq.w	0x700998fe <_vsnprintf+0x9fe> @ imm = #0x9c6

P_HDR Event: Idx:61870 (Pattern: EEEEN, Function: _vsnprintf)
Executed Assembly Steps:
  1. 70098f38: e7ff         	b	0x70098f3a <_vsnprintf+0x3a> @ imm = #-0x2
  2. 70098f3a: 983c         	ldr	r0, [sp, #0xf0]
  3. 70098f3c: 7800         	ldrb	r0, [r0]
  4. 70098f3e: 2825         	cmp	r0, #0x25
  5. 70098f40: d00e         	beq	0x70098f60 <_vsnprintf+0x60> @ imm = #0x1c

P_HDR Event: Idx:61872 (Pattern: EEEEEEEEEE, Function: _vsnprintf)
Executed Assembly Steps:
  1. 70098f42: e7ff         	b	0x70098f44 <_vsnprintf+0x44> @ imm = #-0x2
  2. 70098f44: f8dd c0fc    	ldr.w	r12, [sp, #0xfc]
  3. 70098f48: 983c         	ldr	r0, [sp, #0xf0]
  4. 70098f4a: 7800         	ldrb	r0, [r0]
  5. 70098f4c: 993e         	ldr	r1, [sp, #0xf8]
  6. 70098f4e: 9a37         	ldr	r2, [sp, #0xdc]
  7. 70098f50: 1c53         	adds	r3, r2, #0x1
  8. 70098f52: 9337         	str	r3, [sp, #0xdc]
  9. 70098f54: 9b3d         	ldr	r3, [sp, #0xf4]
  10. 70098f56: 47e0         	blx	r12

Sync: Idx:61873; ID:10;	BRANCH_ADDRESS : Branch address.; Addr=0x700A48B0 ~[0xA48B0];

P_HDR Event: Idx:61876 (Pattern: EEEEEEEEN, Function: _out_buffer)
Executed Assembly Steps:
  1. 700a48b0: b084         	sub	sp, #0x10
  2. 700a48b2: f88d 000f    	strb.w	r0, [sp, #0xf]
  3. 700a48b6: 9102         	str	r1, [sp, #0x8]
  4. 700a48b8: 9201         	str	r2, [sp, #0x4]
  5. 700a48ba: 9300         	str	r3, [sp]
  6. 700a48bc: 9801         	ldr	r0, [sp, #0x4]
  7. 700a48be: 9900         	ldr	r1, [sp]
  8. 700a48c0: 4288         	cmp	r0, r1
  9. 700a48c2: d206         	bhs	0x700a48d2 <_out_buffer+0x22> @ imm = #0xc

P_HDR Event: Idx:61877 (Pattern: EEEEEEEE, Function: _out_buffer)
Executed Assembly Steps:
  1. 700a48c4: e7ff         	b	0x700a48c6 <_out_buffer+0x16> @ imm = #-0x2
  2. 700a48c6: f89d 000f    	ldrb.w	r0, [sp, #0xf]
  3. 700a48ca: 9902         	ldr	r1, [sp, #0x8]
  4. 700a48cc: 9a01         	ldr	r2, [sp, #0x4]
  5. 700a48ce: 5488         	strb	r0, [r1, r2]
  6. 700a48d0: e7ff         	b	0x700a48d2 <_out_buffer+0x22> @ imm = #-0x2
  7. 700a48d2: b004         	add	sp, #0x10
  8. 700a48d4: 4770         	bx	lr

Sync: Idx:61878; ID:10;	BRANCH_ADDRESS : Branch address.; Addr=0x70098F58 ~[0x98F58];

P_HDR Event: Idx:61881 (Pattern: EEEEEEEN, Function: _vsnprintf)
Executed Assembly Steps:
  1. 70098f58: 983c         	ldr	r0, [sp, #0xf0]
  2. 70098f5a: 3001         	adds	r0, #0x1
  3. 70098f5c: 903c         	str	r0, [sp, #0xf0]
  4. 70098f5e: e7e6         	b	0x70098f2e <_vsnprintf+0x2e> @ imm = #-0x34
  5. 70098f2e: 983c         	ldr	r0, [sp, #0xf0]
  6. 70098f30: 7800         	ldrb	r0, [r0]
  7. 70098f32: 2800         	cmp	r0, #0x0
  8. 70098f34: f000 84e3    	beq.w	0x700998fe <_vsnprintf+0x9fe> @ imm = #0x9c6

P_HDR Event: Idx:61882 (Pattern: EEEEEEEEEEEEEEE, Function: _vsnprintf)
Executed Assembly Steps:
  1. 70098f38: e7ff         	b	0x70098f3a <_vsnprintf+0x3a> @ imm = #-0x2
  2. 70098f3a: 983c         	ldr	r0, [sp, #0xf0]
  3. 70098f3c: 7800         	ldrb	r0, [r0]
  4. 70098f3e: 2825         	cmp	r0, #0x25
  5. 70098f40: d00e         	beq	0x70098f60 <_vsnprintf+0x60> @ imm = #0x1c
  6. 70098f60: 983c         	ldr	r0, [sp, #0xf0]
  7. 70098f62: 3001         	adds	r0, #0x1
  8. 70098f64: 903c         	str	r0, [sp, #0xf0]
  9. 70098f66: e7ff         	b	0x70098f68 <_vsnprintf+0x68> @ imm = #-0x2
  10. 70098f68: 2000         	movs	r0, #0x0
  11. 70098f6a: 903b         	str	r0, [sp, #0xec]
  12. 70098f6c: e7ff         	b	0x70098f6e <_vsnprintf+0x6e> @ imm = #-0x2
  13. 70098f6e: 983c         	ldr	r0, [sp, #0xf0]
  14. 70098f70: 7800         	ldrb	r0, [r0]
  15. 70098f72: 3820         	subs	r0, #0x20

P_HDR Event: Idx:61883 (Pattern: EEEN, Function: _vsnprintf)
Executed Assembly Steps:
  1. 70098f74: 4601         	mov	r1, r0
  2. 70098f76: 912a         	str	r1, [sp, #0xa8]
  3. 70098f78: 2810         	cmp	r0, #0x10
  4. 70098f7a: d83d         	bhi	0x70098ff8 <_vsnprintf+0xf8> @ imm = #0x7a

P_HDR Event: Idx:61884 (Pattern: EE, Function: _vsnprintf)
Executed Assembly Steps:
  1. 70098f7c: 992a         	ldr	r1, [sp, #0xa8]
  2. 70098f7e: e8df f001    	tbb	[pc, r1]

Sync: Idx:61885; ID:10;	BRANCH_ADDRESS : Branch address.; Addr=0x70098F94 ~[0xF94];

P_HDR Event: Idx:61888 (Pattern: EEEEEEEEEEEEEEE, Function: _vsnprintf)
Executed Assembly Steps:
  1. 70098f94: 983b         	ldr	r0, [sp, #0xec]
  2. 70098f96: f040 0001    	orr	r0, r0, #0x1
  3. 70098f9a: 903b         	str	r0, [sp, #0xec]
  4. 70098f9c: 983c         	ldr	r0, [sp, #0xf0]
  5. 70098f9e: 3001         	adds	r0, #0x1
  6. 70098fa0: 903c         	str	r0, [sp, #0xf0]
  7. 70098fa2: 2001         	movs	r0, #0x1
  8. 70098fa4: 9038         	str	r0, [sp, #0xe0]
  9. 70098fa6: e02a         	b	0x70098ffe <_vsnprintf+0xfe> @ imm = #0x54
  10. 70098ffe: e7ff         	b	0x70099000 <_vsnprintf+0x100> @ imm = #-0x2
  11. 70099000: 9838         	ldr	r0, [sp, #0xe0]
  12. 70099002: 2800         	cmp	r0, #0x0
  13. 70099004: d1b3         	bne	0x70098f6e <_vsnprintf+0x6e> @ imm = #-0x9a
  14. 70098f6e: 983c         	ldr	r0, [sp, #0xf0]
  15. 70098f70: 7800         	ldrb	r0, [r0]

P_HDR Event: Idx:61889 (Pattern: EEEEEEEEEEEN, Function: _vsnprintf)
Executed Assembly Steps:
  1. 70098f72: 3820         	subs	r0, #0x20
  2. 70098f74: 4601         	mov	r1, r0
  3. 70098f76: 912a         	str	r1, [sp, #0xa8]
  4. 70098f78: 2810         	cmp	r0, #0x10
  5. 70098f7a: d83d         	bhi	0x70098ff8 <_vsnprintf+0xf8> @ imm = #0x7a
  6. 70098ff8: 2000         	movs	r0, #0x0
  7. 70098ffa: 9038         	str	r0, [sp, #0xe0]
  8. 70098ffc: e7ff         	b	0x70098ffe <_vsnprintf+0xfe> @ imm = #-0x2
  9. 70098ffe: e7ff         	b	0x70099000 <_vsnprintf+0x100> @ imm = #-0x2
  10. 70099000: 9838         	ldr	r0, [sp, #0xe0]
  11. 70099002: 2800         	cmp	r0, #0x0
  12. 70099004: d1b3         	bne	0x70098f6e <_vsnprintf+0x6e> @ imm = #-0x9a

P_HDR Event: Idx:61890 (Pattern: EEEEEEEEEEEEN, Function: _vsnprintf)
Executed Assembly Steps:
  1. 70099006: e7ff         	b	0x70099008 <_vsnprintf+0x108> @ imm = #-0x2
  2. 70099008: 2000         	movs	r0, #0x0
  3. 7009900a: 903a         	str	r0, [sp, #0xe8]
  4. 7009900c: 983c         	ldr	r0, [sp, #0xf0]
  5. 7009900e: 7800         	ldrb	r0, [r0]
  6. 70099010: f00b fa6e    	bl	0x700a44f0 <_is_digit>  @ imm = #0xb4dc
  7. 700a44f0: b082         	sub	sp, #0x8
  8. 700a44f2: f88d 0007    	strb.w	r0, [sp, #0x7]
  9. 700a44f6: f89d 1007    	ldrb.w	r1, [sp, #0x7]
  10. 700a44fa: 2000         	movs	r0, #0x0
  11. 700a44fc: 2930         	cmp	r1, #0x30
  12. 700a44fe: 9000         	str	r0, [sp]
  13. 700a4500: db08         	blt	0x700a4514 <_is_digit+0x24> @ imm = #0x10

P_HDR Event: Idx:61891 (Pattern: EEEEEEEEEEEE, Function: _is_digit)
Executed Assembly Steps:
  1. 700a4502: e7ff         	b	0x700a4504 <_is_digit+0x14> @ imm = #-0x2
  2. 700a4504: f89d 1007    	ldrb.w	r1, [sp, #0x7]
  3. 700a4508: 2000         	movs	r0, #0x0
  4. 700a450a: 293a         	cmp	r1, #0x3a
  5. 700a450c: bfb8         	it	lt
  6. 700a450e: 2001         	movlt	r0, #0x1
  7. 700a4510: 9000         	str	r0, [sp]
  8. 700a4512: e7ff         	b	0x700a4514 <_is_digit+0x24> @ imm = #-0x2
  9. 700a4514: 9800         	ldr	r0, [sp]
  10. 700a4516: f000 0001    	and	r0, r0, #0x1
  11. 700a451a: b002         	add	sp, #0x8
  12. 700a451c: 4770         	bx	lr

Sync: Idx:61892; ID:10;	BRANCH_ADDRESS : Branch address.; Addr=0x70099014 ~[0x1014];

P_HDR Event: Idx:61894 (Pattern: N, Function: _vsnprintf)
Executed Assembly Steps:
  1. 70099014: b128         	cbz	r0, 0x70099022 <_vsnprintf+0x122> @ imm = #0xa

P_HDR Event: Idx:61895 (Pattern: EEEEEEEEEEEEEEE, Function: _vsnprintf)
Executed Assembly Steps:
  1. 70099016: e7ff         	b	0x70099018 <_vsnprintf+0x118> @ imm = #-0x2
  2. 70099018: a83c         	add	r0, sp, #0xf0
  3. 7009901a: f00a ff11    	bl	0x700a3e40 <_atoi>      @ imm = #0xae22
  4. 700a3e40: b580         	push	{r7, lr}
  5. 700a3e42: b082         	sub	sp, #0x8
  6. 700a3e44: 9001         	str	r0, [sp, #0x4]
  7. 700a3e46: 2000         	movs	r0, #0x0
  8. 700a3e48: 9000         	str	r0, [sp]
  9. 700a3e4a: e7ff         	b	0x700a3e4c <_atoi+0xc>  @ imm = #-0x2
  10. 700a3e4c: 9801         	ldr	r0, [sp, #0x4]
  11. 700a3e4e: 6800         	ldr	r0, [r0]
  12. 700a3e50: 7800         	ldrb	r0, [r0]
  13. 700a3e52: f000 fb4d    	bl	0x700a44f0 <_is_digit>  @ imm = #0x69a
  14. 700a44f0: b082         	sub	sp, #0x8
  15. 700a44f2: f88d 0007    	strb.w	r0, [sp, #0x7]

P_HDR Event: Idx:61896 (Pattern: EEEEN, Function: _is_digit)
Executed Assembly Steps:
  1. 700a44f6: f89d 1007    	ldrb.w	r1, [sp, #0x7]
  2. 700a44fa: 2000         	movs	r0, #0x0
  3. 700a44fc: 2930         	cmp	r1, #0x30
  4. 700a44fe: 9000         	str	r0, [sp]
  5. 700a4500: db08         	blt	0x700a4514 <_is_digit+0x24> @ imm = #0x10

P_HDR Event: Idx:61897 (Pattern: EEEEEEEEEEEE, Function: _is_digit)
Executed Assembly Steps:
  1. 700a4502: e7ff         	b	0x700a4504 <_is_digit+0x14> @ imm = #-0x2
  2. 700a4504: f89d 1007    	ldrb.w	r1, [sp, #0x7]
  3. 700a4508: 2000         	movs	r0, #0x0
  4. 700a450a: 293a         	cmp	r1, #0x3a
  5. 700a450c: bfb8         	it	lt
  6. 700a450e: 2001         	movlt	r0, #0x1
  7. 700a4510: 9000         	str	r0, [sp]
  8. 700a4512: e7ff         	b	0x700a4514 <_is_digit+0x24> @ imm = #-0x2
  9. 700a4514: 9800         	ldr	r0, [sp]
  10. 700a4516: f000 0001    	and	r0, r0, #0x1
  11. 700a451a: b002         	add	sp, #0x8
  12. 700a451c: 4770         	bx	lr

Sync: Idx:61898; ID:10;	BRANCH_ADDRESS : Branch address.; Addr=0x700A3E56 ~[0xA3E56];

P_HDR Event: Idx:61901 (Pattern: N, Function: _atoi)
Executed Assembly Steps:
  1. 700a3e56: b168         	cbz	r0, 0x700a3e74 <_atoi+0x34> @ imm = #0x1a

P_HDR Event: Idx:61902 (Pattern: EEEEEEEEEEEEEEE, Function: _atoi)
Executed Assembly Steps:
  1. 700a3e58: e7ff         	b	0x700a3e5a <_atoi+0x1a> @ imm = #-0x2
  2. 700a3e5a: 9800         	ldr	r0, [sp]
  3. 700a3e5c: eb00 0180    	add.w	r1, r0, r0, lsl #2
  4. 700a3e60: 9b01         	ldr	r3, [sp, #0x4]
  5. 700a3e62: 6818         	ldr	r0, [r3]
  6. 700a3e64: 1c42         	adds	r2, r0, #0x1
  7. 700a3e66: 601a         	str	r2, [r3]
  8. 700a3e68: 7800         	ldrb	r0, [r0]
  9. 700a3e6a: eb00 0041    	add.w	r0, r0, r1, lsl #1
  10. 700a3e6e: 3830         	subs	r0, #0x30
  11. 700a3e70: 9000         	str	r0, [sp]
  12. 700a3e72: e7eb         	b	0x700a3e4c <_atoi+0xc>  @ imm = #-0x2a
  13. 700a3e4c: 9801         	ldr	r0, [sp, #0x4]
  14. 700a3e4e: 6800         	ldr	r0, [r0]
  15. 700a3e50: 7800         	ldrb	r0, [r0]

P_HDR Event: Idx:61904 (Pattern: EEEEEEEN, Function: _atoi)
Executed Assembly Steps:
  1. 700a3e52: f000 fb4d    	bl	0x700a44f0 <_is_digit>  @ imm = #0x69a
  2. 700a44f0: b082         	sub	sp, #0x8
  3. 700a44f2: f88d 0007    	strb.w	r0, [sp, #0x7]
  4. 700a44f6: f89d 1007    	ldrb.w	r1, [sp, #0x7]
  5. 700a44fa: 2000         	movs	r0, #0x0
  6. 700a44fc: 2930         	cmp	r1, #0x30
  7. 700a44fe: 9000         	str	r0, [sp]
  8. 700a4500: db08         	blt	0x700a4514 <_is_digit+0x24> @ imm = #0x10

P_HDR Event: Idx:61905 (Pattern: EEEEEN, Function: _is_digit)
Executed Assembly Steps:
  1. 700a4502: e7ff         	b	0x700a4504 <_is_digit+0x14> @ imm = #-0x2
  2. 700a4504: f89d 1007    	ldrb.w	r1, [sp, #0x7]
  3. 700a4508: 2000         	movs	r0, #0x0
  4. 700a450a: 293a         	cmp	r1, #0x3a
  5. 700a450c: bfb8         	it	lt
  6. 700a450e: 2001         	movlt	r0, #0x1

P_HDR Event: Idx:61906 (Pattern: EEEEEE, Function: _is_digit)
Executed Assembly Steps:
  1. 700a4510: 9000         	str	r0, [sp]
  2. 700a4512: e7ff         	b	0x700a4514 <_is_digit+0x24> @ imm = #-0x2
  3. 700a4514: 9800         	ldr	r0, [sp]
  4. 700a4516: f000 0001    	and	r0, r0, #0x1
  5. 700a451a: b002         	add	sp, #0x8
  6. 700a451c: 4770         	bx	lr

Sync: Idx:61907; ID:10;	BRANCH_ADDRESS : Branch address.; Addr=0x700A3E56 ~[0x56];

P_HDR Event: Idx:61908 (Pattern: EEEE, Function: _atoi)
Executed Assembly Steps:
  1. 700a3e56: b168         	cbz	r0, 0x700a3e74 <_atoi+0x34> @ imm = #0x1a
  2. 700a3e74: 9800         	ldr	r0, [sp]
  3. 700a3e76: b002         	add	sp, #0x8
  4. 700a3e78: bd80         	pop	{r7, pc}

Sync: Idx:61909; ID:10;	BRANCH_ADDRESS : Branch address.; Addr=0x7009901E ~[0x9901E];

P_HDR Event: Idx:61912 (Pattern: EEEEEEEEEEEEEEE, Function: _vsnprintf)
Executed Assembly Steps:
  1. 7009901e: 903a         	str	r0, [sp, #0xe8]
  2. 70099020: e01e         	b	0x70099060 <_vsnprintf+0x160> @ imm = #0x3c
  3. 70099060: 2000         	movs	r0, #0x0
  4. 70099062: 9039         	str	r0, [sp, #0xe4]
  5. 70099064: 983c         	ldr	r0, [sp, #0xf0]
  6. 70099066: 7800         	ldrb	r0, [r0]
  7. 70099068: 282e         	cmp	r0, #0x2e
  8. 7009906a: d12e         	bne	0x700990ca <_vsnprintf+0x1ca> @ imm = #0x5c
  9. 700990ca: 983c         	ldr	r0, [sp, #0xf0]
  10. 700990cc: 7800         	ldrb	r0, [r0]
  11. 700990ce: 3868         	subs	r0, #0x68
  12. 700990d0: 4601         	mov	r1, r0
  13. 700990d2: 9128         	str	r1, [sp, #0xa0]
  14. 700990d4: 2812         	cmp	r0, #0x12
  15. 700990d6: d84e         	bhi	0x70099176 <_vsnprintf+0x276> @ imm = #0x9c

P_HDR Event: Idx:61913 (Pattern: EEEEEEEN, Function: _vsnprintf)
Executed Assembly Steps:
  1. 70099176: e7ff         	b	0x70099178 <_vsnprintf+0x278> @ imm = #-0x2
  2. 70099178: 983c         	ldr	r0, [sp, #0xf0]
  3. 7009917a: 7800         	ldrb	r0, [r0]
  4. 7009917c: 3825         	subs	r0, #0x25
  5. 7009917e: 4601         	mov	r1, r0
  6. 70099180: 9127         	str	r1, [sp, #0x9c]
  7. 70099182: 2853         	cmp	r0, #0x53
  8. 70099184: f200 83ab    	bhi.w	0x700998de <_vsnprintf+0x9de> @ imm = #0x756

P_HDR Event: Idx:61914 (Pattern: EE, Function: _vsnprintf)
Executed Assembly Steps:
  1. 70099188: 9927         	ldr	r1, [sp, #0x9c]
  2. 7009918a: e8df f011    	tbh	[pc, r1, lsl #1]

Sync: Idx:61915; ID:10;	BRANCH_ADDRESS : Branch address.; Addr=0x70099236 ~[0x1236];

P_HDR Event: Idx:61917 (Pattern: EEEN, Function: _vsnprintf)
Executed Assembly Steps:
  1. 70099236: 983c         	ldr	r0, [sp, #0xf0]
  2. 70099238: 7800         	ldrb	r0, [r0]
  3. 7009923a: 2878         	cmp	r0, #0x78
  4. 7009923c: d005         	beq	0x7009924a <_vsnprintf+0x34a> @ imm = #0xa

P_HDR Event: Idx:61918 (Pattern: EEEEEEEEEEEEEEE, Function: _vsnprintf)
Executed Assembly Steps:
  1. 7009923e: e7ff         	b	0x70099240 <_vsnprintf+0x340> @ imm = #-0x2
  2. 70099240: 983c         	ldr	r0, [sp, #0xf0]
  3. 70099242: 7800         	ldrb	r0, [r0]
  4. 70099244: 2858         	cmp	r0, #0x58
  5. 70099246: d103         	bne	0x70099250 <_vsnprintf+0x350> @ imm = #0x6
  6. 70099250: 983c         	ldr	r0, [sp, #0xf0]
  7. 70099252: 7800         	ldrb	r0, [r0]
  8. 70099254: 286f         	cmp	r0, #0x6f
  9. 70099256: d103         	bne	0x70099260 <_vsnprintf+0x360> @ imm = #0x6
  10. 70099260: 983c         	ldr	r0, [sp, #0xf0]
  11. 70099262: 7800         	ldrb	r0, [r0]
  12. 70099264: 2862         	cmp	r0, #0x62
  13. 70099266: d103         	bne	0x70099270 <_vsnprintf+0x370> @ imm = #0x6
  14. 70099270: 200a         	movs	r0, #0xa
  15. 70099272: 9034         	str	r0, [sp, #0xd0]

P_HDR Event: Idx:61920 (Pattern: EEEEEEEEEEEEEN, Function: _vsnprintf)
Executed Assembly Steps:
  1. 70099274: 983b         	ldr	r0, [sp, #0xec]
  2. 70099276: f020 0010    	bic	r0, r0, #0x10
  3. 7009927a: 903b         	str	r0, [sp, #0xec]
  4. 7009927c: e7ff         	b	0x7009927e <_vsnprintf+0x37e> @ imm = #-0x2
  5. 7009927e: e7ff         	b	0x70099280 <_vsnprintf+0x380> @ imm = #-0x2
  6. 70099280: e7ff         	b	0x70099282 <_vsnprintf+0x382> @ imm = #-0x2
  7. 70099282: 983c         	ldr	r0, [sp, #0xf0]
  8. 70099284: 7800         	ldrb	r0, [r0]
  9. 70099286: 2858         	cmp	r0, #0x58
  10. 70099288: d105         	bne	0x70099296 <_vsnprintf+0x396> @ imm = #0xa
  11. 70099296: 983c         	ldr	r0, [sp, #0xf0]
  12. 70099298: 7800         	ldrb	r0, [r0]
  13. 7009929a: 2869         	cmp	r0, #0x69
  14. 7009929c: d00a         	beq	0x700992b4 <_vsnprintf+0x3b4> @ imm = #0x14

P_HDR Event: Idx:61921 (Pattern: EEEEEEEEEEEEN, Function: _vsnprintf)
Executed Assembly Steps:
  1. 7009929e: e7ff         	b	0x700992a0 <_vsnprintf+0x3a0> @ imm = #-0x2
  2. 700992a0: 983c         	ldr	r0, [sp, #0xf0]
  3. 700992a2: 7800         	ldrb	r0, [r0]
  4. 700992a4: 2864         	cmp	r0, #0x64
  5. 700992a6: d005         	beq	0x700992b4 <_vsnprintf+0x3b4> @ imm = #0xa
  6. 700992b4: f89d 00ed    	ldrb.w	r0, [sp, #0xed]
  7. 700992b8: 0740         	lsls	r0, r0, #0x1d
  8. 700992ba: 2800         	cmp	r0, #0x0
  9. 700992bc: d505         	bpl	0x700992ca <_vsnprintf+0x3ca> @ imm = #0xa
  10. 700992ca: 983c         	ldr	r0, [sp, #0xf0]
  11. 700992cc: 7800         	ldrb	r0, [r0]
  12. 700992ce: 2869         	cmp	r0, #0x69
  13. 700992d0: d006         	beq	0x700992e0 <_vsnprintf+0x3e0> @ imm = #0xc

P_HDR Event: Idx:61922 (Pattern: EEEEN, Function: _vsnprintf)
Executed Assembly Steps:
  1. 700992d2: e7ff         	b	0x700992d4 <_vsnprintf+0x3d4> @ imm = #-0x2
  2. 700992d4: 983c         	ldr	r0, [sp, #0xf0]
  3. 700992d6: 7800         	ldrb	r0, [r0]
  4. 700992d8: 2864         	cmp	r0, #0x64
  5. 700992da: f040 80e9    	bne.w	0x700994b0 <_vsnprintf+0x5b0> @ imm = #0x1d2

P_HDR Event: Idx:61923 (Pattern: EEEEEEEEEEEEEE, Function: _vsnprintf)
Executed Assembly Steps:
  1. 700992de: e7ff         	b	0x700992e0 <_vsnprintf+0x3e0> @ imm = #-0x2
  2. 700992e0: f89d 00ed    	ldrb.w	r0, [sp, #0xed]
  3. 700992e4: 0780         	lsls	r0, r0, #0x1e
  4. 700992e6: 2800         	cmp	r0, #0x0
  5. 700992e8: d550         	bpl	0x7009938c <_vsnprintf+0x48c> @ imm = #0xa0
  6. 7009938c: f89d 00ed    	ldrb.w	r0, [sp, #0xed]
  7. 70099390: 07c0         	lsls	r0, r0, #0x1f
  8. 70099392: b3b0         	cbz	r0, 0x70099402 <_vsnprintf+0x502> @ imm = #0x6c
  9. 70099402: f89d 00ec    	ldrb.w	r0, [sp, #0xec]
  10. 70099406: 0640         	lsls	r0, r0, #0x19
  11. 70099408: 2800         	cmp	r0, #0x0
  12. 7009940a: d506         	bpl	0x7009941a <_vsnprintf+0x51a> @ imm = #0xc
  13. 7009941a: f89d 00ec    	ldrb.w	r0, [sp, #0xec]
  14. 7009941e: 0600         	lsls	r0, r0, #0x18

P_HDR Event: Idx:61924 (Pattern: EEEEEEEEEEEEEEE, Function: _vsnprintf)
Executed Assembly Steps:
  1. 70099420: 2800         	cmp	r0, #0x0
  2. 70099422: d507         	bpl	0x70099434 <_vsnprintf+0x534> @ imm = #0xe
  3. 70099434: 9840         	ldr	r0, [sp, #0x100]
  4. 70099436: 1d01         	adds	r1, r0, #0x4
  5. 70099438: 9140         	str	r1, [sp, #0x100]
  6. 7009943a: 6800         	ldr	r0, [r0]
  7. 7009943c: 9019         	str	r0, [sp, #0x64]
  8. 7009943e: e7ff         	b	0x70099440 <_vsnprintf+0x540> @ imm = #-0x2
  9. 70099440: 9819         	ldr	r0, [sp, #0x64]
  10. 70099442: 901a         	str	r0, [sp, #0x68]
  11. 70099444: e7ff         	b	0x70099446 <_vsnprintf+0x546> @ imm = #-0x2
  12. 70099446: 981a         	ldr	r0, [sp, #0x68]
  13. 70099448: 9030         	str	r0, [sp, #0xc0]
  14. 7009944a: 983f         	ldr	r0, [sp, #0xfc]
  15. 7009944c: 9015         	str	r0, [sp, #0x54]

P_HDR Event: Idx:61925 (Pattern: EEEEEEEEN, Function: _vsnprintf)
Executed Assembly Steps:
  1. 7009944e: 983e         	ldr	r0, [sp, #0xf8]
  2. 70099450: 9016         	str	r0, [sp, #0x58]
  3. 70099452: 9837         	ldr	r0, [sp, #0xdc]
  4. 70099454: 9017         	str	r0, [sp, #0x5c]
  5. 70099456: 983d         	ldr	r0, [sp, #0xf4]
  6. 70099458: 9018         	str	r0, [sp, #0x60]
  7. 7009945a: 9830         	ldr	r0, [sp, #0xc0]
  8. 7009945c: 2801         	cmp	r0, #0x1
  9. 7009945e: db03         	blt	0x70099468 <_vsnprintf+0x568> @ imm = #0x6

P_HDR Event: Idx:61926 (Pattern: EEEEEEEEEEEEEEE, Function: _vsnprintf)
Executed Assembly Steps:
  1. 70099460: e7ff         	b	0x70099462 <_vsnprintf+0x562> @ imm = #-0x2
  2. 70099462: 9830         	ldr	r0, [sp, #0xc0]
  3. 70099464: 9014         	str	r0, [sp, #0x50]
  4. 70099466: e003         	b	0x70099470 <_vsnprintf+0x570> @ imm = #0x6
  5. 70099470: 9b18         	ldr	r3, [sp, #0x60]
  6. 70099472: 9a17         	ldr	r2, [sp, #0x5c]
  7. 70099474: 9916         	ldr	r1, [sp, #0x58]
  8. 70099476: 9815         	ldr	r0, [sp, #0x54]
  9. 70099478: f8dd c050    	ldr.w	r12, [sp, #0x50]
  10. 7009947c: 9c30         	ldr	r4, [sp, #0xc0]
  11. 7009947e: 9d34         	ldr	r5, [sp, #0xd0]
  12. 70099480: 9e39         	ldr	r6, [sp, #0xe4]
  13. 70099482: 9f3a         	ldr	r7, [sp, #0xe8]
  14. 70099484: f8dd 80ec    	ldr.w	r8, [sp, #0xec]
  15. 70099488: 46ee         	mov	lr, sp

P_HDR Event: Idx:61927 (Pattern: EEEEEEEEEEEEEEE, Function: _vsnprintf)
Executed Assembly Steps:
  1. 7009948a: f8ce 8014    	str.w	r8, [lr, #0x14]
  2. 7009948e: f8ce 7010    	str.w	r7, [lr, #0x10]
  3. 70099492: f8ce 600c    	str.w	r6, [lr, #0xc]
  4. 70099496: f8ce 5008    	str.w	r5, [lr, #0x8]
  5. 7009949a: 0fe4         	lsrs	r4, r4, #0x1f
  6. 7009949c: f8ce 4004    	str.w	r4, [lr, #0x4]
  7. 700994a0: f8ce c000    	str.w	r12, [lr]
  8. 700994a4: f004 fe44    	bl	0x7009e130 <_ntoa_long> @ imm = #0x4c88
  9. 7009e130: e92d 41f0    	push.w	{r4, r5, r6, r7, r8, lr}
  10. 7009e134: b098         	sub	sp, #0x60
  11. 7009e136: 4684         	mov	r12, r0
  12. 7009e138: 9823         	ldr	r0, [sp, #0x8c]
  13. 7009e13a: 9822         	ldr	r0, [sp, #0x88]
  14. 7009e13c: 9821         	ldr	r0, [sp, #0x84]
  15. 7009e13e: 9820         	ldr	r0, [sp, #0x80]

P_HDR Event: Idx:61928 (Pattern: EEEEEEEEEEEEEEE, Function: _ntoa_long)
Executed Assembly Steps:
  1. 7009e140: 981f         	ldr	r0, [sp, #0x7c]
  2. 7009e142: f8dd e078    	ldr.w	lr, [sp, #0x78]
  3. 7009e146: f8cd c05c    	str.w	r12, [sp, #0x5c]
  4. 7009e14a: 9116         	str	r1, [sp, #0x58]
  5. 7009e14c: 9215         	str	r2, [sp, #0x54]
  6. 7009e14e: 9314         	str	r3, [sp, #0x50]
  7. 7009e150: f88d 004f    	strb.w	r0, [sp, #0x4f]
  8. 7009e154: 2000         	movs	r0, #0x0
  9. 7009e156: 900a         	str	r0, [sp, #0x28]
  10. 7009e158: 981e         	ldr	r0, [sp, #0x78]
  11. 7009e15a: b928         	cbnz	r0, 0x7009e168 <_ntoa_long+0x38> @ imm = #0xa
  12. 7009e168: f89d 008d    	ldrb.w	r0, [sp, #0x8d]
  13. 7009e16c: 0740         	lsls	r0, r0, #0x1d
  14. 7009e16e: 2800         	cmp	r0, #0x0
  15. 7009e170: d504         	bpl	0x7009e17c <_ntoa_long+0x4c> @ imm = #0x8

P_HDR Event: Idx:61929 (Pattern: EEEEEEEEN, Function: _ntoa_long)
Executed Assembly Steps:
  1. 7009e17c: e7ff         	b	0x7009e17e <_ntoa_long+0x4e> @ imm = #-0x2
  2. 7009e17e: 9a1e         	ldr	r2, [sp, #0x78]
  3. 7009e180: 9920         	ldr	r1, [sp, #0x80]
  4. 7009e182: fbb2 f0f1    	udiv	r0, r2, r1
  5. 7009e186: fb00 2011    	mls	r0, r0, r1, r2
  6. 7009e18a: f88d 0027    	strb.w	r0, [sp, #0x27]
  7. 7009e18e: f89d 0027    	ldrb.w	r0, [sp, #0x27]
  8. 7009e192: 2809         	cmp	r0, #0x9
  9. 7009e194: dc05         	bgt	0x7009e1a2 <_ntoa_long+0x72> @ imm = #0xa

P_HDR Event: Idx:61930 (Pattern: EEEEEEEEEEEEEE, Function: _ntoa_long)
Executed Assembly Steps:
  1. 7009e196: e7ff         	b	0x7009e198 <_ntoa_long+0x68> @ imm = #-0x2
  2. 7009e198: f89d 0027    	ldrb.w	r0, [sp, #0x27]
  3. 7009e19c: 3030         	adds	r0, #0x30
  4. 7009e19e: 9008         	str	r0, [sp, #0x20]
  5. 7009e1a0: e00c         	b	0x7009e1bc <_ntoa_long+0x8c> @ imm = #0x18
  6. 7009e1bc: 9808         	ldr	r0, [sp, #0x20]
  7. 7009e1be: 9a0a         	ldr	r2, [sp, #0x28]
  8. 7009e1c0: 1c51         	adds	r1, r2, #0x1
  9. 7009e1c2: 910a         	str	r1, [sp, #0x28]
  10. 7009e1c4: f10d 012f    	add.w	r1, sp, #0x2f
  11. 7009e1c8: 5488         	strb	r0, [r1, r2]
  12. 7009e1ca: 9920         	ldr	r1, [sp, #0x80]
  13. 7009e1cc: 981e         	ldr	r0, [sp, #0x78]
  14. 7009e1ce: fbb0 f0f1    	udiv	r0, r0, r1

P_HDR Event: Idx:61931 (Pattern: EEEEEN, Function: _ntoa_long)
Executed Assembly Steps:
  1. 7009e1d2: 901e         	str	r0, [sp, #0x78]
  2. 7009e1d4: e7ff         	b	0x7009e1d6 <_ntoa_long+0xa6> @ imm = #-0x2
  3. 7009e1d6: 991e         	ldr	r1, [sp, #0x78]
  4. 7009e1d8: 2000         	movs	r0, #0x0
  5. 7009e1da: 9007         	str	r0, [sp, #0x1c]
  6. 7009e1dc: b139         	cbz	r1, 0x7009e1ee <_ntoa_long+0xbe> @ imm = #0xe

P_HDR Event: Idx:61932 (Pattern: EEEEEEEEEEEEEEE, Function: _ntoa_long)
Executed Assembly Steps:
  1. 7009e1de: e7ff         	b	0x7009e1e0 <_ntoa_long+0xb0> @ imm = #-0x2
  2. 7009e1e0: 990a         	ldr	r1, [sp, #0x28]
  3. 7009e1e2: 2000         	movs	r0, #0x0
  4. 7009e1e4: 2920         	cmp	r1, #0x20
  5. 7009e1e6: bf38         	it	lo
  6. 7009e1e8: 2001         	movlo	r0, #0x1
  7. 7009e1ea: 9007         	str	r0, [sp, #0x1c]
  8. 7009e1ec: e7ff         	b	0x7009e1ee <_ntoa_long+0xbe> @ imm = #-0x2
  9. 7009e1ee: 9807         	ldr	r0, [sp, #0x1c]
  10. 7009e1f0: 07c0         	lsls	r0, r0, #0x1f
  11. 7009e1f2: 2800         	cmp	r0, #0x0
  12. 7009e1f4: d1c3         	bne	0x7009e17e <_ntoa_long+0x4e> @ imm = #-0x7a
  13. 7009e17e: 9a1e         	ldr	r2, [sp, #0x78]
  14. 7009e180: 9920         	ldr	r1, [sp, #0x80]
  15. 7009e182: fbb2 f0f1    	udiv	r0, r2, r1

P_HDR Event: Idx:61933 (Pattern: EEEEN, Function: _ntoa_long)
Executed Assembly Steps:
  1. 7009e186: fb00 2011    	mls	r0, r0, r1, r2
  2. 7009e18a: f88d 0027    	strb.w	r0, [sp, #0x27]
  3. 7009e18e: f89d 0027    	ldrb.w	r0, [sp, #0x27]
  4. 7009e192: 2809         	cmp	r0, #0x9
  5. 7009e194: dc05         	bgt	0x7009e1a2 <_ntoa_long+0x72> @ imm = #0xa

P_HDR Event: Idx:61934 (Pattern: EEEEEEEEEEEEEE, Function: _ntoa_long)
Executed Assembly Steps:
  1. 7009e196: e7ff         	b	0x7009e198 <_ntoa_long+0x68> @ imm = #-0x2
  2. 7009e198: f89d 0027    	ldrb.w	r0, [sp, #0x27]
  3. 7009e19c: 3030         	adds	r0, #0x30
  4. 7009e19e: 9008         	str	r0, [sp, #0x20]
  5. 7009e1a0: e00c         	b	0x7009e1bc <_ntoa_long+0x8c> @ imm = #0x18
  6. 7009e1bc: 9808         	ldr	r0, [sp, #0x20]
  7. 7009e1be: 9a0a         	ldr	r2, [sp, #0x28]
  8. 7009e1c0: 1c51         	adds	r1, r2, #0x1
  9. 7009e1c2: 910a         	str	r1, [sp, #0x28]
  10. 7009e1c4: f10d 012f    	add.w	r1, sp, #0x2f
  11. 7009e1c8: 5488         	strb	r0, [r1, r2]
  12. 7009e1ca: 9920         	ldr	r1, [sp, #0x80]
  13. 7009e1cc: 981e         	ldr	r0, [sp, #0x78]
  14. 7009e1ce: fbb0 f0f1    	udiv	r0, r0, r1

P_HDR Event: Idx:61936 (Pattern: EEEEEN, Function: _ntoa_long)
Executed Assembly Steps:
  1. 7009e1d2: 901e         	str	r0, [sp, #0x78]
  2. 7009e1d4: e7ff         	b	0x7009e1d6 <_ntoa_long+0xa6> @ imm = #-0x2
  3. 7009e1d6: 991e         	ldr	r1, [sp, #0x78]
  4. 7009e1d8: 2000         	movs	r0, #0x0
  5. 7009e1da: 9007         	str	r0, [sp, #0x1c]
  6. 7009e1dc: b139         	cbz	r1, 0x7009e1ee <_ntoa_long+0xbe> @ imm = #0xe

P_HDR Event: Idx:61937 (Pattern: EEEEEEEEEEEEEEE, Function: _ntoa_long)
Executed Assembly Steps:
  1. 7009e1de: e7ff         	b	0x7009e1e0 <_ntoa_long+0xb0> @ imm = #-0x2
  2. 7009e1e0: 990a         	ldr	r1, [sp, #0x28]
  3. 7009e1e2: 2000         	movs	r0, #0x0
  4. 7009e1e4: 2920         	cmp	r1, #0x20
  5. 7009e1e6: bf38         	it	lo
  6. 7009e1e8: 2001         	movlo	r0, #0x1
  7. 7009e1ea: 9007         	str	r0, [sp, #0x1c]
  8. 7009e1ec: e7ff         	b	0x7009e1ee <_ntoa_long+0xbe> @ imm = #-0x2
  9. 7009e1ee: 9807         	ldr	r0, [sp, #0x1c]
  10. 7009e1f0: 07c0         	lsls	r0, r0, #0x1f
  11. 7009e1f2: 2800         	cmp	r0, #0x0
  12. 7009e1f4: d1c3         	bne	0x7009e17e <_ntoa_long+0x4e> @ imm = #-0x7a
  13. 7009e17e: 9a1e         	ldr	r2, [sp, #0x78]
  14. 7009e180: 9920         	ldr	r1, [sp, #0x80]
  15. 7009e182: fbb2 f0f1    	udiv	r0, r2, r1

P_HDR Event: Idx:61938 (Pattern: EEEEN, Function: _ntoa_long)
Executed Assembly Steps:
  1. 7009e186: fb00 2011    	mls	r0, r0, r1, r2
  2. 7009e18a: f88d 0027    	strb.w	r0, [sp, #0x27]
  3. 7009e18e: f89d 0027    	ldrb.w	r0, [sp, #0x27]
  4. 7009e192: 2809         	cmp	r0, #0x9
  5. 7009e194: dc05         	bgt	0x7009e1a2 <_ntoa_long+0x72> @ imm = #0xa

P_HDR Event: Idx:61939 (Pattern: EEEEEEEEEEEEEE, Function: _ntoa_long)
Executed Assembly Steps:
  1. 7009e196: e7ff         	b	0x7009e198 <_ntoa_long+0x68> @ imm = #-0x2
  2. 7009e198: f89d 0027    	ldrb.w	r0, [sp, #0x27]
  3. 7009e19c: 3030         	adds	r0, #0x30
  4. 7009e19e: 9008         	str	r0, [sp, #0x20]
  5. 7009e1a0: e00c         	b	0x7009e1bc <_ntoa_long+0x8c> @ imm = #0x18
  6. 7009e1bc: 9808         	ldr	r0, [sp, #0x20]
  7. 7009e1be: 9a0a         	ldr	r2, [sp, #0x28]
  8. 7009e1c0: 1c51         	adds	r1, r2, #0x1
  9. 7009e1c2: 910a         	str	r1, [sp, #0x28]
  10. 7009e1c4: f10d 012f    	add.w	r1, sp, #0x2f
  11. 7009e1c8: 5488         	strb	r0, [r1, r2]
  12. 7009e1ca: 9920         	ldr	r1, [sp, #0x80]
  13. 7009e1cc: 981e         	ldr	r0, [sp, #0x78]
  14. 7009e1ce: fbb0 f0f1    	udiv	r0, r0, r1

P_HDR Event: Idx:61940 (Pattern: EEEEEN, Function: _ntoa_long)
Executed Assembly Steps:
  1. 7009e1d2: 901e         	str	r0, [sp, #0x78]
  2. 7009e1d4: e7ff         	b	0x7009e1d6 <_ntoa_long+0xa6> @ imm = #-0x2
  3. 7009e1d6: 991e         	ldr	r1, [sp, #0x78]
  4. 7009e1d8: 2000         	movs	r0, #0x0
  5. 7009e1da: 9007         	str	r0, [sp, #0x1c]
  6. 7009e1dc: b139         	cbz	r1, 0x7009e1ee <_ntoa_long+0xbe> @ imm = #0xe

P_HDR Event: Idx:61941 (Pattern: EEEEEEEEEEEEEEE, Function: _ntoa_long)
Executed Assembly Steps:
  1. 7009e1de: e7ff         	b	0x7009e1e0 <_ntoa_long+0xb0> @ imm = #-0x2
  2. 7009e1e0: 990a         	ldr	r1, [sp, #0x28]
  3. 7009e1e2: 2000         	movs	r0, #0x0
  4. 7009e1e4: 2920         	cmp	r1, #0x20
  5. 7009e1e6: bf38         	it	lo
  6. 7009e1e8: 2001         	movlo	r0, #0x1
  7. 7009e1ea: 9007         	str	r0, [sp, #0x1c]
  8. 7009e1ec: e7ff         	b	0x7009e1ee <_ntoa_long+0xbe> @ imm = #-0x2
  9. 7009e1ee: 9807         	ldr	r0, [sp, #0x1c]
  10. 7009e1f0: 07c0         	lsls	r0, r0, #0x1f
  11. 7009e1f2: 2800         	cmp	r0, #0x0
  12. 7009e1f4: d1c3         	bne	0x7009e17e <_ntoa_long+0x4e> @ imm = #-0x7a
  13. 7009e17e: 9a1e         	ldr	r2, [sp, #0x78]
  14. 7009e180: 9920         	ldr	r1, [sp, #0x80]
  15. 7009e182: fbb2 f0f1    	udiv	r0, r2, r1

P_HDR Event: Idx:61942 (Pattern: EEEEN, Function: _ntoa_long)
Executed Assembly Steps:
  1. 7009e186: fb00 2011    	mls	r0, r0, r1, r2
  2. 7009e18a: f88d 0027    	strb.w	r0, [sp, #0x27]
  3. 7009e18e: f89d 0027    	ldrb.w	r0, [sp, #0x27]
  4. 7009e192: 2809         	cmp	r0, #0x9
  5. 7009e194: dc05         	bgt	0x7009e1a2 <_ntoa_long+0x72> @ imm = #0xa

P_HDR Event: Idx:61943 (Pattern: EEEEEEEEEEEEEE, Function: _ntoa_long)
Executed Assembly Steps:
  1. 7009e196: e7ff         	b	0x7009e198 <_ntoa_long+0x68> @ imm = #-0x2
  2. 7009e198: f89d 0027    	ldrb.w	r0, [sp, #0x27]
  3. 7009e19c: 3030         	adds	r0, #0x30
  4. 7009e19e: 9008         	str	r0, [sp, #0x20]
  5. 7009e1a0: e00c         	b	0x7009e1bc <_ntoa_long+0x8c> @ imm = #0x18
  6. 7009e1bc: 9808         	ldr	r0, [sp, #0x20]
  7. 7009e1be: 9a0a         	ldr	r2, [sp, #0x28]
  8. 7009e1c0: 1c51         	adds	r1, r2, #0x1
  9. 7009e1c2: 910a         	str	r1, [sp, #0x28]
  10. 7009e1c4: f10d 012f    	add.w	r1, sp, #0x2f
  11. 7009e1c8: 5488         	strb	r0, [r1, r2]
  12. 7009e1ca: 9920         	ldr	r1, [sp, #0x80]
  13. 7009e1cc: 981e         	ldr	r0, [sp, #0x78]
  14. 7009e1ce: fbb0 f0f1    	udiv	r0, r0, r1

P_HDR Event: Idx:61944 (Pattern: EEEEEEEEEN, Function: _ntoa_long)
Executed Assembly Steps:
  1. 7009e1d2: 901e         	str	r0, [sp, #0x78]
  2. 7009e1d4: e7ff         	b	0x7009e1d6 <_ntoa_long+0xa6> @ imm = #-0x2
  3. 7009e1d6: 991e         	ldr	r1, [sp, #0x78]
  4. 7009e1d8: 2000         	movs	r0, #0x0
  5. 7009e1da: 9007         	str	r0, [sp, #0x1c]
  6. 7009e1dc: b139         	cbz	r1, 0x7009e1ee <_ntoa_long+0xbe> @ imm = #0xe
  7. 7009e1ee: 9807         	ldr	r0, [sp, #0x1c]
  8. 7009e1f0: 07c0         	lsls	r0, r0, #0x1f
  9. 7009e1f2: 2800         	cmp	r0, #0x0
  10. 7009e1f4: d1c3         	bne	0x7009e17e <_ntoa_long+0x4e> @ imm = #-0x7a

P_HDR Event: Idx:61945 (Pattern: EEEEEEEEEEEEEEE, Function: _ntoa_long)
Executed Assembly Steps:
  1. 7009e1f6: e7ff         	b	0x7009e1f8 <_ntoa_long+0xc8> @ imm = #-0x2
  2. 7009e1f8: e7ff         	b	0x7009e1fa <_ntoa_long+0xca> @ imm = #-0x2
  3. 7009e1fa: 9817         	ldr	r0, [sp, #0x5c]
  4. 7009e1fc: 9916         	ldr	r1, [sp, #0x58]
  5. 7009e1fe: 9a15         	ldr	r2, [sp, #0x54]
  6. 7009e200: 9b14         	ldr	r3, [sp, #0x50]
  7. 7009e202: f8dd c028    	ldr.w	r12, [sp, #0x28]
  8. 7009e206: 9d20         	ldr	r5, [sp, #0x80]
  9. 7009e208: 9e21         	ldr	r6, [sp, #0x84]
  10. 7009e20a: 9f22         	ldr	r7, [sp, #0x88]
  11. 7009e20c: f8dd 808c    	ldr.w	r8, [sp, #0x8c]
  12. 7009e210: f89d 404f    	ldrb.w	r4, [sp, #0x4f]
  13. 7009e214: 46ee         	mov	lr, sp
  14. 7009e216: f8ce 8018    	str.w	r8, [lr, #0x18]
  15. 7009e21a: f8ce 7014    	str.w	r7, [lr, #0x14]

P_HDR Event: Idx:61946 (Pattern: EEEEEEEEEEEEEEE, Function: _ntoa_long)
Executed Assembly Steps:
  1. 7009e21e: f8ce 6010    	str.w	r6, [lr, #0x10]
  2. 7009e222: f8ce 500c    	str.w	r5, [lr, #0xc]
  3. 7009e226: f004 0401    	and	r4, r4, #0x1
  4. 7009e22a: f8ce 4008    	str.w	r4, [lr, #0x8]
  5. 7009e22e: f8ce c004    	str.w	r12, [lr, #0x4]
  6. 7009e232: f10d 0c2f    	add.w	r12, sp, #0x2f
  7. 7009e236: f8ce c000    	str.w	r12, [lr]
  8. 7009e23a: f7fd f929    	bl	0x7009b490 <_ntoa_format> @ imm = #-0x2dae
  9. 7009b490: b570         	push	{r4, r5, r6, lr}
  10. 7009b492: b08c         	sub	sp, #0x30
  11. 7009b494: 4684         	mov	r12, r0
  12. 7009b496: 9816         	ldr	r0, [sp, #0x58]
  13. 7009b498: 9815         	ldr	r0, [sp, #0x54]
  14. 7009b49a: 9814         	ldr	r0, [sp, #0x50]
  15. 7009b49c: 9813         	ldr	r0, [sp, #0x4c]

P_HDR Event: Idx:61947 (Pattern: EEEEEEEEEEEN, Function: _ntoa_format)
Executed Assembly Steps:
  1. 7009b49e: 9812         	ldr	r0, [sp, #0x48]
  2. 7009b4a0: f8dd e044    	ldr.w	lr, [sp, #0x44]
  3. 7009b4a4: f8dd e040    	ldr.w	lr, [sp, #0x40]
  4. 7009b4a8: f8cd c02c    	str.w	r12, [sp, #0x2c]
  5. 7009b4ac: 910a         	str	r1, [sp, #0x28]
  6. 7009b4ae: 9209         	str	r2, [sp, #0x24]
  7. 7009b4b0: 9308         	str	r3, [sp, #0x20]
  8. 7009b4b2: f88d 001f    	strb.w	r0, [sp, #0x1f]
  9. 7009b4b6: f89d 0058    	ldrb.w	r0, [sp, #0x58]
  10. 7009b4ba: 0780         	lsls	r0, r0, #0x1e
  11. 7009b4bc: 2800         	cmp	r0, #0x0
  12. 7009b4be: d454         	bmi	0x7009b56a <_ntoa_format+0xda> @ imm = #0xa8

P_HDR Event: Idx:61948 (Pattern: EEN, Function: _ntoa_format)
Executed Assembly Steps:
  1. 7009b4c0: e7ff         	b	0x7009b4c2 <_ntoa_format+0x32> @ imm = #-0x2
  2. 7009b4c2: 9815         	ldr	r0, [sp, #0x54]
  3. 7009b4c4: b1a0         	cbz	r0, 0x7009b4f0 <_ntoa_format+0x60> @ imm = #0x28

P_HDR Event: Idx:61949 (Pattern: EEEN, Function: _ntoa_format)
Executed Assembly Steps:
  1. 7009b4c6: e7ff         	b	0x7009b4c8 <_ntoa_format+0x38> @ imm = #-0x2
  2. 7009b4c8: f89d 0058    	ldrb.w	r0, [sp, #0x58]
  3. 7009b4cc: 07c0         	lsls	r0, r0, #0x1f
  4. 7009b4ce: b178         	cbz	r0, 0x7009b4f0 <_ntoa_format+0x60> @ imm = #0x1e

P_HDR Event: Idx:61950 (Pattern: EEEN, Function: _ntoa_format)
Executed Assembly Steps:
  1. 7009b4d0: e7ff         	b	0x7009b4d2 <_ntoa_format+0x42> @ imm = #-0x2
  2. 7009b4d2: f89d 001f    	ldrb.w	r0, [sp, #0x1f]
  3. 7009b4d6: 07c0         	lsls	r0, r0, #0x1f
  4. 7009b4d8: b930         	cbnz	r0, 0x7009b4e8 <_ntoa_format+0x58> @ imm = #0xc

P_HDR Event: Idx:61952 (Pattern: EEEEEEEEEEEEEEE, Function: _ntoa_format)
Executed Assembly Steps:
  1. 7009b4da: e7ff         	b	0x7009b4dc <_ntoa_format+0x4c> @ imm = #-0x2
  2. 7009b4dc: f89d 0058    	ldrb.w	r0, [sp, #0x58]
  3. 7009b4e0: f010 0f0c    	tst.w	r0, #0xc
  4. 7009b4e4: d004         	beq	0x7009b4f0 <_ntoa_format+0x60> @ imm = #0x8
  5. 7009b4f0: e7ff         	b	0x7009b4f2 <_ntoa_format+0x62> @ imm = #-0x2
  6. 7009b4f2: 9911         	ldr	r1, [sp, #0x44]
  7. 7009b4f4: 9a14         	ldr	r2, [sp, #0x50]
  8. 7009b4f6: 2000         	movs	r0, #0x0
  9. 7009b4f8: 4291         	cmp	r1, r2
  10. 7009b4fa: 9006         	str	r0, [sp, #0x18]
  11. 7009b4fc: d207         	bhs	0x7009b50e <_ntoa_format+0x7e> @ imm = #0xe
  12. 7009b50e: 9806         	ldr	r0, [sp, #0x18]
  13. 7009b510: 07c0         	lsls	r0, r0, #0x1f
  14. 7009b512: b138         	cbz	r0, 0x7009b524 <_ntoa_format+0x94> @ imm = #0xe
  15. 7009b524: e7ff         	b	0x7009b526 <_ntoa_format+0x96> @ imm = #-0x2

P_HDR Event: Idx:61953 (Pattern: EEEEN, Function: _ntoa_format)
Executed Assembly Steps:
  1. 7009b526: 2000         	movs	r0, #0x0
  2. 7009b528: f89d 1058    	ldrb.w	r1, [sp, #0x58]
  3. 7009b52c: ea4f 71c1    	lsl.w	r1, r1, #0x1f
  4. 7009b530: 9005         	str	r0, [sp, #0x14]
  5. 7009b532: b171         	cbz	r1, 0x7009b552 <_ntoa_format+0xc2> @ imm = #0x1c

P_HDR Event: Idx:61954 (Pattern: EEEEEEN, Function: _ntoa_format)
Executed Assembly Steps:
  1. 7009b534: e7ff         	b	0x7009b536 <_ntoa_format+0xa6> @ imm = #-0x2
  2. 7009b536: 9911         	ldr	r1, [sp, #0x44]
  3. 7009b538: 9a15         	ldr	r2, [sp, #0x54]
  4. 7009b53a: 2000         	movs	r0, #0x0
  5. 7009b53c: 4291         	cmp	r1, r2
  6. 7009b53e: 9005         	str	r0, [sp, #0x14]
  7. 7009b540: d207         	bhs	0x7009b552 <_ntoa_format+0xc2> @ imm = #0xe

P_HDR Event: Idx:61955 (Pattern: EEEEEEEEEEN, Function: _ntoa_format)
Executed Assembly Steps:
  1. 7009b542: e7ff         	b	0x7009b544 <_ntoa_format+0xb4> @ imm = #-0x2
  2. 7009b544: 9911         	ldr	r1, [sp, #0x44]
  3. 7009b546: 2000         	movs	r0, #0x0
  4. 7009b548: 2920         	cmp	r1, #0x20
  5. 7009b54a: bf38         	it	lo
  6. 7009b54c: 2001         	movlo	r0, #0x1
  7. 7009b54e: 9005         	str	r0, [sp, #0x14]
  8. 7009b550: e7ff         	b	0x7009b552 <_ntoa_format+0xc2> @ imm = #-0x2
  9. 7009b552: 9805         	ldr	r0, [sp, #0x14]
  10. 7009b554: 07c0         	lsls	r0, r0, #0x1f
  11. 7009b556: b138         	cbz	r0, 0x7009b568 <_ntoa_format+0xd8> @ imm = #0xe

P_HDR Event: Idx:61956 (Pattern: EEEEEEEEEEEEN, Function: _ntoa_format)
Executed Assembly Steps:
  1. 7009b558: e7ff         	b	0x7009b55a <_ntoa_format+0xca> @ imm = #-0x2
  2. 7009b55a: 9910         	ldr	r1, [sp, #0x40]
  3. 7009b55c: 9a11         	ldr	r2, [sp, #0x44]
  4. 7009b55e: 1c50         	adds	r0, r2, #0x1
  5. 7009b560: 9011         	str	r0, [sp, #0x44]
  6. 7009b562: 2030         	movs	r0, #0x30
  7. 7009b564: 5488         	strb	r0, [r1, r2]
  8. 7009b566: e7de         	b	0x7009b526 <_ntoa_format+0x96> @ imm = #-0x44
  9. 7009b526: 2000         	movs	r0, #0x0
  10. 7009b528: f89d 1058    	ldrb.w	r1, [sp, #0x58]
  11. 7009b52c: ea4f 71c1    	lsl.w	r1, r1, #0x1f
  12. 7009b530: 9005         	str	r0, [sp, #0x14]
  13. 7009b532: b171         	cbz	r1, 0x7009b552 <_ntoa_format+0xc2> @ imm = #0x1c

P_HDR Event: Idx:61957 (Pattern: EEEEEEN, Function: _ntoa_format)
Executed Assembly Steps:
  1. 7009b534: e7ff         	b	0x7009b536 <_ntoa_format+0xa6> @ imm = #-0x2
  2. 7009b536: 9911         	ldr	r1, [sp, #0x44]
  3. 7009b538: 9a15         	ldr	r2, [sp, #0x54]
  4. 7009b53a: 2000         	movs	r0, #0x0
  5. 7009b53c: 4291         	cmp	r1, r2
  6. 7009b53e: 9005         	str	r0, [sp, #0x14]
  7. 7009b540: d207         	bhs	0x7009b552 <_ntoa_format+0xc2> @ imm = #0xe

P_HDR Event: Idx:61958 (Pattern: EEEEEEEEEEN, Function: _ntoa_format)
Executed Assembly Steps:
  1. 7009b542: e7ff         	b	0x7009b544 <_ntoa_format+0xb4> @ imm = #-0x2
  2. 7009b544: 9911         	ldr	r1, [sp, #0x44]
  3. 7009b546: 2000         	movs	r0, #0x0
  4. 7009b548: 2920         	cmp	r1, #0x20
  5. 7009b54a: bf38         	it	lo
  6. 7009b54c: 2001         	movlo	r0, #0x1
  7. 7009b54e: 9005         	str	r0, [sp, #0x14]
  8. 7009b550: e7ff         	b	0x7009b552 <_ntoa_format+0xc2> @ imm = #-0x2
  9. 7009b552: 9805         	ldr	r0, [sp, #0x14]
  10. 7009b554: 07c0         	lsls	r0, r0, #0x1f
  11. 7009b556: b138         	cbz	r0, 0x7009b568 <_ntoa_format+0xd8> @ imm = #0xe

P_HDR Event: Idx:61959 (Pattern: EEEEEEEEEEEEN, Function: _ntoa_format)
Executed Assembly Steps:
  1. 7009b558: e7ff         	b	0x7009b55a <_ntoa_format+0xca> @ imm = #-0x2
  2. 7009b55a: 9910         	ldr	r1, [sp, #0x40]
  3. 7009b55c: 9a11         	ldr	r2, [sp, #0x44]
  4. 7009b55e: 1c50         	adds	r0, r2, #0x1
  5. 7009b560: 9011         	str	r0, [sp, #0x44]
  6. 7009b562: 2030         	movs	r0, #0x30
  7. 7009b564: 5488         	strb	r0, [r1, r2]
  8. 7009b566: e7de         	b	0x7009b526 <_ntoa_format+0x96> @ imm = #-0x44
  9. 7009b526: 2000         	movs	r0, #0x0
  10. 7009b528: f89d 1058    	ldrb.w	r1, [sp, #0x58]
  11. 7009b52c: ea4f 71c1    	lsl.w	r1, r1, #0x1f
  12. 7009b530: 9005         	str	r0, [sp, #0x14]
  13. 7009b532: b171         	cbz	r1, 0x7009b552 <_ntoa_format+0xc2> @ imm = #0x1c

P_HDR Event: Idx:61960 (Pattern: EEEEEEEEEEEEEEE, Function: _ntoa_format)
Executed Assembly Steps:
  1. 7009b534: e7ff         	b	0x7009b536 <_ntoa_format+0xa6> @ imm = #-0x2
  2. 7009b536: 9911         	ldr	r1, [sp, #0x44]
  3. 7009b538: 9a15         	ldr	r2, [sp, #0x54]
  4. 7009b53a: 2000         	movs	r0, #0x0
  5. 7009b53c: 4291         	cmp	r1, r2
  6. 7009b53e: 9005         	str	r0, [sp, #0x14]
  7. 7009b540: d207         	bhs	0x7009b552 <_ntoa_format+0xc2> @ imm = #0xe
  8. 7009b552: 9805         	ldr	r0, [sp, #0x14]
  9. 7009b554: 07c0         	lsls	r0, r0, #0x1f
  10. 7009b556: b138         	cbz	r0, 0x7009b568 <_ntoa_format+0xd8> @ imm = #0xe
  11. 7009b568: e7ff         	b	0x7009b56a <_ntoa_format+0xda> @ imm = #-0x2
  12. 7009b56a: f89d 0058    	ldrb.w	r0, [sp, #0x58]
  13. 7009b56e: 06c0         	lsls	r0, r0, #0x1b
  14. 7009b570: 2800         	cmp	r0, #0x0
  15. 7009b572: d569         	bpl	0x7009b648 <_ntoa_format+0x1b8> @ imm = #0xd2

P_HDR Event: Idx:61961 (Pattern: EEN, Function: _ntoa_format)
Executed Assembly Steps:
  1. 7009b648: 9811         	ldr	r0, [sp, #0x44]
  2. 7009b64a: 281f         	cmp	r0, #0x1f
  3. 7009b64c: d829         	bhi	0x7009b6a2 <_ntoa_format+0x212> @ imm = #0x52

P_HDR Event: Idx:61962 (Pattern: EEEEEEEEEEEEEEE, Function: _ntoa_format)
Executed Assembly Steps:
  1. 7009b64e: e7ff         	b	0x7009b650 <_ntoa_format+0x1c0> @ imm = #-0x2
  2. 7009b650: f89d 001f    	ldrb.w	r0, [sp, #0x1f]
  3. 7009b654: 07c0         	lsls	r0, r0, #0x1f
  4. 7009b656: b138         	cbz	r0, 0x7009b668 <_ntoa_format+0x1d8> @ imm = #0xe
  5. 7009b668: f89d 0058    	ldrb.w	r0, [sp, #0x58]
  6. 7009b66c: 0740         	lsls	r0, r0, #0x1d
  7. 7009b66e: 2800         	cmp	r0, #0x0
  8. 7009b670: d507         	bpl	0x7009b682 <_ntoa_format+0x1f2> @ imm = #0xe
  9. 7009b682: f89d 0058    	ldrb.w	r0, [sp, #0x58]
  10. 7009b686: 0700         	lsls	r0, r0, #0x1c
  11. 7009b688: 2800         	cmp	r0, #0x0
  12. 7009b68a: d507         	bpl	0x7009b69c <_ntoa_format+0x20c> @ imm = #0xe
  13. 7009b69c: e7ff         	b	0x7009b69e <_ntoa_format+0x20e> @ imm = #-0x2
  14. 7009b69e: e7ff         	b	0x7009b6a0 <_ntoa_format+0x210> @ imm = #-0x2
  15. 7009b6a0: e7ff         	b	0x7009b6a2 <_ntoa_format+0x212> @ imm = #-0x2

P_HDR Event: Idx:61963 (Pattern: EEEEEEEEEEEEEEE, Function: _ntoa_format)
Executed Assembly Steps:
  1. 7009b6a2: 980b         	ldr	r0, [sp, #0x2c]
  2. 7009b6a4: 990a         	ldr	r1, [sp, #0x28]
  3. 7009b6a6: 9a09         	ldr	r2, [sp, #0x24]
  4. 7009b6a8: 9b08         	ldr	r3, [sp, #0x20]
  5. 7009b6aa: f8dd c040    	ldr.w	r12, [sp, #0x40]
  6. 7009b6ae: 9c11         	ldr	r4, [sp, #0x44]
  7. 7009b6b0: 9d15         	ldr	r5, [sp, #0x54]
  8. 7009b6b2: 9e16         	ldr	r6, [sp, #0x58]
  9. 7009b6b4: 46ee         	mov	lr, sp
  10. 7009b6b6: f8ce 600c    	str.w	r6, [lr, #0xc]
  11. 7009b6ba: f8ce 5008    	str.w	r5, [lr, #0x8]
  12. 7009b6be: f8ce 4004    	str.w	r4, [lr, #0x4]
  13. 7009b6c2: f8ce c000    	str.w	r12, [lr]
  14. 7009b6c6: f004 fae3    	bl	0x7009fc90 <_out_rev>   @ imm = #0x45c6
  15. 7009fc90: b580         	push	{r7, lr}

P_HDR Event: Idx:61964 (Pattern: EEEEEEEEEEEEEEN, Function: _out_rev)
Executed Assembly Steps:
  1. 7009fc92: b086         	sub	sp, #0x18
  2. 7009fc94: f8dd c02c    	ldr.w	r12, [sp, #0x2c]
  3. 7009fc98: f8dd c028    	ldr.w	r12, [sp, #0x28]
  4. 7009fc9c: f8dd c024    	ldr.w	r12, [sp, #0x24]
  5. 7009fca0: f8dd c020    	ldr.w	r12, [sp, #0x20]
  6. 7009fca4: 9005         	str	r0, [sp, #0x14]
  7. 7009fca6: 9104         	str	r1, [sp, #0x10]
  8. 7009fca8: 9203         	str	r2, [sp, #0xc]
  9. 7009fcaa: 9302         	str	r3, [sp, #0x8]
  10. 7009fcac: 9803         	ldr	r0, [sp, #0xc]
  11. 7009fcae: 9001         	str	r0, [sp, #0x4]
  12. 7009fcb0: f89d 002c    	ldrb.w	r0, [sp, #0x2c]
  13. 7009fcb4: 0780         	lsls	r0, r0, #0x1e
  14. 7009fcb6: 2800         	cmp	r0, #0x0
  15. 7009fcb8: d41c         	bmi	0x7009fcf4 <_out_rev+0x64> @ imm = #0x38

P_HDR Event: Idx:61965 (Pattern: EEEEEEN, Function: _out_rev)
Executed Assembly Steps:
  1. 7009fcba: e7ff         	b	0x7009fcbc <_out_rev+0x2c> @ imm = #-0x2
  2. 7009fcbc: f89d 002c    	ldrb.w	r0, [sp, #0x2c]
  3. 7009fcc0: 07c0         	lsls	r0, r0, #0x1f
  4. 7009fcc2: b9b8         	cbnz	r0, 0x7009fcf4 <_out_rev+0x64> @ imm = #0x2e
  5. 7009fcf4: e7ff         	b	0x7009fcf6 <_out_rev+0x66> @ imm = #-0x2
  6. 7009fcf6: 9809         	ldr	r0, [sp, #0x24]
  7. 7009fcf8: b170         	cbz	r0, 0x7009fd18 <_out_rev+0x88> @ imm = #0x1c

P_HDR Event: Idx:61966 (Pattern: EEEEEEEEEEEEE, Function: _out_rev)
Executed Assembly Steps:
  1. 7009fcfa: e7ff         	b	0x7009fcfc <_out_rev+0x6c> @ imm = #-0x2
  2. 7009fcfc: f8dd c014    	ldr.w	r12, [sp, #0x14]
  3. 7009fd00: 9808         	ldr	r0, [sp, #0x20]
  4. 7009fd02: 9909         	ldr	r1, [sp, #0x24]
  5. 7009fd04: 3901         	subs	r1, #0x1
  6. 7009fd06: 9109         	str	r1, [sp, #0x24]
  7. 7009fd08: 5c40         	ldrb	r0, [r0, r1]
  8. 7009fd0a: 9904         	ldr	r1, [sp, #0x10]
  9. 7009fd0c: 9a03         	ldr	r2, [sp, #0xc]
  10. 7009fd0e: 1c53         	adds	r3, r2, #0x1
  11. 7009fd10: 9303         	str	r3, [sp, #0xc]
  12. 7009fd12: 9b02         	ldr	r3, [sp, #0x8]
  13. 7009fd14: 47e0         	blx	r12

Sync: Idx:61968; ID:10;	BRANCH_ADDRESS : Branch address.; Addr=0x700A48B0 ~[0xA48B0];

P_HDR Event: Idx:61971 (Pattern: EEEEEEEEN, Function: _out_buffer)
Executed Assembly Steps:
  1. 700a48b0: b084         	sub	sp, #0x10
  2. 700a48b2: f88d 000f    	strb.w	r0, [sp, #0xf]
  3. 700a48b6: 9102         	str	r1, [sp, #0x8]
  4. 700a48b8: 9201         	str	r2, [sp, #0x4]
  5. 700a48ba: 9300         	str	r3, [sp]
  6. 700a48bc: 9801         	ldr	r0, [sp, #0x4]
  7. 700a48be: 9900         	ldr	r1, [sp]
  8. 700a48c0: 4288         	cmp	r0, r1
  9. 700a48c2: d206         	bhs	0x700a48d2 <_out_buffer+0x22> @ imm = #0xc

P_HDR Event: Idx:61972 (Pattern: EEEEEEEE, Function: _out_buffer)
Executed Assembly Steps:
  1. 700a48c4: e7ff         	b	0x700a48c6 <_out_buffer+0x16> @ imm = #-0x2
  2. 700a48c6: f89d 000f    	ldrb.w	r0, [sp, #0xf]
  3. 700a48ca: 9902         	ldr	r1, [sp, #0x8]
  4. 700a48cc: 9a01         	ldr	r2, [sp, #0x4]
  5. 700a48ce: 5488         	strb	r0, [r1, r2]
  6. 700a48d0: e7ff         	b	0x700a48d2 <_out_buffer+0x22> @ imm = #-0x2
  7. 700a48d2: b004         	add	sp, #0x10
  8. 700a48d4: 4770         	bx	lr

Sync: Idx:61973; ID:10;	BRANCH_ADDRESS : Branch address.; Addr=0x7009FD16 ~[0x9FD16];

P_HDR Event: Idx:61976 (Pattern: EEN, Function: _out_rev)
Executed Assembly Steps:
  1. 7009fd16: e7ee         	b	0x7009fcf6 <_out_rev+0x66> @ imm = #-0x24
  2. 7009fcf6: 9809         	ldr	r0, [sp, #0x24]
  3. 7009fcf8: b170         	cbz	r0, 0x7009fd18 <_out_rev+0x88> @ imm = #0x1c

P_HDR Event: Idx:61977 (Pattern: EEEEEEEEEEEEE, Function: _out_rev)
Executed Assembly Steps:
  1. 7009fcfa: e7ff         	b	0x7009fcfc <_out_rev+0x6c> @ imm = #-0x2
  2. 7009fcfc: f8dd c014    	ldr.w	r12, [sp, #0x14]
  3. 7009fd00: 9808         	ldr	r0, [sp, #0x20]
  4. 7009fd02: 9909         	ldr	r1, [sp, #0x24]
  5. 7009fd04: 3901         	subs	r1, #0x1
  6. 7009fd06: 9109         	str	r1, [sp, #0x24]
  7. 7009fd08: 5c40         	ldrb	r0, [r0, r1]
  8. 7009fd0a: 9904         	ldr	r1, [sp, #0x10]
  9. 7009fd0c: 9a03         	ldr	r2, [sp, #0xc]
  10. 7009fd0e: 1c53         	adds	r3, r2, #0x1
  11. 7009fd10: 9303         	str	r3, [sp, #0xc]
  12. 7009fd12: 9b02         	ldr	r3, [sp, #0x8]
  13. 7009fd14: 47e0         	blx	r12

Sync: Idx:61978; ID:10;	BRANCH_ADDRESS : Branch address.; Addr=0x700A48B0 ~[0xA48B0];

P_HDR Event: Idx:61981 (Pattern: EEEEEEEEN, Function: _out_buffer)
Executed Assembly Steps:
  1. 700a48b0: b084         	sub	sp, #0x10
  2. 700a48b2: f88d 000f    	strb.w	r0, [sp, #0xf]
  3. 700a48b6: 9102         	str	r1, [sp, #0x8]
  4. 700a48b8: 9201         	str	r2, [sp, #0x4]
  5. 700a48ba: 9300         	str	r3, [sp]
  6. 700a48bc: 9801         	ldr	r0, [sp, #0x4]
  7. 700a48be: 9900         	ldr	r1, [sp]
  8. 700a48c0: 4288         	cmp	r0, r1
  9. 700a48c2: d206         	bhs	0x700a48d2 <_out_buffer+0x22> @ imm = #0xc

P_HDR Event: Idx:61982 (Pattern: EEEEEEEE, Function: _out_buffer)
Executed Assembly Steps:
  1. 700a48c4: e7ff         	b	0x700a48c6 <_out_buffer+0x16> @ imm = #-0x2
  2. 700a48c6: f89d 000f    	ldrb.w	r0, [sp, #0xf]
  3. 700a48ca: 9902         	ldr	r1, [sp, #0x8]
  4. 700a48cc: 9a01         	ldr	r2, [sp, #0x4]
  5. 700a48ce: 5488         	strb	r0, [r1, r2]
  6. 700a48d0: e7ff         	b	0x700a48d2 <_out_buffer+0x22> @ imm = #-0x2
  7. 700a48d2: b004         	add	sp, #0x10
  8. 700a48d4: 4770         	bx	lr

Sync: Idx:61984; ID:10;	BRANCH_ADDRESS : Branch address.; Addr=0x7009FD16 ~[0x9FD16];

P_HDR Event: Idx:61987 (Pattern: EEN, Function: _out_rev)
Executed Assembly Steps:
  1. 7009fd16: e7ee         	b	0x7009fcf6 <_out_rev+0x66> @ imm = #-0x24
  2. 7009fcf6: 9809         	ldr	r0, [sp, #0x24]
  3. 7009fcf8: b170         	cbz	r0, 0x7009fd18 <_out_rev+0x88> @ imm = #0x1c

P_HDR Event: Idx:61988 (Pattern: EEEEEEEEEEEEE, Function: _out_rev)
Executed Assembly Steps:
  1. 7009fcfa: e7ff         	b	0x7009fcfc <_out_rev+0x6c> @ imm = #-0x2
  2. 7009fcfc: f8dd c014    	ldr.w	r12, [sp, #0x14]
  3. 7009fd00: 9808         	ldr	r0, [sp, #0x20]
  4. 7009fd02: 9909         	ldr	r1, [sp, #0x24]
  5. 7009fd04: 3901         	subs	r1, #0x1
  6. 7009fd06: 9109         	str	r1, [sp, #0x24]
  7. 7009fd08: 5c40         	ldrb	r0, [r0, r1]
  8. 7009fd0a: 9904         	ldr	r1, [sp, #0x10]
  9. 7009fd0c: 9a03         	ldr	r2, [sp, #0xc]
  10. 7009fd0e: 1c53         	adds	r3, r2, #0x1
  11. 7009fd10: 9303         	str	r3, [sp, #0xc]
  12. 7009fd12: 9b02         	ldr	r3, [sp, #0x8]
  13. 7009fd14: 47e0         	blx	r12

Sync: Idx:61989; ID:10;	BRANCH_ADDRESS : Branch address.; Addr=0x700A48B0 ~[0xA48B0];

P_HDR Event: Idx:61992 (Pattern: EEEEEEEEN, Function: _out_buffer)
Executed Assembly Steps:
  1. 700a48b0: b084         	sub	sp, #0x10
  2. 700a48b2: f88d 000f    	strb.w	r0, [sp, #0xf]
  3. 700a48b6: 9102         	str	r1, [sp, #0x8]
  4. 700a48b8: 9201         	str	r2, [sp, #0x4]
  5. 700a48ba: 9300         	str	r3, [sp]
  6. 700a48bc: 9801         	ldr	r0, [sp, #0x4]
  7. 700a48be: 9900         	ldr	r1, [sp]
  8. 700a48c0: 4288         	cmp	r0, r1
  9. 700a48c2: d206         	bhs	0x700a48d2 <_out_buffer+0x22> @ imm = #0xc

P_HDR Event: Idx:61993 (Pattern: EEEEEEEE, Function: _out_buffer)
Executed Assembly Steps:
  1. 700a48c4: e7ff         	b	0x700a48c6 <_out_buffer+0x16> @ imm = #-0x2
  2. 700a48c6: f89d 000f    	ldrb.w	r0, [sp, #0xf]
  3. 700a48ca: 9902         	ldr	r1, [sp, #0x8]
  4. 700a48cc: 9a01         	ldr	r2, [sp, #0x4]
  5. 700a48ce: 5488         	strb	r0, [r1, r2]
  6. 700a48d0: e7ff         	b	0x700a48d2 <_out_buffer+0x22> @ imm = #-0x2
  7. 700a48d2: b004         	add	sp, #0x10
  8. 700a48d4: 4770         	bx	lr

Sync: Idx:61994; ID:10;	BRANCH_ADDRESS : Branch address.; Addr=0x7009FD16 ~[0x9FD16];

P_HDR Event: Idx:61997 (Pattern: EEN, Function: _out_rev)
Executed Assembly Steps:
  1. 7009fd16: e7ee         	b	0x7009fcf6 <_out_rev+0x66> @ imm = #-0x24
  2. 7009fcf6: 9809         	ldr	r0, [sp, #0x24]
  3. 7009fcf8: b170         	cbz	r0, 0x7009fd18 <_out_rev+0x88> @ imm = #0x1c

P_HDR Event: Idx:61998 (Pattern: EEEEEEEEEEEEE, Function: _out_rev)
Executed Assembly Steps:
  1. 7009fcfa: e7ff         	b	0x7009fcfc <_out_rev+0x6c> @ imm = #-0x2
  2. 7009fcfc: f8dd c014    	ldr.w	r12, [sp, #0x14]
  3. 7009fd00: 9808         	ldr	r0, [sp, #0x20]
  4. 7009fd02: 9909         	ldr	r1, [sp, #0x24]
  5. 7009fd04: 3901         	subs	r1, #0x1
  6. 7009fd06: 9109         	str	r1, [sp, #0x24]
  7. 7009fd08: 5c40         	ldrb	r0, [r0, r1]
  8. 7009fd0a: 9904         	ldr	r1, [sp, #0x10]
  9. 7009fd0c: 9a03         	ldr	r2, [sp, #0xc]
  10. 7009fd0e: 1c53         	adds	r3, r2, #0x1
  11. 7009fd10: 9303         	str	r3, [sp, #0xc]
  12. 7009fd12: 9b02         	ldr	r3, [sp, #0x8]
  13. 7009fd14: 47e0         	blx	r12

Sync: Idx:62000; ID:10;	BRANCH_ADDRESS : Branch address.; Addr=0x700A48B0 ~[0xA48B0];

P_HDR Event: Idx:62003 (Pattern: EEEEEEEEN, Function: _out_buffer)
Executed Assembly Steps:
  1. 700a48b0: b084         	sub	sp, #0x10
  2. 700a48b2: f88d 000f    	strb.w	r0, [sp, #0xf]
  3. 700a48b6: 9102         	str	r1, [sp, #0x8]
  4. 700a48b8: 9201         	str	r2, [sp, #0x4]
  5. 700a48ba: 9300         	str	r3, [sp]
  6. 700a48bc: 9801         	ldr	r0, [sp, #0x4]
  7. 700a48be: 9900         	ldr	r1, [sp]
  8. 700a48c0: 4288         	cmp	r0, r1
  9. 700a48c2: d206         	bhs	0x700a48d2 <_out_buffer+0x22> @ imm = #0xc

P_HDR Event: Idx:62004 (Pattern: EEEEEEEE, Function: _out_buffer)
Executed Assembly Steps:
  1. 700a48c4: e7ff         	b	0x700a48c6 <_out_buffer+0x16> @ imm = #-0x2
  2. 700a48c6: f89d 000f    	ldrb.w	r0, [sp, #0xf]
  3. 700a48ca: 9902         	ldr	r1, [sp, #0x8]
  4. 700a48cc: 9a01         	ldr	r2, [sp, #0x4]
  5. 700a48ce: 5488         	strb	r0, [r1, r2]
  6. 700a48d0: e7ff         	b	0x700a48d2 <_out_buffer+0x22> @ imm = #-0x2
  7. 700a48d2: b004         	add	sp, #0x10
  8. 700a48d4: 4770         	bx	lr

Sync: Idx:62005; ID:10;	BRANCH_ADDRESS : Branch address.; Addr=0x7009FD16 ~[0x9FD16];

P_HDR Event: Idx:62008 (Pattern: EEN, Function: _out_rev)
Executed Assembly Steps:
  1. 7009fd16: e7ee         	b	0x7009fcf6 <_out_rev+0x66> @ imm = #-0x24
  2. 7009fcf6: 9809         	ldr	r0, [sp, #0x24]
  3. 7009fcf8: b170         	cbz	r0, 0x7009fd18 <_out_rev+0x88> @ imm = #0x1c

P_HDR Event: Idx:62009 (Pattern: EEEEEEEEEEEEE, Function: _out_rev)
Executed Assembly Steps:
  1. 7009fcfa: e7ff         	b	0x7009fcfc <_out_rev+0x6c> @ imm = #-0x2
  2. 7009fcfc: f8dd c014    	ldr.w	r12, [sp, #0x14]
  3. 7009fd00: 9808         	ldr	r0, [sp, #0x20]
  4. 7009fd02: 9909         	ldr	r1, [sp, #0x24]
  5. 7009fd04: 3901         	subs	r1, #0x1
  6. 7009fd06: 9109         	str	r1, [sp, #0x24]
  7. 7009fd08: 5c40         	ldrb	r0, [r0, r1]
  8. 7009fd0a: 9904         	ldr	r1, [sp, #0x10]
  9. 7009fd0c: 9a03         	ldr	r2, [sp, #0xc]
  10. 7009fd0e: 1c53         	adds	r3, r2, #0x1
  11. 7009fd10: 9303         	str	r3, [sp, #0xc]
  12. 7009fd12: 9b02         	ldr	r3, [sp, #0x8]
  13. 7009fd14: 47e0         	blx	r12

Sync: Idx:62010; ID:10;	BRANCH_ADDRESS : Branch address.; Addr=0x700A48B0 ~[0xA48B0];

P_HDR Event: Idx:62013 (Pattern: EEEEEEEEN, Function: _out_buffer)
Executed Assembly Steps:
  1. 700a48b0: b084         	sub	sp, #0x10
  2. 700a48b2: f88d 000f    	strb.w	r0, [sp, #0xf]
  3. 700a48b6: 9102         	str	r1, [sp, #0x8]
  4. 700a48b8: 9201         	str	r2, [sp, #0x4]
  5. 700a48ba: 9300         	str	r3, [sp]
  6. 700a48bc: 9801         	ldr	r0, [sp, #0x4]
  7. 700a48be: 9900         	ldr	r1, [sp]
  8. 700a48c0: 4288         	cmp	r0, r1
  9. 700a48c2: d206         	bhs	0x700a48d2 <_out_buffer+0x22> @ imm = #0xc

P_HDR Event: Idx:62014 (Pattern: EEEEEEEE, Function: _out_buffer)
Executed Assembly Steps:
  1. 700a48c4: e7ff         	b	0x700a48c6 <_out_buffer+0x16> @ imm = #-0x2
  2. 700a48c6: f89d 000f    	ldrb.w	r0, [sp, #0xf]
  3. 700a48ca: 9902         	ldr	r1, [sp, #0x8]
  4. 700a48cc: 9a01         	ldr	r2, [sp, #0x4]
  5. 700a48ce: 5488         	strb	r0, [r1, r2]
  6. 700a48d0: e7ff         	b	0x700a48d2 <_out_buffer+0x22> @ imm = #-0x2
  7. 700a48d2: b004         	add	sp, #0x10
  8. 700a48d4: 4770         	bx	lr

Sync: Idx:62016; ID:10;	BRANCH_ADDRESS : Branch address.; Addr=0x7009FD16 ~[0x9FD16];

P_HDR Event: Idx:62019 (Pattern: EEN, Function: _out_rev)
Executed Assembly Steps:
  1. 7009fd16: e7ee         	b	0x7009fcf6 <_out_rev+0x66> @ imm = #-0x24
  2. 7009fcf6: 9809         	ldr	r0, [sp, #0x24]
  3. 7009fcf8: b170         	cbz	r0, 0x7009fd18 <_out_rev+0x88> @ imm = #0x1c

P_HDR Event: Idx:62020 (Pattern: EEEEEEEEEEEEE, Function: _out_rev)
Executed Assembly Steps:
  1. 7009fcfa: e7ff         	b	0x7009fcfc <_out_rev+0x6c> @ imm = #-0x2
  2. 7009fcfc: f8dd c014    	ldr.w	r12, [sp, #0x14]
  3. 7009fd00: 9808         	ldr	r0, [sp, #0x20]
  4. 7009fd02: 9909         	ldr	r1, [sp, #0x24]
  5. 7009fd04: 3901         	subs	r1, #0x1
  6. 7009fd06: 9109         	str	r1, [sp, #0x24]
  7. 7009fd08: 5c40         	ldrb	r0, [r0, r1]
  8. 7009fd0a: 9904         	ldr	r1, [sp, #0x10]
  9. 7009fd0c: 9a03         	ldr	r2, [sp, #0xc]
  10. 7009fd0e: 1c53         	adds	r3, r2, #0x1
  11. 7009fd10: 9303         	str	r3, [sp, #0xc]
  12. 7009fd12: 9b02         	ldr	r3, [sp, #0x8]
  13. 7009fd14: 47e0         	blx	r12

Sync: Idx:62021; ID:10;	BRANCH_ADDRESS : Branch address.; Addr=0x700A48B0 ~[0xA48B0];

P_HDR Event: Idx:62024 (Pattern: EEEEEEEEN, Function: _out_buffer)
Executed Assembly Steps:
  1. 700a48b0: b084         	sub	sp, #0x10
  2. 700a48b2: f88d 000f    	strb.w	r0, [sp, #0xf]
  3. 700a48b6: 9102         	str	r1, [sp, #0x8]
  4. 700a48b8: 9201         	str	r2, [sp, #0x4]
  5. 700a48ba: 9300         	str	r3, [sp]
  6. 700a48bc: 9801         	ldr	r0, [sp, #0x4]
  7. 700a48be: 9900         	ldr	r1, [sp]
  8. 700a48c0: 4288         	cmp	r0, r1
  9. 700a48c2: d206         	bhs	0x700a48d2 <_out_buffer+0x22> @ imm = #0xc

P_HDR Event: Idx:62025 (Pattern: EEEEEEEE, Function: _out_buffer)
Executed Assembly Steps:
  1. 700a48c4: e7ff         	b	0x700a48c6 <_out_buffer+0x16> @ imm = #-0x2
  2. 700a48c6: f89d 000f    	ldrb.w	r0, [sp, #0xf]
  3. 700a48ca: 9902         	ldr	r1, [sp, #0x8]
  4. 700a48cc: 9a01         	ldr	r2, [sp, #0x4]
  5. 700a48ce: 5488         	strb	r0, [r1, r2]
  6. 700a48d0: e7ff         	b	0x700a48d2 <_out_buffer+0x22> @ imm = #-0x2
  7. 700a48d2: b004         	add	sp, #0x10
  8. 700a48d4: 4770         	bx	lr

Sync: Idx:62026; ID:10;	BRANCH_ADDRESS : Branch address.; Addr=0x7009FD16 ~[0x9FD16];

P_HDR Event: Idx:62029 (Pattern: EEEEEEEEEE, Function: _out_rev)
Executed Assembly Steps:
  1. 7009fd16: e7ee         	b	0x7009fcf6 <_out_rev+0x66> @ imm = #-0x24
  2. 7009fcf6: 9809         	ldr	r0, [sp, #0x24]
  3. 7009fcf8: b170         	cbz	r0, 0x7009fd18 <_out_rev+0x88> @ imm = #0x1c
  4. 7009fd18: f89d 002c    	ldrb.w	r0, [sp, #0x2c]
  5. 7009fd1c: 0780         	lsls	r0, r0, #0x1e
  6. 7009fd1e: 2800         	cmp	r0, #0x0
  7. 7009fd20: d513         	bpl	0x7009fd4a <_out_rev+0xba> @ imm = #0x26
  8. 7009fd4a: 9803         	ldr	r0, [sp, #0xc]
  9. 7009fd4c: b006         	add	sp, #0x18
  10. 7009fd4e: bd80         	pop	{r7, pc}

Sync: Idx:62030; ID:10;	BRANCH_ADDRESS : Branch address.; Addr=0x7009B6CA ~[0x9B6CA];

P_HDR Event: Idx:62034 (Pattern: EE, Function: _ntoa_format)
Executed Assembly Steps:
  1. 7009b6ca: b00c         	add	sp, #0x30
  2. 7009b6cc: bd70         	pop	{r4, r5, r6, pc}

Sync: Idx:62035; ID:10;	BRANCH_ADDRESS : Branch address.; Addr=0x7009E23E ~[0x9E23E];

P_HDR Event: Idx:62038 (Pattern: EE, Function: _ntoa_long)
Executed Assembly Steps:
  1. 7009e23e: b018         	add	sp, #0x60
  2. 7009e240: e8bd 81f0    	pop.w	{r4, r5, r6, r7, r8, pc}

Sync: Idx:62039; ID:10;	BRANCH_ADDRESS : Branch address.; Addr=0x700994A8 ~[0x994A8];

P_HDR Event: Idx:62042 (Pattern: EEEEEEEEEEEEN, Function: _vsnprintf)
Executed Assembly Steps:
  1. 700994a8: 9037         	str	r0, [sp, #0xdc]
  2. 700994aa: e7ff         	b	0x700994ac <_vsnprintf+0x5ac> @ imm = #-0x2
  3. 700994ac: e7ff         	b	0x700994ae <_vsnprintf+0x5ae> @ imm = #-0x2
  4. 700994ae: e09c         	b	0x700995ea <_vsnprintf+0x6ea> @ imm = #0x138
  5. 700995ea: 983c         	ldr	r0, [sp, #0xf0]
  6. 700995ec: 3001         	adds	r0, #0x1
  7. 700995ee: 903c         	str	r0, [sp, #0xf0]
  8. 700995f0: e183         	b	0x700998fa <_vsnprintf+0x9fa> @ imm = #0x306
  9. 700998fa: f7ff bb18    	b.w	0x70098f2e <_vsnprintf+0x2e> @ imm = #-0x9d0
  10. 70098f2e: 983c         	ldr	r0, [sp, #0xf0]
  11. 70098f30: 7800         	ldrb	r0, [r0]
  12. 70098f32: 2800         	cmp	r0, #0x0
  13. 70098f34: f000 84e3    	beq.w	0x700998fe <_vsnprintf+0x9fe> @ imm = #0x9c6

P_HDR Event: Idx:62043 (Pattern: EEEEN, Function: _vsnprintf)
Executed Assembly Steps:
  1. 70098f38: e7ff         	b	0x70098f3a <_vsnprintf+0x3a> @ imm = #-0x2
  2. 70098f3a: 983c         	ldr	r0, [sp, #0xf0]
  3. 70098f3c: 7800         	ldrb	r0, [r0]
  4. 70098f3e: 2825         	cmp	r0, #0x25
  5. 70098f40: d00e         	beq	0x70098f60 <_vsnprintf+0x60> @ imm = #0x1c

P_HDR Event: Idx:62044 (Pattern: EEEEEEEEEE, Function: _vsnprintf)
Executed Assembly Steps:
  1. 70098f42: e7ff         	b	0x70098f44 <_vsnprintf+0x44> @ imm = #-0x2
  2. 70098f44: f8dd c0fc    	ldr.w	r12, [sp, #0xfc]
  3. 70098f48: 983c         	ldr	r0, [sp, #0xf0]
  4. 70098f4a: 7800         	ldrb	r0, [r0]
  5. 70098f4c: 993e         	ldr	r1, [sp, #0xf8]
  6. 70098f4e: 9a37         	ldr	r2, [sp, #0xdc]
  7. 70098f50: 1c53         	adds	r3, r2, #0x1
  8. 70098f52: 9337         	str	r3, [sp, #0xdc]
  9. 70098f54: 9b3d         	ldr	r3, [sp, #0xf4]
  10. 70098f56: 47e0         	blx	r12

Sync: Idx:62045; ID:10;	BRANCH_ADDRESS : Branch address.; Addr=0x700A48B0 ~[0xA48B0];

P_HDR Event: Idx:62049 (Pattern: EEEEEEEEN, Function: _out_buffer)
Executed Assembly Steps:
  1. 700a48b0: b084         	sub	sp, #0x10
  2. 700a48b2: f88d 000f    	strb.w	r0, [sp, #0xf]
  3. 700a48b6: 9102         	str	r1, [sp, #0x8]
  4. 700a48b8: 9201         	str	r2, [sp, #0x4]
  5. 700a48ba: 9300         	str	r3, [sp]
  6. 700a48bc: 9801         	ldr	r0, [sp, #0x4]
  7. 700a48be: 9900         	ldr	r1, [sp]
  8. 700a48c0: 4288         	cmp	r0, r1
  9. 700a48c2: d206         	bhs	0x700a48d2 <_out_buffer+0x22> @ imm = #0xc

P_HDR Event: Idx:62050 (Pattern: EEEEEEEE, Function: _out_buffer)
Executed Assembly Steps:
  1. 700a48c4: e7ff         	b	0x700a48c6 <_out_buffer+0x16> @ imm = #-0x2
  2. 700a48c6: f89d 000f    	ldrb.w	r0, [sp, #0xf]
  3. 700a48ca: 9902         	ldr	r1, [sp, #0x8]
  4. 700a48cc: 9a01         	ldr	r2, [sp, #0x4]
  5. 700a48ce: 5488         	strb	r0, [r1, r2]
  6. 700a48d0: e7ff         	b	0x700a48d2 <_out_buffer+0x22> @ imm = #-0x2
  7. 700a48d2: b004         	add	sp, #0x10
  8. 700a48d4: 4770         	bx	lr

Sync: Idx:62052; ID:10;	BRANCH_ADDRESS : Branch address.; Addr=0x70098F58 ~[0x98F58];

P_HDR Event: Idx:62055 (Pattern: EEEEEEEN, Function: _vsnprintf)
Executed Assembly Steps:
  1. 70098f58: 983c         	ldr	r0, [sp, #0xf0]
  2. 70098f5a: 3001         	adds	r0, #0x1
  3. 70098f5c: 903c         	str	r0, [sp, #0xf0]
  4. 70098f5e: e7e6         	b	0x70098f2e <_vsnprintf+0x2e> @ imm = #-0x34
  5. 70098f2e: 983c         	ldr	r0, [sp, #0xf0]
  6. 70098f30: 7800         	ldrb	r0, [r0]
  7. 70098f32: 2800         	cmp	r0, #0x0
  8. 70098f34: f000 84e3    	beq.w	0x700998fe <_vsnprintf+0x9fe> @ imm = #0x9c6

P_HDR Event: Idx:62056 (Pattern: EEEEN, Function: _vsnprintf)
Executed Assembly Steps:
  1. 70098f38: e7ff         	b	0x70098f3a <_vsnprintf+0x3a> @ imm = #-0x2
  2. 70098f3a: 983c         	ldr	r0, [sp, #0xf0]
  3. 70098f3c: 7800         	ldrb	r0, [r0]
  4. 70098f3e: 2825         	cmp	r0, #0x25
  5. 70098f40: d00e         	beq	0x70098f60 <_vsnprintf+0x60> @ imm = #0x1c

P_HDR Event: Idx:62057 (Pattern: EEEEEEEEEE, Function: _vsnprintf)
Executed Assembly Steps:
  1. 70098f42: e7ff         	b	0x70098f44 <_vsnprintf+0x44> @ imm = #-0x2
  2. 70098f44: f8dd c0fc    	ldr.w	r12, [sp, #0xfc]
  3. 70098f48: 983c         	ldr	r0, [sp, #0xf0]
  4. 70098f4a: 7800         	ldrb	r0, [r0]
  5. 70098f4c: 993e         	ldr	r1, [sp, #0xf8]
  6. 70098f4e: 9a37         	ldr	r2, [sp, #0xdc]
  7. 70098f50: 1c53         	adds	r3, r2, #0x1
  8. 70098f52: 9337         	str	r3, [sp, #0xdc]
  9. 70098f54: 9b3d         	ldr	r3, [sp, #0xf4]
  10. 70098f56: 47e0         	blx	r12

Sync: Idx:62058; ID:10;	BRANCH_ADDRESS : Branch address.; Addr=0x700A48B0 ~[0xA48B0];

P_HDR Event: Idx:62064 (Pattern: EEEEEEEEN, Function: _out_buffer)
Executed Assembly Steps:
  1. 700a48b0: b084         	sub	sp, #0x10
  2. 700a48b2: f88d 000f    	strb.w	r0, [sp, #0xf]
  3. 700a48b6: 9102         	str	r1, [sp, #0x8]
  4. 700a48b8: 9201         	str	r2, [sp, #0x4]
  5. 700a48ba: 9300         	str	r3, [sp]
  6. 700a48bc: 9801         	ldr	r0, [sp, #0x4]
  7. 700a48be: 9900         	ldr	r1, [sp]
  8. 700a48c0: 4288         	cmp	r0, r1
  9. 700a48c2: d206         	bhs	0x700a48d2 <_out_buffer+0x22> @ imm = #0xc

P_HDR Event: Idx:62065 (Pattern: EEEEEEEE, Function: _out_buffer)
Executed Assembly Steps:
  1. 700a48c4: e7ff         	b	0x700a48c6 <_out_buffer+0x16> @ imm = #-0x2
  2. 700a48c6: f89d 000f    	ldrb.w	r0, [sp, #0xf]
  3. 700a48ca: 9902         	ldr	r1, [sp, #0x8]
  4. 700a48cc: 9a01         	ldr	r2, [sp, #0x4]
  5. 700a48ce: 5488         	strb	r0, [r1, r2]
  6. 700a48d0: e7ff         	b	0x700a48d2 <_out_buffer+0x22> @ imm = #-0x2
  7. 700a48d2: b004         	add	sp, #0x10
  8. 700a48d4: 4770         	bx	lr

Sync: Idx:62066; ID:10;	BRANCH_ADDRESS : Branch address.; Addr=0x70098F58 ~[0x98F58];

P_HDR Event: Idx:62069 (Pattern: EEEEEEEN, Function: _vsnprintf)
Executed Assembly Steps:
  1. 70098f58: 983c         	ldr	r0, [sp, #0xf0]
  2. 70098f5a: 3001         	adds	r0, #0x1
  3. 70098f5c: 903c         	str	r0, [sp, #0xf0]
  4. 70098f5e: e7e6         	b	0x70098f2e <_vsnprintf+0x2e> @ imm = #-0x34
  5. 70098f2e: 983c         	ldr	r0, [sp, #0xf0]
  6. 70098f30: 7800         	ldrb	r0, [r0]
  7. 70098f32: 2800         	cmp	r0, #0x0
  8. 70098f34: f000 84e3    	beq.w	0x700998fe <_vsnprintf+0x9fe> @ imm = #0x9c6

P_HDR Event: Idx:62070 (Pattern: EEEEN, Function: _vsnprintf)
Executed Assembly Steps:
  1. 70098f38: e7ff         	b	0x70098f3a <_vsnprintf+0x3a> @ imm = #-0x2
  2. 70098f3a: 983c         	ldr	r0, [sp, #0xf0]
  3. 70098f3c: 7800         	ldrb	r0, [r0]
  4. 70098f3e: 2825         	cmp	r0, #0x25
  5. 70098f40: d00e         	beq	0x70098f60 <_vsnprintf+0x60> @ imm = #0x1c

P_HDR Event: Idx:62071 (Pattern: EEEEEEEEEE, Function: _vsnprintf)
Executed Assembly Steps:
  1. 70098f42: e7ff         	b	0x70098f44 <_vsnprintf+0x44> @ imm = #-0x2
  2. 70098f44: f8dd c0fc    	ldr.w	r12, [sp, #0xfc]
  3. 70098f48: 983c         	ldr	r0, [sp, #0xf0]
  4. 70098f4a: 7800         	ldrb	r0, [r0]
  5. 70098f4c: 993e         	ldr	r1, [sp, #0xf8]
  6. 70098f4e: 9a37         	ldr	r2, [sp, #0xdc]
  7. 70098f50: 1c53         	adds	r3, r2, #0x1
  8. 70098f52: 9337         	str	r3, [sp, #0xdc]
  9. 70098f54: 9b3d         	ldr	r3, [sp, #0xf4]
  10. 70098f56: 47e0         	blx	r12

Sync: Idx:62072; ID:10;	BRANCH_ADDRESS : Branch address.; Addr=0x700A48B0 ~[0xA48B0];

P_HDR Event: Idx:62075 (Pattern: EEEEEEEEN, Function: _out_buffer)
Executed Assembly Steps:
  1. 700a48b0: b084         	sub	sp, #0x10
  2. 700a48b2: f88d 000f    	strb.w	r0, [sp, #0xf]
  3. 700a48b6: 9102         	str	r1, [sp, #0x8]
  4. 700a48b8: 9201         	str	r2, [sp, #0x4]
  5. 700a48ba: 9300         	str	r3, [sp]
  6. 700a48bc: 9801         	ldr	r0, [sp, #0x4]
  7. 700a48be: 9900         	ldr	r1, [sp]
  8. 700a48c0: 4288         	cmp	r0, r1
  9. 700a48c2: d206         	bhs	0x700a48d2 <_out_buffer+0x22> @ imm = #0xc

P_HDR Event: Idx:62076 (Pattern: EEEEEEEE, Function: _out_buffer)
Executed Assembly Steps:
  1. 700a48c4: e7ff         	b	0x700a48c6 <_out_buffer+0x16> @ imm = #-0x2
  2. 700a48c6: f89d 000f    	ldrb.w	r0, [sp, #0xf]
  3. 700a48ca: 9902         	ldr	r1, [sp, #0x8]
  4. 700a48cc: 9a01         	ldr	r2, [sp, #0x4]
  5. 700a48ce: 5488         	strb	r0, [r1, r2]
  6. 700a48d0: e7ff         	b	0x700a48d2 <_out_buffer+0x22> @ imm = #-0x2
  7. 700a48d2: b004         	add	sp, #0x10
  8. 700a48d4: 4770         	bx	lr

Sync: Idx:62077; ID:10;	BRANCH_ADDRESS : Branch address.; Addr=0x70098F58 ~[0x98F58];

P_HDR Event: Idx:62081 (Pattern: EEEEEEEN, Function: _vsnprintf)
Executed Assembly Steps:
  1. 70098f58: 983c         	ldr	r0, [sp, #0xf0]
  2. 70098f5a: 3001         	adds	r0, #0x1
  3. 70098f5c: 903c         	str	r0, [sp, #0xf0]
  4. 70098f5e: e7e6         	b	0x70098f2e <_vsnprintf+0x2e> @ imm = #-0x34
  5. 70098f2e: 983c         	ldr	r0, [sp, #0xf0]
  6. 70098f30: 7800         	ldrb	r0, [r0]
  7. 70098f32: 2800         	cmp	r0, #0x0
  8. 70098f34: f000 84e3    	beq.w	0x700998fe <_vsnprintf+0x9fe> @ imm = #0x9c6

P_HDR Event: Idx:62082 (Pattern: EEEEN, Function: _vsnprintf)
Executed Assembly Steps:
  1. 70098f38: e7ff         	b	0x70098f3a <_vsnprintf+0x3a> @ imm = #-0x2
  2. 70098f3a: 983c         	ldr	r0, [sp, #0xf0]
  3. 70098f3c: 7800         	ldrb	r0, [r0]
  4. 70098f3e: 2825         	cmp	r0, #0x25
  5. 70098f40: d00e         	beq	0x70098f60 <_vsnprintf+0x60> @ imm = #0x1c

P_HDR Event: Idx:62083 (Pattern: EEEEEEEEEE, Function: _vsnprintf)
Executed Assembly Steps:
  1. 70098f42: e7ff         	b	0x70098f44 <_vsnprintf+0x44> @ imm = #-0x2
  2. 70098f44: f8dd c0fc    	ldr.w	r12, [sp, #0xfc]
  3. 70098f48: 983c         	ldr	r0, [sp, #0xf0]
  4. 70098f4a: 7800         	ldrb	r0, [r0]
  5. 70098f4c: 993e         	ldr	r1, [sp, #0xf8]
  6. 70098f4e: 9a37         	ldr	r2, [sp, #0xdc]
  7. 70098f50: 1c53         	adds	r3, r2, #0x1
  8. 70098f52: 9337         	str	r3, [sp, #0xdc]
  9. 70098f54: 9b3d         	ldr	r3, [sp, #0xf4]
  10. 70098f56: 47e0         	blx	r12

Sync: Idx:62084; ID:10;	BRANCH_ADDRESS : Branch address.; Addr=0x700A48B0 ~[0xA48B0];

P_HDR Event: Idx:62087 (Pattern: EEEEEEEEN, Function: _out_buffer)
Executed Assembly Steps:
  1. 700a48b0: b084         	sub	sp, #0x10
  2. 700a48b2: f88d 000f    	strb.w	r0, [sp, #0xf]
  3. 700a48b6: 9102         	str	r1, [sp, #0x8]
  4. 700a48b8: 9201         	str	r2, [sp, #0x4]
  5. 700a48ba: 9300         	str	r3, [sp]
  6. 700a48bc: 9801         	ldr	r0, [sp, #0x4]
  7. 700a48be: 9900         	ldr	r1, [sp]
  8. 700a48c0: 4288         	cmp	r0, r1
  9. 700a48c2: d206         	bhs	0x700a48d2 <_out_buffer+0x22> @ imm = #0xc

P_HDR Event: Idx:62088 (Pattern: EEEEEEEE, Function: _out_buffer)
Executed Assembly Steps:
  1. 700a48c4: e7ff         	b	0x700a48c6 <_out_buffer+0x16> @ imm = #-0x2
  2. 700a48c6: f89d 000f    	ldrb.w	r0, [sp, #0xf]
  3. 700a48ca: 9902         	ldr	r1, [sp, #0x8]
  4. 700a48cc: 9a01         	ldr	r2, [sp, #0x4]
  5. 700a48ce: 5488         	strb	r0, [r1, r2]
  6. 700a48d0: e7ff         	b	0x700a48d2 <_out_buffer+0x22> @ imm = #-0x2
  7. 700a48d2: b004         	add	sp, #0x10
  8. 700a48d4: 4770         	bx	lr

Sync: Idx:62089; ID:10;	BRANCH_ADDRESS : Branch address.; Addr=0x70098F58 ~[0x98F58];

P_HDR Event: Idx:62092 (Pattern: EEEEEEEEEEEEEE, Function: _vsnprintf)
Executed Assembly Steps:
  1. 70098f58: 983c         	ldr	r0, [sp, #0xf0]
  2. 70098f5a: 3001         	adds	r0, #0x1
  3. 70098f5c: 903c         	str	r0, [sp, #0xf0]
  4. 70098f5e: e7e6         	b	0x70098f2e <_vsnprintf+0x2e> @ imm = #-0x34
  5. 70098f2e: 983c         	ldr	r0, [sp, #0xf0]
  6. 70098f30: 7800         	ldrb	r0, [r0]
  7. 70098f32: 2800         	cmp	r0, #0x0
  8. 70098f34: f000 84e3    	beq.w	0x700998fe <_vsnprintf+0x9fe> @ imm = #0x9c6
  9. 700998fe: 983f         	ldr	r0, [sp, #0xfc]
  10. 70099900: 900a         	str	r0, [sp, #0x28]
  11. 70099902: 983e         	ldr	r0, [sp, #0xf8]
  12. 70099904: 900b         	str	r0, [sp, #0x2c]
  13. 70099906: 9837         	ldr	r0, [sp, #0xdc]
  14. 70099908: 993d         	ldr	r1, [sp, #0xf4]

P_HDR Event: Idx:62093 (Pattern: EN, Function: _vsnprintf)
Executed Assembly Steps:
  1. 7009990a: 4288         	cmp	r0, r1
  2. 7009990c: d203         	bhs	0x70099916 <_vsnprintf+0xa16> @ imm = #0x6

P_HDR Event: Idx:62094 (Pattern: EEEEEEEEEE, Function: _vsnprintf)
Executed Assembly Steps:
  1. 7009990e: e7ff         	b	0x70099910 <_vsnprintf+0xa10> @ imm = #-0x2
  2. 70099910: 9837         	ldr	r0, [sp, #0xdc]
  3. 70099912: 9009         	str	r0, [sp, #0x24]
  4. 70099914: e003         	b	0x7009991e <_vsnprintf+0xa1e> @ imm = #0x6
  5. 7009991e: f8dd c028    	ldr.w	r12, [sp, #0x28]
  6. 70099922: 990b         	ldr	r1, [sp, #0x2c]
  7. 70099924: 9a09         	ldr	r2, [sp, #0x24]
  8. 70099926: 9b3d         	ldr	r3, [sp, #0xf4]
  9. 70099928: 2000         	movs	r0, #0x0
  10. 7009992a: 47e0         	blx	r12

Sync: Idx:62096; ID:10;	BRANCH_ADDRESS : Branch address.; Addr=0x700A48B0 ~[0xA48B0];

P_HDR Event: Idx:62099 (Pattern: EEEEEEEEN, Function: _out_buffer)
Executed Assembly Steps:
  1. 700a48b0: b084         	sub	sp, #0x10
  2. 700a48b2: f88d 000f    	strb.w	r0, [sp, #0xf]
  3. 700a48b6: 9102         	str	r1, [sp, #0x8]
  4. 700a48b8: 9201         	str	r2, [sp, #0x4]
  5. 700a48ba: 9300         	str	r3, [sp]
  6. 700a48bc: 9801         	ldr	r0, [sp, #0x4]
  7. 700a48be: 9900         	ldr	r1, [sp]
  8. 700a48c0: 4288         	cmp	r0, r1
  9. 700a48c2: d206         	bhs	0x700a48d2 <_out_buffer+0x22> @ imm = #0xc

P_HDR Event: Idx:62100 (Pattern: EEEEEEEE, Function: _out_buffer)
Executed Assembly Steps:
  1. 700a48c4: e7ff         	b	0x700a48c6 <_out_buffer+0x16> @ imm = #-0x2
  2. 700a48c6: f89d 000f    	ldrb.w	r0, [sp, #0xf]
  3. 700a48ca: 9902         	ldr	r1, [sp, #0x8]
  4. 700a48cc: 9a01         	ldr	r2, [sp, #0x4]
  5. 700a48ce: 5488         	strb	r0, [r1, r2]
  6. 700a48d0: e7ff         	b	0x700a48d2 <_out_buffer+0x22> @ imm = #-0x2
  7. 700a48d2: b004         	add	sp, #0x10
  8. 700a48d4: 4770         	bx	lr

Sync: Idx:62101; ID:10;	BRANCH_ADDRESS : Branch address.; Addr=0x7009992C ~[0x9992C];

P_HDR Event: Idx:62104 (Pattern: EEE, Function: _vsnprintf)
Executed Assembly Steps:
  1. 7009992c: 9837         	ldr	r0, [sp, #0xdc]
  2. 7009992e: b041         	add	sp, #0x104
  3. 70099930: e8bd 83f0    	pop.w	{r4, r5, r6, r7, r8, r9, pc}

Sync: Idx:62105; ID:10;	BRANCH_ADDRESS : Branch address.; Addr=0x700A3EAC ~[0xA3EAC];

P_HDR Event: Idx:62108 (Pattern: EEEEEE, Function: snprintf_)
Executed Assembly Steps:
  1. 700a3eac: 9002         	str	r0, [sp, #0x8]
  2. 700a3eae: 9802         	ldr	r0, [sp, #0x8]
  3. 700a3eb0: b007         	add	sp, #0x1c
  4. 700a3eb2: e8bd 4080    	pop.w	{r7, lr}
  5. 700a3eb6: b001         	add	sp, #0x4
  6. 700a3eb8: 4770         	bx	lr

Sync: Idx:62109; ID:10;	BRANCH_ADDRESS : Branch address.; Addr=0x7009D30A ~[0x9D30A];

P_HDR Event: Idx:62113 (Pattern: EEEEEEEEEEEEEEE, Function: DebugP_memLogWriterPutChar)
Executed Assembly Steps:
  1. 7009d30a: f247 31cc    	movw	r1, #0x73cc
  2. 7009d30e: f2c7 010a    	movt	r1, #0x700a
  3. 7009d312: 6008         	str	r0, [r1]
  4. 7009d314: e7ff         	b	0x7009d316 <DebugP_memLogWriterPutChar+0x66> @ imm = #-0x2
  5. 7009d316: f89d 001f    	ldrb.w	r0, [sp, #0x1f]
  6. 7009d31a: f247 31cc    	movw	r1, #0x73cc
  7. 7009d31e: f2c7 010a    	movt	r1, #0x700a
  8. 7009d322: 680b         	ldr	r3, [r1]
  9. 7009d324: f644 42e0    	movw	r2, #0x4ce0
  10. 7009d328: f2c7 0208    	movt	r2, #0x7008
  11. 7009d32c: 54d0         	strb	r0, [r2, r3]
  12. 7009d32e: 6808         	ldr	r0, [r1]
  13. 7009d330: 3001         	adds	r0, #0x1
  14. 7009d332: 6008         	str	r0, [r1]
  15. 7009d334: f89d 001f    	ldrb.w	r0, [sp, #0x1f]

P_HDR Event: Idx:62114 (Pattern: EN, Function: DebugP_memLogWriterPutChar)
Executed Assembly Steps:
  1. 7009d338: 280a         	cmp	r0, #0xa
  2. 7009d33a: d008         	beq	0x7009d34e <DebugP_memLogWriterPutChar+0x9e> @ imm = #0x10

P_HDR Event: Idx:62115 (Pattern: EEEEEEEE, Function: DebugP_memLogWriterPutChar)
Executed Assembly Steps:
  1. 7009d33c: e7ff         	b	0x7009d33e <DebugP_memLogWriterPutChar+0x8e> @ imm = #-0x2
  2. 7009d33e: f247 30cc    	movw	r0, #0x73cc
  3. 7009d342: f2c7 000a    	movt	r0, #0x700a
  4. 7009d346: 6800         	ldr	r0, [r0]
  5. 7009d348: 2878         	cmp	r0, #0x78
  6. 7009d34a: d350         	blo	0x7009d3ee <DebugP_memLogWriterPutChar+0x13e> @ imm = #0xa0
  7. 7009d3ee: b008         	add	sp, #0x20
  8. 7009d3f0: bd80         	pop	{r7, pc}

Sync: Idx:62116; ID:10;	BRANCH_ADDRESS : Branch address.; Addr=0x700A4E8E ~[0xA4E8E];

P_HDR Event: Idx:62119 (Pattern: EEEEEEEEEEEEEEE, Function: putchar_)
Executed Assembly Steps:
  1. 700a4e8e: 4620         	mov	r0, r4
  2. 700a4e90: e8bd 4010    	pop.w	{r4, lr}
  3. 700a4e94: f7fe bd2c    	b.w	0x700a38f0 <DebugP_uartLogWriterPutChar> @ imm = #-0x15a8
  4. 700a38f0: b580         	push	{r7, lr}
  5. 700a38f2: b088         	sub	sp, #0x20
  6. 700a38f4: f88d 001f    	strb.w	r0, [sp, #0x1f]
  7. 700a38f8: f89d 001f    	ldrb.w	r0, [sp, #0x1f]
  8. 700a38fc: f88d 001e    	strb.w	r0, [sp, #0x1e]
  9. 700a3900: f247 40e0    	movw	r0, #0x74e0
  10. 700a3904: f2c7 000a    	movt	r0, #0x700a
  11. 700a3908: 6800         	ldr	r0, [r0]
  12. 700a390a: f7ff fe41    	bl	0x700a3590 <UART_getHandle> @ imm = #-0x37e
  13. 700a3590: b083         	sub	sp, #0xc
  14. 700a3592: 9002         	str	r0, [sp, #0x8]
  15. 700a3594: 2000         	movs	r0, #0x0

P_HDR Event: Idx:62120 (Pattern: EEEEEEN, Function: UART_getHandle)
Executed Assembly Steps:
  1. 700a3596: 9001         	str	r0, [sp, #0x4]
  2. 700a3598: 9802         	ldr	r0, [sp, #0x8]
  3. 700a359a: f247 41e8    	movw	r1, #0x74e8
  4. 700a359e: f2c7 010a    	movt	r1, #0x700a
  5. 700a35a2: 6809         	ldr	r1, [r1]
  6. 700a35a4: 4288         	cmp	r0, r1
  7. 700a35a6: d217         	bhs	0x700a35d8 <UART_getHandle+0x48> @ imm = #0x2e

P_HDR Event: Idx:62121 (Pattern: EEEEEEEEN, Function: UART_getHandle)
Executed Assembly Steps:
  1. 700a35a8: e7ff         	b	0x700a35aa <UART_getHandle+0x1a> @ imm = #-0x2
  2. 700a35aa: 9902         	ldr	r1, [sp, #0x8]
  3. 700a35ac: f247 40a8    	movw	r0, #0x74a8
  4. 700a35b0: f2c7 000a    	movt	r0, #0x700a
  5. 700a35b4: eb00 00c1    	add.w	r0, r0, r1, lsl #3
  6. 700a35b8: 6840         	ldr	r0, [r0, #0x4]
  7. 700a35ba: 9000         	str	r0, [sp]
  8. 700a35bc: 9800         	ldr	r0, [sp]
  9. 700a35be: b150         	cbz	r0, 0x700a35d6 <UART_getHandle+0x46> @ imm = #0x14

P_HDR Event: Idx:62122 (Pattern: EEEEEEEEE, Function: UART_getHandle)
Executed Assembly Steps:
  1. 700a35c0: e7ff         	b	0x700a35c2 <UART_getHandle+0x32> @ imm = #-0x2
  2. 700a35c2: 9800         	ldr	r0, [sp]
  3. 700a35c4: f8d0 0084    	ldr.w	r0, [r0, #0x84]
  4. 700a35c8: 2801         	cmp	r0, #0x1
  5. 700a35ca: d104         	bne	0x700a35d6 <UART_getHandle+0x46> @ imm = #0x8
  6. 700a35d6: e7ff         	b	0x700a35d8 <UART_getHandle+0x48> @ imm = #-0x2
  7. 700a35d8: 9801         	ldr	r0, [sp, #0x4]
  8. 700a35da: b003         	add	sp, #0xc
  9. 700a35dc: 4770         	bx	lr

Sync: Idx:62123; ID:10;	BRANCH_ADDRESS : Branch address.; Addr=0x700A390E ~[0xA390E];

P_HDR Event: Idx:62126 (Pattern: EEEEE, Function: DebugP_uartLogWriterPutChar)
Executed Assembly Steps:
  1. 700a390e: 9006         	str	r0, [sp, #0x18]
  2. 700a3910: 9806         	ldr	r0, [sp, #0x18]
  3. 700a3912: b170         	cbz	r0, 0x700a3932 <DebugP_uartLogWriterPutChar+0x42> @ imm = #0x1c
  4. 700a3932: b008         	add	sp, #0x20
  5. 700a3934: bd80         	pop	{r7, pc}

Sync: Idx:62128; ID:10;	BRANCH_ADDRESS : Branch address.; Addr=0x700A4A3E ~[0xA4A3E];

P_HDR Event: Idx:62131 (Pattern: EEE, Function: _out_char)
Executed Assembly Steps:
  1. 700a4a3e: e7ff         	b	0x700a4a40 <_out_char+0x20> @ imm = #-0x2
  2. 700a4a40: b004         	add	sp, #0x10
  3. 700a4a42: bd80         	pop	{r7, pc}

Sync: Idx:62132; ID:10;	BRANCH_ADDRESS : Branch address.; Addr=0x70098F58 ~[0x98F58];

P_HDR Event: Idx:62135 (Pattern: EEEEEEEN, Function: _vsnprintf)
Executed Assembly Steps:
  1. 70098f58: 983c         	ldr	r0, [sp, #0xf0]
  2. 70098f5a: 3001         	adds	r0, #0x1
  3. 70098f5c: 903c         	str	r0, [sp, #0xf0]
  4. 70098f5e: e7e6         	b	0x70098f2e <_vsnprintf+0x2e> @ imm = #-0x34
  5. 70098f2e: 983c         	ldr	r0, [sp, #0xf0]
  6. 70098f30: 7800         	ldrb	r0, [r0]
  7. 70098f32: 2800         	cmp	r0, #0x0
  8. 70098f34: f000 84e3    	beq.w	0x700998fe <_vsnprintf+0x9fe> @ imm = #0x9c6

P_HDR Event: Idx:62136 (Pattern: EEEEN, Function: _vsnprintf)
Executed Assembly Steps:
  1. 70098f38: e7ff         	b	0x70098f3a <_vsnprintf+0x3a> @ imm = #-0x2
  2. 70098f3a: 983c         	ldr	r0, [sp, #0xf0]
  3. 70098f3c: 7800         	ldrb	r0, [r0]
  4. 70098f3e: 2825         	cmp	r0, #0x25
  5. 70098f40: d00e         	beq	0x70098f60 <_vsnprintf+0x60> @ imm = #0x1c

P_HDR Event: Idx:62137 (Pattern: EEEEEEEEEE, Function: _vsnprintf)
Executed Assembly Steps:
  1. 70098f42: e7ff         	b	0x70098f44 <_vsnprintf+0x44> @ imm = #-0x2
  2. 70098f44: f8dd c0fc    	ldr.w	r12, [sp, #0xfc]
  3. 70098f48: 983c         	ldr	r0, [sp, #0xf0]
  4. 70098f4a: 7800         	ldrb	r0, [r0]
  5. 70098f4c: 993e         	ldr	r1, [sp, #0xf8]
  6. 70098f4e: 9a37         	ldr	r2, [sp, #0xdc]
  7. 70098f50: 1c53         	adds	r3, r2, #0x1
  8. 70098f52: 9337         	str	r3, [sp, #0xdc]
  9. 70098f54: 9b3d         	ldr	r3, [sp, #0xf4]
  10. 70098f56: 47e0         	blx	r12

Sync: Idx:62138; ID:10;	BRANCH_ADDRESS : Branch address.; Addr=0x700A4A20 ~[0xA4A20];

P_HDR Event: Idx:62141 (Pattern: EEEEEEEN, Function: _out_char)
Executed Assembly Steps:
  1. 700a4a20: b580         	push	{r7, lr}
  2. 700a4a22: b084         	sub	sp, #0x10
  3. 700a4a24: f88d 000f    	strb.w	r0, [sp, #0xf]
  4. 700a4a28: 9102         	str	r1, [sp, #0x8]
  5. 700a4a2a: 9201         	str	r2, [sp, #0x4]
  6. 700a4a2c: 9300         	str	r3, [sp]
  7. 700a4a2e: f89d 000f    	ldrb.w	r0, [sp, #0xf]
  8. 700a4a32: b128         	cbz	r0, 0x700a4a40 <_out_char+0x20> @ imm = #0xa

P_HDR Event: Idx:62142 (Pattern: EEEEEE, Function: _out_char)
Executed Assembly Steps:
  1. 700a4a34: e7ff         	b	0x700a4a36 <_out_char+0x16> @ imm = #-0x2
  2. 700a4a36: f89d 000f    	ldrb.w	r0, [sp, #0xf]
  3. 700a4a3a: f000 fa21    	bl	0x700a4e80 <putchar_>   @ imm = #0x442
  4. 700a4e80: b510         	push	{r4, lr}
  5. 700a4e82: 4604         	mov	r4, r0
  6. 700a4e84: f000 e9ac    	blx	0x700a51e0 <putchar>    @ imm = #0x358

Sync: Idx:62144; ID:10;	BRANCH_ADDRESS : Branch address.; Addr=0x700A51E0 ~[0x700A51E0]; ISA=ARM(32);

P_HDR Event: Idx:62149 (Pattern: EEEEEEEEE, Function: putchar)
Executed Assembly Steps:
  1. 700a51e0: e59f1004     	ldr	r1, [pc, #0x4]          @ 0x700a51ec <putchar+0xc>
  2. 700a51e4: e2811018     	add	r1, r1, #24
  3. 700a51e8: eaffe5b1     	b	0x7009e8b4 <fputc>      @ imm = #-0x693c
  4. 7009e8b4: e92d483c     	push	{r2, r3, r4, r5, r11, lr}
  5. 7009e8b8: e59f20e0     	ldr	r2, [pc, #0xe0]         @ 0x7009e9a0 <fputc+0xec>
  6. 7009e8bc: e1a04001     	mov	r4, r1
  7. 7009e8c0: e1a05000     	mov	r5, r0
  8. 7009e8c4: e5922000     	ldr	r2, [r2]
  9. 7009e8c8: e12fff32     	blx	r2

Sync: Idx:62150; ID:10;	BRANCH_ADDRESS : Branch address.; Addr=0x7009A2DC ~[0x9A2DC];

P_HDR Event: Idx:62153 (Pattern: E, Function: _nop)
Executed Assembly Steps:
  1. 7009a2dc: e12fff1e     	bx	lr

Sync: Idx:62154; ID:10;	BRANCH_ADDRESS : Branch address.; Addr=0x7009E8CC ~[0x68CC];

P_HDR Event: Idx:62156 (Pattern: EEEEEEEN, Function: fputc)
Executed Assembly Steps:
  1. 7009e8cc: e1a00004     	mov	r0, r4
  2. 7009e8d0: eb000949     	bl	0x700a0dfc <__TI_wrt_ok> @ imm = #0x2524
  3. 700a0dfc: e92d4010     	push	{r4, lr}
  4. 700a0e00: e1a04000     	mov	r4, r0
  5. 700a0e04: e5901000     	ldr	r1, [r0]
  6. 700a0e08: e3a00000     	mov	r0, #0
  7. 700a0e0c: e3710001     	cmn	r1, #1
  8. 700a0e10: 0a00001c     	beq	0x700a0e88 <__TI_wrt_ok+0x8c> @ imm = #0x70

P_HDR Event: Idx:62157 (Pattern: EEN, Function: __TI_wrt_ok)
Executed Assembly Steps:
  1. 700a0e14: e5941014     	ldr	r1, [r4, #0x14]
  2. 700a0e18: e3110010     	tst	r1, #16
  3. 700a0e1c: 1a00001a     	bne	0x700a0e8c <__TI_wrt_ok+0x90> @ imm = #0x68

P_HDR Event: Idx:62158 (Pattern: EE, Function: __TI_wrt_ok)
Executed Assembly Steps:
  1. 700a0e20: e3110080     	tst	r1, #128
  2. 700a0e24: 0a000004     	beq	0x700a0e3c <__TI_wrt_ok+0x40> @ imm = #0x10

Sync: Idx:62160; ID:10;	I_SYNC : Instruction Packet synchronisation.; (Periodic); Addr=0x700a0e3c; S;  ISA=ARM(32);

P_HDR Event: Idx:62166 (Pattern: EEEEEE, Function: __TI_wrt_ok)
Executed Assembly Steps:
  1. 700a0e3c: e2010060     	and	r0, r1, #96
  2. 700a0e40: e3500040     	cmp	r0, #64
  3. 700a0e44: 1a000001     	bne	0x700a0e50 <__TI_wrt_ok+0x54> @ imm = #0x4
  4. 700a0e50: e5942004     	ldr	r2, [r4, #0x4]
  5. 700a0e54: e3a00001     	mov	r0, #1
  6. 700a0e58: e3520000     	cmp	r2, #0

P_HDR Event: Idx:62167 (Pattern: NE, Function: __TI_wrt_ok)
Executed Assembly Steps:
  1. 700a0e5c: 02112004     	andseq	r2, r1, #4
  2. 700a0e60: 1a000006     	bne	0x700a0e80 <__TI_wrt_ok+0x84> @ imm = #0x18

P_HDR Event: Idx:62168 (Pattern: EEE, Function: __TI_wrt_ok)
Executed Assembly Steps:
  1. 700a0e80: e594100c     	ldr	r1, [r4, #0xc]
  2. 700a0e84: e5841010     	str	r1, [r4, #0x10]
  3. 700a0e88: e8bd8010     	pop	{r4, pc}

Sync: Idx:62169; ID:10;	BRANCH_ADDRESS : Branch address.; Addr=0x7009E8D4 ~[0x9E8D4];

P_HDR Event: Idx:62172 (Pattern: EN, Function: fputc)
Executed Assembly Steps:
  1. 7009e8d4: e3500000     	cmp	r0, #0
  2. 7009e8d8: 0a00000b     	beq	0x7009e90c <fputc+0x58> @ imm = #0x2c

P_HDR Event: Idx:62173 (Pattern: EEEEEEEEEEEEEEE, Function: fputc)
Executed Assembly Steps:
  1. 7009e8dc: e5940014     	ldr	r0, [r4, #0x14]
  2. 7009e8e0: e2000007     	and	r0, r0, #7
  3. 7009e8e4: e3500004     	cmp	r0, #4
  4. 7009e8e8: 1a00000a     	bne	0x7009e918 <fputc+0x64> @ imm = #0x28
  5. 7009e918: e5940008     	ldr	r0, [r4, #0x8]
  6. 7009e91c: e594100c     	ldr	r1, [r4, #0xc]
  7. 7009e920: e1500001     	cmp	r0, r1
  8. 7009e924: 3a000004     	blo	0x7009e93c <fputc+0x88> @ imm = #0x10
  9. 7009e93c: e2801001     	add	r1, r0, #1
  10. 7009e940: e355000a     	cmp	r5, #10
  11. 7009e944: e5841008     	str	r1, [r4, #0x8]
  12. 7009e948: e5c05000     	strb	r5, [r0]
  13. 7009e94c: 1a00000e     	bne	0x7009e98c <fputc+0xd8> @ imm = #0x38
  14. 7009e98c: e59f0010     	ldr	r0, [pc, #0x10]         @ 0x7009e9a4 <fputc+0xf0>
  15. 7009e990: e5900000     	ldr	r0, [r0]

P_HDR Event: Idx:62174 (Pattern: E, Function: fputc)
Executed Assembly Steps:
  1. 7009e994: e12fff30     	blx	r0

Sync: Idx:62176; ID:10;	BRANCH_ADDRESS : Branch address.; Addr=0x7009A2DC ~[0x22DC];

P_HDR Event: Idx:62178 (Pattern: E, Function: _nop)
Executed Assembly Steps:
  1. 7009a2dc: e12fff1e     	bx	lr

Sync: Idx:62179; ID:10;	BRANCH_ADDRESS : Branch address.; Addr=0x7009E998 ~[0x6998];

P_HDR Event: Idx:62181 (Pattern: EE, Function: fputc)
Executed Assembly Steps:
  1. 7009e998: e6ef0075     	uxtb	r0, r5
  2. 7009e99c: e8bd883c     	pop	{r2, r3, r4, r5, r11, pc}

Sync: Idx:62182; ID:10;	BRANCH_ADDRESS : Branch address.; Addr=0x700A4E88 ~[0x700A4E88]; ISA=Thumb2;

P_HDR Event: Idx:62187 (Pattern: EEEEEEEEEEEEEEE, Function: putchar_)
Executed Assembly Steps:
  1. 700a4e88: 4620         	mov	r0, r4
  2. 700a4e8a: f7f8 fa11    	bl	0x7009d2b0 <DebugP_memLogWriterPutChar> @ imm = #-0x7bde
  3. 7009d2b0: b580         	push	{r7, lr}
  4. 7009d2b2: b088         	sub	sp, #0x20
  5. 7009d2b4: f88d 001f    	strb.w	r0, [sp, #0x1f]
  6. 7009d2b8: f247 30cc    	movw	r0, #0x73cc
  7. 7009d2bc: f2c7 000a    	movt	r0, #0x700a
  8. 7009d2c0: 6800         	ldr	r0, [r0]
  9. 7009d2c2: bb40         	cbnz	r0, 0x7009d316 <DebugP_memLogWriterPutChar+0x66> @ imm = #0x50
  10. 7009d316: f89d 001f    	ldrb.w	r0, [sp, #0x1f]
  11. 7009d31a: f247 31cc    	movw	r1, #0x73cc
  12. 7009d31e: f2c7 010a    	movt	r1, #0x700a
  13. 7009d322: 680b         	ldr	r3, [r1]
  14. 7009d324: f644 42e0    	movw	r2, #0x4ce0
  15. 7009d328: f2c7 0208    	movt	r2, #0x7008

P_HDR Event: Idx:62188 (Pattern: EEEEEEN, Function: DebugP_memLogWriterPutChar)
Executed Assembly Steps:
  1. 7009d32c: 54d0         	strb	r0, [r2, r3]
  2. 7009d32e: 6808         	ldr	r0, [r1]
  3. 7009d330: 3001         	adds	r0, #0x1
  4. 7009d332: 6008         	str	r0, [r1]
  5. 7009d334: f89d 001f    	ldrb.w	r0, [sp, #0x1f]
  6. 7009d338: 280a         	cmp	r0, #0xa
  7. 7009d33a: d008         	beq	0x7009d34e <DebugP_memLogWriterPutChar+0x9e> @ imm = #0x10

P_HDR Event: Idx:62189 (Pattern: EEEEEEEE, Function: DebugP_memLogWriterPutChar)
Executed Assembly Steps:
  1. 7009d33c: e7ff         	b	0x7009d33e <DebugP_memLogWriterPutChar+0x8e> @ imm = #-0x2
  2. 7009d33e: f247 30cc    	movw	r0, #0x73cc
  3. 7009d342: f2c7 000a    	movt	r0, #0x700a
  4. 7009d346: 6800         	ldr	r0, [r0]
  5. 7009d348: 2878         	cmp	r0, #0x78
  6. 7009d34a: d350         	blo	0x7009d3ee <DebugP_memLogWriterPutChar+0x13e> @ imm = #0xa0
  7. 7009d3ee: b008         	add	sp, #0x20
  8. 7009d3f0: bd80         	pop	{r7, pc}

Sync: Idx:62190; ID:10;	BRANCH_ADDRESS : Branch address.; Addr=0x700A4E8E ~[0xE];

P_HDR Event: Idx:62192 (Pattern: EEEEEEEEEEEEEEE, Function: putchar_)
Executed Assembly Steps:
  1. 700a4e8e: 4620         	mov	r0, r4
  2. 700a4e90: e8bd 4010    	pop.w	{r4, lr}
  3. 700a4e94: f7fe bd2c    	b.w	0x700a38f0 <DebugP_uartLogWriterPutChar> @ imm = #-0x15a8
  4. 700a38f0: b580         	push	{r7, lr}
  5. 700a38f2: b088         	sub	sp, #0x20
  6. 700a38f4: f88d 001f    	strb.w	r0, [sp, #0x1f]
  7. 700a38f8: f89d 001f    	ldrb.w	r0, [sp, #0x1f]
  8. 700a38fc: f88d 001e    	strb.w	r0, [sp, #0x1e]
  9. 700a3900: f247 40e0    	movw	r0, #0x74e0
  10. 700a3904: f2c7 000a    	movt	r0, #0x700a
  11. 700a3908: 6800         	ldr	r0, [r0]
  12. 700a390a: f7ff fe41    	bl	0x700a3590 <UART_getHandle> @ imm = #-0x37e
  13. 700a3590: b083         	sub	sp, #0xc
  14. 700a3592: 9002         	str	r0, [sp, #0x8]
  15. 700a3594: 2000         	movs	r0, #0x0

P_HDR Event: Idx:62193 (Pattern: EEEEEEN, Function: UART_getHandle)
Executed Assembly Steps:
  1. 700a3596: 9001         	str	r0, [sp, #0x4]
  2. 700a3598: 9802         	ldr	r0, [sp, #0x8]
  3. 700a359a: f247 41e8    	movw	r1, #0x74e8
  4. 700a359e: f2c7 010a    	movt	r1, #0x700a
  5. 700a35a2: 6809         	ldr	r1, [r1]
  6. 700a35a4: 4288         	cmp	r0, r1
  7. 700a35a6: d217         	bhs	0x700a35d8 <UART_getHandle+0x48> @ imm = #0x2e

P_HDR Event: Idx:62194 (Pattern: EEEEEEEEN, Function: UART_getHandle)
Executed Assembly Steps:
  1. 700a35a8: e7ff         	b	0x700a35aa <UART_getHandle+0x1a> @ imm = #-0x2
  2. 700a35aa: 9902         	ldr	r1, [sp, #0x8]
  3. 700a35ac: f247 40a8    	movw	r0, #0x74a8
  4. 700a35b0: f2c7 000a    	movt	r0, #0x700a
  5. 700a35b4: eb00 00c1    	add.w	r0, r0, r1, lsl #3
  6. 700a35b8: 6840         	ldr	r0, [r0, #0x4]
  7. 700a35ba: 9000         	str	r0, [sp]
  8. 700a35bc: 9800         	ldr	r0, [sp]
  9. 700a35be: b150         	cbz	r0, 0x700a35d6 <UART_getHandle+0x46> @ imm = #0x14

P_HDR Event: Idx:62195 (Pattern: EEEEEEEEE, Function: UART_getHandle)
Executed Assembly Steps:
  1. 700a35c0: e7ff         	b	0x700a35c2 <UART_getHandle+0x32> @ imm = #-0x2
  2. 700a35c2: 9800         	ldr	r0, [sp]
  3. 700a35c4: f8d0 0084    	ldr.w	r0, [r0, #0x84]
  4. 700a35c8: 2801         	cmp	r0, #0x1
  5. 700a35ca: d104         	bne	0x700a35d6 <UART_getHandle+0x46> @ imm = #0x8
  6. 700a35d6: e7ff         	b	0x700a35d8 <UART_getHandle+0x48> @ imm = #-0x2
  7. 700a35d8: 9801         	ldr	r0, [sp, #0x4]
  8. 700a35da: b003         	add	sp, #0xc
  9. 700a35dc: 4770         	bx	lr

Sync: Idx:62196; ID:10;	BRANCH_ADDRESS : Branch address.; Addr=0x700A390E ~[0xA390E];

P_HDR Event: Idx:62199 (Pattern: EEEEE, Function: DebugP_uartLogWriterPutChar)
Executed Assembly Steps:
  1. 700a390e: 9006         	str	r0, [sp, #0x18]
  2. 700a3910: 9806         	ldr	r0, [sp, #0x18]
  3. 700a3912: b170         	cbz	r0, 0x700a3932 <DebugP_uartLogWriterPutChar+0x42> @ imm = #0x1c
  4. 700a3932: b008         	add	sp, #0x20
  5. 700a3934: bd80         	pop	{r7, pc}

Sync: Idx:62200; ID:10;	BRANCH_ADDRESS : Branch address.; Addr=0x700A4A3E ~[0xA4A3E];

P_HDR Event: Idx:62203 (Pattern: EEE, Function: _out_char)
Executed Assembly Steps:
  1. 700a4a3e: e7ff         	b	0x700a4a40 <_out_char+0x20> @ imm = #-0x2
  2. 700a4a40: b004         	add	sp, #0x10
  3. 700a4a42: bd80         	pop	{r7, pc}

Sync: Idx:62204; ID:10;	BRANCH_ADDRESS : Branch address.; Addr=0x70098F58 ~[0x98F58];

P_HDR Event: Idx:62208 (Pattern: EEEEEEEN, Function: _vsnprintf)
Executed Assembly Steps:
  1. 70098f58: 983c         	ldr	r0, [sp, #0xf0]
  2. 70098f5a: 3001         	adds	r0, #0x1
  3. 70098f5c: 903c         	str	r0, [sp, #0xf0]
  4. 70098f5e: e7e6         	b	0x70098f2e <_vsnprintf+0x2e> @ imm = #-0x34
  5. 70098f2e: 983c         	ldr	r0, [sp, #0xf0]
  6. 70098f30: 7800         	ldrb	r0, [r0]
  7. 70098f32: 2800         	cmp	r0, #0x0
  8. 70098f34: f000 84e3    	beq.w	0x700998fe <_vsnprintf+0x9fe> @ imm = #0x9c6

P_HDR Event: Idx:62209 (Pattern: EEEEN, Function: _vsnprintf)
Executed Assembly Steps:
  1. 70098f38: e7ff         	b	0x70098f3a <_vsnprintf+0x3a> @ imm = #-0x2
  2. 70098f3a: 983c         	ldr	r0, [sp, #0xf0]
  3. 70098f3c: 7800         	ldrb	r0, [r0]
  4. 70098f3e: 2825         	cmp	r0, #0x25
  5. 70098f40: d00e         	beq	0x70098f60 <_vsnprintf+0x60> @ imm = #0x1c

P_HDR Event: Idx:62210 (Pattern: EEEEEEEEEE, Function: _vsnprintf)
Executed Assembly Steps:
  1. 70098f42: e7ff         	b	0x70098f44 <_vsnprintf+0x44> @ imm = #-0x2
  2. 70098f44: f8dd c0fc    	ldr.w	r12, [sp, #0xfc]
  3. 70098f48: 983c         	ldr	r0, [sp, #0xf0]
  4. 70098f4a: 7800         	ldrb	r0, [r0]
  5. 70098f4c: 993e         	ldr	r1, [sp, #0xf8]
  6. 70098f4e: 9a37         	ldr	r2, [sp, #0xdc]
  7. 70098f50: 1c53         	adds	r3, r2, #0x1
  8. 70098f52: 9337         	str	r3, [sp, #0xdc]
  9. 70098f54: 9b3d         	ldr	r3, [sp, #0xf4]
  10. 70098f56: 47e0         	blx	r12

Sync: Idx:62211; ID:10;	BRANCH_ADDRESS : Branch address.; Addr=0x700A4A20 ~[0xA4A20];

P_HDR Event: Idx:62214 (Pattern: EEEEEEEN, Function: _out_char)
Executed Assembly Steps:
  1. 700a4a20: b580         	push	{r7, lr}
  2. 700a4a22: b084         	sub	sp, #0x10
  3. 700a4a24: f88d 000f    	strb.w	r0, [sp, #0xf]
  4. 700a4a28: 9102         	str	r1, [sp, #0x8]
  5. 700a4a2a: 9201         	str	r2, [sp, #0x4]
  6. 700a4a2c: 9300         	str	r3, [sp]
  7. 700a4a2e: f89d 000f    	ldrb.w	r0, [sp, #0xf]
  8. 700a4a32: b128         	cbz	r0, 0x700a4a40 <_out_char+0x20> @ imm = #0xa

P_HDR Event: Idx:62215 (Pattern: EEEEEE, Function: _out_char)
Executed Assembly Steps:
  1. 700a4a34: e7ff         	b	0x700a4a36 <_out_char+0x16> @ imm = #-0x2
  2. 700a4a36: f89d 000f    	ldrb.w	r0, [sp, #0xf]
  3. 700a4a3a: f000 fa21    	bl	0x700a4e80 <putchar_>   @ imm = #0x442
  4. 700a4e80: b510         	push	{r4, lr}
  5. 700a4e82: 4604         	mov	r4, r0
  6. 700a4e84: f000 e9ac    	blx	0x700a51e0 <putchar>    @ imm = #0x358

Sync: Idx:62216; ID:10;	BRANCH_ADDRESS : Branch address.; Addr=0x700A51E0 ~[0x700A51E0]; ISA=ARM(32);

P_HDR Event: Idx:62221 (Pattern: EEEEEEEEE, Function: putchar)
Executed Assembly Steps:
  1. 700a51e0: e59f1004     	ldr	r1, [pc, #0x4]          @ 0x700a51ec <putchar+0xc>
  2. 700a51e4: e2811018     	add	r1, r1, #24
  3. 700a51e8: eaffe5b1     	b	0x7009e8b4 <fputc>      @ imm = #-0x693c
  4. 7009e8b4: e92d483c     	push	{r2, r3, r4, r5, r11, lr}
  5. 7009e8b8: e59f20e0     	ldr	r2, [pc, #0xe0]         @ 0x7009e9a0 <fputc+0xec>
  6. 7009e8bc: e1a04001     	mov	r4, r1
  7. 7009e8c0: e1a05000     	mov	r5, r0
  8. 7009e8c4: e5922000     	ldr	r2, [r2]
  9. 7009e8c8: e12fff32     	blx	r2

Sync: Idx:62222; ID:10;	BRANCH_ADDRESS : Branch address.; Addr=0x7009A2DC ~[0x9A2DC];

P_HDR Event: Idx:62226 (Pattern: E, Function: _nop)
Executed Assembly Steps:
  1. 7009a2dc: e12fff1e     	bx	lr

Sync: Idx:62227; ID:10;	BRANCH_ADDRESS : Branch address.; Addr=0x7009E8CC ~[0x68CC];

P_HDR Event: Idx:62229 (Pattern: EEEEEEEN, Function: fputc)
Executed Assembly Steps:
  1. 7009e8cc: e1a00004     	mov	r0, r4
  2. 7009e8d0: eb000949     	bl	0x700a0dfc <__TI_wrt_ok> @ imm = #0x2524
  3. 700a0dfc: e92d4010     	push	{r4, lr}
  4. 700a0e00: e1a04000     	mov	r4, r0
  5. 700a0e04: e5901000     	ldr	r1, [r0]
  6. 700a0e08: e3a00000     	mov	r0, #0
  7. 700a0e0c: e3710001     	cmn	r1, #1
  8. 700a0e10: 0a00001c     	beq	0x700a0e88 <__TI_wrt_ok+0x8c> @ imm = #0x70

P_HDR Event: Idx:62230 (Pattern: EEN, Function: __TI_wrt_ok)
Executed Assembly Steps:
  1. 700a0e14: e5941014     	ldr	r1, [r4, #0x14]
  2. 700a0e18: e3110010     	tst	r1, #16
  3. 700a0e1c: 1a00001a     	bne	0x700a0e8c <__TI_wrt_ok+0x90> @ imm = #0x68

P_HDR Event: Idx:62231 (Pattern: EEEEEEEE, Function: __TI_wrt_ok)
Executed Assembly Steps:
  1. 700a0e20: e3110080     	tst	r1, #128
  2. 700a0e24: 0a000004     	beq	0x700a0e3c <__TI_wrt_ok+0x40> @ imm = #0x10
  3. 700a0e3c: e2010060     	and	r0, r1, #96
  4. 700a0e40: e3500040     	cmp	r0, #64
  5. 700a0e44: 1a000001     	bne	0x700a0e50 <__TI_wrt_ok+0x54> @ imm = #0x4
  6. 700a0e50: e5942004     	ldr	r2, [r4, #0x4]
  7. 700a0e54: e3a00001     	mov	r0, #1
  8. 700a0e58: e3520000     	cmp	r2, #0

P_HDR Event: Idx:62232 (Pattern: NE, Function: __TI_wrt_ok)
Executed Assembly Steps:
  1. 700a0e5c: 02112004     	andseq	r2, r1, #4
  2. 700a0e60: 1a000006     	bne	0x700a0e80 <__TI_wrt_ok+0x84> @ imm = #0x18

P_HDR Event: Idx:62233 (Pattern: EEE, Function: __TI_wrt_ok)
Executed Assembly Steps:
  1. 700a0e80: e594100c     	ldr	r1, [r4, #0xc]
  2. 700a0e84: e5841010     	str	r1, [r4, #0x10]
  3. 700a0e88: e8bd8010     	pop	{r4, pc}

Sync: Idx:62234; ID:10;	BRANCH_ADDRESS : Branch address.; Addr=0x7009E8D4 ~[0xD4];

P_HDR Event: Idx:62235 (Pattern: EN, Function: fputc)
Executed Assembly Steps:
  1. 7009e8d4: e3500000     	cmp	r0, #0
  2. 7009e8d8: 0a00000b     	beq	0x7009e90c <fputc+0x58> @ imm = #0x2c

P_HDR Event: Idx:62236 (Pattern: EEEEEEEEEEEEEEE, Function: fputc)
Executed Assembly Steps:
  1. 7009e8dc: e5940014     	ldr	r0, [r4, #0x14]
  2. 7009e8e0: e2000007     	and	r0, r0, #7
  3. 7009e8e4: e3500004     	cmp	r0, #4
  4. 7009e8e8: 1a00000a     	bne	0x7009e918 <fputc+0x64> @ imm = #0x28
  5. 7009e918: e5940008     	ldr	r0, [r4, #0x8]
  6. 7009e91c: e594100c     	ldr	r1, [r4, #0xc]
  7. 7009e920: e1500001     	cmp	r0, r1
  8. 7009e924: 3a000004     	blo	0x7009e93c <fputc+0x88> @ imm = #0x10
  9. 7009e93c: e2801001     	add	r1, r0, #1
  10. 7009e940: e355000a     	cmp	r5, #10
  11. 7009e944: e5841008     	str	r1, [r4, #0x8]
  12. 7009e948: e5c05000     	strb	r5, [r0]
  13. 7009e94c: 1a00000e     	bne	0x7009e98c <fputc+0xd8> @ imm = #0x38
  14. 7009e98c: e59f0010     	ldr	r0, [pc, #0x10]         @ 0x7009e9a4 <fputc+0xf0>
  15. 7009e990: e5900000     	ldr	r0, [r0]

P_HDR Event: Idx:62237 (Pattern: E, Function: fputc)
Executed Assembly Steps:
  1. 7009e994: e12fff30     	blx	r0

Sync: Idx:62238; ID:10;	BRANCH_ADDRESS : Branch address.; Addr=0x7009A2DC ~[0x22DC];

P_HDR Event: Idx:62241 (Pattern: E, Function: _nop)
Executed Assembly Steps:
  1. 7009a2dc: e12fff1e     	bx	lr

Sync: Idx:62242; ID:10;	BRANCH_ADDRESS : Branch address.; Addr=0x7009E998 ~[0x6998];

P_HDR Event: Idx:62244 (Pattern: EE, Function: fputc)
Executed Assembly Steps:
  1. 7009e998: e6ef0075     	uxtb	r0, r5
  2. 7009e99c: e8bd883c     	pop	{r2, r3, r4, r5, r11, pc}

Sync: Idx:62245; ID:10;	BRANCH_ADDRESS : Branch address.; Addr=0x700A4E88 ~[0x700A4E88]; ISA=Thumb2;

P_HDR Event: Idx:62250 (Pattern: EEEEEEEEEEEEEEE, Function: putchar_)
Executed Assembly Steps:
  1. 700a4e88: 4620         	mov	r0, r4
  2. 700a4e8a: f7f8 fa11    	bl	0x7009d2b0 <DebugP_memLogWriterPutChar> @ imm = #-0x7bde
  3. 7009d2b0: b580         	push	{r7, lr}
  4. 7009d2b2: b088         	sub	sp, #0x20
  5. 7009d2b4: f88d 001f    	strb.w	r0, [sp, #0x1f]
  6. 7009d2b8: f247 30cc    	movw	r0, #0x73cc
  7. 7009d2bc: f2c7 000a    	movt	r0, #0x700a
  8. 7009d2c0: 6800         	ldr	r0, [r0]
  9. 7009d2c2: bb40         	cbnz	r0, 0x7009d316 <DebugP_memLogWriterPutChar+0x66> @ imm = #0x50
  10. 7009d316: f89d 001f    	ldrb.w	r0, [sp, #0x1f]
  11. 7009d31a: f247 31cc    	movw	r1, #0x73cc
  12. 7009d31e: f2c7 010a    	movt	r1, #0x700a
  13. 7009d322: 680b         	ldr	r3, [r1]
  14. 7009d324: f644 42e0    	movw	r2, #0x4ce0
  15. 7009d328: f2c7 0208    	movt	r2, #0x7008

P_HDR Event: Idx:62251 (Pattern: EEEEEEN, Function: DebugP_memLogWriterPutChar)
Executed Assembly Steps:
  1. 7009d32c: 54d0         	strb	r0, [r2, r3]
  2. 7009d32e: 6808         	ldr	r0, [r1]
  3. 7009d330: 3001         	adds	r0, #0x1
  4. 7009d332: 6008         	str	r0, [r1]
  5. 7009d334: f89d 001f    	ldrb.w	r0, [sp, #0x1f]
  6. 7009d338: 280a         	cmp	r0, #0xa
  7. 7009d33a: d008         	beq	0x7009d34e <DebugP_memLogWriterPutChar+0x9e> @ imm = #0x10

P_HDR Event: Idx:62252 (Pattern: EEEEEEEE, Function: DebugP_memLogWriterPutChar)
Executed Assembly Steps:
  1. 7009d33c: e7ff         	b	0x7009d33e <DebugP_memLogWriterPutChar+0x8e> @ imm = #-0x2
  2. 7009d33e: f247 30cc    	movw	r0, #0x73cc
  3. 7009d342: f2c7 000a    	movt	r0, #0x700a
  4. 7009d346: 6800         	ldr	r0, [r0]
  5. 7009d348: 2878         	cmp	r0, #0x78
  6. 7009d34a: d350         	blo	0x7009d3ee <DebugP_memLogWriterPutChar+0x13e> @ imm = #0xa0
  7. 7009d3ee: b008         	add	sp, #0x20
  8. 7009d3f0: bd80         	pop	{r7, pc}

Sync: Idx:62253; ID:10;	BRANCH_ADDRESS : Branch address.; Addr=0x700A4E8E ~[0xE];

P_HDR Event: Idx:62254 (Pattern: EEEEEEEEEEEEEEE, Function: putchar_)
Executed Assembly Steps:
  1. 700a4e8e: 4620         	mov	r0, r4
  2. 700a4e90: e8bd 4010    	pop.w	{r4, lr}
  3. 700a4e94: f7fe bd2c    	b.w	0x700a38f0 <DebugP_uartLogWriterPutChar> @ imm = #-0x15a8
  4. 700a38f0: b580         	push	{r7, lr}
  5. 700a38f2: b088         	sub	sp, #0x20
  6. 700a38f4: f88d 001f    	strb.w	r0, [sp, #0x1f]
  7. 700a38f8: f89d 001f    	ldrb.w	r0, [sp, #0x1f]
  8. 700a38fc: f88d 001e    	strb.w	r0, [sp, #0x1e]
  9. 700a3900: f247 40e0    	movw	r0, #0x74e0
  10. 700a3904: f2c7 000a    	movt	r0, #0x700a
  11. 700a3908: 6800         	ldr	r0, [r0]
  12. 700a390a: f7ff fe41    	bl	0x700a3590 <UART_getHandle> @ imm = #-0x37e
  13. 700a3590: b083         	sub	sp, #0xc
  14. 700a3592: 9002         	str	r0, [sp, #0x8]
  15. 700a3594: 2000         	movs	r0, #0x0

P_HDR Event: Idx:62256 (Pattern: EEEEEEN, Function: UART_getHandle)
Executed Assembly Steps:
  1. 700a3596: 9001         	str	r0, [sp, #0x4]
  2. 700a3598: 9802         	ldr	r0, [sp, #0x8]
  3. 700a359a: f247 41e8    	movw	r1, #0x74e8
  4. 700a359e: f2c7 010a    	movt	r1, #0x700a
  5. 700a35a2: 6809         	ldr	r1, [r1]
  6. 700a35a4: 4288         	cmp	r0, r1
  7. 700a35a6: d217         	bhs	0x700a35d8 <UART_getHandle+0x48> @ imm = #0x2e

P_HDR Event: Idx:62257 (Pattern: EEEEEEEEN, Function: UART_getHandle)
Executed Assembly Steps:
  1. 700a35a8: e7ff         	b	0x700a35aa <UART_getHandle+0x1a> @ imm = #-0x2
  2. 700a35aa: 9902         	ldr	r1, [sp, #0x8]
  3. 700a35ac: f247 40a8    	movw	r0, #0x74a8
  4. 700a35b0: f2c7 000a    	movt	r0, #0x700a
  5. 700a35b4: eb00 00c1    	add.w	r0, r0, r1, lsl #3
  6. 700a35b8: 6840         	ldr	r0, [r0, #0x4]
  7. 700a35ba: 9000         	str	r0, [sp]
  8. 700a35bc: 9800         	ldr	r0, [sp]
  9. 700a35be: b150         	cbz	r0, 0x700a35d6 <UART_getHandle+0x46> @ imm = #0x14

P_HDR Event: Idx:62258 (Pattern: EEEEEEEEE, Function: UART_getHandle)
Executed Assembly Steps:
  1. 700a35c0: e7ff         	b	0x700a35c2 <UART_getHandle+0x32> @ imm = #-0x2
  2. 700a35c2: 9800         	ldr	r0, [sp]
  3. 700a35c4: f8d0 0084    	ldr.w	r0, [r0, #0x84]
  4. 700a35c8: 2801         	cmp	r0, #0x1
  5. 700a35ca: d104         	bne	0x700a35d6 <UART_getHandle+0x46> @ imm = #0x8
  6. 700a35d6: e7ff         	b	0x700a35d8 <UART_getHandle+0x48> @ imm = #-0x2
  7. 700a35d8: 9801         	ldr	r0, [sp, #0x4]
  8. 700a35da: b003         	add	sp, #0xc
  9. 700a35dc: 4770         	bx	lr

Sync: Idx:62259; ID:10;	BRANCH_ADDRESS : Branch address.; Addr=0x700A390E ~[0xA390E];

P_HDR Event: Idx:62262 (Pattern: EEEEE, Function: DebugP_uartLogWriterPutChar)
Executed Assembly Steps:
  1. 700a390e: 9006         	str	r0, [sp, #0x18]
  2. 700a3910: 9806         	ldr	r0, [sp, #0x18]
  3. 700a3912: b170         	cbz	r0, 0x700a3932 <DebugP_uartLogWriterPutChar+0x42> @ imm = #0x1c
  4. 700a3932: b008         	add	sp, #0x20
  5. 700a3934: bd80         	pop	{r7, pc}

Sync: Idx:62263; ID:10;	BRANCH_ADDRESS : Branch address.; Addr=0x700A4A3E ~[0xA4A3E];

P_HDR Event: Idx:62266 (Pattern: EEE, Function: _out_char)
Executed Assembly Steps:
  1. 700a4a3e: e7ff         	b	0x700a4a40 <_out_char+0x20> @ imm = #-0x2
  2. 700a4a40: b004         	add	sp, #0x10
  3. 700a4a42: bd80         	pop	{r7, pc}

Sync: Idx:62267; ID:10;	BRANCH_ADDRESS : Branch address.; Addr=0x70098F58 ~[0x98F58];

P_HDR Event: Idx:62270 (Pattern: EEEEEEEN, Function: _vsnprintf)
Executed Assembly Steps:
  1. 70098f58: 983c         	ldr	r0, [sp, #0xf0]
  2. 70098f5a: 3001         	adds	r0, #0x1
  3. 70098f5c: 903c         	str	r0, [sp, #0xf0]
  4. 70098f5e: e7e6         	b	0x70098f2e <_vsnprintf+0x2e> @ imm = #-0x34
  5. 70098f2e: 983c         	ldr	r0, [sp, #0xf0]
  6. 70098f30: 7800         	ldrb	r0, [r0]
  7. 70098f32: 2800         	cmp	r0, #0x0
  8. 70098f34: f000 84e3    	beq.w	0x700998fe <_vsnprintf+0x9fe> @ imm = #0x9c6

P_HDR Event: Idx:62272 (Pattern: EEEEN, Function: _vsnprintf)
Executed Assembly Steps:
  1. 70098f38: e7ff         	b	0x70098f3a <_vsnprintf+0x3a> @ imm = #-0x2
  2. 70098f3a: 983c         	ldr	r0, [sp, #0xf0]
  3. 70098f3c: 7800         	ldrb	r0, [r0]
  4. 70098f3e: 2825         	cmp	r0, #0x25
  5. 70098f40: d00e         	beq	0x70098f60 <_vsnprintf+0x60> @ imm = #0x1c

P_HDR Event: Idx:62273 (Pattern: EEEEEEEEEE, Function: _vsnprintf)
Executed Assembly Steps:
  1. 70098f42: e7ff         	b	0x70098f44 <_vsnprintf+0x44> @ imm = #-0x2
  2. 70098f44: f8dd c0fc    	ldr.w	r12, [sp, #0xfc]
  3. 70098f48: 983c         	ldr	r0, [sp, #0xf0]
  4. 70098f4a: 7800         	ldrb	r0, [r0]
  5. 70098f4c: 993e         	ldr	r1, [sp, #0xf8]
  6. 70098f4e: 9a37         	ldr	r2, [sp, #0xdc]
  7. 70098f50: 1c53         	adds	r3, r2, #0x1
  8. 70098f52: 9337         	str	r3, [sp, #0xdc]
  9. 70098f54: 9b3d         	ldr	r3, [sp, #0xf4]
  10. 70098f56: 47e0         	blx	r12

Sync: Idx:62274; ID:10;	BRANCH_ADDRESS : Branch address.; Addr=0x700A4A20 ~[0xA4A20];

P_HDR Event: Idx:62277 (Pattern: EEEEEEEN, Function: _out_char)
Executed Assembly Steps:
  1. 700a4a20: b580         	push	{r7, lr}
  2. 700a4a22: b084         	sub	sp, #0x10
  3. 700a4a24: f88d 000f    	strb.w	r0, [sp, #0xf]
  4. 700a4a28: 9102         	str	r1, [sp, #0x8]
  5. 700a4a2a: 9201         	str	r2, [sp, #0x4]
  6. 700a4a2c: 9300         	str	r3, [sp]
  7. 700a4a2e: f89d 000f    	ldrb.w	r0, [sp, #0xf]
  8. 700a4a32: b128         	cbz	r0, 0x700a4a40 <_out_char+0x20> @ imm = #0xa

P_HDR Event: Idx:62278 (Pattern: EEEEEE, Function: _out_char)
Executed Assembly Steps:
  1. 700a4a34: e7ff         	b	0x700a4a36 <_out_char+0x16> @ imm = #-0x2
  2. 700a4a36: f89d 000f    	ldrb.w	r0, [sp, #0xf]
  3. 700a4a3a: f000 fa21    	bl	0x700a4e80 <putchar_>   @ imm = #0x442
  4. 700a4e80: b510         	push	{r4, lr}
  5. 700a4e82: 4604         	mov	r4, r0
  6. 700a4e84: f000 e9ac    	blx	0x700a51e0 <putchar>    @ imm = #0x358

Sync: Idx:62279; ID:10;	BRANCH_ADDRESS : Branch address.; Addr=0x700A51E0 ~[0x700A51E0]; ISA=ARM(32);

P_HDR Event: Idx:62284 (Pattern: EEEEEEEEE, Function: putchar)
Executed Assembly Steps:
  1. 700a51e0: e59f1004     	ldr	r1, [pc, #0x4]          @ 0x700a51ec <putchar+0xc>
  2. 700a51e4: e2811018     	add	r1, r1, #24
  3. 700a51e8: eaffe5b1     	b	0x7009e8b4 <fputc>      @ imm = #-0x693c
  4. 7009e8b4: e92d483c     	push	{r2, r3, r4, r5, r11, lr}
  5. 7009e8b8: e59f20e0     	ldr	r2, [pc, #0xe0]         @ 0x7009e9a0 <fputc+0xec>
  6. 7009e8bc: e1a04001     	mov	r4, r1
  7. 7009e8c0: e1a05000     	mov	r5, r0
  8. 7009e8c4: e5922000     	ldr	r2, [r2]
  9. 7009e8c8: e12fff32     	blx	r2

Sync: Idx:62285; ID:10;	BRANCH_ADDRESS : Branch address.; Addr=0x7009A2DC ~[0x9A2DC];

P_HDR Event: Idx:62289 (Pattern: E, Function: _nop)
Executed Assembly Steps:
  1. 7009a2dc: e12fff1e     	bx	lr

Sync: Idx:62290; ID:10;	BRANCH_ADDRESS : Branch address.; Addr=0x7009E8CC ~[0x68CC];

P_HDR Event: Idx:62292 (Pattern: EEEEEEEN, Function: fputc)
Executed Assembly Steps:
  1. 7009e8cc: e1a00004     	mov	r0, r4
  2. 7009e8d0: eb000949     	bl	0x700a0dfc <__TI_wrt_ok> @ imm = #0x2524
  3. 700a0dfc: e92d4010     	push	{r4, lr}
  4. 700a0e00: e1a04000     	mov	r4, r0
  5. 700a0e04: e5901000     	ldr	r1, [r0]
  6. 700a0e08: e3a00000     	mov	r0, #0
  7. 700a0e0c: e3710001     	cmn	r1, #1
  8. 700a0e10: 0a00001c     	beq	0x700a0e88 <__TI_wrt_ok+0x8c> @ imm = #0x70

P_HDR Event: Idx:62293 (Pattern: EEN, Function: __TI_wrt_ok)
Executed Assembly Steps:
  1. 700a0e14: e5941014     	ldr	r1, [r4, #0x14]
  2. 700a0e18: e3110010     	tst	r1, #16
  3. 700a0e1c: 1a00001a     	bne	0x700a0e8c <__TI_wrt_ok+0x90> @ imm = #0x68

P_HDR Event: Idx:62294 (Pattern: EEEEEEEE, Function: __TI_wrt_ok)
Executed Assembly Steps:
  1. 700a0e20: e3110080     	tst	r1, #128
  2. 700a0e24: 0a000004     	beq	0x700a0e3c <__TI_wrt_ok+0x40> @ imm = #0x10
  3. 700a0e3c: e2010060     	and	r0, r1, #96
  4. 700a0e40: e3500040     	cmp	r0, #64
  5. 700a0e44: 1a000001     	bne	0x700a0e50 <__TI_wrt_ok+0x54> @ imm = #0x4
  6. 700a0e50: e5942004     	ldr	r2, [r4, #0x4]
  7. 700a0e54: e3a00001     	mov	r0, #1
  8. 700a0e58: e3520000     	cmp	r2, #0

P_HDR Event: Idx:62295 (Pattern: NE, Function: __TI_wrt_ok)
Executed Assembly Steps:
  1. 700a0e5c: 02112004     	andseq	r2, r1, #4
  2. 700a0e60: 1a000006     	bne	0x700a0e80 <__TI_wrt_ok+0x84> @ imm = #0x18

P_HDR Event: Idx:62296 (Pattern: EEE, Function: __TI_wrt_ok)
Executed Assembly Steps:
  1. 700a0e80: e594100c     	ldr	r1, [r4, #0xc]
  2. 700a0e84: e5841010     	str	r1, [r4, #0x10]
  3. 700a0e88: e8bd8010     	pop	{r4, pc}

Sync: Idx:62297; ID:10;	BRANCH_ADDRESS : Branch address.; Addr=0x7009E8D4 ~[0xD4];

P_HDR Event: Idx:62298 (Pattern: EN, Function: fputc)
Executed Assembly Steps:
  1. 7009e8d4: e3500000     	cmp	r0, #0
  2. 7009e8d8: 0a00000b     	beq	0x7009e90c <fputc+0x58> @ imm = #0x2c

P_HDR Event: Idx:62299 (Pattern: EEEEEEEEEEEEEEE, Function: fputc)
Executed Assembly Steps:
  1. 7009e8dc: e5940014     	ldr	r0, [r4, #0x14]
  2. 7009e8e0: e2000007     	and	r0, r0, #7
  3. 7009e8e4: e3500004     	cmp	r0, #4
  4. 7009e8e8: 1a00000a     	bne	0x7009e918 <fputc+0x64> @ imm = #0x28
  5. 7009e918: e5940008     	ldr	r0, [r4, #0x8]
  6. 7009e91c: e594100c     	ldr	r1, [r4, #0xc]
  7. 7009e920: e1500001     	cmp	r0, r1
  8. 7009e924: 3a000004     	blo	0x7009e93c <fputc+0x88> @ imm = #0x10
  9. 7009e93c: e2801001     	add	r1, r0, #1
  10. 7009e940: e355000a     	cmp	r5, #10
  11. 7009e944: e5841008     	str	r1, [r4, #0x8]
  12. 7009e948: e5c05000     	strb	r5, [r0]
  13. 7009e94c: 1a00000e     	bne	0x7009e98c <fputc+0xd8> @ imm = #0x38
  14. 7009e98c: e59f0010     	ldr	r0, [pc, #0x10]         @ 0x7009e9a4 <fputc+0xf0>
  15. 7009e990: e5900000     	ldr	r0, [r0]

P_HDR Event: Idx:62300 (Pattern: E, Function: fputc)
Executed Assembly Steps:
  1. 7009e994: e12fff30     	blx	r0

Sync: Idx:62301; ID:10;	BRANCH_ADDRESS : Branch address.; Addr=0x7009A2DC ~[0x22DC];

P_HDR Event: Idx:62304 (Pattern: E, Function: _nop)
Executed Assembly Steps:
  1. 7009a2dc: e12fff1e     	bx	lr

Sync: Idx:62305; ID:10;	BRANCH_ADDRESS : Branch address.; Addr=0x7009E998 ~[0x6998];

P_HDR Event: Idx:62307 (Pattern: EE, Function: fputc)
Executed Assembly Steps:
  1. 7009e998: e6ef0075     	uxtb	r0, r5
  2. 7009e99c: e8bd883c     	pop	{r2, r3, r4, r5, r11, pc}

Sync: Idx:62308; ID:10;	BRANCH_ADDRESS : Branch address.; Addr=0x700A4E88 ~[0x700A4E88]; ISA=Thumb2;

P_HDR Event: Idx:62315 (Pattern: EEEEEEEEEEEEEEE, Function: putchar_)
Executed Assembly Steps:
  1. 700a4e88: 4620         	mov	r0, r4
  2. 700a4e8a: f7f8 fa11    	bl	0x7009d2b0 <DebugP_memLogWriterPutChar> @ imm = #-0x7bde
  3. 7009d2b0: b580         	push	{r7, lr}
  4. 7009d2b2: b088         	sub	sp, #0x20
  5. 7009d2b4: f88d 001f    	strb.w	r0, [sp, #0x1f]
  6. 7009d2b8: f247 30cc    	movw	r0, #0x73cc
  7. 7009d2bc: f2c7 000a    	movt	r0, #0x700a
  8. 7009d2c0: 6800         	ldr	r0, [r0]
  9. 7009d2c2: bb40         	cbnz	r0, 0x7009d316 <DebugP_memLogWriterPutChar+0x66> @ imm = #0x50
  10. 7009d316: f89d 001f    	ldrb.w	r0, [sp, #0x1f]
  11. 7009d31a: f247 31cc    	movw	r1, #0x73cc
  12. 7009d31e: f2c7 010a    	movt	r1, #0x700a
  13. 7009d322: 680b         	ldr	r3, [r1]
  14. 7009d324: f644 42e0    	movw	r2, #0x4ce0
  15. 7009d328: f2c7 0208    	movt	r2, #0x7008

P_HDR Event: Idx:62316 (Pattern: EEEEEEN, Function: DebugP_memLogWriterPutChar)
Executed Assembly Steps:
  1. 7009d32c: 54d0         	strb	r0, [r2, r3]
  2. 7009d32e: 6808         	ldr	r0, [r1]
  3. 7009d330: 3001         	adds	r0, #0x1
  4. 7009d332: 6008         	str	r0, [r1]
  5. 7009d334: f89d 001f    	ldrb.w	r0, [sp, #0x1f]
  6. 7009d338: 280a         	cmp	r0, #0xa
  7. 7009d33a: d008         	beq	0x7009d34e <DebugP_memLogWriterPutChar+0x9e> @ imm = #0x10

P_HDR Event: Idx:62317 (Pattern: EEEEEEEE, Function: DebugP_memLogWriterPutChar)
Executed Assembly Steps:
  1. 7009d33c: e7ff         	b	0x7009d33e <DebugP_memLogWriterPutChar+0x8e> @ imm = #-0x2
  2. 7009d33e: f247 30cc    	movw	r0, #0x73cc
  3. 7009d342: f2c7 000a    	movt	r0, #0x700a
  4. 7009d346: 6800         	ldr	r0, [r0]
  5. 7009d348: 2878         	cmp	r0, #0x78
  6. 7009d34a: d350         	blo	0x7009d3ee <DebugP_memLogWriterPutChar+0x13e> @ imm = #0xa0
  7. 7009d3ee: b008         	add	sp, #0x20
  8. 7009d3f0: bd80         	pop	{r7, pc}

Sync: Idx:62320; ID:10;	BRANCH_ADDRESS : Branch address.; Addr=0x700A4E8E ~[0xE];

P_HDR Event: Idx:62321 (Pattern: EEEEEEEEEEEEEEE, Function: putchar_)
Executed Assembly Steps:
  1. 700a4e8e: 4620         	mov	r0, r4
  2. 700a4e90: e8bd 4010    	pop.w	{r4, lr}
  3. 700a4e94: f7fe bd2c    	b.w	0x700a38f0 <DebugP_uartLogWriterPutChar> @ imm = #-0x15a8
  4. 700a38f0: b580         	push	{r7, lr}
  5. 700a38f2: b088         	sub	sp, #0x20
  6. 700a38f4: f88d 001f    	strb.w	r0, [sp, #0x1f]
  7. 700a38f8: f89d 001f    	ldrb.w	r0, [sp, #0x1f]
  8. 700a38fc: f88d 001e    	strb.w	r0, [sp, #0x1e]
  9. 700a3900: f247 40e0    	movw	r0, #0x74e0
  10. 700a3904: f2c7 000a    	movt	r0, #0x700a
  11. 700a3908: 6800         	ldr	r0, [r0]
  12. 700a390a: f7ff fe41    	bl	0x700a3590 <UART_getHandle> @ imm = #-0x37e
  13. 700a3590: b083         	sub	sp, #0xc
  14. 700a3592: 9002         	str	r0, [sp, #0x8]
  15. 700a3594: 2000         	movs	r0, #0x0

P_HDR Event: Idx:62322 (Pattern: EEEEEEN, Function: UART_getHandle)
Executed Assembly Steps:
  1. 700a3596: 9001         	str	r0, [sp, #0x4]
  2. 700a3598: 9802         	ldr	r0, [sp, #0x8]
  3. 700a359a: f247 41e8    	movw	r1, #0x74e8
  4. 700a359e: f2c7 010a    	movt	r1, #0x700a
  5. 700a35a2: 6809         	ldr	r1, [r1]
  6. 700a35a4: 4288         	cmp	r0, r1
  7. 700a35a6: d217         	bhs	0x700a35d8 <UART_getHandle+0x48> @ imm = #0x2e

P_HDR Event: Idx:62323 (Pattern: EEEEEEEEN, Function: UART_getHandle)
Executed Assembly Steps:
  1. 700a35a8: e7ff         	b	0x700a35aa <UART_getHandle+0x1a> @ imm = #-0x2
  2. 700a35aa: 9902         	ldr	r1, [sp, #0x8]
  3. 700a35ac: f247 40a8    	movw	r0, #0x74a8
  4. 700a35b0: f2c7 000a    	movt	r0, #0x700a
  5. 700a35b4: eb00 00c1    	add.w	r0, r0, r1, lsl #3
  6. 700a35b8: 6840         	ldr	r0, [r0, #0x4]
  7. 700a35ba: 9000         	str	r0, [sp]
  8. 700a35bc: 9800         	ldr	r0, [sp]
  9. 700a35be: b150         	cbz	r0, 0x700a35d6 <UART_getHandle+0x46> @ imm = #0x14

P_HDR Event: Idx:62324 (Pattern: EEEEEEEEE, Function: UART_getHandle)
Executed Assembly Steps:
  1. 700a35c0: e7ff         	b	0x700a35c2 <UART_getHandle+0x32> @ imm = #-0x2
  2. 700a35c2: 9800         	ldr	r0, [sp]
  3. 700a35c4: f8d0 0084    	ldr.w	r0, [r0, #0x84]
  4. 700a35c8: 2801         	cmp	r0, #0x1
  5. 700a35ca: d104         	bne	0x700a35d6 <UART_getHandle+0x46> @ imm = #0x8
  6. 700a35d6: e7ff         	b	0x700a35d8 <UART_getHandle+0x48> @ imm = #-0x2
  7. 700a35d8: 9801         	ldr	r0, [sp, #0x4]
  8. 700a35da: b003         	add	sp, #0xc
  9. 700a35dc: 4770         	bx	lr

Sync: Idx:62325; ID:10;	BRANCH_ADDRESS : Branch address.; Addr=0x700A390E ~[0xA390E];

P_HDR Event: Idx:62328 (Pattern: EEEEE, Function: DebugP_uartLogWriterPutChar)
Executed Assembly Steps:
  1. 700a390e: 9006         	str	r0, [sp, #0x18]
  2. 700a3910: 9806         	ldr	r0, [sp, #0x18]
  3. 700a3912: b170         	cbz	r0, 0x700a3932 <DebugP_uartLogWriterPutChar+0x42> @ imm = #0x1c
  4. 700a3932: b008         	add	sp, #0x20
  5. 700a3934: bd80         	pop	{r7, pc}

Sync: Idx:62329; ID:10;	BRANCH_ADDRESS : Branch address.; Addr=0x700A4A3E ~[0xA4A3E];

P_HDR Event: Idx:62332 (Pattern: EEE, Function: _out_char)
Executed Assembly Steps:
  1. 700a4a3e: e7ff         	b	0x700a4a40 <_out_char+0x20> @ imm = #-0x2
  2. 700a4a40: b004         	add	sp, #0x10
  3. 700a4a42: bd80         	pop	{r7, pc}

Sync: Idx:62333; ID:10;	BRANCH_ADDRESS : Branch address.; Addr=0x70098F58 ~[0x98F58];

P_HDR Event: Idx:62337 (Pattern: EEEEEEEN, Function: _vsnprintf)
Executed Assembly Steps:
  1. 70098f58: 983c         	ldr	r0, [sp, #0xf0]
  2. 70098f5a: 3001         	adds	r0, #0x1
  3. 70098f5c: 903c         	str	r0, [sp, #0xf0]
  4. 70098f5e: e7e6         	b	0x70098f2e <_vsnprintf+0x2e> @ imm = #-0x34
  5. 70098f2e: 983c         	ldr	r0, [sp, #0xf0]
  6. 70098f30: 7800         	ldrb	r0, [r0]
  7. 70098f32: 2800         	cmp	r0, #0x0
  8. 70098f34: f000 84e3    	beq.w	0x700998fe <_vsnprintf+0x9fe> @ imm = #0x9c6

P_HDR Event: Idx:62338 (Pattern: EEEEN, Function: _vsnprintf)
Executed Assembly Steps:
  1. 70098f38: e7ff         	b	0x70098f3a <_vsnprintf+0x3a> @ imm = #-0x2
  2. 70098f3a: 983c         	ldr	r0, [sp, #0xf0]
  3. 70098f3c: 7800         	ldrb	r0, [r0]
  4. 70098f3e: 2825         	cmp	r0, #0x25
  5. 70098f40: d00e         	beq	0x70098f60 <_vsnprintf+0x60> @ imm = #0x1c

P_HDR Event: Idx:62339 (Pattern: EEEEEEEEEE, Function: _vsnprintf)
Executed Assembly Steps:
  1. 70098f42: e7ff         	b	0x70098f44 <_vsnprintf+0x44> @ imm = #-0x2
  2. 70098f44: f8dd c0fc    	ldr.w	r12, [sp, #0xfc]
  3. 70098f48: 983c         	ldr	r0, [sp, #0xf0]
  4. 70098f4a: 7800         	ldrb	r0, [r0]
  5. 70098f4c: 993e         	ldr	r1, [sp, #0xf8]
  6. 70098f4e: 9a37         	ldr	r2, [sp, #0xdc]
  7. 70098f50: 1c53         	adds	r3, r2, #0x1
  8. 70098f52: 9337         	str	r3, [sp, #0xdc]
  9. 70098f54: 9b3d         	ldr	r3, [sp, #0xf4]
  10. 70098f56: 47e0         	blx	r12

Sync: Idx:62340; ID:10;	BRANCH_ADDRESS : Branch address.; Addr=0x700A4A20 ~[0xA4A20];

P_HDR Event: Idx:62343 (Pattern: EEEEEEEN, Function: _out_char)
Executed Assembly Steps:
  1. 700a4a20: b580         	push	{r7, lr}
  2. 700a4a22: b084         	sub	sp, #0x10
  3. 700a4a24: f88d 000f    	strb.w	r0, [sp, #0xf]
  4. 700a4a28: 9102         	str	r1, [sp, #0x8]
  5. 700a4a2a: 9201         	str	r2, [sp, #0x4]
  6. 700a4a2c: 9300         	str	r3, [sp]
  7. 700a4a2e: f89d 000f    	ldrb.w	r0, [sp, #0xf]
  8. 700a4a32: b128         	cbz	r0, 0x700a4a40 <_out_char+0x20> @ imm = #0xa

P_HDR Event: Idx:62344 (Pattern: EEEEEE, Function: _out_char)
Executed Assembly Steps:
  1. 700a4a34: e7ff         	b	0x700a4a36 <_out_char+0x16> @ imm = #-0x2
  2. 700a4a36: f89d 000f    	ldrb.w	r0, [sp, #0xf]
  3. 700a4a3a: f000 fa21    	bl	0x700a4e80 <putchar_>   @ imm = #0x442
  4. 700a4e80: b510         	push	{r4, lr}
  5. 700a4e82: 4604         	mov	r4, r0
  6. 700a4e84: f000 e9ac    	blx	0x700a51e0 <putchar>    @ imm = #0x358

Sync: Idx:62345; ID:10;	BRANCH_ADDRESS : Branch address.; Addr=0x700A51E0 ~[0x700A51E0]; ISA=ARM(32);

P_HDR Event: Idx:62350 (Pattern: EEEEEEEEE, Function: putchar)
Executed Assembly Steps:
  1. 700a51e0: e59f1004     	ldr	r1, [pc, #0x4]          @ 0x700a51ec <putchar+0xc>
  2. 700a51e4: e2811018     	add	r1, r1, #24
  3. 700a51e8: eaffe5b1     	b	0x7009e8b4 <fputc>      @ imm = #-0x693c
  4. 7009e8b4: e92d483c     	push	{r2, r3, r4, r5, r11, lr}
  5. 7009e8b8: e59f20e0     	ldr	r2, [pc, #0xe0]         @ 0x7009e9a0 <fputc+0xec>
  6. 7009e8bc: e1a04001     	mov	r4, r1
  7. 7009e8c0: e1a05000     	mov	r5, r0
  8. 7009e8c4: e5922000     	ldr	r2, [r2]
  9. 7009e8c8: e12fff32     	blx	r2

Sync: Idx:62352; ID:10;	BRANCH_ADDRESS : Branch address.; Addr=0x7009A2DC ~[0x9A2DC];

P_HDR Event: Idx:62355 (Pattern: E, Function: _nop)
Executed Assembly Steps:
  1. 7009a2dc: e12fff1e     	bx	lr

Sync: Idx:62356; ID:10;	BRANCH_ADDRESS : Branch address.; Addr=0x7009E8CC ~[0x68CC];

P_HDR Event: Idx:62358 (Pattern: EEEEEEEN, Function: fputc)
Executed Assembly Steps:
  1. 7009e8cc: e1a00004     	mov	r0, r4
  2. 7009e8d0: eb000949     	bl	0x700a0dfc <__TI_wrt_ok> @ imm = #0x2524
  3. 700a0dfc: e92d4010     	push	{r4, lr}
  4. 700a0e00: e1a04000     	mov	r4, r0
  5. 700a0e04: e5901000     	ldr	r1, [r0]
  6. 700a0e08: e3a00000     	mov	r0, #0
  7. 700a0e0c: e3710001     	cmn	r1, #1
  8. 700a0e10: 0a00001c     	beq	0x700a0e88 <__TI_wrt_ok+0x8c> @ imm = #0x70

P_HDR Event: Idx:62359 (Pattern: EEN, Function: __TI_wrt_ok)
Executed Assembly Steps:
  1. 700a0e14: e5941014     	ldr	r1, [r4, #0x14]
  2. 700a0e18: e3110010     	tst	r1, #16
  3. 700a0e1c: 1a00001a     	bne	0x700a0e8c <__TI_wrt_ok+0x90> @ imm = #0x68

P_HDR Event: Idx:62360 (Pattern: EEEEEEEE, Function: __TI_wrt_ok)
Executed Assembly Steps:
  1. 700a0e20: e3110080     	tst	r1, #128
  2. 700a0e24: 0a000004     	beq	0x700a0e3c <__TI_wrt_ok+0x40> @ imm = #0x10
  3. 700a0e3c: e2010060     	and	r0, r1, #96
  4. 700a0e40: e3500040     	cmp	r0, #64
  5. 700a0e44: 1a000001     	bne	0x700a0e50 <__TI_wrt_ok+0x54> @ imm = #0x4
  6. 700a0e50: e5942004     	ldr	r2, [r4, #0x4]
  7. 700a0e54: e3a00001     	mov	r0, #1
  8. 700a0e58: e3520000     	cmp	r2, #0

P_HDR Event: Idx:62361 (Pattern: NE, Function: __TI_wrt_ok)
Executed Assembly Steps:
  1. 700a0e5c: 02112004     	andseq	r2, r1, #4
  2. 700a0e60: 1a000006     	bne	0x700a0e80 <__TI_wrt_ok+0x84> @ imm = #0x18

P_HDR Event: Idx:62362 (Pattern: EEE, Function: __TI_wrt_ok)
Executed Assembly Steps:
  1. 700a0e80: e594100c     	ldr	r1, [r4, #0xc]
  2. 700a0e84: e5841010     	str	r1, [r4, #0x10]
  3. 700a0e88: e8bd8010     	pop	{r4, pc}

Sync: Idx:62363; ID:10;	BRANCH_ADDRESS : Branch address.; Addr=0x7009E8D4 ~[0xD4];

P_HDR Event: Idx:62364 (Pattern: EN, Function: fputc)
Executed Assembly Steps:
  1. 7009e8d4: e3500000     	cmp	r0, #0
  2. 7009e8d8: 0a00000b     	beq	0x7009e90c <fputc+0x58> @ imm = #0x2c

P_HDR Event: Idx:62365 (Pattern: EEEEEEEEEEEEEEE, Function: fputc)
Executed Assembly Steps:
  1. 7009e8dc: e5940014     	ldr	r0, [r4, #0x14]
  2. 7009e8e0: e2000007     	and	r0, r0, #7
  3. 7009e8e4: e3500004     	cmp	r0, #4
  4. 7009e8e8: 1a00000a     	bne	0x7009e918 <fputc+0x64> @ imm = #0x28
  5. 7009e918: e5940008     	ldr	r0, [r4, #0x8]
  6. 7009e91c: e594100c     	ldr	r1, [r4, #0xc]
  7. 7009e920: e1500001     	cmp	r0, r1
  8. 7009e924: 3a000004     	blo	0x7009e93c <fputc+0x88> @ imm = #0x10
  9. 7009e93c: e2801001     	add	r1, r0, #1
  10. 7009e940: e355000a     	cmp	r5, #10
  11. 7009e944: e5841008     	str	r1, [r4, #0x8]
  12. 7009e948: e5c05000     	strb	r5, [r0]
  13. 7009e94c: 1a00000e     	bne	0x7009e98c <fputc+0xd8> @ imm = #0x38
  14. 7009e98c: e59f0010     	ldr	r0, [pc, #0x10]         @ 0x7009e9a4 <fputc+0xf0>
  15. 7009e990: e5900000     	ldr	r0, [r0]

P_HDR Event: Idx:62366 (Pattern: E, Function: fputc)
Executed Assembly Steps:
  1. 7009e994: e12fff30     	blx	r0

Sync: Idx:62368; ID:10;	BRANCH_ADDRESS : Branch address.; Addr=0x7009A2DC ~[0x22DC];

P_HDR Event: Idx:62370 (Pattern: E, Function: _nop)
Executed Assembly Steps:
  1. 7009a2dc: e12fff1e     	bx	lr

Sync: Idx:62371; ID:10;	BRANCH_ADDRESS : Branch address.; Addr=0x7009E998 ~[0x6998];

P_HDR Event: Idx:62373 (Pattern: EE, Function: fputc)
Executed Assembly Steps:
  1. 7009e998: e6ef0075     	uxtb	r0, r5
  2. 7009e99c: e8bd883c     	pop	{r2, r3, r4, r5, r11, pc}

Sync: Idx:62374; ID:10;	BRANCH_ADDRESS : Branch address.; Addr=0x700A4E88 ~[0x700A4E88]; ISA=Thumb2;

P_HDR Event: Idx:62379 (Pattern: EEEEEEEEEEEEEEE, Function: putchar_)
Executed Assembly Steps:
  1. 700a4e88: 4620         	mov	r0, r4
  2. 700a4e8a: f7f8 fa11    	bl	0x7009d2b0 <DebugP_memLogWriterPutChar> @ imm = #-0x7bde
  3. 7009d2b0: b580         	push	{r7, lr}
  4. 7009d2b2: b088         	sub	sp, #0x20
  5. 7009d2b4: f88d 001f    	strb.w	r0, [sp, #0x1f]
  6. 7009d2b8: f247 30cc    	movw	r0, #0x73cc
  7. 7009d2bc: f2c7 000a    	movt	r0, #0x700a
  8. 7009d2c0: 6800         	ldr	r0, [r0]
  9. 7009d2c2: bb40         	cbnz	r0, 0x7009d316 <DebugP_memLogWriterPutChar+0x66> @ imm = #0x50
  10. 7009d316: f89d 001f    	ldrb.w	r0, [sp, #0x1f]
  11. 7009d31a: f247 31cc    	movw	r1, #0x73cc
  12. 7009d31e: f2c7 010a    	movt	r1, #0x700a
  13. 7009d322: 680b         	ldr	r3, [r1]
  14. 7009d324: f644 42e0    	movw	r2, #0x4ce0
  15. 7009d328: f2c7 0208    	movt	r2, #0x7008

P_HDR Event: Idx:62380 (Pattern: EEEEEEN, Function: DebugP_memLogWriterPutChar)
Executed Assembly Steps:
  1. 7009d32c: 54d0         	strb	r0, [r2, r3]
  2. 7009d32e: 6808         	ldr	r0, [r1]
  3. 7009d330: 3001         	adds	r0, #0x1
  4. 7009d332: 6008         	str	r0, [r1]
  5. 7009d334: f89d 001f    	ldrb.w	r0, [sp, #0x1f]
  6. 7009d338: 280a         	cmp	r0, #0xa
  7. 7009d33a: d008         	beq	0x7009d34e <DebugP_memLogWriterPutChar+0x9e> @ imm = #0x10

P_HDR Event: Idx:62381 (Pattern: EEEEEEEE, Function: DebugP_memLogWriterPutChar)
Executed Assembly Steps:
  1. 7009d33c: e7ff         	b	0x7009d33e <DebugP_memLogWriterPutChar+0x8e> @ imm = #-0x2
  2. 7009d33e: f247 30cc    	movw	r0, #0x73cc
  3. 7009d342: f2c7 000a    	movt	r0, #0x700a
  4. 7009d346: 6800         	ldr	r0, [r0]
  5. 7009d348: 2878         	cmp	r0, #0x78
  6. 7009d34a: d350         	blo	0x7009d3ee <DebugP_memLogWriterPutChar+0x13e> @ imm = #0xa0
  7. 7009d3ee: b008         	add	sp, #0x20
  8. 7009d3f0: bd80         	pop	{r7, pc}

Sync: Idx:62382; ID:10;	BRANCH_ADDRESS : Branch address.; Addr=0x700A4E8E ~[0xE];

P_HDR Event: Idx:62384 (Pattern: EEEEEEEEEEEEEEE, Function: putchar_)
Executed Assembly Steps:
  1. 700a4e8e: 4620         	mov	r0, r4
  2. 700a4e90: e8bd 4010    	pop.w	{r4, lr}
  3. 700a4e94: f7fe bd2c    	b.w	0x700a38f0 <DebugP_uartLogWriterPutChar> @ imm = #-0x15a8
  4. 700a38f0: b580         	push	{r7, lr}
  5. 700a38f2: b088         	sub	sp, #0x20
  6. 700a38f4: f88d 001f    	strb.w	r0, [sp, #0x1f]
  7. 700a38f8: f89d 001f    	ldrb.w	r0, [sp, #0x1f]
  8. 700a38fc: f88d 001e    	strb.w	r0, [sp, #0x1e]
  9. 700a3900: f247 40e0    	movw	r0, #0x74e0
  10. 700a3904: f2c7 000a    	movt	r0, #0x700a
  11. 700a3908: 6800         	ldr	r0, [r0]
  12. 700a390a: f7ff fe41    	bl	0x700a3590 <UART_getHandle> @ imm = #-0x37e
  13. 700a3590: b083         	sub	sp, #0xc
  14. 700a3592: 9002         	str	r0, [sp, #0x8]
  15. 700a3594: 2000         	movs	r0, #0x0

P_HDR Event: Idx:62385 (Pattern: EEEEEEN, Function: UART_getHandle)
Executed Assembly Steps:
  1. 700a3596: 9001         	str	r0, [sp, #0x4]
  2. 700a3598: 9802         	ldr	r0, [sp, #0x8]
  3. 700a359a: f247 41e8    	movw	r1, #0x74e8
  4. 700a359e: f2c7 010a    	movt	r1, #0x700a
  5. 700a35a2: 6809         	ldr	r1, [r1]
  6. 700a35a4: 4288         	cmp	r0, r1
  7. 700a35a6: d217         	bhs	0x700a35d8 <UART_getHandle+0x48> @ imm = #0x2e

P_HDR Event: Idx:62386 (Pattern: EEEEEEEEN, Function: UART_getHandle)
Executed Assembly Steps:
  1. 700a35a8: e7ff         	b	0x700a35aa <UART_getHandle+0x1a> @ imm = #-0x2
  2. 700a35aa: 9902         	ldr	r1, [sp, #0x8]
  3. 700a35ac: f247 40a8    	movw	r0, #0x74a8
  4. 700a35b0: f2c7 000a    	movt	r0, #0x700a
  5. 700a35b4: eb00 00c1    	add.w	r0, r0, r1, lsl #3
  6. 700a35b8: 6840         	ldr	r0, [r0, #0x4]
  7. 700a35ba: 9000         	str	r0, [sp]
  8. 700a35bc: 9800         	ldr	r0, [sp]
  9. 700a35be: b150         	cbz	r0, 0x700a35d6 <UART_getHandle+0x46> @ imm = #0x14

P_HDR Event: Idx:62387 (Pattern: EEEEEEEEE, Function: UART_getHandle)
Executed Assembly Steps:
  1. 700a35c0: e7ff         	b	0x700a35c2 <UART_getHandle+0x32> @ imm = #-0x2
  2. 700a35c2: 9800         	ldr	r0, [sp]
  3. 700a35c4: f8d0 0084    	ldr.w	r0, [r0, #0x84]
  4. 700a35c8: 2801         	cmp	r0, #0x1
  5. 700a35ca: d104         	bne	0x700a35d6 <UART_getHandle+0x46> @ imm = #0x8
  6. 700a35d6: e7ff         	b	0x700a35d8 <UART_getHandle+0x48> @ imm = #-0x2
  7. 700a35d8: 9801         	ldr	r0, [sp, #0x4]
  8. 700a35da: b003         	add	sp, #0xc
  9. 700a35dc: 4770         	bx	lr

Sync: Idx:62388; ID:10;	BRANCH_ADDRESS : Branch address.; Addr=0x700A390E ~[0xA390E];

P_HDR Event: Idx:62391 (Pattern: EEEEE, Function: DebugP_uartLogWriterPutChar)
Executed Assembly Steps:
  1. 700a390e: 9006         	str	r0, [sp, #0x18]
  2. 700a3910: 9806         	ldr	r0, [sp, #0x18]
  3. 700a3912: b170         	cbz	r0, 0x700a3932 <DebugP_uartLogWriterPutChar+0x42> @ imm = #0x1c
  4. 700a3932: b008         	add	sp, #0x20
  5. 700a3934: bd80         	pop	{r7, pc}

Sync: Idx:62392; ID:10;	BRANCH_ADDRESS : Branch address.; Addr=0x700A4A3E ~[0xA4A3E];

P_HDR Event: Idx:62395 (Pattern: EEE, Function: _out_char)
Executed Assembly Steps:
  1. 700a4a3e: e7ff         	b	0x700a4a40 <_out_char+0x20> @ imm = #-0x2
  2. 700a4a40: b004         	add	sp, #0x10
  3. 700a4a42: bd80         	pop	{r7, pc}

Sync: Idx:62396; ID:10;	BRANCH_ADDRESS : Branch address.; Addr=0x70098F58 ~[0x98F58];

P_HDR Event: Idx:62400 (Pattern: EEEEEEEN, Function: _vsnprintf)
Executed Assembly Steps:
  1. 70098f58: 983c         	ldr	r0, [sp, #0xf0]
  2. 70098f5a: 3001         	adds	r0, #0x1
  3. 70098f5c: 903c         	str	r0, [sp, #0xf0]
  4. 70098f5e: e7e6         	b	0x70098f2e <_vsnprintf+0x2e> @ imm = #-0x34
  5. 70098f2e: 983c         	ldr	r0, [sp, #0xf0]
  6. 70098f30: 7800         	ldrb	r0, [r0]
  7. 70098f32: 2800         	cmp	r0, #0x0
  8. 70098f34: f000 84e3    	beq.w	0x700998fe <_vsnprintf+0x9fe> @ imm = #0x9c6

P_HDR Event: Idx:62401 (Pattern: EEEEN, Function: _vsnprintf)
Executed Assembly Steps:
  1. 70098f38: e7ff         	b	0x70098f3a <_vsnprintf+0x3a> @ imm = #-0x2
  2. 70098f3a: 983c         	ldr	r0, [sp, #0xf0]
  3. 70098f3c: 7800         	ldrb	r0, [r0]
  4. 70098f3e: 2825         	cmp	r0, #0x25
  5. 70098f40: d00e         	beq	0x70098f60 <_vsnprintf+0x60> @ imm = #0x1c

P_HDR Event: Idx:62402 (Pattern: EEEEEEEEEE, Function: _vsnprintf)
Executed Assembly Steps:
  1. 70098f42: e7ff         	b	0x70098f44 <_vsnprintf+0x44> @ imm = #-0x2
  2. 70098f44: f8dd c0fc    	ldr.w	r12, [sp, #0xfc]
  3. 70098f48: 983c         	ldr	r0, [sp, #0xf0]
  4. 70098f4a: 7800         	ldrb	r0, [r0]
  5. 70098f4c: 993e         	ldr	r1, [sp, #0xf8]
  6. 70098f4e: 9a37         	ldr	r2, [sp, #0xdc]
  7. 70098f50: 1c53         	adds	r3, r2, #0x1
  8. 70098f52: 9337         	str	r3, [sp, #0xdc]
  9. 70098f54: 9b3d         	ldr	r3, [sp, #0xf4]
  10. 70098f56: 47e0         	blx	r12

Sync: Idx:62403; ID:10;	BRANCH_ADDRESS : Branch address.; Addr=0x700A4A20 ~[0xA4A20];

P_HDR Event: Idx:62406 (Pattern: EEEEEEEN, Function: _out_char)
Executed Assembly Steps:
  1. 700a4a20: b580         	push	{r7, lr}
  2. 700a4a22: b084         	sub	sp, #0x10
  3. 700a4a24: f88d 000f    	strb.w	r0, [sp, #0xf]
  4. 700a4a28: 9102         	str	r1, [sp, #0x8]
  5. 700a4a2a: 9201         	str	r2, [sp, #0x4]
  6. 700a4a2c: 9300         	str	r3, [sp]
  7. 700a4a2e: f89d 000f    	ldrb.w	r0, [sp, #0xf]
  8. 700a4a32: b128         	cbz	r0, 0x700a4a40 <_out_char+0x20> @ imm = #0xa

P_HDR Event: Idx:62407 (Pattern: EEEEEE, Function: _out_char)
Executed Assembly Steps:
  1. 700a4a34: e7ff         	b	0x700a4a36 <_out_char+0x16> @ imm = #-0x2
  2. 700a4a36: f89d 000f    	ldrb.w	r0, [sp, #0xf]
  3. 700a4a3a: f000 fa21    	bl	0x700a4e80 <putchar_>   @ imm = #0x442
  4. 700a4e80: b510         	push	{r4, lr}
  5. 700a4e82: 4604         	mov	r4, r0
  6. 700a4e84: f000 e9ac    	blx	0x700a51e0 <putchar>    @ imm = #0x358

Sync: Idx:62408; ID:10;	BRANCH_ADDRESS : Branch address.; Addr=0x700A51E0 ~[0x700A51E0]; ISA=ARM(32);

P_HDR Event: Idx:62413 (Pattern: EEEEEEEEE, Function: putchar)
Executed Assembly Steps:
  1. 700a51e0: e59f1004     	ldr	r1, [pc, #0x4]          @ 0x700a51ec <putchar+0xc>
  2. 700a51e4: e2811018     	add	r1, r1, #24
  3. 700a51e8: eaffe5b1     	b	0x7009e8b4 <fputc>      @ imm = #-0x693c
  4. 7009e8b4: e92d483c     	push	{r2, r3, r4, r5, r11, lr}
  5. 7009e8b8: e59f20e0     	ldr	r2, [pc, #0xe0]         @ 0x7009e9a0 <fputc+0xec>
  6. 7009e8bc: e1a04001     	mov	r4, r1
  7. 7009e8c0: e1a05000     	mov	r5, r0
  8. 7009e8c4: e5922000     	ldr	r2, [r2]
  9. 7009e8c8: e12fff32     	blx	r2

Sync: Idx:62414; ID:10;	BRANCH_ADDRESS : Branch address.; Addr=0x7009A2DC ~[0x9A2DC];

P_HDR Event: Idx:62418 (Pattern: E, Function: _nop)
Executed Assembly Steps:
  1. 7009a2dc: e12fff1e     	bx	lr

Sync: Idx:62419; ID:10;	BRANCH_ADDRESS : Branch address.; Addr=0x7009E8CC ~[0x68CC];

P_HDR Event: Idx:62421 (Pattern: EEEEEEEN, Function: fputc)
Executed Assembly Steps:
  1. 7009e8cc: e1a00004     	mov	r0, r4
  2. 7009e8d0: eb000949     	bl	0x700a0dfc <__TI_wrt_ok> @ imm = #0x2524
  3. 700a0dfc: e92d4010     	push	{r4, lr}
  4. 700a0e00: e1a04000     	mov	r4, r0
  5. 700a0e04: e5901000     	ldr	r1, [r0]
  6. 700a0e08: e3a00000     	mov	r0, #0
  7. 700a0e0c: e3710001     	cmn	r1, #1
  8. 700a0e10: 0a00001c     	beq	0x700a0e88 <__TI_wrt_ok+0x8c> @ imm = #0x70

P_HDR Event: Idx:62422 (Pattern: EEN, Function: __TI_wrt_ok)
Executed Assembly Steps:
  1. 700a0e14: e5941014     	ldr	r1, [r4, #0x14]
  2. 700a0e18: e3110010     	tst	r1, #16
  3. 700a0e1c: 1a00001a     	bne	0x700a0e8c <__TI_wrt_ok+0x90> @ imm = #0x68

P_HDR Event: Idx:62423 (Pattern: EEEEEEEE, Function: __TI_wrt_ok)
Executed Assembly Steps:
  1. 700a0e20: e3110080     	tst	r1, #128
  2. 700a0e24: 0a000004     	beq	0x700a0e3c <__TI_wrt_ok+0x40> @ imm = #0x10
  3. 700a0e3c: e2010060     	and	r0, r1, #96
  4. 700a0e40: e3500040     	cmp	r0, #64
  5. 700a0e44: 1a000001     	bne	0x700a0e50 <__TI_wrt_ok+0x54> @ imm = #0x4
  6. 700a0e50: e5942004     	ldr	r2, [r4, #0x4]
  7. 700a0e54: e3a00001     	mov	r0, #1
  8. 700a0e58: e3520000     	cmp	r2, #0

P_HDR Event: Idx:62424 (Pattern: NE, Function: __TI_wrt_ok)
Executed Assembly Steps:
  1. 700a0e5c: 02112004     	andseq	r2, r1, #4
  2. 700a0e60: 1a000006     	bne	0x700a0e80 <__TI_wrt_ok+0x84> @ imm = #0x18

P_HDR Event: Idx:62425 (Pattern: EEE, Function: __TI_wrt_ok)
Executed Assembly Steps:
  1. 700a0e80: e594100c     	ldr	r1, [r4, #0xc]
  2. 700a0e84: e5841010     	str	r1, [r4, #0x10]
  3. 700a0e88: e8bd8010     	pop	{r4, pc}

Sync: Idx:62426; ID:10;	BRANCH_ADDRESS : Branch address.; Addr=0x7009E8D4 ~[0xD4];

P_HDR Event: Idx:62427 (Pattern: EN, Function: fputc)
Executed Assembly Steps:
  1. 7009e8d4: e3500000     	cmp	r0, #0
  2. 7009e8d8: 0a00000b     	beq	0x7009e90c <fputc+0x58> @ imm = #0x2c

P_HDR Event: Idx:62428 (Pattern: EEEEEEEEEEEEEEE, Function: fputc)
Executed Assembly Steps:
  1. 7009e8dc: e5940014     	ldr	r0, [r4, #0x14]
  2. 7009e8e0: e2000007     	and	r0, r0, #7
  3. 7009e8e4: e3500004     	cmp	r0, #4
  4. 7009e8e8: 1a00000a     	bne	0x7009e918 <fputc+0x64> @ imm = #0x28
  5. 7009e918: e5940008     	ldr	r0, [r4, #0x8]
  6. 7009e91c: e594100c     	ldr	r1, [r4, #0xc]
  7. 7009e920: e1500001     	cmp	r0, r1
  8. 7009e924: 3a000004     	blo	0x7009e93c <fputc+0x88> @ imm = #0x10
  9. 7009e93c: e2801001     	add	r1, r0, #1
  10. 7009e940: e355000a     	cmp	r5, #10
  11. 7009e944: e5841008     	str	r1, [r4, #0x8]
  12. 7009e948: e5c05000     	strb	r5, [r0]
  13. 7009e94c: 1a00000e     	bne	0x7009e98c <fputc+0xd8> @ imm = #0x38
  14. 7009e98c: e59f0010     	ldr	r0, [pc, #0x10]         @ 0x7009e9a4 <fputc+0xf0>
  15. 7009e990: e5900000     	ldr	r0, [r0]

P_HDR Event: Idx:62429 (Pattern: E, Function: fputc)
Executed Assembly Steps:
  1. 7009e994: e12fff30     	blx	r0

Sync: Idx:62430; ID:10;	BRANCH_ADDRESS : Branch address.; Addr=0x7009A2DC ~[0x22DC];

P_HDR Event: Idx:62433 (Pattern: E, Function: _nop)
Executed Assembly Steps:
  1. 7009a2dc: e12fff1e     	bx	lr

Sync: Idx:62434; ID:10;	BRANCH_ADDRESS : Branch address.; Addr=0x7009E998 ~[0x6998];

P_HDR Event: Idx:62436 (Pattern: EE, Function: fputc)
Executed Assembly Steps:
  1. 7009e998: e6ef0075     	uxtb	r0, r5
  2. 7009e99c: e8bd883c     	pop	{r2, r3, r4, r5, r11, pc}

Sync: Idx:62437; ID:10;	BRANCH_ADDRESS : Branch address.; Addr=0x700A4E88 ~[0x700A4E88]; ISA=Thumb2;

P_HDR Event: Idx:62442 (Pattern: EEEEEEEEEEEEEEE, Function: putchar_)
Executed Assembly Steps:
  1. 700a4e88: 4620         	mov	r0, r4
  2. 700a4e8a: f7f8 fa11    	bl	0x7009d2b0 <DebugP_memLogWriterPutChar> @ imm = #-0x7bde
  3. 7009d2b0: b580         	push	{r7, lr}
  4. 7009d2b2: b088         	sub	sp, #0x20
  5. 7009d2b4: f88d 001f    	strb.w	r0, [sp, #0x1f]
  6. 7009d2b8: f247 30cc    	movw	r0, #0x73cc
  7. 7009d2bc: f2c7 000a    	movt	r0, #0x700a
  8. 7009d2c0: 6800         	ldr	r0, [r0]
  9. 7009d2c2: bb40         	cbnz	r0, 0x7009d316 <DebugP_memLogWriterPutChar+0x66> @ imm = #0x50
  10. 7009d316: f89d 001f    	ldrb.w	r0, [sp, #0x1f]
  11. 7009d31a: f247 31cc    	movw	r1, #0x73cc
  12. 7009d31e: f2c7 010a    	movt	r1, #0x700a
  13. 7009d322: 680b         	ldr	r3, [r1]
  14. 7009d324: f644 42e0    	movw	r2, #0x4ce0
  15. 7009d328: f2c7 0208    	movt	r2, #0x7008

P_HDR Event: Idx:62443 (Pattern: EEEEEEN, Function: DebugP_memLogWriterPutChar)
Executed Assembly Steps:
  1. 7009d32c: 54d0         	strb	r0, [r2, r3]
  2. 7009d32e: 6808         	ldr	r0, [r1]
  3. 7009d330: 3001         	adds	r0, #0x1
  4. 7009d332: 6008         	str	r0, [r1]
  5. 7009d334: f89d 001f    	ldrb.w	r0, [sp, #0x1f]
  6. 7009d338: 280a         	cmp	r0, #0xa
  7. 7009d33a: d008         	beq	0x7009d34e <DebugP_memLogWriterPutChar+0x9e> @ imm = #0x10

P_HDR Event: Idx:62444 (Pattern: EEEEEEEE, Function: DebugP_memLogWriterPutChar)
Executed Assembly Steps:
  1. 7009d33c: e7ff         	b	0x7009d33e <DebugP_memLogWriterPutChar+0x8e> @ imm = #-0x2
  2. 7009d33e: f247 30cc    	movw	r0, #0x73cc
  3. 7009d342: f2c7 000a    	movt	r0, #0x700a
  4. 7009d346: 6800         	ldr	r0, [r0]
  5. 7009d348: 2878         	cmp	r0, #0x78
  6. 7009d34a: d350         	blo	0x7009d3ee <DebugP_memLogWriterPutChar+0x13e> @ imm = #0xa0
  7. 7009d3ee: b008         	add	sp, #0x20
  8. 7009d3f0: bd80         	pop	{r7, pc}

Sync: Idx:62445; ID:10;	BRANCH_ADDRESS : Branch address.; Addr=0x700A4E8E ~[0xE];

P_HDR Event: Idx:62446 (Pattern: EEEEEEEEEEEEEEE, Function: putchar_)
Executed Assembly Steps:
  1. 700a4e8e: 4620         	mov	r0, r4
  2. 700a4e90: e8bd 4010    	pop.w	{r4, lr}
  3. 700a4e94: f7fe bd2c    	b.w	0x700a38f0 <DebugP_uartLogWriterPutChar> @ imm = #-0x15a8
  4. 700a38f0: b580         	push	{r7, lr}
  5. 700a38f2: b088         	sub	sp, #0x20
  6. 700a38f4: f88d 001f    	strb.w	r0, [sp, #0x1f]
  7. 700a38f8: f89d 001f    	ldrb.w	r0, [sp, #0x1f]
  8. 700a38fc: f88d 001e    	strb.w	r0, [sp, #0x1e]
  9. 700a3900: f247 40e0    	movw	r0, #0x74e0
  10. 700a3904: f2c7 000a    	movt	r0, #0x700a
  11. 700a3908: 6800         	ldr	r0, [r0]
  12. 700a390a: f7ff fe41    	bl	0x700a3590 <UART_getHandle> @ imm = #-0x37e
  13. 700a3590: b083         	sub	sp, #0xc
  14. 700a3592: 9002         	str	r0, [sp, #0x8]
  15. 700a3594: 2000         	movs	r0, #0x0

P_HDR Event: Idx:62448 (Pattern: EEEEEEN, Function: UART_getHandle)
Executed Assembly Steps:
  1. 700a3596: 9001         	str	r0, [sp, #0x4]
  2. 700a3598: 9802         	ldr	r0, [sp, #0x8]
  3. 700a359a: f247 41e8    	movw	r1, #0x74e8
  4. 700a359e: f2c7 010a    	movt	r1, #0x700a
  5. 700a35a2: 6809         	ldr	r1, [r1]
  6. 700a35a4: 4288         	cmp	r0, r1
  7. 700a35a6: d217         	bhs	0x700a35d8 <UART_getHandle+0x48> @ imm = #0x2e

P_HDR Event: Idx:62449 (Pattern: EEEEEEEEN, Function: UART_getHandle)
Executed Assembly Steps:
  1. 700a35a8: e7ff         	b	0x700a35aa <UART_getHandle+0x1a> @ imm = #-0x2
  2. 700a35aa: 9902         	ldr	r1, [sp, #0x8]
  3. 700a35ac: f247 40a8    	movw	r0, #0x74a8
  4. 700a35b0: f2c7 000a    	movt	r0, #0x700a
  5. 700a35b4: eb00 00c1    	add.w	r0, r0, r1, lsl #3
  6. 700a35b8: 6840         	ldr	r0, [r0, #0x4]
  7. 700a35ba: 9000         	str	r0, [sp]
  8. 700a35bc: 9800         	ldr	r0, [sp]
  9. 700a35be: b150         	cbz	r0, 0x700a35d6 <UART_getHandle+0x46> @ imm = #0x14

P_HDR Event: Idx:62450 (Pattern: EEEEEEEEE, Function: UART_getHandle)
Executed Assembly Steps:
  1. 700a35c0: e7ff         	b	0x700a35c2 <UART_getHandle+0x32> @ imm = #-0x2
  2. 700a35c2: 9800         	ldr	r0, [sp]
  3. 700a35c4: f8d0 0084    	ldr.w	r0, [r0, #0x84]
  4. 700a35c8: 2801         	cmp	r0, #0x1
  5. 700a35ca: d104         	bne	0x700a35d6 <UART_getHandle+0x46> @ imm = #0x8
  6. 700a35d6: e7ff         	b	0x700a35d8 <UART_getHandle+0x48> @ imm = #-0x2
  7. 700a35d8: 9801         	ldr	r0, [sp, #0x4]
  8. 700a35da: b003         	add	sp, #0xc
  9. 700a35dc: 4770         	bx	lr

Sync: Idx:62451; ID:10;	BRANCH_ADDRESS : Branch address.; Addr=0x700A390E ~[0xA390E];

P_HDR Event: Idx:62454 (Pattern: EEEEE, Function: DebugP_uartLogWriterPutChar)
Executed Assembly Steps:
  1. 700a390e: 9006         	str	r0, [sp, #0x18]
  2. 700a3910: 9806         	ldr	r0, [sp, #0x18]
  3. 700a3912: b170         	cbz	r0, 0x700a3932 <DebugP_uartLogWriterPutChar+0x42> @ imm = #0x1c
  4. 700a3932: b008         	add	sp, #0x20
  5. 700a3934: bd80         	pop	{r7, pc}

Sync: Idx:62455; ID:10;	BRANCH_ADDRESS : Branch address.; Addr=0x700A4A3E ~[0xA4A3E];

P_HDR Event: Idx:62458 (Pattern: EEE, Function: _out_char)
Executed Assembly Steps:
  1. 700a4a3e: e7ff         	b	0x700a4a40 <_out_char+0x20> @ imm = #-0x2
  2. 700a4a40: b004         	add	sp, #0x10
  3. 700a4a42: bd80         	pop	{r7, pc}

Sync: Idx:62459; ID:10;	BRANCH_ADDRESS : Branch address.; Addr=0x70098F58 ~[0x98F58];

P_HDR Event: Idx:62462 (Pattern: EEEEEEEN, Function: _vsnprintf)
Executed Assembly Steps:
  1. 70098f58: 983c         	ldr	r0, [sp, #0xf0]
  2. 70098f5a: 3001         	adds	r0, #0x1
  3. 70098f5c: 903c         	str	r0, [sp, #0xf0]
  4. 70098f5e: e7e6         	b	0x70098f2e <_vsnprintf+0x2e> @ imm = #-0x34
  5. 70098f2e: 983c         	ldr	r0, [sp, #0xf0]
  6. 70098f30: 7800         	ldrb	r0, [r0]
  7. 70098f32: 2800         	cmp	r0, #0x0
  8. 70098f34: f000 84e3    	beq.w	0x700998fe <_vsnprintf+0x9fe> @ imm = #0x9c6

P_HDR Event: Idx:62464 (Pattern: EEEEN, Function: _vsnprintf)
Executed Assembly Steps:
  1. 70098f38: e7ff         	b	0x70098f3a <_vsnprintf+0x3a> @ imm = #-0x2
  2. 70098f3a: 983c         	ldr	r0, [sp, #0xf0]
  3. 70098f3c: 7800         	ldrb	r0, [r0]
  4. 70098f3e: 2825         	cmp	r0, #0x25
  5. 70098f40: d00e         	beq	0x70098f60 <_vsnprintf+0x60> @ imm = #0x1c

P_HDR Event: Idx:62465 (Pattern: EEEEEEEEEE, Function: _vsnprintf)
Executed Assembly Steps:
  1. 70098f42: e7ff         	b	0x70098f44 <_vsnprintf+0x44> @ imm = #-0x2
  2. 70098f44: f8dd c0fc    	ldr.w	r12, [sp, #0xfc]
  3. 70098f48: 983c         	ldr	r0, [sp, #0xf0]
  4. 70098f4a: 7800         	ldrb	r0, [r0]
  5. 70098f4c: 993e         	ldr	r1, [sp, #0xf8]
  6. 70098f4e: 9a37         	ldr	r2, [sp, #0xdc]
  7. 70098f50: 1c53         	adds	r3, r2, #0x1
  8. 70098f52: 9337         	str	r3, [sp, #0xdc]
  9. 70098f54: 9b3d         	ldr	r3, [sp, #0xf4]
  10. 70098f56: 47e0         	blx	r12

Sync: Idx:62466; ID:10;	BRANCH_ADDRESS : Branch address.; Addr=0x700A4A20 ~[0xA4A20];

P_HDR Event: Idx:62469 (Pattern: EEEEEEEN, Function: _out_char)
Executed Assembly Steps:
  1. 700a4a20: b580         	push	{r7, lr}
  2. 700a4a22: b084         	sub	sp, #0x10
  3. 700a4a24: f88d 000f    	strb.w	r0, [sp, #0xf]
  4. 700a4a28: 9102         	str	r1, [sp, #0x8]
  5. 700a4a2a: 9201         	str	r2, [sp, #0x4]
  6. 700a4a2c: 9300         	str	r3, [sp]
  7. 700a4a2e: f89d 000f    	ldrb.w	r0, [sp, #0xf]
  8. 700a4a32: b128         	cbz	r0, 0x700a4a40 <_out_char+0x20> @ imm = #0xa

P_HDR Event: Idx:62470 (Pattern: EEEEEE, Function: _out_char)
Executed Assembly Steps:
  1. 700a4a34: e7ff         	b	0x700a4a36 <_out_char+0x16> @ imm = #-0x2
  2. 700a4a36: f89d 000f    	ldrb.w	r0, [sp, #0xf]
  3. 700a4a3a: f000 fa21    	bl	0x700a4e80 <putchar_>   @ imm = #0x442
  4. 700a4e80: b510         	push	{r4, lr}
  5. 700a4e82: 4604         	mov	r4, r0
  6. 700a4e84: f000 e9ac    	blx	0x700a51e0 <putchar>    @ imm = #0x358

Sync: Idx:62471; ID:10;	BRANCH_ADDRESS : Branch address.; Addr=0x700A51E0 ~[0x700A51E0]; ISA=ARM(32);

P_HDR Event: Idx:62476 (Pattern: EEEEEEEEE, Function: putchar)
Executed Assembly Steps:
  1. 700a51e0: e59f1004     	ldr	r1, [pc, #0x4]          @ 0x700a51ec <putchar+0xc>
  2. 700a51e4: e2811018     	add	r1, r1, #24
  3. 700a51e8: eaffe5b1     	b	0x7009e8b4 <fputc>      @ imm = #-0x693c
  4. 7009e8b4: e92d483c     	push	{r2, r3, r4, r5, r11, lr}
  5. 7009e8b8: e59f20e0     	ldr	r2, [pc, #0xe0]         @ 0x7009e9a0 <fputc+0xec>
  6. 7009e8bc: e1a04001     	mov	r4, r1
  7. 7009e8c0: e1a05000     	mov	r5, r0
  8. 7009e8c4: e5922000     	ldr	r2, [r2]
  9. 7009e8c8: e12fff32     	blx	r2

Sync: Idx:62477; ID:10;	BRANCH_ADDRESS : Branch address.; Addr=0x7009A2DC ~[0x9A2DC];

P_HDR Event: Idx:62481 (Pattern: E, Function: _nop)
Executed Assembly Steps:
  1. 7009a2dc: e12fff1e     	bx	lr

Sync: Idx:62482; ID:10;	BRANCH_ADDRESS : Branch address.; Addr=0x7009E8CC ~[0x68CC];

P_HDR Event: Idx:62484 (Pattern: EEEEEEEN, Function: fputc)
Executed Assembly Steps:
  1. 7009e8cc: e1a00004     	mov	r0, r4
  2. 7009e8d0: eb000949     	bl	0x700a0dfc <__TI_wrt_ok> @ imm = #0x2524
  3. 700a0dfc: e92d4010     	push	{r4, lr}
  4. 700a0e00: e1a04000     	mov	r4, r0
  5. 700a0e04: e5901000     	ldr	r1, [r0]
  6. 700a0e08: e3a00000     	mov	r0, #0
  7. 700a0e0c: e3710001     	cmn	r1, #1
  8. 700a0e10: 0a00001c     	beq	0x700a0e88 <__TI_wrt_ok+0x8c> @ imm = #0x70

P_HDR Event: Idx:62485 (Pattern: EEN, Function: __TI_wrt_ok)
Executed Assembly Steps:
  1. 700a0e14: e5941014     	ldr	r1, [r4, #0x14]
  2. 700a0e18: e3110010     	tst	r1, #16
  3. 700a0e1c: 1a00001a     	bne	0x700a0e8c <__TI_wrt_ok+0x90> @ imm = #0x68

P_HDR Event: Idx:62486 (Pattern: EEEEEEEE, Function: __TI_wrt_ok)
Executed Assembly Steps:
  1. 700a0e20: e3110080     	tst	r1, #128
  2. 700a0e24: 0a000004     	beq	0x700a0e3c <__TI_wrt_ok+0x40> @ imm = #0x10
  3. 700a0e3c: e2010060     	and	r0, r1, #96
  4. 700a0e40: e3500040     	cmp	r0, #64
  5. 700a0e44: 1a000001     	bne	0x700a0e50 <__TI_wrt_ok+0x54> @ imm = #0x4
  6. 700a0e50: e5942004     	ldr	r2, [r4, #0x4]
  7. 700a0e54: e3a00001     	mov	r0, #1
  8. 700a0e58: e3520000     	cmp	r2, #0

P_HDR Event: Idx:62487 (Pattern: NE, Function: __TI_wrt_ok)
Executed Assembly Steps:
  1. 700a0e5c: 02112004     	andseq	r2, r1, #4
  2. 700a0e60: 1a000006     	bne	0x700a0e80 <__TI_wrt_ok+0x84> @ imm = #0x18

P_HDR Event: Idx:62488 (Pattern: EEE, Function: __TI_wrt_ok)
Executed Assembly Steps:
  1. 700a0e80: e594100c     	ldr	r1, [r4, #0xc]
  2. 700a0e84: e5841010     	str	r1, [r4, #0x10]
  3. 700a0e88: e8bd8010     	pop	{r4, pc}

Sync: Idx:62489; ID:10;	BRANCH_ADDRESS : Branch address.; Addr=0x7009E8D4 ~[0xD4];

P_HDR Event: Idx:62490 (Pattern: EN, Function: fputc)
Executed Assembly Steps:
  1. 7009e8d4: e3500000     	cmp	r0, #0
  2. 7009e8d8: 0a00000b     	beq	0x7009e90c <fputc+0x58> @ imm = #0x2c

P_HDR Event: Idx:62491 (Pattern: EEEEEEEEEEEEEEE, Function: fputc)
Executed Assembly Steps:
  1. 7009e8dc: e5940014     	ldr	r0, [r4, #0x14]
  2. 7009e8e0: e2000007     	and	r0, r0, #7
  3. 7009e8e4: e3500004     	cmp	r0, #4
  4. 7009e8e8: 1a00000a     	bne	0x7009e918 <fputc+0x64> @ imm = #0x28
  5. 7009e918: e5940008     	ldr	r0, [r4, #0x8]
  6. 7009e91c: e594100c     	ldr	r1, [r4, #0xc]
  7. 7009e920: e1500001     	cmp	r0, r1
  8. 7009e924: 3a000004     	blo	0x7009e93c <fputc+0x88> @ imm = #0x10
  9. 7009e93c: e2801001     	add	r1, r0, #1
  10. 7009e940: e355000a     	cmp	r5, #10
  11. 7009e944: e5841008     	str	r1, [r4, #0x8]
  12. 7009e948: e5c05000     	strb	r5, [r0]
  13. 7009e94c: 1a00000e     	bne	0x7009e98c <fputc+0xd8> @ imm = #0x38
  14. 7009e98c: e59f0010     	ldr	r0, [pc, #0x10]         @ 0x7009e9a4 <fputc+0xf0>
  15. 7009e990: e5900000     	ldr	r0, [r0]

P_HDR Event: Idx:62492 (Pattern: E, Function: fputc)
Executed Assembly Steps:
  1. 7009e994: e12fff30     	blx	r0

Sync: Idx:62493; ID:10;	BRANCH_ADDRESS : Branch address.; Addr=0x7009A2DC ~[0x22DC];

P_HDR Event: Idx:62496 (Pattern: E, Function: _nop)
Executed Assembly Steps:
  1. 7009a2dc: e12fff1e     	bx	lr

Sync: Idx:62497; ID:10;	BRANCH_ADDRESS : Branch address.; Addr=0x7009E998 ~[0x6998];

P_HDR Event: Idx:62499 (Pattern: EE, Function: fputc)
Executed Assembly Steps:
  1. 7009e998: e6ef0075     	uxtb	r0, r5
  2. 7009e99c: e8bd883c     	pop	{r2, r3, r4, r5, r11, pc}

Sync: Idx:62500; ID:10;	BRANCH_ADDRESS : Branch address.; Addr=0x700A4E88 ~[0x700A4E88]; ISA=Thumb2;

P_HDR Event: Idx:62505 (Pattern: EEEEEEEEEEEEEEE, Function: putchar_)
Executed Assembly Steps:
  1. 700a4e88: 4620         	mov	r0, r4
  2. 700a4e8a: f7f8 fa11    	bl	0x7009d2b0 <DebugP_memLogWriterPutChar> @ imm = #-0x7bde
  3. 7009d2b0: b580         	push	{r7, lr}
  4. 7009d2b2: b088         	sub	sp, #0x20
  5. 7009d2b4: f88d 001f    	strb.w	r0, [sp, #0x1f]
  6. 7009d2b8: f247 30cc    	movw	r0, #0x73cc
  7. 7009d2bc: f2c7 000a    	movt	r0, #0x700a
  8. 7009d2c0: 6800         	ldr	r0, [r0]
  9. 7009d2c2: bb40         	cbnz	r0, 0x7009d316 <DebugP_memLogWriterPutChar+0x66> @ imm = #0x50
  10. 7009d316: f89d 001f    	ldrb.w	r0, [sp, #0x1f]
  11. 7009d31a: f247 31cc    	movw	r1, #0x73cc
  12. 7009d31e: f2c7 010a    	movt	r1, #0x700a
  13. 7009d322: 680b         	ldr	r3, [r1]
  14. 7009d324: f644 42e0    	movw	r2, #0x4ce0
  15. 7009d328: f2c7 0208    	movt	r2, #0x7008

P_HDR Event: Idx:62506 (Pattern: EEEEEEN, Function: DebugP_memLogWriterPutChar)
Executed Assembly Steps:
  1. 7009d32c: 54d0         	strb	r0, [r2, r3]
  2. 7009d32e: 6808         	ldr	r0, [r1]
  3. 7009d330: 3001         	adds	r0, #0x1
  4. 7009d332: 6008         	str	r0, [r1]
  5. 7009d334: f89d 001f    	ldrb.w	r0, [sp, #0x1f]
  6. 7009d338: 280a         	cmp	r0, #0xa
  7. 7009d33a: d008         	beq	0x7009d34e <DebugP_memLogWriterPutChar+0x9e> @ imm = #0x10

P_HDR Event: Idx:62507 (Pattern: EEEEEEEE, Function: DebugP_memLogWriterPutChar)
Executed Assembly Steps:
  1. 7009d33c: e7ff         	b	0x7009d33e <DebugP_memLogWriterPutChar+0x8e> @ imm = #-0x2
  2. 7009d33e: f247 30cc    	movw	r0, #0x73cc
  3. 7009d342: f2c7 000a    	movt	r0, #0x700a
  4. 7009d346: 6800         	ldr	r0, [r0]
  5. 7009d348: 2878         	cmp	r0, #0x78
  6. 7009d34a: d350         	blo	0x7009d3ee <DebugP_memLogWriterPutChar+0x13e> @ imm = #0xa0
  7. 7009d3ee: b008         	add	sp, #0x20
  8. 7009d3f0: bd80         	pop	{r7, pc}

Sync: Idx:62508; ID:10;	BRANCH_ADDRESS : Branch address.; Addr=0x700A4E8E ~[0xE];

P_HDR Event: Idx:62509 (Pattern: EEEEEEEEEEEEEEE, Function: putchar_)
Executed Assembly Steps:
  1. 700a4e8e: 4620         	mov	r0, r4
  2. 700a4e90: e8bd 4010    	pop.w	{r4, lr}
  3. 700a4e94: f7fe bd2c    	b.w	0x700a38f0 <DebugP_uartLogWriterPutChar> @ imm = #-0x15a8
  4. 700a38f0: b580         	push	{r7, lr}
  5. 700a38f2: b088         	sub	sp, #0x20
  6. 700a38f4: f88d 001f    	strb.w	r0, [sp, #0x1f]
  7. 700a38f8: f89d 001f    	ldrb.w	r0, [sp, #0x1f]
  8. 700a38fc: f88d 001e    	strb.w	r0, [sp, #0x1e]
  9. 700a3900: f247 40e0    	movw	r0, #0x74e0
  10. 700a3904: f2c7 000a    	movt	r0, #0x700a
  11. 700a3908: 6800         	ldr	r0, [r0]
  12. 700a390a: f7ff fe41    	bl	0x700a3590 <UART_getHandle> @ imm = #-0x37e
  13. 700a3590: b083         	sub	sp, #0xc
  14. 700a3592: 9002         	str	r0, [sp, #0x8]
  15. 700a3594: 2000         	movs	r0, #0x0

P_HDR Event: Idx:62510 (Pattern: EEEEEEN, Function: UART_getHandle)
Executed Assembly Steps:
  1. 700a3596: 9001         	str	r0, [sp, #0x4]
  2. 700a3598: 9802         	ldr	r0, [sp, #0x8]
  3. 700a359a: f247 41e8    	movw	r1, #0x74e8
  4. 700a359e: f2c7 010a    	movt	r1, #0x700a
  5. 700a35a2: 6809         	ldr	r1, [r1]
  6. 700a35a4: 4288         	cmp	r0, r1
  7. 700a35a6: d217         	bhs	0x700a35d8 <UART_getHandle+0x48> @ imm = #0x2e

P_HDR Event: Idx:62512 (Pattern: EEEEEEEEN, Function: UART_getHandle)
Executed Assembly Steps:
  1. 700a35a8: e7ff         	b	0x700a35aa <UART_getHandle+0x1a> @ imm = #-0x2
  2. 700a35aa: 9902         	ldr	r1, [sp, #0x8]
  3. 700a35ac: f247 40a8    	movw	r0, #0x74a8
  4. 700a35b0: f2c7 000a    	movt	r0, #0x700a
  5. 700a35b4: eb00 00c1    	add.w	r0, r0, r1, lsl #3
  6. 700a35b8: 6840         	ldr	r0, [r0, #0x4]
  7. 700a35ba: 9000         	str	r0, [sp]
  8. 700a35bc: 9800         	ldr	r0, [sp]
  9. 700a35be: b150         	cbz	r0, 0x700a35d6 <UART_getHandle+0x46> @ imm = #0x14

P_HDR Event: Idx:62513 (Pattern: EEEEEEEEE, Function: UART_getHandle)
Executed Assembly Steps:
  1. 700a35c0: e7ff         	b	0x700a35c2 <UART_getHandle+0x32> @ imm = #-0x2
  2. 700a35c2: 9800         	ldr	r0, [sp]
  3. 700a35c4: f8d0 0084    	ldr.w	r0, [r0, #0x84]
  4. 700a35c8: 2801         	cmp	r0, #0x1
  5. 700a35ca: d104         	bne	0x700a35d6 <UART_getHandle+0x46> @ imm = #0x8
  6. 700a35d6: e7ff         	b	0x700a35d8 <UART_getHandle+0x48> @ imm = #-0x2
  7. 700a35d8: 9801         	ldr	r0, [sp, #0x4]
  8. 700a35da: b003         	add	sp, #0xc
  9. 700a35dc: 4770         	bx	lr

Sync: Idx:62514; ID:10;	BRANCH_ADDRESS : Branch address.; Addr=0x700A390E ~[0xA390E];

P_HDR Event: Idx:62517 (Pattern: EEEEE, Function: DebugP_uartLogWriterPutChar)
Executed Assembly Steps:
  1. 700a390e: 9006         	str	r0, [sp, #0x18]
  2. 700a3910: 9806         	ldr	r0, [sp, #0x18]
  3. 700a3912: b170         	cbz	r0, 0x700a3932 <DebugP_uartLogWriterPutChar+0x42> @ imm = #0x1c
  4. 700a3932: b008         	add	sp, #0x20
  5. 700a3934: bd80         	pop	{r7, pc}

Sync: Idx:62518; ID:10;	BRANCH_ADDRESS : Branch address.; Addr=0x700A4A3E ~[0xA4A3E];

P_HDR Event: Idx:62521 (Pattern: EEE, Function: _out_char)
Executed Assembly Steps:
  1. 700a4a3e: e7ff         	b	0x700a4a40 <_out_char+0x20> @ imm = #-0x2
  2. 700a4a40: b004         	add	sp, #0x10
  3. 700a4a42: bd80         	pop	{r7, pc}

Sync: Idx:62522; ID:10;	BRANCH_ADDRESS : Branch address.; Addr=0x70098F58 ~[0x98F58];

P_HDR Event: Idx:62525 (Pattern: EEEEEEEN, Function: _vsnprintf)
Executed Assembly Steps:
  1. 70098f58: 983c         	ldr	r0, [sp, #0xf0]
  2. 70098f5a: 3001         	adds	r0, #0x1
  3. 70098f5c: 903c         	str	r0, [sp, #0xf0]
  4. 70098f5e: e7e6         	b	0x70098f2e <_vsnprintf+0x2e> @ imm = #-0x34
  5. 70098f2e: 983c         	ldr	r0, [sp, #0xf0]
  6. 70098f30: 7800         	ldrb	r0, [r0]
  7. 70098f32: 2800         	cmp	r0, #0x0
  8. 70098f34: f000 84e3    	beq.w	0x700998fe <_vsnprintf+0x9fe> @ imm = #0x9c6

P_HDR Event: Idx:62526 (Pattern: EEEEN, Function: _vsnprintf)
Executed Assembly Steps:
  1. 70098f38: e7ff         	b	0x70098f3a <_vsnprintf+0x3a> @ imm = #-0x2
  2. 70098f3a: 983c         	ldr	r0, [sp, #0xf0]
  3. 70098f3c: 7800         	ldrb	r0, [r0]
  4. 70098f3e: 2825         	cmp	r0, #0x25
  5. 70098f40: d00e         	beq	0x70098f60 <_vsnprintf+0x60> @ imm = #0x1c

P_HDR Event: Idx:62528 (Pattern: EEEEEEEEEE, Function: _vsnprintf)
Executed Assembly Steps:
  1. 70098f42: e7ff         	b	0x70098f44 <_vsnprintf+0x44> @ imm = #-0x2
  2. 70098f44: f8dd c0fc    	ldr.w	r12, [sp, #0xfc]
  3. 70098f48: 983c         	ldr	r0, [sp, #0xf0]
  4. 70098f4a: 7800         	ldrb	r0, [r0]
  5. 70098f4c: 993e         	ldr	r1, [sp, #0xf8]
  6. 70098f4e: 9a37         	ldr	r2, [sp, #0xdc]
  7. 70098f50: 1c53         	adds	r3, r2, #0x1
  8. 70098f52: 9337         	str	r3, [sp, #0xdc]
  9. 70098f54: 9b3d         	ldr	r3, [sp, #0xf4]
  10. 70098f56: 47e0         	blx	r12

Sync: Idx:62529; ID:10;	BRANCH_ADDRESS : Branch address.; Addr=0x700A4A20 ~[0xA4A20];

P_HDR Event: Idx:62532 (Pattern: EEEEEEEN, Function: _out_char)
Executed Assembly Steps:
  1. 700a4a20: b580         	push	{r7, lr}
  2. 700a4a22: b084         	sub	sp, #0x10
  3. 700a4a24: f88d 000f    	strb.w	r0, [sp, #0xf]
  4. 700a4a28: 9102         	str	r1, [sp, #0x8]
  5. 700a4a2a: 9201         	str	r2, [sp, #0x4]
  6. 700a4a2c: 9300         	str	r3, [sp]
  7. 700a4a2e: f89d 000f    	ldrb.w	r0, [sp, #0xf]
  8. 700a4a32: b128         	cbz	r0, 0x700a4a40 <_out_char+0x20> @ imm = #0xa

P_HDR Event: Idx:62533 (Pattern: EEEEEE, Function: _out_char)
Executed Assembly Steps:
  1. 700a4a34: e7ff         	b	0x700a4a36 <_out_char+0x16> @ imm = #-0x2
  2. 700a4a36: f89d 000f    	ldrb.w	r0, [sp, #0xf]
  3. 700a4a3a: f000 fa21    	bl	0x700a4e80 <putchar_>   @ imm = #0x442
  4. 700a4e80: b510         	push	{r4, lr}
  5. 700a4e82: 4604         	mov	r4, r0
  6. 700a4e84: f000 e9ac    	blx	0x700a51e0 <putchar>    @ imm = #0x358

Sync: Idx:62534; ID:10;	BRANCH_ADDRESS : Branch address.; Addr=0x700A51E0 ~[0x700A51E0]; ISA=ARM(32);

P_HDR Event: Idx:62539 (Pattern: EEEEEEEEE, Function: putchar)
Executed Assembly Steps:
  1. 700a51e0: e59f1004     	ldr	r1, [pc, #0x4]          @ 0x700a51ec <putchar+0xc>
  2. 700a51e4: e2811018     	add	r1, r1, #24
  3. 700a51e8: eaffe5b1     	b	0x7009e8b4 <fputc>      @ imm = #-0x693c
  4. 7009e8b4: e92d483c     	push	{r2, r3, r4, r5, r11, lr}
  5. 7009e8b8: e59f20e0     	ldr	r2, [pc, #0xe0]         @ 0x7009e9a0 <fputc+0xec>
  6. 7009e8bc: e1a04001     	mov	r4, r1
  7. 7009e8c0: e1a05000     	mov	r5, r0
  8. 7009e8c4: e5922000     	ldr	r2, [r2]
  9. 7009e8c8: e12fff32     	blx	r2

Sync: Idx:62540; ID:10;	BRANCH_ADDRESS : Branch address.; Addr=0x7009A2DC ~[0x9A2DC];

P_HDR Event: Idx:62544 (Pattern: E, Function: _nop)
Executed Assembly Steps:
  1. 7009a2dc: e12fff1e     	bx	lr

Sync: Idx:62545; ID:10;	BRANCH_ADDRESS : Branch address.; Addr=0x7009E8CC ~[0x68CC];

P_HDR Event: Idx:62547 (Pattern: EEEEEEEN, Function: fputc)
Executed Assembly Steps:
  1. 7009e8cc: e1a00004     	mov	r0, r4
  2. 7009e8d0: eb000949     	bl	0x700a0dfc <__TI_wrt_ok> @ imm = #0x2524
  3. 700a0dfc: e92d4010     	push	{r4, lr}
  4. 700a0e00: e1a04000     	mov	r4, r0
  5. 700a0e04: e5901000     	ldr	r1, [r0]
  6. 700a0e08: e3a00000     	mov	r0, #0
  7. 700a0e0c: e3710001     	cmn	r1, #1
  8. 700a0e10: 0a00001c     	beq	0x700a0e88 <__TI_wrt_ok+0x8c> @ imm = #0x70

P_HDR Event: Idx:62548 (Pattern: EEN, Function: __TI_wrt_ok)
Executed Assembly Steps:
  1. 700a0e14: e5941014     	ldr	r1, [r4, #0x14]
  2. 700a0e18: e3110010     	tst	r1, #16
  3. 700a0e1c: 1a00001a     	bne	0x700a0e8c <__TI_wrt_ok+0x90> @ imm = #0x68

P_HDR Event: Idx:62549 (Pattern: EEEEEEEE, Function: __TI_wrt_ok)
Executed Assembly Steps:
  1. 700a0e20: e3110080     	tst	r1, #128
  2. 700a0e24: 0a000004     	beq	0x700a0e3c <__TI_wrt_ok+0x40> @ imm = #0x10
  3. 700a0e3c: e2010060     	and	r0, r1, #96
  4. 700a0e40: e3500040     	cmp	r0, #64
  5. 700a0e44: 1a000001     	bne	0x700a0e50 <__TI_wrt_ok+0x54> @ imm = #0x4
  6. 700a0e50: e5942004     	ldr	r2, [r4, #0x4]
  7. 700a0e54: e3a00001     	mov	r0, #1
  8. 700a0e58: e3520000     	cmp	r2, #0

P_HDR Event: Idx:62550 (Pattern: NE, Function: __TI_wrt_ok)
Executed Assembly Steps:
  1. 700a0e5c: 02112004     	andseq	r2, r1, #4
  2. 700a0e60: 1a000006     	bne	0x700a0e80 <__TI_wrt_ok+0x84> @ imm = #0x18

P_HDR Event: Idx:62551 (Pattern: EEE, Function: __TI_wrt_ok)
Executed Assembly Steps:
  1. 700a0e80: e594100c     	ldr	r1, [r4, #0xc]
  2. 700a0e84: e5841010     	str	r1, [r4, #0x10]
  3. 700a0e88: e8bd8010     	pop	{r4, pc}

Sync: Idx:62552; ID:10;	BRANCH_ADDRESS : Branch address.; Addr=0x7009E8D4 ~[0xD4];

P_HDR Event: Idx:62553 (Pattern: EN, Function: fputc)
Executed Assembly Steps:
  1. 7009e8d4: e3500000     	cmp	r0, #0
  2. 7009e8d8: 0a00000b     	beq	0x7009e90c <fputc+0x58> @ imm = #0x2c

P_HDR Event: Idx:62554 (Pattern: EEEEEEEEEEEEEEE, Function: fputc)
Executed Assembly Steps:
  1. 7009e8dc: e5940014     	ldr	r0, [r4, #0x14]
  2. 7009e8e0: e2000007     	and	r0, r0, #7
  3. 7009e8e4: e3500004     	cmp	r0, #4
  4. 7009e8e8: 1a00000a     	bne	0x7009e918 <fputc+0x64> @ imm = #0x28
  5. 7009e918: e5940008     	ldr	r0, [r4, #0x8]
  6. 7009e91c: e594100c     	ldr	r1, [r4, #0xc]
  7. 7009e920: e1500001     	cmp	r0, r1
  8. 7009e924: 3a000004     	blo	0x7009e93c <fputc+0x88> @ imm = #0x10
  9. 7009e93c: e2801001     	add	r1, r0, #1
  10. 7009e940: e355000a     	cmp	r5, #10
  11. 7009e944: e5841008     	str	r1, [r4, #0x8]
  12. 7009e948: e5c05000     	strb	r5, [r0]
  13. 7009e94c: 1a00000e     	bne	0x7009e98c <fputc+0xd8> @ imm = #0x38
  14. 7009e98c: e59f0010     	ldr	r0, [pc, #0x10]         @ 0x7009e9a4 <fputc+0xf0>
  15. 7009e990: e5900000     	ldr	r0, [r0]

P_HDR Event: Idx:62555 (Pattern: E, Function: fputc)
Executed Assembly Steps:
  1. 7009e994: e12fff30     	blx	r0

Sync: Idx:62556; ID:10;	BRANCH_ADDRESS : Branch address.; Addr=0x7009A2DC ~[0x22DC];

P_HDR Event: Idx:62558 (Pattern: E, Function: _nop)
Executed Assembly Steps:
  1. 7009a2dc: e12fff1e     	bx	lr

Sync: Idx:62560; ID:10;	BRANCH_ADDRESS : Branch address.; Addr=0x7009E998 ~[0x6998];

P_HDR Event: Idx:62563 (Pattern: EE, Function: fputc)
Executed Assembly Steps:
  1. 7009e998: e6ef0075     	uxtb	r0, r5
  2. 7009e99c: e8bd883c     	pop	{r2, r3, r4, r5, r11, pc}

Sync: Idx:62564; ID:10;	BRANCH_ADDRESS : Branch address.; Addr=0x700A4E88 ~[0x700A4E88]; ISA=Thumb2;

P_HDR Event: Idx:62569 (Pattern: EEEEEEEEEEEEEEE, Function: putchar_)
Executed Assembly Steps:
  1. 700a4e88: 4620         	mov	r0, r4
  2. 700a4e8a: f7f8 fa11    	bl	0x7009d2b0 <DebugP_memLogWriterPutChar> @ imm = #-0x7bde
  3. 7009d2b0: b580         	push	{r7, lr}
  4. 7009d2b2: b088         	sub	sp, #0x20
  5. 7009d2b4: f88d 001f    	strb.w	r0, [sp, #0x1f]
  6. 7009d2b8: f247 30cc    	movw	r0, #0x73cc
  7. 7009d2bc: f2c7 000a    	movt	r0, #0x700a
  8. 7009d2c0: 6800         	ldr	r0, [r0]
  9. 7009d2c2: bb40         	cbnz	r0, 0x7009d316 <DebugP_memLogWriterPutChar+0x66> @ imm = #0x50
  10. 7009d316: f89d 001f    	ldrb.w	r0, [sp, #0x1f]
  11. 7009d31a: f247 31cc    	movw	r1, #0x73cc
  12. 7009d31e: f2c7 010a    	movt	r1, #0x700a
  13. 7009d322: 680b         	ldr	r3, [r1]
  14. 7009d324: f644 42e0    	movw	r2, #0x4ce0
  15. 7009d328: f2c7 0208    	movt	r2, #0x7008

P_HDR Event: Idx:62570 (Pattern: EEEEEEN, Function: DebugP_memLogWriterPutChar)
Executed Assembly Steps:
  1. 7009d32c: 54d0         	strb	r0, [r2, r3]
  2. 7009d32e: 6808         	ldr	r0, [r1]
  3. 7009d330: 3001         	adds	r0, #0x1
  4. 7009d332: 6008         	str	r0, [r1]
  5. 7009d334: f89d 001f    	ldrb.w	r0, [sp, #0x1f]
  6. 7009d338: 280a         	cmp	r0, #0xa
  7. 7009d33a: d008         	beq	0x7009d34e <DebugP_memLogWriterPutChar+0x9e> @ imm = #0x10

P_HDR Event: Idx:62571 (Pattern: EEEEEEEE, Function: DebugP_memLogWriterPutChar)
Executed Assembly Steps:
  1. 7009d33c: e7ff         	b	0x7009d33e <DebugP_memLogWriterPutChar+0x8e> @ imm = #-0x2
  2. 7009d33e: f247 30cc    	movw	r0, #0x73cc
  3. 7009d342: f2c7 000a    	movt	r0, #0x700a
  4. 7009d346: 6800         	ldr	r0, [r0]
  5. 7009d348: 2878         	cmp	r0, #0x78
  6. 7009d34a: d350         	blo	0x7009d3ee <DebugP_memLogWriterPutChar+0x13e> @ imm = #0xa0
  7. 7009d3ee: b008         	add	sp, #0x20
  8. 7009d3f0: bd80         	pop	{r7, pc}

Sync: Idx:62572; ID:10;	BRANCH_ADDRESS : Branch address.; Addr=0x700A4E8E ~[0xE];

P_HDR Event: Idx:62576 (Pattern: EEEEEEEEEEEEEEE, Function: putchar_)
Executed Assembly Steps:
  1. 700a4e8e: 4620         	mov	r0, r4
  2. 700a4e90: e8bd 4010    	pop.w	{r4, lr}
  3. 700a4e94: f7fe bd2c    	b.w	0x700a38f0 <DebugP_uartLogWriterPutChar> @ imm = #-0x15a8
  4. 700a38f0: b580         	push	{r7, lr}
  5. 700a38f2: b088         	sub	sp, #0x20
  6. 700a38f4: f88d 001f    	strb.w	r0, [sp, #0x1f]
  7. 700a38f8: f89d 001f    	ldrb.w	r0, [sp, #0x1f]
  8. 700a38fc: f88d 001e    	strb.w	r0, [sp, #0x1e]
  9. 700a3900: f247 40e0    	movw	r0, #0x74e0
  10. 700a3904: f2c7 000a    	movt	r0, #0x700a
  11. 700a3908: 6800         	ldr	r0, [r0]
  12. 700a390a: f7ff fe41    	bl	0x700a3590 <UART_getHandle> @ imm = #-0x37e
  13. 700a3590: b083         	sub	sp, #0xc
  14. 700a3592: 9002         	str	r0, [sp, #0x8]
  15. 700a3594: 2000         	movs	r0, #0x0

P_HDR Event: Idx:62577 (Pattern: EEEEEEN, Function: UART_getHandle)
Executed Assembly Steps:
  1. 700a3596: 9001         	str	r0, [sp, #0x4]
  2. 700a3598: 9802         	ldr	r0, [sp, #0x8]
  3. 700a359a: f247 41e8    	movw	r1, #0x74e8
  4. 700a359e: f2c7 010a    	movt	r1, #0x700a
  5. 700a35a2: 6809         	ldr	r1, [r1]
  6. 700a35a4: 4288         	cmp	r0, r1
  7. 700a35a6: d217         	bhs	0x700a35d8 <UART_getHandle+0x48> @ imm = #0x2e

P_HDR Event: Idx:62578 (Pattern: EEEEEEEEN, Function: UART_getHandle)
Executed Assembly Steps:
  1. 700a35a8: e7ff         	b	0x700a35aa <UART_getHandle+0x1a> @ imm = #-0x2
  2. 700a35aa: 9902         	ldr	r1, [sp, #0x8]
  3. 700a35ac: f247 40a8    	movw	r0, #0x74a8
  4. 700a35b0: f2c7 000a    	movt	r0, #0x700a
  5. 700a35b4: eb00 00c1    	add.w	r0, r0, r1, lsl #3
  6. 700a35b8: 6840         	ldr	r0, [r0, #0x4]
  7. 700a35ba: 9000         	str	r0, [sp]
  8. 700a35bc: 9800         	ldr	r0, [sp]
  9. 700a35be: b150         	cbz	r0, 0x700a35d6 <UART_getHandle+0x46> @ imm = #0x14

P_HDR Event: Idx:62579 (Pattern: EEEEEEEEE, Function: UART_getHandle)
Executed Assembly Steps:
  1. 700a35c0: e7ff         	b	0x700a35c2 <UART_getHandle+0x32> @ imm = #-0x2
  2. 700a35c2: 9800         	ldr	r0, [sp]
  3. 700a35c4: f8d0 0084    	ldr.w	r0, [r0, #0x84]
  4. 700a35c8: 2801         	cmp	r0, #0x1
  5. 700a35ca: d104         	bne	0x700a35d6 <UART_getHandle+0x46> @ imm = #0x8
  6. 700a35d6: e7ff         	b	0x700a35d8 <UART_getHandle+0x48> @ imm = #-0x2
  7. 700a35d8: 9801         	ldr	r0, [sp, #0x4]
  8. 700a35da: b003         	add	sp, #0xc
  9. 700a35dc: 4770         	bx	lr

Sync: Idx:62580; ID:10;	BRANCH_ADDRESS : Branch address.; Addr=0x700A390E ~[0xA390E];

P_HDR Event: Idx:62583 (Pattern: EEEEE, Function: DebugP_uartLogWriterPutChar)
Executed Assembly Steps:
  1. 700a390e: 9006         	str	r0, [sp, #0x18]
  2. 700a3910: 9806         	ldr	r0, [sp, #0x18]
  3. 700a3912: b170         	cbz	r0, 0x700a3932 <DebugP_uartLogWriterPutChar+0x42> @ imm = #0x1c
  4. 700a3932: b008         	add	sp, #0x20
  5. 700a3934: bd80         	pop	{r7, pc}

Sync: Idx:62584; ID:10;	BRANCH_ADDRESS : Branch address.; Addr=0x700A4A3E ~[0xA4A3E];

P_HDR Event: Idx:62587 (Pattern: EEE, Function: _out_char)
Executed Assembly Steps:
  1. 700a4a3e: e7ff         	b	0x700a4a40 <_out_char+0x20> @ imm = #-0x2
  2. 700a4a40: b004         	add	sp, #0x10
  3. 700a4a42: bd80         	pop	{r7, pc}

Sync: Idx:62588; ID:10;	BRANCH_ADDRESS : Branch address.; Addr=0x70098F58 ~[0x98F58];

P_HDR Event: Idx:62592 (Pattern: EEEEEEEN, Function: _vsnprintf)
Executed Assembly Steps:
  1. 70098f58: 983c         	ldr	r0, [sp, #0xf0]
  2. 70098f5a: 3001         	adds	r0, #0x1
  3. 70098f5c: 903c         	str	r0, [sp, #0xf0]
  4. 70098f5e: e7e6         	b	0x70098f2e <_vsnprintf+0x2e> @ imm = #-0x34
  5. 70098f2e: 983c         	ldr	r0, [sp, #0xf0]
  6. 70098f30: 7800         	ldrb	r0, [r0]
  7. 70098f32: 2800         	cmp	r0, #0x0
  8. 70098f34: f000 84e3    	beq.w	0x700998fe <_vsnprintf+0x9fe> @ imm = #0x9c6

P_HDR Event: Idx:62593 (Pattern: EEEEN, Function: _vsnprintf)
Executed Assembly Steps:
  1. 70098f38: e7ff         	b	0x70098f3a <_vsnprintf+0x3a> @ imm = #-0x2
  2. 70098f3a: 983c         	ldr	r0, [sp, #0xf0]
  3. 70098f3c: 7800         	ldrb	r0, [r0]
  4. 70098f3e: 2825         	cmp	r0, #0x25
  5. 70098f40: d00e         	beq	0x70098f60 <_vsnprintf+0x60> @ imm = #0x1c

P_HDR Event: Idx:62594 (Pattern: EEEEEEEEEE, Function: _vsnprintf)
Executed Assembly Steps:
  1. 70098f42: e7ff         	b	0x70098f44 <_vsnprintf+0x44> @ imm = #-0x2
  2. 70098f44: f8dd c0fc    	ldr.w	r12, [sp, #0xfc]
  3. 70098f48: 983c         	ldr	r0, [sp, #0xf0]
  4. 70098f4a: 7800         	ldrb	r0, [r0]
  5. 70098f4c: 993e         	ldr	r1, [sp, #0xf8]
  6. 70098f4e: 9a37         	ldr	r2, [sp, #0xdc]
  7. 70098f50: 1c53         	adds	r3, r2, #0x1
  8. 70098f52: 9337         	str	r3, [sp, #0xdc]
  9. 70098f54: 9b3d         	ldr	r3, [sp, #0xf4]
  10. 70098f56: 47e0         	blx	r12

Sync: Idx:62595; ID:10;	BRANCH_ADDRESS : Branch address.; Addr=0x700A4A20 ~[0xA4A20];

P_HDR Event: Idx:62598 (Pattern: EEEEEEEN, Function: _out_char)
Executed Assembly Steps:
  1. 700a4a20: b580         	push	{r7, lr}
  2. 700a4a22: b084         	sub	sp, #0x10
  3. 700a4a24: f88d 000f    	strb.w	r0, [sp, #0xf]
  4. 700a4a28: 9102         	str	r1, [sp, #0x8]
  5. 700a4a2a: 9201         	str	r2, [sp, #0x4]
  6. 700a4a2c: 9300         	str	r3, [sp]
  7. 700a4a2e: f89d 000f    	ldrb.w	r0, [sp, #0xf]
  8. 700a4a32: b128         	cbz	r0, 0x700a4a40 <_out_char+0x20> @ imm = #0xa

P_HDR Event: Idx:62599 (Pattern: EEEEEE, Function: _out_char)
Executed Assembly Steps:
  1. 700a4a34: e7ff         	b	0x700a4a36 <_out_char+0x16> @ imm = #-0x2
  2. 700a4a36: f89d 000f    	ldrb.w	r0, [sp, #0xf]
  3. 700a4a3a: f000 fa21    	bl	0x700a4e80 <putchar_>   @ imm = #0x442
  4. 700a4e80: b510         	push	{r4, lr}
  5. 700a4e82: 4604         	mov	r4, r0
  6. 700a4e84: f000 e9ac    	blx	0x700a51e0 <putchar>    @ imm = #0x358

Sync: Idx:62600; ID:10;	BRANCH_ADDRESS : Branch address.; Addr=0x700A51E0 ~[0x700A51E0]; ISA=ARM(32);

P_HDR Event: Idx:62605 (Pattern: EEEEEEEEE, Function: putchar)
Executed Assembly Steps:
  1. 700a51e0: e59f1004     	ldr	r1, [pc, #0x4]          @ 0x700a51ec <putchar+0xc>
  2. 700a51e4: e2811018     	add	r1, r1, #24
  3. 700a51e8: eaffe5b1     	b	0x7009e8b4 <fputc>      @ imm = #-0x693c
  4. 7009e8b4: e92d483c     	push	{r2, r3, r4, r5, r11, lr}
  5. 7009e8b8: e59f20e0     	ldr	r2, [pc, #0xe0]         @ 0x7009e9a0 <fputc+0xec>
  6. 7009e8bc: e1a04001     	mov	r4, r1
  7. 7009e8c0: e1a05000     	mov	r5, r0
  8. 7009e8c4: e5922000     	ldr	r2, [r2]
  9. 7009e8c8: e12fff32     	blx	r2

Sync: Idx:62606; ID:10;	BRANCH_ADDRESS : Branch address.; Addr=0x7009A2DC ~[0x9A2DC];

P_HDR Event: Idx:62610 (Pattern: E, Function: _nop)
Executed Assembly Steps:
  1. 7009a2dc: e12fff1e     	bx	lr

Sync: Idx:62611; ID:10;	BRANCH_ADDRESS : Branch address.; Addr=0x7009E8CC ~[0x68CC];

P_HDR Event: Idx:62613 (Pattern: EEEEEEEN, Function: fputc)
Executed Assembly Steps:
  1. 7009e8cc: e1a00004     	mov	r0, r4
  2. 7009e8d0: eb000949     	bl	0x700a0dfc <__TI_wrt_ok> @ imm = #0x2524
  3. 700a0dfc: e92d4010     	push	{r4, lr}
  4. 700a0e00: e1a04000     	mov	r4, r0
  5. 700a0e04: e5901000     	ldr	r1, [r0]
  6. 700a0e08: e3a00000     	mov	r0, #0
  7. 700a0e0c: e3710001     	cmn	r1, #1
  8. 700a0e10: 0a00001c     	beq	0x700a0e88 <__TI_wrt_ok+0x8c> @ imm = #0x70

P_HDR Event: Idx:62614 (Pattern: EEN, Function: __TI_wrt_ok)
Executed Assembly Steps:
  1. 700a0e14: e5941014     	ldr	r1, [r4, #0x14]
  2. 700a0e18: e3110010     	tst	r1, #16
  3. 700a0e1c: 1a00001a     	bne	0x700a0e8c <__TI_wrt_ok+0x90> @ imm = #0x68

P_HDR Event: Idx:62615 (Pattern: EEEEEEEE, Function: __TI_wrt_ok)
Executed Assembly Steps:
  1. 700a0e20: e3110080     	tst	r1, #128
  2. 700a0e24: 0a000004     	beq	0x700a0e3c <__TI_wrt_ok+0x40> @ imm = #0x10
  3. 700a0e3c: e2010060     	and	r0, r1, #96
  4. 700a0e40: e3500040     	cmp	r0, #64
  5. 700a0e44: 1a000001     	bne	0x700a0e50 <__TI_wrt_ok+0x54> @ imm = #0x4
  6. 700a0e50: e5942004     	ldr	r2, [r4, #0x4]
  7. 700a0e54: e3a00001     	mov	r0, #1
  8. 700a0e58: e3520000     	cmp	r2, #0

P_HDR Event: Idx:62616 (Pattern: NE, Function: __TI_wrt_ok)
Executed Assembly Steps:
  1. 700a0e5c: 02112004     	andseq	r2, r1, #4
  2. 700a0e60: 1a000006     	bne	0x700a0e80 <__TI_wrt_ok+0x84> @ imm = #0x18

P_HDR Event: Idx:62617 (Pattern: EEE, Function: __TI_wrt_ok)
Executed Assembly Steps:
  1. 700a0e80: e594100c     	ldr	r1, [r4, #0xc]
  2. 700a0e84: e5841010     	str	r1, [r4, #0x10]
  3. 700a0e88: e8bd8010     	pop	{r4, pc}

Sync: Idx:62618; ID:10;	BRANCH_ADDRESS : Branch address.; Addr=0x7009E8D4 ~[0xD4];

P_HDR Event: Idx:62619 (Pattern: EN, Function: fputc)
Executed Assembly Steps:
  1. 7009e8d4: e3500000     	cmp	r0, #0
  2. 7009e8d8: 0a00000b     	beq	0x7009e90c <fputc+0x58> @ imm = #0x2c

P_HDR Event: Idx:62620 (Pattern: EEEEEEEEEEEEEEE, Function: fputc)
Executed Assembly Steps:
  1. 7009e8dc: e5940014     	ldr	r0, [r4, #0x14]
  2. 7009e8e0: e2000007     	and	r0, r0, #7
  3. 7009e8e4: e3500004     	cmp	r0, #4
  4. 7009e8e8: 1a00000a     	bne	0x7009e918 <fputc+0x64> @ imm = #0x28
  5. 7009e918: e5940008     	ldr	r0, [r4, #0x8]
  6. 7009e91c: e594100c     	ldr	r1, [r4, #0xc]
  7. 7009e920: e1500001     	cmp	r0, r1
  8. 7009e924: 3a000004     	blo	0x7009e93c <fputc+0x88> @ imm = #0x10
  9. 7009e93c: e2801001     	add	r1, r0, #1
  10. 7009e940: e355000a     	cmp	r5, #10
  11. 7009e944: e5841008     	str	r1, [r4, #0x8]
  12. 7009e948: e5c05000     	strb	r5, [r0]
  13. 7009e94c: 1a00000e     	bne	0x7009e98c <fputc+0xd8> @ imm = #0x38
  14. 7009e98c: e59f0010     	ldr	r0, [pc, #0x10]         @ 0x7009e9a4 <fputc+0xf0>
  15. 7009e990: e5900000     	ldr	r0, [r0]

P_HDR Event: Idx:62621 (Pattern: E, Function: fputc)
Executed Assembly Steps:
  1. 7009e994: e12fff30     	blx	r0

Sync: Idx:62622; ID:10;	BRANCH_ADDRESS : Branch address.; Addr=0x7009A2DC ~[0x22DC];

P_HDR Event: Idx:62625 (Pattern: E, Function: _nop)
Executed Assembly Steps:
  1. 7009a2dc: e12fff1e     	bx	lr

Sync: Idx:62626; ID:10;	BRANCH_ADDRESS : Branch address.; Addr=0x7009E998 ~[0x6998];

P_HDR Event: Idx:62628 (Pattern: EE, Function: fputc)
Executed Assembly Steps:
  1. 7009e998: e6ef0075     	uxtb	r0, r5
  2. 7009e99c: e8bd883c     	pop	{r2, r3, r4, r5, r11, pc}

Sync: Idx:62629; ID:10;	BRANCH_ADDRESS : Branch address.; Addr=0x700A4E88 ~[0x700A4E88]; ISA=Thumb2;

P_HDR Event: Idx:62634 (Pattern: EEEEEEEEEEEEEEE, Function: putchar_)
Executed Assembly Steps:
  1. 700a4e88: 4620         	mov	r0, r4
  2. 700a4e8a: f7f8 fa11    	bl	0x7009d2b0 <DebugP_memLogWriterPutChar> @ imm = #-0x7bde
  3. 7009d2b0: b580         	push	{r7, lr}
  4. 7009d2b2: b088         	sub	sp, #0x20
  5. 7009d2b4: f88d 001f    	strb.w	r0, [sp, #0x1f]
  6. 7009d2b8: f247 30cc    	movw	r0, #0x73cc
  7. 7009d2bc: f2c7 000a    	movt	r0, #0x700a
  8. 7009d2c0: 6800         	ldr	r0, [r0]
  9. 7009d2c2: bb40         	cbnz	r0, 0x7009d316 <DebugP_memLogWriterPutChar+0x66> @ imm = #0x50
  10. 7009d316: f89d 001f    	ldrb.w	r0, [sp, #0x1f]
  11. 7009d31a: f247 31cc    	movw	r1, #0x73cc
  12. 7009d31e: f2c7 010a    	movt	r1, #0x700a
  13. 7009d322: 680b         	ldr	r3, [r1]
  14. 7009d324: f644 42e0    	movw	r2, #0x4ce0
  15. 7009d328: f2c7 0208    	movt	r2, #0x7008

P_HDR Event: Idx:62635 (Pattern: EEEEEEN, Function: DebugP_memLogWriterPutChar)
Executed Assembly Steps:
  1. 7009d32c: 54d0         	strb	r0, [r2, r3]
  2. 7009d32e: 6808         	ldr	r0, [r1]
  3. 7009d330: 3001         	adds	r0, #0x1
  4. 7009d332: 6008         	str	r0, [r1]
  5. 7009d334: f89d 001f    	ldrb.w	r0, [sp, #0x1f]
  6. 7009d338: 280a         	cmp	r0, #0xa
  7. 7009d33a: d008         	beq	0x7009d34e <DebugP_memLogWriterPutChar+0x9e> @ imm = #0x10

P_HDR Event: Idx:62636 (Pattern: EEEEEEEE, Function: DebugP_memLogWriterPutChar)
Executed Assembly Steps:
  1. 7009d33c: e7ff         	b	0x7009d33e <DebugP_memLogWriterPutChar+0x8e> @ imm = #-0x2
  2. 7009d33e: f247 30cc    	movw	r0, #0x73cc
  3. 7009d342: f2c7 000a    	movt	r0, #0x700a
  4. 7009d346: 6800         	ldr	r0, [r0]
  5. 7009d348: 2878         	cmp	r0, #0x78
  6. 7009d34a: d350         	blo	0x7009d3ee <DebugP_memLogWriterPutChar+0x13e> @ imm = #0xa0
  7. 7009d3ee: b008         	add	sp, #0x20
  8. 7009d3f0: bd80         	pop	{r7, pc}

Sync: Idx:62637; ID:10;	BRANCH_ADDRESS : Branch address.; Addr=0x700A4E8E ~[0xE];

P_HDR Event: Idx:62638 (Pattern: EEEEEEEEEEEEEEE, Function: putchar_)
Executed Assembly Steps:
  1. 700a4e8e: 4620         	mov	r0, r4
  2. 700a4e90: e8bd 4010    	pop.w	{r4, lr}
  3. 700a4e94: f7fe bd2c    	b.w	0x700a38f0 <DebugP_uartLogWriterPutChar> @ imm = #-0x15a8
  4. 700a38f0: b580         	push	{r7, lr}
  5. 700a38f2: b088         	sub	sp, #0x20
  6. 700a38f4: f88d 001f    	strb.w	r0, [sp, #0x1f]
  7. 700a38f8: f89d 001f    	ldrb.w	r0, [sp, #0x1f]
  8. 700a38fc: f88d 001e    	strb.w	r0, [sp, #0x1e]
  9. 700a3900: f247 40e0    	movw	r0, #0x74e0
  10. 700a3904: f2c7 000a    	movt	r0, #0x700a
  11. 700a3908: 6800         	ldr	r0, [r0]
  12. 700a390a: f7ff fe41    	bl	0x700a3590 <UART_getHandle> @ imm = #-0x37e
  13. 700a3590: b083         	sub	sp, #0xc
  14. 700a3592: 9002         	str	r0, [sp, #0x8]
  15. 700a3594: 2000         	movs	r0, #0x0

P_HDR Event: Idx:62640 (Pattern: EEEEEEN, Function: UART_getHandle)
Executed Assembly Steps:
  1. 700a3596: 9001         	str	r0, [sp, #0x4]
  2. 700a3598: 9802         	ldr	r0, [sp, #0x8]
  3. 700a359a: f247 41e8    	movw	r1, #0x74e8
  4. 700a359e: f2c7 010a    	movt	r1, #0x700a
  5. 700a35a2: 6809         	ldr	r1, [r1]
  6. 700a35a4: 4288         	cmp	r0, r1
  7. 700a35a6: d217         	bhs	0x700a35d8 <UART_getHandle+0x48> @ imm = #0x2e

P_HDR Event: Idx:62641 (Pattern: EEEEEEEEN, Function: UART_getHandle)
Executed Assembly Steps:
  1. 700a35a8: e7ff         	b	0x700a35aa <UART_getHandle+0x1a> @ imm = #-0x2
  2. 700a35aa: 9902         	ldr	r1, [sp, #0x8]
  3. 700a35ac: f247 40a8    	movw	r0, #0x74a8
  4. 700a35b0: f2c7 000a    	movt	r0, #0x700a
  5. 700a35b4: eb00 00c1    	add.w	r0, r0, r1, lsl #3
  6. 700a35b8: 6840         	ldr	r0, [r0, #0x4]
  7. 700a35ba: 9000         	str	r0, [sp]
  8. 700a35bc: 9800         	ldr	r0, [sp]
  9. 700a35be: b150         	cbz	r0, 0x700a35d6 <UART_getHandle+0x46> @ imm = #0x14

P_HDR Event: Idx:62642 (Pattern: EEEEEEEEE, Function: UART_getHandle)
Executed Assembly Steps:
  1. 700a35c0: e7ff         	b	0x700a35c2 <UART_getHandle+0x32> @ imm = #-0x2
  2. 700a35c2: 9800         	ldr	r0, [sp]
  3. 700a35c4: f8d0 0084    	ldr.w	r0, [r0, #0x84]
  4. 700a35c8: 2801         	cmp	r0, #0x1
  5. 700a35ca: d104         	bne	0x700a35d6 <UART_getHandle+0x46> @ imm = #0x8
  6. 700a35d6: e7ff         	b	0x700a35d8 <UART_getHandle+0x48> @ imm = #-0x2
  7. 700a35d8: 9801         	ldr	r0, [sp, #0x4]
  8. 700a35da: b003         	add	sp, #0xc
  9. 700a35dc: 4770         	bx	lr

Sync: Idx:62643; ID:10;	BRANCH_ADDRESS : Branch address.; Addr=0x700A390E ~[0xA390E];

P_HDR Event: Idx:62646 (Pattern: EEEEE, Function: DebugP_uartLogWriterPutChar)
Executed Assembly Steps:
  1. 700a390e: 9006         	str	r0, [sp, #0x18]
  2. 700a3910: 9806         	ldr	r0, [sp, #0x18]
  3. 700a3912: b170         	cbz	r0, 0x700a3932 <DebugP_uartLogWriterPutChar+0x42> @ imm = #0x1c
  4. 700a3932: b008         	add	sp, #0x20
  5. 700a3934: bd80         	pop	{r7, pc}

Sync: Idx:62647; ID:10;	BRANCH_ADDRESS : Branch address.; Addr=0x700A4A3E ~[0xA4A3E];

P_HDR Event: Idx:62650 (Pattern: EEE, Function: _out_char)
Executed Assembly Steps:
  1. 700a4a3e: e7ff         	b	0x700a4a40 <_out_char+0x20> @ imm = #-0x2
  2. 700a4a40: b004         	add	sp, #0x10
  3. 700a4a42: bd80         	pop	{r7, pc}

Sync: Idx:62651; ID:10;	BRANCH_ADDRESS : Branch address.; Addr=0x70098F58 ~[0x98F58];

P_HDR Event: Idx:62654 (Pattern: EEEEEEEN, Function: _vsnprintf)
Executed Assembly Steps:
  1. 70098f58: 983c         	ldr	r0, [sp, #0xf0]
  2. 70098f5a: 3001         	adds	r0, #0x1
  3. 70098f5c: 903c         	str	r0, [sp, #0xf0]
  4. 70098f5e: e7e6         	b	0x70098f2e <_vsnprintf+0x2e> @ imm = #-0x34
  5. 70098f2e: 983c         	ldr	r0, [sp, #0xf0]
  6. 70098f30: 7800         	ldrb	r0, [r0]
  7. 70098f32: 2800         	cmp	r0, #0x0
  8. 70098f34: f000 84e3    	beq.w	0x700998fe <_vsnprintf+0x9fe> @ imm = #0x9c6

P_HDR Event: Idx:62656 (Pattern: EEEEN, Function: _vsnprintf)
Executed Assembly Steps:
  1. 70098f38: e7ff         	b	0x70098f3a <_vsnprintf+0x3a> @ imm = #-0x2
  2. 70098f3a: 983c         	ldr	r0, [sp, #0xf0]
  3. 70098f3c: 7800         	ldrb	r0, [r0]
  4. 70098f3e: 2825         	cmp	r0, #0x25
  5. 70098f40: d00e         	beq	0x70098f60 <_vsnprintf+0x60> @ imm = #0x1c

P_HDR Event: Idx:62657 (Pattern: EEEEEEEEEE, Function: _vsnprintf)
Executed Assembly Steps:
  1. 70098f42: e7ff         	b	0x70098f44 <_vsnprintf+0x44> @ imm = #-0x2
  2. 70098f44: f8dd c0fc    	ldr.w	r12, [sp, #0xfc]
  3. 70098f48: 983c         	ldr	r0, [sp, #0xf0]
  4. 70098f4a: 7800         	ldrb	r0, [r0]
  5. 70098f4c: 993e         	ldr	r1, [sp, #0xf8]
  6. 70098f4e: 9a37         	ldr	r2, [sp, #0xdc]
  7. 70098f50: 1c53         	adds	r3, r2, #0x1
  8. 70098f52: 9337         	str	r3, [sp, #0xdc]
  9. 70098f54: 9b3d         	ldr	r3, [sp, #0xf4]
  10. 70098f56: 47e0         	blx	r12

Sync: Idx:62658; ID:10;	BRANCH_ADDRESS : Branch address.; Addr=0x700A4A20 ~[0xA4A20];

P_HDR Event: Idx:62661 (Pattern: EEEEEEEN, Function: _out_char)
Executed Assembly Steps:
  1. 700a4a20: b580         	push	{r7, lr}
  2. 700a4a22: b084         	sub	sp, #0x10
  3. 700a4a24: f88d 000f    	strb.w	r0, [sp, #0xf]
  4. 700a4a28: 9102         	str	r1, [sp, #0x8]
  5. 700a4a2a: 9201         	str	r2, [sp, #0x4]
  6. 700a4a2c: 9300         	str	r3, [sp]
  7. 700a4a2e: f89d 000f    	ldrb.w	r0, [sp, #0xf]
  8. 700a4a32: b128         	cbz	r0, 0x700a4a40 <_out_char+0x20> @ imm = #0xa

P_HDR Event: Idx:62662 (Pattern: EEEEEE, Function: _out_char)
Executed Assembly Steps:
  1. 700a4a34: e7ff         	b	0x700a4a36 <_out_char+0x16> @ imm = #-0x2
  2. 700a4a36: f89d 000f    	ldrb.w	r0, [sp, #0xf]
  3. 700a4a3a: f000 fa21    	bl	0x700a4e80 <putchar_>   @ imm = #0x442
  4. 700a4e80: b510         	push	{r4, lr}
  5. 700a4e82: 4604         	mov	r4, r0
  6. 700a4e84: f000 e9ac    	blx	0x700a51e0 <putchar>    @ imm = #0x358

Sync: Idx:62663; ID:10;	BRANCH_ADDRESS : Branch address.; Addr=0x700A51E0 ~[0x700A51E0]; ISA=ARM(32);

P_HDR Event: Idx:62668 (Pattern: EEEEEEEEE, Function: putchar)
Executed Assembly Steps:
  1. 700a51e0: e59f1004     	ldr	r1, [pc, #0x4]          @ 0x700a51ec <putchar+0xc>
  2. 700a51e4: e2811018     	add	r1, r1, #24
  3. 700a51e8: eaffe5b1     	b	0x7009e8b4 <fputc>      @ imm = #-0x693c
  4. 7009e8b4: e92d483c     	push	{r2, r3, r4, r5, r11, lr}
  5. 7009e8b8: e59f20e0     	ldr	r2, [pc, #0xe0]         @ 0x7009e9a0 <fputc+0xec>
  6. 7009e8bc: e1a04001     	mov	r4, r1
  7. 7009e8c0: e1a05000     	mov	r5, r0
  8. 7009e8c4: e5922000     	ldr	r2, [r2]
  9. 7009e8c8: e12fff32     	blx	r2

Sync: Idx:62669; ID:10;	BRANCH_ADDRESS : Branch address.; Addr=0x7009A2DC ~[0x9A2DC];

P_HDR Event: Idx:62673 (Pattern: E, Function: _nop)
Executed Assembly Steps:
  1. 7009a2dc: e12fff1e     	bx	lr

Sync: Idx:62674; ID:10;	BRANCH_ADDRESS : Branch address.; Addr=0x7009E8CC ~[0x68CC];

P_HDR Event: Idx:62676 (Pattern: EEEEEEEN, Function: fputc)
Executed Assembly Steps:
  1. 7009e8cc: e1a00004     	mov	r0, r4
  2. 7009e8d0: eb000949     	bl	0x700a0dfc <__TI_wrt_ok> @ imm = #0x2524
  3. 700a0dfc: e92d4010     	push	{r4, lr}
  4. 700a0e00: e1a04000     	mov	r4, r0
  5. 700a0e04: e5901000     	ldr	r1, [r0]
  6. 700a0e08: e3a00000     	mov	r0, #0
  7. 700a0e0c: e3710001     	cmn	r1, #1
  8. 700a0e10: 0a00001c     	beq	0x700a0e88 <__TI_wrt_ok+0x8c> @ imm = #0x70

P_HDR Event: Idx:62677 (Pattern: EEN, Function: __TI_wrt_ok)
Executed Assembly Steps:
  1. 700a0e14: e5941014     	ldr	r1, [r4, #0x14]
  2. 700a0e18: e3110010     	tst	r1, #16
  3. 700a0e1c: 1a00001a     	bne	0x700a0e8c <__TI_wrt_ok+0x90> @ imm = #0x68

P_HDR Event: Idx:62678 (Pattern: EEEEEEEE, Function: __TI_wrt_ok)
Executed Assembly Steps:
  1. 700a0e20: e3110080     	tst	r1, #128
  2. 700a0e24: 0a000004     	beq	0x700a0e3c <__TI_wrt_ok+0x40> @ imm = #0x10
  3. 700a0e3c: e2010060     	and	r0, r1, #96
  4. 700a0e40: e3500040     	cmp	r0, #64
  5. 700a0e44: 1a000001     	bne	0x700a0e50 <__TI_wrt_ok+0x54> @ imm = #0x4
  6. 700a0e50: e5942004     	ldr	r2, [r4, #0x4]
  7. 700a0e54: e3a00001     	mov	r0, #1
  8. 700a0e58: e3520000     	cmp	r2, #0

P_HDR Event: Idx:62679 (Pattern: NE, Function: __TI_wrt_ok)
Executed Assembly Steps:
  1. 700a0e5c: 02112004     	andseq	r2, r1, #4
  2. 700a0e60: 1a000006     	bne	0x700a0e80 <__TI_wrt_ok+0x84> @ imm = #0x18

P_HDR Event: Idx:62680 (Pattern: EEE, Function: __TI_wrt_ok)
Executed Assembly Steps:
  1. 700a0e80: e594100c     	ldr	r1, [r4, #0xc]
  2. 700a0e84: e5841010     	str	r1, [r4, #0x10]
  3. 700a0e88: e8bd8010     	pop	{r4, pc}

Sync: Idx:62681; ID:10;	BRANCH_ADDRESS : Branch address.; Addr=0x7009E8D4 ~[0xD4];

P_HDR Event: Idx:62682 (Pattern: EN, Function: fputc)
Executed Assembly Steps:
  1. 7009e8d4: e3500000     	cmp	r0, #0
  2. 7009e8d8: 0a00000b     	beq	0x7009e90c <fputc+0x58> @ imm = #0x2c

P_HDR Event: Idx:62683 (Pattern: EEEEEEEEEEEEEEE, Function: fputc)
Executed Assembly Steps:
  1. 7009e8dc: e5940014     	ldr	r0, [r4, #0x14]
  2. 7009e8e0: e2000007     	and	r0, r0, #7
  3. 7009e8e4: e3500004     	cmp	r0, #4
  4. 7009e8e8: 1a00000a     	bne	0x7009e918 <fputc+0x64> @ imm = #0x28
  5. 7009e918: e5940008     	ldr	r0, [r4, #0x8]
  6. 7009e91c: e594100c     	ldr	r1, [r4, #0xc]
  7. 7009e920: e1500001     	cmp	r0, r1
  8. 7009e924: 3a000004     	blo	0x7009e93c <fputc+0x88> @ imm = #0x10
  9. 7009e93c: e2801001     	add	r1, r0, #1
  10. 7009e940: e355000a     	cmp	r5, #10
  11. 7009e944: e5841008     	str	r1, [r4, #0x8]
  12. 7009e948: e5c05000     	strb	r5, [r0]
  13. 7009e94c: 1a00000e     	bne	0x7009e98c <fputc+0xd8> @ imm = #0x38
  14. 7009e98c: e59f0010     	ldr	r0, [pc, #0x10]         @ 0x7009e9a4 <fputc+0xf0>
  15. 7009e990: e5900000     	ldr	r0, [r0]

P_HDR Event: Idx:62684 (Pattern: E, Function: fputc)
Executed Assembly Steps:
  1. 7009e994: e12fff30     	blx	r0

Sync: Idx:62685; ID:10;	BRANCH_ADDRESS : Branch address.; Addr=0x7009A2DC ~[0x22DC];

P_HDR Event: Idx:62688 (Pattern: E, Function: _nop)
Executed Assembly Steps:
  1. 7009a2dc: e12fff1e     	bx	lr

Sync: Idx:62689; ID:10;	BRANCH_ADDRESS : Branch address.; Addr=0x7009E998 ~[0x6998];

P_HDR Event: Idx:62691 (Pattern: EE, Function: fputc)
Executed Assembly Steps:
  1. 7009e998: e6ef0075     	uxtb	r0, r5
  2. 7009e99c: e8bd883c     	pop	{r2, r3, r4, r5, r11, pc}

Sync: Idx:62692; ID:10;	BRANCH_ADDRESS : Branch address.; Addr=0x700A4E88 ~[0x700A4E88]; ISA=Thumb2;

P_HDR Event: Idx:62697 (Pattern: EEEEEEEEEEEEEEE, Function: putchar_)
Executed Assembly Steps:
  1. 700a4e88: 4620         	mov	r0, r4
  2. 700a4e8a: f7f8 fa11    	bl	0x7009d2b0 <DebugP_memLogWriterPutChar> @ imm = #-0x7bde
  3. 7009d2b0: b580         	push	{r7, lr}
  4. 7009d2b2: b088         	sub	sp, #0x20
  5. 7009d2b4: f88d 001f    	strb.w	r0, [sp, #0x1f]
  6. 7009d2b8: f247 30cc    	movw	r0, #0x73cc
  7. 7009d2bc: f2c7 000a    	movt	r0, #0x700a
  8. 7009d2c0: 6800         	ldr	r0, [r0]
  9. 7009d2c2: bb40         	cbnz	r0, 0x7009d316 <DebugP_memLogWriterPutChar+0x66> @ imm = #0x50
  10. 7009d316: f89d 001f    	ldrb.w	r0, [sp, #0x1f]
  11. 7009d31a: f247 31cc    	movw	r1, #0x73cc
  12. 7009d31e: f2c7 010a    	movt	r1, #0x700a
  13. 7009d322: 680b         	ldr	r3, [r1]
  14. 7009d324: f644 42e0    	movw	r2, #0x4ce0
  15. 7009d328: f2c7 0208    	movt	r2, #0x7008

P_HDR Event: Idx:62698 (Pattern: EEEEEEN, Function: DebugP_memLogWriterPutChar)
Executed Assembly Steps:
  1. 7009d32c: 54d0         	strb	r0, [r2, r3]
  2. 7009d32e: 6808         	ldr	r0, [r1]
  3. 7009d330: 3001         	adds	r0, #0x1
  4. 7009d332: 6008         	str	r0, [r1]
  5. 7009d334: f89d 001f    	ldrb.w	r0, [sp, #0x1f]
  6. 7009d338: 280a         	cmp	r0, #0xa
  7. 7009d33a: d008         	beq	0x7009d34e <DebugP_memLogWriterPutChar+0x9e> @ imm = #0x10

P_HDR Event: Idx:62699 (Pattern: EEEEEEEE, Function: DebugP_memLogWriterPutChar)
Executed Assembly Steps:
  1. 7009d33c: e7ff         	b	0x7009d33e <DebugP_memLogWriterPutChar+0x8e> @ imm = #-0x2
  2. 7009d33e: f247 30cc    	movw	r0, #0x73cc
  3. 7009d342: f2c7 000a    	movt	r0, #0x700a
  4. 7009d346: 6800         	ldr	r0, [r0]
  5. 7009d348: 2878         	cmp	r0, #0x78
  6. 7009d34a: d350         	blo	0x7009d3ee <DebugP_memLogWriterPutChar+0x13e> @ imm = #0xa0
  7. 7009d3ee: b008         	add	sp, #0x20
  8. 7009d3f0: bd80         	pop	{r7, pc}

Sync: Idx:62700; ID:10;	BRANCH_ADDRESS : Branch address.; Addr=0x700A4E8E ~[0xE];

P_HDR Event: Idx:62701 (Pattern: EEEEEEEEEEEEEEE, Function: putchar_)
Executed Assembly Steps:
  1. 700a4e8e: 4620         	mov	r0, r4
  2. 700a4e90: e8bd 4010    	pop.w	{r4, lr}
  3. 700a4e94: f7fe bd2c    	b.w	0x700a38f0 <DebugP_uartLogWriterPutChar> @ imm = #-0x15a8
  4. 700a38f0: b580         	push	{r7, lr}
  5. 700a38f2: b088         	sub	sp, #0x20
  6. 700a38f4: f88d 001f    	strb.w	r0, [sp, #0x1f]
  7. 700a38f8: f89d 001f    	ldrb.w	r0, [sp, #0x1f]
  8. 700a38fc: f88d 001e    	strb.w	r0, [sp, #0x1e]
  9. 700a3900: f247 40e0    	movw	r0, #0x74e0
  10. 700a3904: f2c7 000a    	movt	r0, #0x700a
  11. 700a3908: 6800         	ldr	r0, [r0]
  12. 700a390a: f7ff fe41    	bl	0x700a3590 <UART_getHandle> @ imm = #-0x37e
  13. 700a3590: b083         	sub	sp, #0xc
  14. 700a3592: 9002         	str	r0, [sp, #0x8]
  15. 700a3594: 2000         	movs	r0, #0x0

P_HDR Event: Idx:62702 (Pattern: EEEEEEN, Function: UART_getHandle)
Executed Assembly Steps:
  1. 700a3596: 9001         	str	r0, [sp, #0x4]
  2. 700a3598: 9802         	ldr	r0, [sp, #0x8]
  3. 700a359a: f247 41e8    	movw	r1, #0x74e8
  4. 700a359e: f2c7 010a    	movt	r1, #0x700a
  5. 700a35a2: 6809         	ldr	r1, [r1]
  6. 700a35a4: 4288         	cmp	r0, r1
  7. 700a35a6: d217         	bhs	0x700a35d8 <UART_getHandle+0x48> @ imm = #0x2e

P_HDR Event: Idx:62704 (Pattern: EEEEEEEEN, Function: UART_getHandle)
Executed Assembly Steps:
  1. 700a35a8: e7ff         	b	0x700a35aa <UART_getHandle+0x1a> @ imm = #-0x2
  2. 700a35aa: 9902         	ldr	r1, [sp, #0x8]
  3. 700a35ac: f247 40a8    	movw	r0, #0x74a8
  4. 700a35b0: f2c7 000a    	movt	r0, #0x700a
  5. 700a35b4: eb00 00c1    	add.w	r0, r0, r1, lsl #3
  6. 700a35b8: 6840         	ldr	r0, [r0, #0x4]
  7. 700a35ba: 9000         	str	r0, [sp]
  8. 700a35bc: 9800         	ldr	r0, [sp]
  9. 700a35be: b150         	cbz	r0, 0x700a35d6 <UART_getHandle+0x46> @ imm = #0x14

P_HDR Event: Idx:62705 (Pattern: EEEEEEEEE, Function: UART_getHandle)
Executed Assembly Steps:
  1. 700a35c0: e7ff         	b	0x700a35c2 <UART_getHandle+0x32> @ imm = #-0x2
  2. 700a35c2: 9800         	ldr	r0, [sp]
  3. 700a35c4: f8d0 0084    	ldr.w	r0, [r0, #0x84]
  4. 700a35c8: 2801         	cmp	r0, #0x1
  5. 700a35ca: d104         	bne	0x700a35d6 <UART_getHandle+0x46> @ imm = #0x8
  6. 700a35d6: e7ff         	b	0x700a35d8 <UART_getHandle+0x48> @ imm = #-0x2
  7. 700a35d8: 9801         	ldr	r0, [sp, #0x4]
  8. 700a35da: b003         	add	sp, #0xc
  9. 700a35dc: 4770         	bx	lr

Sync: Idx:62706; ID:10;	BRANCH_ADDRESS : Branch address.; Addr=0x700A390E ~[0xA390E];

P_HDR Event: Idx:62709 (Pattern: EEEEE, Function: DebugP_uartLogWriterPutChar)
Executed Assembly Steps:
  1. 700a390e: 9006         	str	r0, [sp, #0x18]
  2. 700a3910: 9806         	ldr	r0, [sp, #0x18]
  3. 700a3912: b170         	cbz	r0, 0x700a3932 <DebugP_uartLogWriterPutChar+0x42> @ imm = #0x1c
  4. 700a3932: b008         	add	sp, #0x20
  5. 700a3934: bd80         	pop	{r7, pc}

Sync: Idx:62710; ID:10;	BRANCH_ADDRESS : Branch address.; Addr=0x700A4A3E ~[0xA4A3E];

P_HDR Event: Idx:62713 (Pattern: EEE, Function: _out_char)
Executed Assembly Steps:
  1. 700a4a3e: e7ff         	b	0x700a4a40 <_out_char+0x20> @ imm = #-0x2
  2. 700a4a40: b004         	add	sp, #0x10
  3. 700a4a42: bd80         	pop	{r7, pc}

Sync: Idx:62714; ID:10;	BRANCH_ADDRESS : Branch address.; Addr=0x70098F58 ~[0x98F58];

P_HDR Event: Idx:62717 (Pattern: EEEEEEEN, Function: _vsnprintf)
Executed Assembly Steps:
  1. 70098f58: 983c         	ldr	r0, [sp, #0xf0]
  2. 70098f5a: 3001         	adds	r0, #0x1
  3. 70098f5c: 903c         	str	r0, [sp, #0xf0]
  4. 70098f5e: e7e6         	b	0x70098f2e <_vsnprintf+0x2e> @ imm = #-0x34
  5. 70098f2e: 983c         	ldr	r0, [sp, #0xf0]
  6. 70098f30: 7800         	ldrb	r0, [r0]
  7. 70098f32: 2800         	cmp	r0, #0x0
  8. 70098f34: f000 84e3    	beq.w	0x700998fe <_vsnprintf+0x9fe> @ imm = #0x9c6

P_HDR Event: Idx:62718 (Pattern: EEEEN, Function: _vsnprintf)
Executed Assembly Steps:
  1. 70098f38: e7ff         	b	0x70098f3a <_vsnprintf+0x3a> @ imm = #-0x2
  2. 70098f3a: 983c         	ldr	r0, [sp, #0xf0]
  3. 70098f3c: 7800         	ldrb	r0, [r0]
  4. 70098f3e: 2825         	cmp	r0, #0x25
  5. 70098f40: d00e         	beq	0x70098f60 <_vsnprintf+0x60> @ imm = #0x1c

P_HDR Event: Idx:62720 (Pattern: EEEEEEEEEE, Function: _vsnprintf)
Executed Assembly Steps:
  1. 70098f42: e7ff         	b	0x70098f44 <_vsnprintf+0x44> @ imm = #-0x2
  2. 70098f44: f8dd c0fc    	ldr.w	r12, [sp, #0xfc]
  3. 70098f48: 983c         	ldr	r0, [sp, #0xf0]
  4. 70098f4a: 7800         	ldrb	r0, [r0]
  5. 70098f4c: 993e         	ldr	r1, [sp, #0xf8]
  6. 70098f4e: 9a37         	ldr	r2, [sp, #0xdc]
  7. 70098f50: 1c53         	adds	r3, r2, #0x1
  8. 70098f52: 9337         	str	r3, [sp, #0xdc]
  9. 70098f54: 9b3d         	ldr	r3, [sp, #0xf4]
  10. 70098f56: 47e0         	blx	r12

Sync: Idx:62721; ID:10;	BRANCH_ADDRESS : Branch address.; Addr=0x700A4A20 ~[0xA4A20];

P_HDR Event: Idx:62724 (Pattern: EEEEEEEN, Function: _out_char)
Executed Assembly Steps:
  1. 700a4a20: b580         	push	{r7, lr}
  2. 700a4a22: b084         	sub	sp, #0x10
  3. 700a4a24: f88d 000f    	strb.w	r0, [sp, #0xf]
  4. 700a4a28: 9102         	str	r1, [sp, #0x8]
  5. 700a4a2a: 9201         	str	r2, [sp, #0x4]
  6. 700a4a2c: 9300         	str	r3, [sp]
  7. 700a4a2e: f89d 000f    	ldrb.w	r0, [sp, #0xf]
  8. 700a4a32: b128         	cbz	r0, 0x700a4a40 <_out_char+0x20> @ imm = #0xa

P_HDR Event: Idx:62725 (Pattern: EEEEEE, Function: _out_char)
Executed Assembly Steps:
  1. 700a4a34: e7ff         	b	0x700a4a36 <_out_char+0x16> @ imm = #-0x2
  2. 700a4a36: f89d 000f    	ldrb.w	r0, [sp, #0xf]
  3. 700a4a3a: f000 fa21    	bl	0x700a4e80 <putchar_>   @ imm = #0x442
  4. 700a4e80: b510         	push	{r4, lr}
  5. 700a4e82: 4604         	mov	r4, r0
  6. 700a4e84: f000 e9ac    	blx	0x700a51e0 <putchar>    @ imm = #0x358

Sync: Idx:62726; ID:10;	BRANCH_ADDRESS : Branch address.; Addr=0x700A51E0 ~[0x700A51E0]; ISA=ARM(32);

P_HDR Event: Idx:62731 (Pattern: EEEEEEEEE, Function: putchar)
Executed Assembly Steps:
  1. 700a51e0: e59f1004     	ldr	r1, [pc, #0x4]          @ 0x700a51ec <putchar+0xc>
  2. 700a51e4: e2811018     	add	r1, r1, #24
  3. 700a51e8: eaffe5b1     	b	0x7009e8b4 <fputc>      @ imm = #-0x693c
  4. 7009e8b4: e92d483c     	push	{r2, r3, r4, r5, r11, lr}
  5. 7009e8b8: e59f20e0     	ldr	r2, [pc, #0xe0]         @ 0x7009e9a0 <fputc+0xec>
  6. 7009e8bc: e1a04001     	mov	r4, r1
  7. 7009e8c0: e1a05000     	mov	r5, r0
  8. 7009e8c4: e5922000     	ldr	r2, [r2]
  9. 7009e8c8: e12fff32     	blx	r2

Sync: Idx:62732; ID:10;	BRANCH_ADDRESS : Branch address.; Addr=0x7009A2DC ~[0x9A2DC];

P_HDR Event: Idx:62736 (Pattern: E, Function: _nop)
Executed Assembly Steps:
  1. 7009a2dc: e12fff1e     	bx	lr

Sync: Idx:62737; ID:10;	BRANCH_ADDRESS : Branch address.; Addr=0x7009E8CC ~[0x68CC];

P_HDR Event: Idx:62739 (Pattern: EEEEEEEN, Function: fputc)
Executed Assembly Steps:
  1. 7009e8cc: e1a00004     	mov	r0, r4
  2. 7009e8d0: eb000949     	bl	0x700a0dfc <__TI_wrt_ok> @ imm = #0x2524
  3. 700a0dfc: e92d4010     	push	{r4, lr}
  4. 700a0e00: e1a04000     	mov	r4, r0
  5. 700a0e04: e5901000     	ldr	r1, [r0]
  6. 700a0e08: e3a00000     	mov	r0, #0
  7. 700a0e0c: e3710001     	cmn	r1, #1
  8. 700a0e10: 0a00001c     	beq	0x700a0e88 <__TI_wrt_ok+0x8c> @ imm = #0x70

P_HDR Event: Idx:62740 (Pattern: EEN, Function: __TI_wrt_ok)
Executed Assembly Steps:
  1. 700a0e14: e5941014     	ldr	r1, [r4, #0x14]
  2. 700a0e18: e3110010     	tst	r1, #16
  3. 700a0e1c: 1a00001a     	bne	0x700a0e8c <__TI_wrt_ok+0x90> @ imm = #0x68

P_HDR Event: Idx:62741 (Pattern: EEEEEEEE, Function: __TI_wrt_ok)
Executed Assembly Steps:
  1. 700a0e20: e3110080     	tst	r1, #128
  2. 700a0e24: 0a000004     	beq	0x700a0e3c <__TI_wrt_ok+0x40> @ imm = #0x10
  3. 700a0e3c: e2010060     	and	r0, r1, #96
  4. 700a0e40: e3500040     	cmp	r0, #64
  5. 700a0e44: 1a000001     	bne	0x700a0e50 <__TI_wrt_ok+0x54> @ imm = #0x4
  6. 700a0e50: e5942004     	ldr	r2, [r4, #0x4]
  7. 700a0e54: e3a00001     	mov	r0, #1
  8. 700a0e58: e3520000     	cmp	r2, #0

P_HDR Event: Idx:62742 (Pattern: NE, Function: __TI_wrt_ok)
Executed Assembly Steps:
  1. 700a0e5c: 02112004     	andseq	r2, r1, #4
  2. 700a0e60: 1a000006     	bne	0x700a0e80 <__TI_wrt_ok+0x84> @ imm = #0x18

P_HDR Event: Idx:62743 (Pattern: EEE, Function: __TI_wrt_ok)
Executed Assembly Steps:
  1. 700a0e80: e594100c     	ldr	r1, [r4, #0xc]
  2. 700a0e84: e5841010     	str	r1, [r4, #0x10]
  3. 700a0e88: e8bd8010     	pop	{r4, pc}

Sync: Idx:62744; ID:10;	BRANCH_ADDRESS : Branch address.; Addr=0x7009E8D4 ~[0xD4];

P_HDR Event: Idx:62745 (Pattern: EN, Function: fputc)
Executed Assembly Steps:
  1. 7009e8d4: e3500000     	cmp	r0, #0
  2. 7009e8d8: 0a00000b     	beq	0x7009e90c <fputc+0x58> @ imm = #0x2c

P_HDR Event: Idx:62746 (Pattern: EEEEEEEEEEEEEEE, Function: fputc)
Executed Assembly Steps:
  1. 7009e8dc: e5940014     	ldr	r0, [r4, #0x14]
  2. 7009e8e0: e2000007     	and	r0, r0, #7
  3. 7009e8e4: e3500004     	cmp	r0, #4
  4. 7009e8e8: 1a00000a     	bne	0x7009e918 <fputc+0x64> @ imm = #0x28
  5. 7009e918: e5940008     	ldr	r0, [r4, #0x8]
  6. 7009e91c: e594100c     	ldr	r1, [r4, #0xc]
  7. 7009e920: e1500001     	cmp	r0, r1
  8. 7009e924: 3a000004     	blo	0x7009e93c <fputc+0x88> @ imm = #0x10
  9. 7009e93c: e2801001     	add	r1, r0, #1
  10. 7009e940: e355000a     	cmp	r5, #10
  11. 7009e944: e5841008     	str	r1, [r4, #0x8]
  12. 7009e948: e5c05000     	strb	r5, [r0]
  13. 7009e94c: 1a00000e     	bne	0x7009e98c <fputc+0xd8> @ imm = #0x38
  14. 7009e98c: e59f0010     	ldr	r0, [pc, #0x10]         @ 0x7009e9a4 <fputc+0xf0>
  15. 7009e990: e5900000     	ldr	r0, [r0]

P_HDR Event: Idx:62747 (Pattern: E, Function: fputc)
Executed Assembly Steps:
  1. 7009e994: e12fff30     	blx	r0

Sync: Idx:62748; ID:10;	BRANCH_ADDRESS : Branch address.; Addr=0x7009A2DC ~[0x22DC];

P_HDR Event: Idx:62750 (Pattern: E, Function: _nop)
Executed Assembly Steps:
  1. 7009a2dc: e12fff1e     	bx	lr

Sync: Idx:62752; ID:10;	BRANCH_ADDRESS : Branch address.; Addr=0x7009E998 ~[0x6998];

P_HDR Event: Idx:62754 (Pattern: EE, Function: fputc)
Executed Assembly Steps:
  1. 7009e998: e6ef0075     	uxtb	r0, r5
  2. 7009e99c: e8bd883c     	pop	{r2, r3, r4, r5, r11, pc}

Sync: Idx:62755; ID:10;	BRANCH_ADDRESS : Branch address.; Addr=0x700A4E88 ~[0x700A4E88]; ISA=Thumb2;

P_HDR Event: Idx:62760 (Pattern: EEEEEEEEEEEEEEE, Function: putchar_)
Executed Assembly Steps:
  1. 700a4e88: 4620         	mov	r0, r4
  2. 700a4e8a: f7f8 fa11    	bl	0x7009d2b0 <DebugP_memLogWriterPutChar> @ imm = #-0x7bde
  3. 7009d2b0: b580         	push	{r7, lr}
  4. 7009d2b2: b088         	sub	sp, #0x20
  5. 7009d2b4: f88d 001f    	strb.w	r0, [sp, #0x1f]
  6. 7009d2b8: f247 30cc    	movw	r0, #0x73cc
  7. 7009d2bc: f2c7 000a    	movt	r0, #0x700a
  8. 7009d2c0: 6800         	ldr	r0, [r0]
  9. 7009d2c2: bb40         	cbnz	r0, 0x7009d316 <DebugP_memLogWriterPutChar+0x66> @ imm = #0x50
  10. 7009d316: f89d 001f    	ldrb.w	r0, [sp, #0x1f]
  11. 7009d31a: f247 31cc    	movw	r1, #0x73cc
  12. 7009d31e: f2c7 010a    	movt	r1, #0x700a
  13. 7009d322: 680b         	ldr	r3, [r1]
  14. 7009d324: f644 42e0    	movw	r2, #0x4ce0
  15. 7009d328: f2c7 0208    	movt	r2, #0x7008

P_HDR Event: Idx:62761 (Pattern: EEEEEEN, Function: DebugP_memLogWriterPutChar)
Executed Assembly Steps:
  1. 7009d32c: 54d0         	strb	r0, [r2, r3]
  2. 7009d32e: 6808         	ldr	r0, [r1]
  3. 7009d330: 3001         	adds	r0, #0x1
  4. 7009d332: 6008         	str	r0, [r1]
  5. 7009d334: f89d 001f    	ldrb.w	r0, [sp, #0x1f]
  6. 7009d338: 280a         	cmp	r0, #0xa
  7. 7009d33a: d008         	beq	0x7009d34e <DebugP_memLogWriterPutChar+0x9e> @ imm = #0x10

P_HDR Event: Idx:62762 (Pattern: EEEEEEEE, Function: DebugP_memLogWriterPutChar)
Executed Assembly Steps:
  1. 7009d33c: e7ff         	b	0x7009d33e <DebugP_memLogWriterPutChar+0x8e> @ imm = #-0x2
  2. 7009d33e: f247 30cc    	movw	r0, #0x73cc
  3. 7009d342: f2c7 000a    	movt	r0, #0x700a
  4. 7009d346: 6800         	ldr	r0, [r0]
  5. 7009d348: 2878         	cmp	r0, #0x78
  6. 7009d34a: d350         	blo	0x7009d3ee <DebugP_memLogWriterPutChar+0x13e> @ imm = #0xa0
  7. 7009d3ee: b008         	add	sp, #0x20
  8. 7009d3f0: bd80         	pop	{r7, pc}

Sync: Idx:62763; ID:10;	BRANCH_ADDRESS : Branch address.; Addr=0x700A4E8E ~[0xE];

P_HDR Event: Idx:62764 (Pattern: EEEEEEEEEEEEEEE, Function: putchar_)
Executed Assembly Steps:
  1. 700a4e8e: 4620         	mov	r0, r4
  2. 700a4e90: e8bd 4010    	pop.w	{r4, lr}
  3. 700a4e94: f7fe bd2c    	b.w	0x700a38f0 <DebugP_uartLogWriterPutChar> @ imm = #-0x15a8
  4. 700a38f0: b580         	push	{r7, lr}
  5. 700a38f2: b088         	sub	sp, #0x20
  6. 700a38f4: f88d 001f    	strb.w	r0, [sp, #0x1f]
  7. 700a38f8: f89d 001f    	ldrb.w	r0, [sp, #0x1f]
  8. 700a38fc: f88d 001e    	strb.w	r0, [sp, #0x1e]
  9. 700a3900: f247 40e0    	movw	r0, #0x74e0
  10. 700a3904: f2c7 000a    	movt	r0, #0x700a
  11. 700a3908: 6800         	ldr	r0, [r0]
  12. 700a390a: f7ff fe41    	bl	0x700a3590 <UART_getHandle> @ imm = #-0x37e
  13. 700a3590: b083         	sub	sp, #0xc
  14. 700a3592: 9002         	str	r0, [sp, #0x8]
  15. 700a3594: 2000         	movs	r0, #0x0

P_HDR Event: Idx:62765 (Pattern: EEEEEEN, Function: UART_getHandle)
Executed Assembly Steps:
  1. 700a3596: 9001         	str	r0, [sp, #0x4]
  2. 700a3598: 9802         	ldr	r0, [sp, #0x8]
  3. 700a359a: f247 41e8    	movw	r1, #0x74e8
  4. 700a359e: f2c7 010a    	movt	r1, #0x700a
  5. 700a35a2: 6809         	ldr	r1, [r1]
  6. 700a35a4: 4288         	cmp	r0, r1
  7. 700a35a6: d217         	bhs	0x700a35d8 <UART_getHandle+0x48> @ imm = #0x2e

P_HDR Event: Idx:62766 (Pattern: EEEEEEEEN, Function: UART_getHandle)
Executed Assembly Steps:
  1. 700a35a8: e7ff         	b	0x700a35aa <UART_getHandle+0x1a> @ imm = #-0x2
  2. 700a35aa: 9902         	ldr	r1, [sp, #0x8]
  3. 700a35ac: f247 40a8    	movw	r0, #0x74a8
  4. 700a35b0: f2c7 000a    	movt	r0, #0x700a
  5. 700a35b4: eb00 00c1    	add.w	r0, r0, r1, lsl #3
  6. 700a35b8: 6840         	ldr	r0, [r0, #0x4]
  7. 700a35ba: 9000         	str	r0, [sp]
  8. 700a35bc: 9800         	ldr	r0, [sp]
  9. 700a35be: b150         	cbz	r0, 0x700a35d6 <UART_getHandle+0x46> @ imm = #0x14

P_HDR Event: Idx:62768 (Pattern: EEEEEEEEE, Function: UART_getHandle)
Executed Assembly Steps:
  1. 700a35c0: e7ff         	b	0x700a35c2 <UART_getHandle+0x32> @ imm = #-0x2
  2. 700a35c2: 9800         	ldr	r0, [sp]
  3. 700a35c4: f8d0 0084    	ldr.w	r0, [r0, #0x84]
  4. 700a35c8: 2801         	cmp	r0, #0x1
  5. 700a35ca: d104         	bne	0x700a35d6 <UART_getHandle+0x46> @ imm = #0x8
  6. 700a35d6: e7ff         	b	0x700a35d8 <UART_getHandle+0x48> @ imm = #-0x2
  7. 700a35d8: 9801         	ldr	r0, [sp, #0x4]
  8. 700a35da: b003         	add	sp, #0xc
  9. 700a35dc: 4770         	bx	lr

Sync: Idx:62769; ID:10;	BRANCH_ADDRESS : Branch address.; Addr=0x700A390E ~[0xA390E];

P_HDR Event: Idx:62772 (Pattern: EEEEE, Function: DebugP_uartLogWriterPutChar)
Executed Assembly Steps:
  1. 700a390e: 9006         	str	r0, [sp, #0x18]
  2. 700a3910: 9806         	ldr	r0, [sp, #0x18]
  3. 700a3912: b170         	cbz	r0, 0x700a3932 <DebugP_uartLogWriterPutChar+0x42> @ imm = #0x1c
  4. 700a3932: b008         	add	sp, #0x20
  5. 700a3934: bd80         	pop	{r7, pc}

Sync: Idx:62773; ID:10;	BRANCH_ADDRESS : Branch address.; Addr=0x700A4A3E ~[0xA4A3E];

P_HDR Event: Idx:62776 (Pattern: EEE, Function: _out_char)
Executed Assembly Steps:
  1. 700a4a3e: e7ff         	b	0x700a4a40 <_out_char+0x20> @ imm = #-0x2
  2. 700a4a40: b004         	add	sp, #0x10
  3. 700a4a42: bd80         	pop	{r7, pc}

Sync: Idx:62777; ID:10;	BRANCH_ADDRESS : Branch address.; Addr=0x70098F58 ~[0x98F58];

P_HDR Event: Idx:62780 (Pattern: EEEEEEEN, Function: _vsnprintf)
Executed Assembly Steps:
  1. 70098f58: 983c         	ldr	r0, [sp, #0xf0]
  2. 70098f5a: 3001         	adds	r0, #0x1
  3. 70098f5c: 903c         	str	r0, [sp, #0xf0]
  4. 70098f5e: e7e6         	b	0x70098f2e <_vsnprintf+0x2e> @ imm = #-0x34
  5. 70098f2e: 983c         	ldr	r0, [sp, #0xf0]
  6. 70098f30: 7800         	ldrb	r0, [r0]
  7. 70098f32: 2800         	cmp	r0, #0x0
  8. 70098f34: f000 84e3    	beq.w	0x700998fe <_vsnprintf+0x9fe> @ imm = #0x9c6

P_HDR Event: Idx:62781 (Pattern: EEEEN, Function: _vsnprintf)
Executed Assembly Steps:
  1. 70098f38: e7ff         	b	0x70098f3a <_vsnprintf+0x3a> @ imm = #-0x2
  2. 70098f3a: 983c         	ldr	r0, [sp, #0xf0]
  3. 70098f3c: 7800         	ldrb	r0, [r0]
  4. 70098f3e: 2825         	cmp	r0, #0x25
  5. 70098f40: d00e         	beq	0x70098f60 <_vsnprintf+0x60> @ imm = #0x1c

P_HDR Event: Idx:62782 (Pattern: EEEEEEEEEE, Function: _vsnprintf)
Executed Assembly Steps:
  1. 70098f42: e7ff         	b	0x70098f44 <_vsnprintf+0x44> @ imm = #-0x2
  2. 70098f44: f8dd c0fc    	ldr.w	r12, [sp, #0xfc]
  3. 70098f48: 983c         	ldr	r0, [sp, #0xf0]
  4. 70098f4a: 7800         	ldrb	r0, [r0]
  5. 70098f4c: 993e         	ldr	r1, [sp, #0xf8]
  6. 70098f4e: 9a37         	ldr	r2, [sp, #0xdc]
  7. 70098f50: 1c53         	adds	r3, r2, #0x1
  8. 70098f52: 9337         	str	r3, [sp, #0xdc]
  9. 70098f54: 9b3d         	ldr	r3, [sp, #0xf4]
  10. 70098f56: 47e0         	blx	r12

Sync: Idx:62784; ID:10;	BRANCH_ADDRESS : Branch address.; Addr=0x700A4A20 ~[0xA4A20];

P_HDR Event: Idx:62793 (Pattern: EEEEEEEN, Function: _out_char)
Executed Assembly Steps:
  1. 700a4a20: b580         	push	{r7, lr}
  2. 700a4a22: b084         	sub	sp, #0x10
  3. 700a4a24: f88d 000f    	strb.w	r0, [sp, #0xf]
  4. 700a4a28: 9102         	str	r1, [sp, #0x8]
  5. 700a4a2a: 9201         	str	r2, [sp, #0x4]
  6. 700a4a2c: 9300         	str	r3, [sp]
  7. 700a4a2e: f89d 000f    	ldrb.w	r0, [sp, #0xf]
  8. 700a4a32: b128         	cbz	r0, 0x700a4a40 <_out_char+0x20> @ imm = #0xa

P_HDR Event: Idx:62794 (Pattern: EEEEEE, Function: _out_char)
Executed Assembly Steps:
  1. 700a4a34: e7ff         	b	0x700a4a36 <_out_char+0x16> @ imm = #-0x2
  2. 700a4a36: f89d 000f    	ldrb.w	r0, [sp, #0xf]
  3. 700a4a3a: f000 fa21    	bl	0x700a4e80 <putchar_>   @ imm = #0x442
  4. 700a4e80: b510         	push	{r4, lr}
  5. 700a4e82: 4604         	mov	r4, r0
  6. 700a4e84: f000 e9ac    	blx	0x700a51e0 <putchar>    @ imm = #0x358

Sync: Idx:62795; ID:10;	BRANCH_ADDRESS : Branch address.; Addr=0x700A51E0 ~[0x700A51E0]; ISA=ARM(32);

P_HDR Event: Idx:62801 (Pattern: EEEEEEEEE, Function: putchar)
Executed Assembly Steps:
  1. 700a51e0: e59f1004     	ldr	r1, [pc, #0x4]          @ 0x700a51ec <putchar+0xc>
  2. 700a51e4: e2811018     	add	r1, r1, #24
  3. 700a51e8: eaffe5b1     	b	0x7009e8b4 <fputc>      @ imm = #-0x693c
  4. 7009e8b4: e92d483c     	push	{r2, r3, r4, r5, r11, lr}
  5. 7009e8b8: e59f20e0     	ldr	r2, [pc, #0xe0]         @ 0x7009e9a0 <fputc+0xec>
  6. 7009e8bc: e1a04001     	mov	r4, r1
  7. 7009e8c0: e1a05000     	mov	r5, r0
  8. 7009e8c4: e5922000     	ldr	r2, [r2]
  9. 7009e8c8: e12fff32     	blx	r2

Sync: Idx:62802; ID:10;	BRANCH_ADDRESS : Branch address.; Addr=0x7009A2DC ~[0x9A2DC];

P_HDR Event: Idx:62805 (Pattern: E, Function: _nop)
Executed Assembly Steps:
  1. 7009a2dc: e12fff1e     	bx	lr

Sync: Idx:62806; ID:10;	BRANCH_ADDRESS : Branch address.; Addr=0x7009E8CC ~[0x68CC];

P_HDR Event: Idx:62808 (Pattern: EEEEEEEN, Function: fputc)
Executed Assembly Steps:
  1. 7009e8cc: e1a00004     	mov	r0, r4
  2. 7009e8d0: eb000949     	bl	0x700a0dfc <__TI_wrt_ok> @ imm = #0x2524
  3. 700a0dfc: e92d4010     	push	{r4, lr}
  4. 700a0e00: e1a04000     	mov	r4, r0
  5. 700a0e04: e5901000     	ldr	r1, [r0]
  6. 700a0e08: e3a00000     	mov	r0, #0
  7. 700a0e0c: e3710001     	cmn	r1, #1
  8. 700a0e10: 0a00001c     	beq	0x700a0e88 <__TI_wrt_ok+0x8c> @ imm = #0x70

P_HDR Event: Idx:62809 (Pattern: EEN, Function: __TI_wrt_ok)
Executed Assembly Steps:
  1. 700a0e14: e5941014     	ldr	r1, [r4, #0x14]
  2. 700a0e18: e3110010     	tst	r1, #16
  3. 700a0e1c: 1a00001a     	bne	0x700a0e8c <__TI_wrt_ok+0x90> @ imm = #0x68

P_HDR Event: Idx:62810 (Pattern: EEEEEEEE, Function: __TI_wrt_ok)
Executed Assembly Steps:
  1. 700a0e20: e3110080     	tst	r1, #128
  2. 700a0e24: 0a000004     	beq	0x700a0e3c <__TI_wrt_ok+0x40> @ imm = #0x10
  3. 700a0e3c: e2010060     	and	r0, r1, #96
  4. 700a0e40: e3500040     	cmp	r0, #64
  5. 700a0e44: 1a000001     	bne	0x700a0e50 <__TI_wrt_ok+0x54> @ imm = #0x4
  6. 700a0e50: e5942004     	ldr	r2, [r4, #0x4]
  7. 700a0e54: e3a00001     	mov	r0, #1
  8. 700a0e58: e3520000     	cmp	r2, #0

P_HDR Event: Idx:62811 (Pattern: NE, Function: __TI_wrt_ok)
Executed Assembly Steps:
  1. 700a0e5c: 02112004     	andseq	r2, r1, #4
  2. 700a0e60: 1a000006     	bne	0x700a0e80 <__TI_wrt_ok+0x84> @ imm = #0x18

P_HDR Event: Idx:62812 (Pattern: EEE, Function: __TI_wrt_ok)
Executed Assembly Steps:
  1. 700a0e80: e594100c     	ldr	r1, [r4, #0xc]
  2. 700a0e84: e5841010     	str	r1, [r4, #0x10]
  3. 700a0e88: e8bd8010     	pop	{r4, pc}

Sync: Idx:62813; ID:10;	BRANCH_ADDRESS : Branch address.; Addr=0x7009E8D4 ~[0xD4];

P_HDR Event: Idx:62814 (Pattern: EN, Function: fputc)
Executed Assembly Steps:
  1. 7009e8d4: e3500000     	cmp	r0, #0
  2. 7009e8d8: 0a00000b     	beq	0x7009e90c <fputc+0x58> @ imm = #0x2c

P_HDR Event: Idx:62816 (Pattern: EEEEEEEEEEEEEEE, Function: fputc)
Executed Assembly Steps:
  1. 7009e8dc: e5940014     	ldr	r0, [r4, #0x14]
  2. 7009e8e0: e2000007     	and	r0, r0, #7
  3. 7009e8e4: e3500004     	cmp	r0, #4
  4. 7009e8e8: 1a00000a     	bne	0x7009e918 <fputc+0x64> @ imm = #0x28
  5. 7009e918: e5940008     	ldr	r0, [r4, #0x8]
  6. 7009e91c: e594100c     	ldr	r1, [r4, #0xc]
  7. 7009e920: e1500001     	cmp	r0, r1
  8. 7009e924: 3a000004     	blo	0x7009e93c <fputc+0x88> @ imm = #0x10
  9. 7009e93c: e2801001     	add	r1, r0, #1
  10. 7009e940: e355000a     	cmp	r5, #10
  11. 7009e944: e5841008     	str	r1, [r4, #0x8]
  12. 7009e948: e5c05000     	strb	r5, [r0]
  13. 7009e94c: 1a00000e     	bne	0x7009e98c <fputc+0xd8> @ imm = #0x38
  14. 7009e98c: e59f0010     	ldr	r0, [pc, #0x10]         @ 0x7009e9a4 <fputc+0xf0>
  15. 7009e990: e5900000     	ldr	r0, [r0]

P_HDR Event: Idx:62817 (Pattern: E, Function: fputc)
Executed Assembly Steps:
  1. 7009e994: e12fff30     	blx	r0

Sync: Idx:62818; ID:10;	BRANCH_ADDRESS : Branch address.; Addr=0x7009A2DC ~[0x22DC];

P_HDR Event: Idx:62821 (Pattern: E, Function: _nop)
Executed Assembly Steps:
  1. 7009a2dc: e12fff1e     	bx	lr

Sync: Idx:62822; ID:10;	BRANCH_ADDRESS : Branch address.; Addr=0x7009E998 ~[0x6998];

P_HDR Event: Idx:62824 (Pattern: EE, Function: fputc)
Executed Assembly Steps:
  1. 7009e998: e6ef0075     	uxtb	r0, r5
  2. 7009e99c: e8bd883c     	pop	{r2, r3, r4, r5, r11, pc}

Sync: Idx:62825; ID:10;	BRANCH_ADDRESS : Branch address.; Addr=0x700A4E88 ~[0x700A4E88]; ISA=Thumb2;

P_HDR Event: Idx:62833 (Pattern: EEEEEEEEEEEEEEE, Function: putchar_)
Executed Assembly Steps:
  1. 700a4e88: 4620         	mov	r0, r4
  2. 700a4e8a: f7f8 fa11    	bl	0x7009d2b0 <DebugP_memLogWriterPutChar> @ imm = #-0x7bde
  3. 7009d2b0: b580         	push	{r7, lr}
  4. 7009d2b2: b088         	sub	sp, #0x20
  5. 7009d2b4: f88d 001f    	strb.w	r0, [sp, #0x1f]
  6. 7009d2b8: f247 30cc    	movw	r0, #0x73cc
  7. 7009d2bc: f2c7 000a    	movt	r0, #0x700a
  8. 7009d2c0: 6800         	ldr	r0, [r0]
  9. 7009d2c2: bb40         	cbnz	r0, 0x7009d316 <DebugP_memLogWriterPutChar+0x66> @ imm = #0x50
  10. 7009d316: f89d 001f    	ldrb.w	r0, [sp, #0x1f]
  11. 7009d31a: f247 31cc    	movw	r1, #0x73cc
  12. 7009d31e: f2c7 010a    	movt	r1, #0x700a
  13. 7009d322: 680b         	ldr	r3, [r1]
  14. 7009d324: f644 42e0    	movw	r2, #0x4ce0
  15. 7009d328: f2c7 0208    	movt	r2, #0x7008

P_HDR Event: Idx:62834 (Pattern: EEEEEEN, Function: DebugP_memLogWriterPutChar)
Executed Assembly Steps:
  1. 7009d32c: 54d0         	strb	r0, [r2, r3]
  2. 7009d32e: 6808         	ldr	r0, [r1]
  3. 7009d330: 3001         	adds	r0, #0x1
  4. 7009d332: 6008         	str	r0, [r1]
  5. 7009d334: f89d 001f    	ldrb.w	r0, [sp, #0x1f]
  6. 7009d338: 280a         	cmp	r0, #0xa
  7. 7009d33a: d008         	beq	0x7009d34e <DebugP_memLogWriterPutChar+0x9e> @ imm = #0x10

P_HDR Event: Idx:62835 (Pattern: EEEEEEEE, Function: DebugP_memLogWriterPutChar)
Executed Assembly Steps:
  1. 7009d33c: e7ff         	b	0x7009d33e <DebugP_memLogWriterPutChar+0x8e> @ imm = #-0x2
  2. 7009d33e: f247 30cc    	movw	r0, #0x73cc
  3. 7009d342: f2c7 000a    	movt	r0, #0x700a
  4. 7009d346: 6800         	ldr	r0, [r0]
  5. 7009d348: 2878         	cmp	r0, #0x78
  6. 7009d34a: d350         	blo	0x7009d3ee <DebugP_memLogWriterPutChar+0x13e> @ imm = #0xa0
  7. 7009d3ee: b008         	add	sp, #0x20
  8. 7009d3f0: bd80         	pop	{r7, pc}

Sync: Idx:62836; ID:10;	BRANCH_ADDRESS : Branch address.; Addr=0x700A4E8E ~[0xE];

P_HDR Event: Idx:62837 (Pattern: EEEEEEEEEEEEEEE, Function: putchar_)
Executed Assembly Steps:
  1. 700a4e8e: 4620         	mov	r0, r4
  2. 700a4e90: e8bd 4010    	pop.w	{r4, lr}
  3. 700a4e94: f7fe bd2c    	b.w	0x700a38f0 <DebugP_uartLogWriterPutChar> @ imm = #-0x15a8
  4. 700a38f0: b580         	push	{r7, lr}
  5. 700a38f2: b088         	sub	sp, #0x20
  6. 700a38f4: f88d 001f    	strb.w	r0, [sp, #0x1f]
  7. 700a38f8: f89d 001f    	ldrb.w	r0, [sp, #0x1f]
  8. 700a38fc: f88d 001e    	strb.w	r0, [sp, #0x1e]
  9. 700a3900: f247 40e0    	movw	r0, #0x74e0
  10. 700a3904: f2c7 000a    	movt	r0, #0x700a
  11. 700a3908: 6800         	ldr	r0, [r0]
  12. 700a390a: f7ff fe41    	bl	0x700a3590 <UART_getHandle> @ imm = #-0x37e
  13. 700a3590: b083         	sub	sp, #0xc
  14. 700a3592: 9002         	str	r0, [sp, #0x8]
  15. 700a3594: 2000         	movs	r0, #0x0

P_HDR Event: Idx:62838 (Pattern: EEEEEEN, Function: UART_getHandle)
Executed Assembly Steps:
  1. 700a3596: 9001         	str	r0, [sp, #0x4]
  2. 700a3598: 9802         	ldr	r0, [sp, #0x8]
  3. 700a359a: f247 41e8    	movw	r1, #0x74e8
  4. 700a359e: f2c7 010a    	movt	r1, #0x700a
  5. 700a35a2: 6809         	ldr	r1, [r1]
  6. 700a35a4: 4288         	cmp	r0, r1
  7. 700a35a6: d217         	bhs	0x700a35d8 <UART_getHandle+0x48> @ imm = #0x2e

P_HDR Event: Idx:62839 (Pattern: EEEEEEEEN, Function: UART_getHandle)
Executed Assembly Steps:
  1. 700a35a8: e7ff         	b	0x700a35aa <UART_getHandle+0x1a> @ imm = #-0x2
  2. 700a35aa: 9902         	ldr	r1, [sp, #0x8]
  3. 700a35ac: f247 40a8    	movw	r0, #0x74a8
  4. 700a35b0: f2c7 000a    	movt	r0, #0x700a
  5. 700a35b4: eb00 00c1    	add.w	r0, r0, r1, lsl #3
  6. 700a35b8: 6840         	ldr	r0, [r0, #0x4]
  7. 700a35ba: 9000         	str	r0, [sp]
  8. 700a35bc: 9800         	ldr	r0, [sp]
  9. 700a35be: b150         	cbz	r0, 0x700a35d6 <UART_getHandle+0x46> @ imm = #0x14

P_HDR Event: Idx:62840 (Pattern: EEEEEEEEE, Function: UART_getHandle)
Executed Assembly Steps:
  1. 700a35c0: e7ff         	b	0x700a35c2 <UART_getHandle+0x32> @ imm = #-0x2
  2. 700a35c2: 9800         	ldr	r0, [sp]
  3. 700a35c4: f8d0 0084    	ldr.w	r0, [r0, #0x84]
  4. 700a35c8: 2801         	cmp	r0, #0x1
  5. 700a35ca: d104         	bne	0x700a35d6 <UART_getHandle+0x46> @ imm = #0x8
  6. 700a35d6: e7ff         	b	0x700a35d8 <UART_getHandle+0x48> @ imm = #-0x2
  7. 700a35d8: 9801         	ldr	r0, [sp, #0x4]
  8. 700a35da: b003         	add	sp, #0xc
  9. 700a35dc: 4770         	bx	lr

Sync: Idx:62841; ID:10;	BRANCH_ADDRESS : Branch address.; Addr=0x700A390E ~[0xA390E];

P_HDR Event: Idx:62844 (Pattern: EEEEE, Function: DebugP_uartLogWriterPutChar)
Executed Assembly Steps:
  1. 700a390e: 9006         	str	r0, [sp, #0x18]
  2. 700a3910: 9806         	ldr	r0, [sp, #0x18]
  3. 700a3912: b170         	cbz	r0, 0x700a3932 <DebugP_uartLogWriterPutChar+0x42> @ imm = #0x1c
  4. 700a3932: b008         	add	sp, #0x20
  5. 700a3934: bd80         	pop	{r7, pc}

Sync: Idx:62845; ID:10;	BRANCH_ADDRESS : Branch address.; Addr=0x700A4A3E ~[0xA4A3E];

P_HDR Event: Idx:62849 (Pattern: EEE, Function: _out_char)
Executed Assembly Steps:
  1. 700a4a3e: e7ff         	b	0x700a4a40 <_out_char+0x20> @ imm = #-0x2
  2. 700a4a40: b004         	add	sp, #0x10
  3. 700a4a42: bd80         	pop	{r7, pc}

Sync: Idx:62850; ID:10;	BRANCH_ADDRESS : Branch address.; Addr=0x70098F58 ~[0x98F58];

P_HDR Event: Idx:62853 (Pattern: EEEEEEEN, Function: _vsnprintf)
Executed Assembly Steps:
  1. 70098f58: 983c         	ldr	r0, [sp, #0xf0]
  2. 70098f5a: 3001         	adds	r0, #0x1
  3. 70098f5c: 903c         	str	r0, [sp, #0xf0]
  4. 70098f5e: e7e6         	b	0x70098f2e <_vsnprintf+0x2e> @ imm = #-0x34
  5. 70098f2e: 983c         	ldr	r0, [sp, #0xf0]
  6. 70098f30: 7800         	ldrb	r0, [r0]
  7. 70098f32: 2800         	cmp	r0, #0x0
  8. 70098f34: f000 84e3    	beq.w	0x700998fe <_vsnprintf+0x9fe> @ imm = #0x9c6

P_HDR Event: Idx:62854 (Pattern: EEEEN, Function: _vsnprintf)
Executed Assembly Steps:
  1. 70098f38: e7ff         	b	0x70098f3a <_vsnprintf+0x3a> @ imm = #-0x2
  2. 70098f3a: 983c         	ldr	r0, [sp, #0xf0]
  3. 70098f3c: 7800         	ldrb	r0, [r0]
  4. 70098f3e: 2825         	cmp	r0, #0x25
  5. 70098f40: d00e         	beq	0x70098f60 <_vsnprintf+0x60> @ imm = #0x1c

P_HDR Event: Idx:62855 (Pattern: EEEEEEEEEE, Function: _vsnprintf)
Executed Assembly Steps:
  1. 70098f42: e7ff         	b	0x70098f44 <_vsnprintf+0x44> @ imm = #-0x2
  2. 70098f44: f8dd c0fc    	ldr.w	r12, [sp, #0xfc]
  3. 70098f48: 983c         	ldr	r0, [sp, #0xf0]
  4. 70098f4a: 7800         	ldrb	r0, [r0]
  5. 70098f4c: 993e         	ldr	r1, [sp, #0xf8]
  6. 70098f4e: 9a37         	ldr	r2, [sp, #0xdc]
  7. 70098f50: 1c53         	adds	r3, r2, #0x1
  8. 70098f52: 9337         	str	r3, [sp, #0xdc]
  9. 70098f54: 9b3d         	ldr	r3, [sp, #0xf4]
  10. 70098f56: 47e0         	blx	r12

Sync: Idx:62856; ID:10;	BRANCH_ADDRESS : Branch address.; Addr=0x700A4A20 ~[0xA4A20];

P_HDR Event: Idx:62859 (Pattern: EEEEEEEN, Function: _out_char)
Executed Assembly Steps:
  1. 700a4a20: b580         	push	{r7, lr}
  2. 700a4a22: b084         	sub	sp, #0x10
  3. 700a4a24: f88d 000f    	strb.w	r0, [sp, #0xf]
  4. 700a4a28: 9102         	str	r1, [sp, #0x8]
  5. 700a4a2a: 9201         	str	r2, [sp, #0x4]
  6. 700a4a2c: 9300         	str	r3, [sp]
  7. 700a4a2e: f89d 000f    	ldrb.w	r0, [sp, #0xf]
  8. 700a4a32: b128         	cbz	r0, 0x700a4a40 <_out_char+0x20> @ imm = #0xa

P_HDR Event: Idx:62860 (Pattern: EEEEEE, Function: _out_char)
Executed Assembly Steps:
  1. 700a4a34: e7ff         	b	0x700a4a36 <_out_char+0x16> @ imm = #-0x2
  2. 700a4a36: f89d 000f    	ldrb.w	r0, [sp, #0xf]
  3. 700a4a3a: f000 fa21    	bl	0x700a4e80 <putchar_>   @ imm = #0x442
  4. 700a4e80: b510         	push	{r4, lr}
  5. 700a4e82: 4604         	mov	r4, r0
  6. 700a4e84: f000 e9ac    	blx	0x700a51e0 <putchar>    @ imm = #0x358

Sync: Idx:62861; ID:10;	BRANCH_ADDRESS : Branch address.; Addr=0x700A51E0 ~[0x700A51E0]; ISA=ARM(32);

P_HDR Event: Idx:62867 (Pattern: EEEEEEEEE, Function: putchar)
Executed Assembly Steps:
  1. 700a51e0: e59f1004     	ldr	r1, [pc, #0x4]          @ 0x700a51ec <putchar+0xc>
  2. 700a51e4: e2811018     	add	r1, r1, #24
  3. 700a51e8: eaffe5b1     	b	0x7009e8b4 <fputc>      @ imm = #-0x693c
  4. 7009e8b4: e92d483c     	push	{r2, r3, r4, r5, r11, lr}
  5. 7009e8b8: e59f20e0     	ldr	r2, [pc, #0xe0]         @ 0x7009e9a0 <fputc+0xec>
  6. 7009e8bc: e1a04001     	mov	r4, r1
  7. 7009e8c0: e1a05000     	mov	r5, r0
  8. 7009e8c4: e5922000     	ldr	r2, [r2]
  9. 7009e8c8: e12fff32     	blx	r2

Sync: Idx:62868; ID:10;	BRANCH_ADDRESS : Branch address.; Addr=0x7009A2DC ~[0x9A2DC];

P_HDR Event: Idx:62871 (Pattern: E, Function: _nop)
Executed Assembly Steps:
  1. 7009a2dc: e12fff1e     	bx	lr

Sync: Idx:62872; ID:10;	BRANCH_ADDRESS : Branch address.; Addr=0x7009E8CC ~[0x68CC];

P_HDR Event: Idx:62874 (Pattern: EEEEEEEN, Function: fputc)
Executed Assembly Steps:
  1. 7009e8cc: e1a00004     	mov	r0, r4
  2. 7009e8d0: eb000949     	bl	0x700a0dfc <__TI_wrt_ok> @ imm = #0x2524
  3. 700a0dfc: e92d4010     	push	{r4, lr}
  4. 700a0e00: e1a04000     	mov	r4, r0
  5. 700a0e04: e5901000     	ldr	r1, [r0]
  6. 700a0e08: e3a00000     	mov	r0, #0
  7. 700a0e0c: e3710001     	cmn	r1, #1
  8. 700a0e10: 0a00001c     	beq	0x700a0e88 <__TI_wrt_ok+0x8c> @ imm = #0x70

P_HDR Event: Idx:62875 (Pattern: EEN, Function: __TI_wrt_ok)
Executed Assembly Steps:
  1. 700a0e14: e5941014     	ldr	r1, [r4, #0x14]
  2. 700a0e18: e3110010     	tst	r1, #16
  3. 700a0e1c: 1a00001a     	bne	0x700a0e8c <__TI_wrt_ok+0x90> @ imm = #0x68

P_HDR Event: Idx:62876 (Pattern: EEEEEEEE, Function: __TI_wrt_ok)
Executed Assembly Steps:
  1. 700a0e20: e3110080     	tst	r1, #128
  2. 700a0e24: 0a000004     	beq	0x700a0e3c <__TI_wrt_ok+0x40> @ imm = #0x10
  3. 700a0e3c: e2010060     	and	r0, r1, #96
  4. 700a0e40: e3500040     	cmp	r0, #64
  5. 700a0e44: 1a000001     	bne	0x700a0e50 <__TI_wrt_ok+0x54> @ imm = #0x4
  6. 700a0e50: e5942004     	ldr	r2, [r4, #0x4]
  7. 700a0e54: e3a00001     	mov	r0, #1
  8. 700a0e58: e3520000     	cmp	r2, #0

P_HDR Event: Idx:62877 (Pattern: NE, Function: __TI_wrt_ok)
Executed Assembly Steps:
  1. 700a0e5c: 02112004     	andseq	r2, r1, #4
  2. 700a0e60: 1a000006     	bne	0x700a0e80 <__TI_wrt_ok+0x84> @ imm = #0x18

P_HDR Event: Idx:62878 (Pattern: EEE, Function: __TI_wrt_ok)
Executed Assembly Steps:
  1. 700a0e80: e594100c     	ldr	r1, [r4, #0xc]
  2. 700a0e84: e5841010     	str	r1, [r4, #0x10]
  3. 700a0e88: e8bd8010     	pop	{r4, pc}

Sync: Idx:62880; ID:10;	BRANCH_ADDRESS : Branch address.; Addr=0x7009E8D4 ~[0xD4];

P_HDR Event: Idx:62881 (Pattern: EN, Function: fputc)
Executed Assembly Steps:
  1. 7009e8d4: e3500000     	cmp	r0, #0
  2. 7009e8d8: 0a00000b     	beq	0x7009e90c <fputc+0x58> @ imm = #0x2c

P_HDR Event: Idx:62882 (Pattern: EEEEEEEEEEEEEEE, Function: fputc)
Executed Assembly Steps:
  1. 7009e8dc: e5940014     	ldr	r0, [r4, #0x14]
  2. 7009e8e0: e2000007     	and	r0, r0, #7
  3. 7009e8e4: e3500004     	cmp	r0, #4
  4. 7009e8e8: 1a00000a     	bne	0x7009e918 <fputc+0x64> @ imm = #0x28
  5. 7009e918: e5940008     	ldr	r0, [r4, #0x8]
  6. 7009e91c: e594100c     	ldr	r1, [r4, #0xc]
  7. 7009e920: e1500001     	cmp	r0, r1
  8. 7009e924: 3a000004     	blo	0x7009e93c <fputc+0x88> @ imm = #0x10
  9. 7009e93c: e2801001     	add	r1, r0, #1
  10. 7009e940: e355000a     	cmp	r5, #10
  11. 7009e944: e5841008     	str	r1, [r4, #0x8]
  12. 7009e948: e5c05000     	strb	r5, [r0]
  13. 7009e94c: 1a00000e     	bne	0x7009e98c <fputc+0xd8> @ imm = #0x38
  14. 7009e98c: e59f0010     	ldr	r0, [pc, #0x10]         @ 0x7009e9a4 <fputc+0xf0>
  15. 7009e990: e5900000     	ldr	r0, [r0]

P_HDR Event: Idx:62883 (Pattern: E, Function: fputc)
Executed Assembly Steps:
  1. 7009e994: e12fff30     	blx	r0

Sync: Idx:62884; ID:10;	BRANCH_ADDRESS : Branch address.; Addr=0x7009A2DC ~[0x22DC];

P_HDR Event: Idx:62886 (Pattern: E, Function: _nop)
Executed Assembly Steps:
  1. 7009a2dc: e12fff1e     	bx	lr

Sync: Idx:62887; ID:10;	BRANCH_ADDRESS : Branch address.; Addr=0x7009E998 ~[0x6998];

P_HDR Event: Idx:62889 (Pattern: EE, Function: fputc)
Executed Assembly Steps:
  1. 7009e998: e6ef0075     	uxtb	r0, r5
  2. 7009e99c: e8bd883c     	pop	{r2, r3, r4, r5, r11, pc}

Sync: Idx:62890; ID:10;	BRANCH_ADDRESS : Branch address.; Addr=0x700A4E88 ~[0x700A4E88]; ISA=Thumb2;

P_HDR Event: Idx:62896 (Pattern: EEEEEEEEEEEEEEE, Function: putchar_)
Executed Assembly Steps:
  1. 700a4e88: 4620         	mov	r0, r4
  2. 700a4e8a: f7f8 fa11    	bl	0x7009d2b0 <DebugP_memLogWriterPutChar> @ imm = #-0x7bde
  3. 7009d2b0: b580         	push	{r7, lr}
  4. 7009d2b2: b088         	sub	sp, #0x20
  5. 7009d2b4: f88d 001f    	strb.w	r0, [sp, #0x1f]
  6. 7009d2b8: f247 30cc    	movw	r0, #0x73cc
  7. 7009d2bc: f2c7 000a    	movt	r0, #0x700a
  8. 7009d2c0: 6800         	ldr	r0, [r0]
  9. 7009d2c2: bb40         	cbnz	r0, 0x7009d316 <DebugP_memLogWriterPutChar+0x66> @ imm = #0x50
  10. 7009d316: f89d 001f    	ldrb.w	r0, [sp, #0x1f]
  11. 7009d31a: f247 31cc    	movw	r1, #0x73cc
  12. 7009d31e: f2c7 010a    	movt	r1, #0x700a
  13. 7009d322: 680b         	ldr	r3, [r1]
  14. 7009d324: f644 42e0    	movw	r2, #0x4ce0
  15. 7009d328: f2c7 0208    	movt	r2, #0x7008

P_HDR Event: Idx:62897 (Pattern: EEEEEEN, Function: DebugP_memLogWriterPutChar)
Executed Assembly Steps:
  1. 7009d32c: 54d0         	strb	r0, [r2, r3]
  2. 7009d32e: 6808         	ldr	r0, [r1]
  3. 7009d330: 3001         	adds	r0, #0x1
  4. 7009d332: 6008         	str	r0, [r1]
  5. 7009d334: f89d 001f    	ldrb.w	r0, [sp, #0x1f]
  6. 7009d338: 280a         	cmp	r0, #0xa
  7. 7009d33a: d008         	beq	0x7009d34e <DebugP_memLogWriterPutChar+0x9e> @ imm = #0x10

P_HDR Event: Idx:62898 (Pattern: EEEEEEEE, Function: DebugP_memLogWriterPutChar)
Executed Assembly Steps:
  1. 7009d33c: e7ff         	b	0x7009d33e <DebugP_memLogWriterPutChar+0x8e> @ imm = #-0x2
  2. 7009d33e: f247 30cc    	movw	r0, #0x73cc
  3. 7009d342: f2c7 000a    	movt	r0, #0x700a
  4. 7009d346: 6800         	ldr	r0, [r0]
  5. 7009d348: 2878         	cmp	r0, #0x78
  6. 7009d34a: d350         	blo	0x7009d3ee <DebugP_memLogWriterPutChar+0x13e> @ imm = #0xa0
  7. 7009d3ee: b008         	add	sp, #0x20
  8. 7009d3f0: bd80         	pop	{r7, pc}

Sync: Idx:62899; ID:10;	BRANCH_ADDRESS : Branch address.; Addr=0x700A4E8E ~[0xE];

P_HDR Event: Idx:62900 (Pattern: EEEEEEEEEEEEEEE, Function: putchar_)
Executed Assembly Steps:
  1. 700a4e8e: 4620         	mov	r0, r4
  2. 700a4e90: e8bd 4010    	pop.w	{r4, lr}
  3. 700a4e94: f7fe bd2c    	b.w	0x700a38f0 <DebugP_uartLogWriterPutChar> @ imm = #-0x15a8
  4. 700a38f0: b580         	push	{r7, lr}
  5. 700a38f2: b088         	sub	sp, #0x20
  6. 700a38f4: f88d 001f    	strb.w	r0, [sp, #0x1f]
  7. 700a38f8: f89d 001f    	ldrb.w	r0, [sp, #0x1f]
  8. 700a38fc: f88d 001e    	strb.w	r0, [sp, #0x1e]
  9. 700a3900: f247 40e0    	movw	r0, #0x74e0
  10. 700a3904: f2c7 000a    	movt	r0, #0x700a
  11. 700a3908: 6800         	ldr	r0, [r0]
  12. 700a390a: f7ff fe41    	bl	0x700a3590 <UART_getHandle> @ imm = #-0x37e
  13. 700a3590: b083         	sub	sp, #0xc
  14. 700a3592: 9002         	str	r0, [sp, #0x8]
  15. 700a3594: 2000         	movs	r0, #0x0

P_HDR Event: Idx:62901 (Pattern: EEEEEEN, Function: UART_getHandle)
Executed Assembly Steps:
  1. 700a3596: 9001         	str	r0, [sp, #0x4]
  2. 700a3598: 9802         	ldr	r0, [sp, #0x8]
  3. 700a359a: f247 41e8    	movw	r1, #0x74e8
  4. 700a359e: f2c7 010a    	movt	r1, #0x700a
  5. 700a35a2: 6809         	ldr	r1, [r1]
  6. 700a35a4: 4288         	cmp	r0, r1
  7. 700a35a6: d217         	bhs	0x700a35d8 <UART_getHandle+0x48> @ imm = #0x2e

P_HDR Event: Idx:62902 (Pattern: EEEEEEEEN, Function: UART_getHandle)
Executed Assembly Steps:
  1. 700a35a8: e7ff         	b	0x700a35aa <UART_getHandle+0x1a> @ imm = #-0x2
  2. 700a35aa: 9902         	ldr	r1, [sp, #0x8]
  3. 700a35ac: f247 40a8    	movw	r0, #0x74a8
  4. 700a35b0: f2c7 000a    	movt	r0, #0x700a
  5. 700a35b4: eb00 00c1    	add.w	r0, r0, r1, lsl #3
  6. 700a35b8: 6840         	ldr	r0, [r0, #0x4]
  7. 700a35ba: 9000         	str	r0, [sp]
  8. 700a35bc: 9800         	ldr	r0, [sp]
  9. 700a35be: b150         	cbz	r0, 0x700a35d6 <UART_getHandle+0x46> @ imm = #0x14

P_HDR Event: Idx:62903 (Pattern: EEEEEEEEE, Function: UART_getHandle)
Executed Assembly Steps:
  1. 700a35c0: e7ff         	b	0x700a35c2 <UART_getHandle+0x32> @ imm = #-0x2
  2. 700a35c2: 9800         	ldr	r0, [sp]
  3. 700a35c4: f8d0 0084    	ldr.w	r0, [r0, #0x84]
  4. 700a35c8: 2801         	cmp	r0, #0x1
  5. 700a35ca: d104         	bne	0x700a35d6 <UART_getHandle+0x46> @ imm = #0x8
  6. 700a35d6: e7ff         	b	0x700a35d8 <UART_getHandle+0x48> @ imm = #-0x2
  7. 700a35d8: 9801         	ldr	r0, [sp, #0x4]
  8. 700a35da: b003         	add	sp, #0xc
  9. 700a35dc: 4770         	bx	lr

Sync: Idx:62904; ID:10;	BRANCH_ADDRESS : Branch address.; Addr=0x700A390E ~[0xA390E];

P_HDR Event: Idx:62907 (Pattern: EEEEE, Function: DebugP_uartLogWriterPutChar)
Executed Assembly Steps:
  1. 700a390e: 9006         	str	r0, [sp, #0x18]
  2. 700a3910: 9806         	ldr	r0, [sp, #0x18]
  3. 700a3912: b170         	cbz	r0, 0x700a3932 <DebugP_uartLogWriterPutChar+0x42> @ imm = #0x1c
  4. 700a3932: b008         	add	sp, #0x20
  5. 700a3934: bd80         	pop	{r7, pc}

Sync: Idx:62908; ID:10;	BRANCH_ADDRESS : Branch address.; Addr=0x700A4A3E ~[0xA4A3E];

P_HDR Event: Idx:62912 (Pattern: EEE, Function: _out_char)
Executed Assembly Steps:
  1. 700a4a3e: e7ff         	b	0x700a4a40 <_out_char+0x20> @ imm = #-0x2
  2. 700a4a40: b004         	add	sp, #0x10
  3. 700a4a42: bd80         	pop	{r7, pc}

Sync: Idx:62913; ID:10;	BRANCH_ADDRESS : Branch address.; Addr=0x70098F58 ~[0x98F58];

P_HDR Event: Idx:62916 (Pattern: EEEEEEEN, Function: _vsnprintf)
Executed Assembly Steps:
  1. 70098f58: 983c         	ldr	r0, [sp, #0xf0]
  2. 70098f5a: 3001         	adds	r0, #0x1
  3. 70098f5c: 903c         	str	r0, [sp, #0xf0]
  4. 70098f5e: e7e6         	b	0x70098f2e <_vsnprintf+0x2e> @ imm = #-0x34
  5. 70098f2e: 983c         	ldr	r0, [sp, #0xf0]
  6. 70098f30: 7800         	ldrb	r0, [r0]
  7. 70098f32: 2800         	cmp	r0, #0x0
  8. 70098f34: f000 84e3    	beq.w	0x700998fe <_vsnprintf+0x9fe> @ imm = #0x9c6

P_HDR Event: Idx:62917 (Pattern: EEEEN, Function: _vsnprintf)
Executed Assembly Steps:
  1. 70098f38: e7ff         	b	0x70098f3a <_vsnprintf+0x3a> @ imm = #-0x2
  2. 70098f3a: 983c         	ldr	r0, [sp, #0xf0]
  3. 70098f3c: 7800         	ldrb	r0, [r0]
  4. 70098f3e: 2825         	cmp	r0, #0x25
  5. 70098f40: d00e         	beq	0x70098f60 <_vsnprintf+0x60> @ imm = #0x1c

P_HDR Event: Idx:62918 (Pattern: EEEEEEEEEE, Function: _vsnprintf)
Executed Assembly Steps:
  1. 70098f42: e7ff         	b	0x70098f44 <_vsnprintf+0x44> @ imm = #-0x2
  2. 70098f44: f8dd c0fc    	ldr.w	r12, [sp, #0xfc]
  3. 70098f48: 983c         	ldr	r0, [sp, #0xf0]
  4. 70098f4a: 7800         	ldrb	r0, [r0]
  5. 70098f4c: 993e         	ldr	r1, [sp, #0xf8]
  6. 70098f4e: 9a37         	ldr	r2, [sp, #0xdc]
  7. 70098f50: 1c53         	adds	r3, r2, #0x1
  8. 70098f52: 9337         	str	r3, [sp, #0xdc]
  9. 70098f54: 9b3d         	ldr	r3, [sp, #0xf4]
  10. 70098f56: 47e0         	blx	r12

Sync: Idx:62919; ID:10;	BRANCH_ADDRESS : Branch address.; Addr=0x700A4A20 ~[0xA4A20];

P_HDR Event: Idx:62922 (Pattern: EEEEEEEN, Function: _out_char)
Executed Assembly Steps:
  1. 700a4a20: b580         	push	{r7, lr}
  2. 700a4a22: b084         	sub	sp, #0x10
  3. 700a4a24: f88d 000f    	strb.w	r0, [sp, #0xf]
  4. 700a4a28: 9102         	str	r1, [sp, #0x8]
  5. 700a4a2a: 9201         	str	r2, [sp, #0x4]
  6. 700a4a2c: 9300         	str	r3, [sp]
  7. 700a4a2e: f89d 000f    	ldrb.w	r0, [sp, #0xf]
  8. 700a4a32: b128         	cbz	r0, 0x700a4a40 <_out_char+0x20> @ imm = #0xa

P_HDR Event: Idx:62923 (Pattern: EEEEEE, Function: _out_char)
Executed Assembly Steps:
  1. 700a4a34: e7ff         	b	0x700a4a36 <_out_char+0x16> @ imm = #-0x2
  2. 700a4a36: f89d 000f    	ldrb.w	r0, [sp, #0xf]
  3. 700a4a3a: f000 fa21    	bl	0x700a4e80 <putchar_>   @ imm = #0x442
  4. 700a4e80: b510         	push	{r4, lr}
  5. 700a4e82: 4604         	mov	r4, r0
  6. 700a4e84: f000 e9ac    	blx	0x700a51e0 <putchar>    @ imm = #0x358

Sync: Idx:62924; ID:10;	BRANCH_ADDRESS : Branch address.; Addr=0x700A51E0 ~[0x700A51E0]; ISA=ARM(32);

P_HDR Event: Idx:62930 (Pattern: EEEEEEEEE, Function: putchar)
Executed Assembly Steps:
  1. 700a51e0: e59f1004     	ldr	r1, [pc, #0x4]          @ 0x700a51ec <putchar+0xc>
  2. 700a51e4: e2811018     	add	r1, r1, #24
  3. 700a51e8: eaffe5b1     	b	0x7009e8b4 <fputc>      @ imm = #-0x693c
  4. 7009e8b4: e92d483c     	push	{r2, r3, r4, r5, r11, lr}
  5. 7009e8b8: e59f20e0     	ldr	r2, [pc, #0xe0]         @ 0x7009e9a0 <fputc+0xec>
  6. 7009e8bc: e1a04001     	mov	r4, r1
  7. 7009e8c0: e1a05000     	mov	r5, r0
  8. 7009e8c4: e5922000     	ldr	r2, [r2]
  9. 7009e8c8: e12fff32     	blx	r2

Sync: Idx:62931; ID:10;	BRANCH_ADDRESS : Branch address.; Addr=0x7009A2DC ~[0x9A2DC];

P_HDR Event: Idx:62934 (Pattern: E, Function: _nop)
Executed Assembly Steps:
  1. 7009a2dc: e12fff1e     	bx	lr

Sync: Idx:62935; ID:10;	BRANCH_ADDRESS : Branch address.; Addr=0x7009E8CC ~[0x68CC];

P_HDR Event: Idx:62937 (Pattern: EEEEEEEN, Function: fputc)
Executed Assembly Steps:
  1. 7009e8cc: e1a00004     	mov	r0, r4
  2. 7009e8d0: eb000949     	bl	0x700a0dfc <__TI_wrt_ok> @ imm = #0x2524
  3. 700a0dfc: e92d4010     	push	{r4, lr}
  4. 700a0e00: e1a04000     	mov	r4, r0
  5. 700a0e04: e5901000     	ldr	r1, [r0]
  6. 700a0e08: e3a00000     	mov	r0, #0
  7. 700a0e0c: e3710001     	cmn	r1, #1
  8. 700a0e10: 0a00001c     	beq	0x700a0e88 <__TI_wrt_ok+0x8c> @ imm = #0x70

P_HDR Event: Idx:62938 (Pattern: EEN, Function: __TI_wrt_ok)
Executed Assembly Steps:
  1. 700a0e14: e5941014     	ldr	r1, [r4, #0x14]
  2. 700a0e18: e3110010     	tst	r1, #16
  3. 700a0e1c: 1a00001a     	bne	0x700a0e8c <__TI_wrt_ok+0x90> @ imm = #0x68

P_HDR Event: Idx:62939 (Pattern: EEEEEEEE, Function: __TI_wrt_ok)
Executed Assembly Steps:
  1. 700a0e20: e3110080     	tst	r1, #128
  2. 700a0e24: 0a000004     	beq	0x700a0e3c <__TI_wrt_ok+0x40> @ imm = #0x10
  3. 700a0e3c: e2010060     	and	r0, r1, #96
  4. 700a0e40: e3500040     	cmp	r0, #64
  5. 700a0e44: 1a000001     	bne	0x700a0e50 <__TI_wrt_ok+0x54> @ imm = #0x4
  6. 700a0e50: e5942004     	ldr	r2, [r4, #0x4]
  7. 700a0e54: e3a00001     	mov	r0, #1
  8. 700a0e58: e3520000     	cmp	r2, #0

P_HDR Event: Idx:62940 (Pattern: NE, Function: __TI_wrt_ok)
Executed Assembly Steps:
  1. 700a0e5c: 02112004     	andseq	r2, r1, #4
  2. 700a0e60: 1a000006     	bne	0x700a0e80 <__TI_wrt_ok+0x84> @ imm = #0x18

P_HDR Event: Idx:62941 (Pattern: EEE, Function: __TI_wrt_ok)
Executed Assembly Steps:
  1. 700a0e80: e594100c     	ldr	r1, [r4, #0xc]
  2. 700a0e84: e5841010     	str	r1, [r4, #0x10]
  3. 700a0e88: e8bd8010     	pop	{r4, pc}

Sync: Idx:62942; ID:10;	BRANCH_ADDRESS : Branch address.; Addr=0x7009E8D4 ~[0xD4];

P_HDR Event: Idx:62944 (Pattern: EN, Function: fputc)
Executed Assembly Steps:
  1. 7009e8d4: e3500000     	cmp	r0, #0
  2. 7009e8d8: 0a00000b     	beq	0x7009e90c <fputc+0x58> @ imm = #0x2c

P_HDR Event: Idx:62945 (Pattern: EEEEEEEEEEEEEEE, Function: fputc)
Executed Assembly Steps:
  1. 7009e8dc: e5940014     	ldr	r0, [r4, #0x14]
  2. 7009e8e0: e2000007     	and	r0, r0, #7
  3. 7009e8e4: e3500004     	cmp	r0, #4
  4. 7009e8e8: 1a00000a     	bne	0x7009e918 <fputc+0x64> @ imm = #0x28
  5. 7009e918: e5940008     	ldr	r0, [r4, #0x8]
  6. 7009e91c: e594100c     	ldr	r1, [r4, #0xc]
  7. 7009e920: e1500001     	cmp	r0, r1
  8. 7009e924: 3a000004     	blo	0x7009e93c <fputc+0x88> @ imm = #0x10
  9. 7009e93c: e2801001     	add	r1, r0, #1
  10. 7009e940: e355000a     	cmp	r5, #10
  11. 7009e944: e5841008     	str	r1, [r4, #0x8]
  12. 7009e948: e5c05000     	strb	r5, [r0]
  13. 7009e94c: 1a00000e     	bne	0x7009e98c <fputc+0xd8> @ imm = #0x38
  14. 7009e98c: e59f0010     	ldr	r0, [pc, #0x10]         @ 0x7009e9a4 <fputc+0xf0>
  15. 7009e990: e5900000     	ldr	r0, [r0]

P_HDR Event: Idx:62946 (Pattern: E, Function: fputc)
Executed Assembly Steps:
  1. 7009e994: e12fff30     	blx	r0

Sync: Idx:62947; ID:10;	BRANCH_ADDRESS : Branch address.; Addr=0x7009A2DC ~[0x22DC];

P_HDR Event: Idx:62949 (Pattern: E, Function: _nop)
Executed Assembly Steps:
  1. 7009a2dc: e12fff1e     	bx	lr

Sync: Idx:62950; ID:10;	BRANCH_ADDRESS : Branch address.; Addr=0x7009E998 ~[0x6998];

P_HDR Event: Idx:62952 (Pattern: EE, Function: fputc)
Executed Assembly Steps:
  1. 7009e998: e6ef0075     	uxtb	r0, r5
  2. 7009e99c: e8bd883c     	pop	{r2, r3, r4, r5, r11, pc}

Sync: Idx:62953; ID:10;	BRANCH_ADDRESS : Branch address.; Addr=0x700A4E88 ~[0x700A4E88]; ISA=Thumb2;

P_HDR Event: Idx:62958 (Pattern: EEEEEEEEEEEEEEE, Function: putchar_)
Executed Assembly Steps:
  1. 700a4e88: 4620         	mov	r0, r4
  2. 700a4e8a: f7f8 fa11    	bl	0x7009d2b0 <DebugP_memLogWriterPutChar> @ imm = #-0x7bde
  3. 7009d2b0: b580         	push	{r7, lr}
  4. 7009d2b2: b088         	sub	sp, #0x20
  5. 7009d2b4: f88d 001f    	strb.w	r0, [sp, #0x1f]
  6. 7009d2b8: f247 30cc    	movw	r0, #0x73cc
  7. 7009d2bc: f2c7 000a    	movt	r0, #0x700a
  8. 7009d2c0: 6800         	ldr	r0, [r0]
  9. 7009d2c2: bb40         	cbnz	r0, 0x7009d316 <DebugP_memLogWriterPutChar+0x66> @ imm = #0x50
  10. 7009d316: f89d 001f    	ldrb.w	r0, [sp, #0x1f]
  11. 7009d31a: f247 31cc    	movw	r1, #0x73cc
  12. 7009d31e: f2c7 010a    	movt	r1, #0x700a
  13. 7009d322: 680b         	ldr	r3, [r1]
  14. 7009d324: f644 42e0    	movw	r2, #0x4ce0
  15. 7009d328: f2c7 0208    	movt	r2, #0x7008

P_HDR Event: Idx:62960 (Pattern: EEEEEEN, Function: DebugP_memLogWriterPutChar)
Executed Assembly Steps:
  1. 7009d32c: 54d0         	strb	r0, [r2, r3]
  2. 7009d32e: 6808         	ldr	r0, [r1]
  3. 7009d330: 3001         	adds	r0, #0x1
  4. 7009d332: 6008         	str	r0, [r1]
  5. 7009d334: f89d 001f    	ldrb.w	r0, [sp, #0x1f]
  6. 7009d338: 280a         	cmp	r0, #0xa
  7. 7009d33a: d008         	beq	0x7009d34e <DebugP_memLogWriterPutChar+0x9e> @ imm = #0x10

P_HDR Event: Idx:62961 (Pattern: EEEEEEEE, Function: DebugP_memLogWriterPutChar)
Executed Assembly Steps:
  1. 7009d33c: e7ff         	b	0x7009d33e <DebugP_memLogWriterPutChar+0x8e> @ imm = #-0x2
  2. 7009d33e: f247 30cc    	movw	r0, #0x73cc
  3. 7009d342: f2c7 000a    	movt	r0, #0x700a
  4. 7009d346: 6800         	ldr	r0, [r0]
  5. 7009d348: 2878         	cmp	r0, #0x78
  6. 7009d34a: d350         	blo	0x7009d3ee <DebugP_memLogWriterPutChar+0x13e> @ imm = #0xa0
  7. 7009d3ee: b008         	add	sp, #0x20
  8. 7009d3f0: bd80         	pop	{r7, pc}

Sync: Idx:62962; ID:10;	BRANCH_ADDRESS : Branch address.; Addr=0x700A4E8E ~[0xE];

P_HDR Event: Idx:62963 (Pattern: EEEEEEEEEEEEEEE, Function: putchar_)
Executed Assembly Steps:
  1. 700a4e8e: 4620         	mov	r0, r4
  2. 700a4e90: e8bd 4010    	pop.w	{r4, lr}
  3. 700a4e94: f7fe bd2c    	b.w	0x700a38f0 <DebugP_uartLogWriterPutChar> @ imm = #-0x15a8
  4. 700a38f0: b580         	push	{r7, lr}
  5. 700a38f2: b088         	sub	sp, #0x20
  6. 700a38f4: f88d 001f    	strb.w	r0, [sp, #0x1f]
  7. 700a38f8: f89d 001f    	ldrb.w	r0, [sp, #0x1f]
  8. 700a38fc: f88d 001e    	strb.w	r0, [sp, #0x1e]
  9. 700a3900: f247 40e0    	movw	r0, #0x74e0
  10. 700a3904: f2c7 000a    	movt	r0, #0x700a
  11. 700a3908: 6800         	ldr	r0, [r0]
  12. 700a390a: f7ff fe41    	bl	0x700a3590 <UART_getHandle> @ imm = #-0x37e
  13. 700a3590: b083         	sub	sp, #0xc
  14. 700a3592: 9002         	str	r0, [sp, #0x8]
  15. 700a3594: 2000         	movs	r0, #0x0

P_HDR Event: Idx:62964 (Pattern: EEEEEEN, Function: UART_getHandle)
Executed Assembly Steps:
  1. 700a3596: 9001         	str	r0, [sp, #0x4]
  2. 700a3598: 9802         	ldr	r0, [sp, #0x8]
  3. 700a359a: f247 41e8    	movw	r1, #0x74e8
  4. 700a359e: f2c7 010a    	movt	r1, #0x700a
  5. 700a35a2: 6809         	ldr	r1, [r1]
  6. 700a35a4: 4288         	cmp	r0, r1
  7. 700a35a6: d217         	bhs	0x700a35d8 <UART_getHandle+0x48> @ imm = #0x2e

P_HDR Event: Idx:62965 (Pattern: EEEEEEEEN, Function: UART_getHandle)
Executed Assembly Steps:
  1. 700a35a8: e7ff         	b	0x700a35aa <UART_getHandle+0x1a> @ imm = #-0x2
  2. 700a35aa: 9902         	ldr	r1, [sp, #0x8]
  3. 700a35ac: f247 40a8    	movw	r0, #0x74a8
  4. 700a35b0: f2c7 000a    	movt	r0, #0x700a
  5. 700a35b4: eb00 00c1    	add.w	r0, r0, r1, lsl #3
  6. 700a35b8: 6840         	ldr	r0, [r0, #0x4]
  7. 700a35ba: 9000         	str	r0, [sp]
  8. 700a35bc: 9800         	ldr	r0, [sp]
  9. 700a35be: b150         	cbz	r0, 0x700a35d6 <UART_getHandle+0x46> @ imm = #0x14

P_HDR Event: Idx:62966 (Pattern: EEEEEEEEE, Function: UART_getHandle)
Executed Assembly Steps:
  1. 700a35c0: e7ff         	b	0x700a35c2 <UART_getHandle+0x32> @ imm = #-0x2
  2. 700a35c2: 9800         	ldr	r0, [sp]
  3. 700a35c4: f8d0 0084    	ldr.w	r0, [r0, #0x84]
  4. 700a35c8: 2801         	cmp	r0, #0x1
  5. 700a35ca: d104         	bne	0x700a35d6 <UART_getHandle+0x46> @ imm = #0x8
  6. 700a35d6: e7ff         	b	0x700a35d8 <UART_getHandle+0x48> @ imm = #-0x2
  7. 700a35d8: 9801         	ldr	r0, [sp, #0x4]
  8. 700a35da: b003         	add	sp, #0xc
  9. 700a35dc: 4770         	bx	lr

Sync: Idx:62967; ID:10;	BRANCH_ADDRESS : Branch address.; Addr=0x700A390E ~[0xA390E];

P_HDR Event: Idx:62970 (Pattern: EEEEE, Function: DebugP_uartLogWriterPutChar)
Executed Assembly Steps:
  1. 700a390e: 9006         	str	r0, [sp, #0x18]
  2. 700a3910: 9806         	ldr	r0, [sp, #0x18]
  3. 700a3912: b170         	cbz	r0, 0x700a3932 <DebugP_uartLogWriterPutChar+0x42> @ imm = #0x1c
  4. 700a3932: b008         	add	sp, #0x20
  5. 700a3934: bd80         	pop	{r7, pc}

Sync: Idx:62971; ID:10;	BRANCH_ADDRESS : Branch address.; Addr=0x700A4A3E ~[0xA4A3E];

P_HDR Event: Idx:62974 (Pattern: EEE, Function: _out_char)
Executed Assembly Steps:
  1. 700a4a3e: e7ff         	b	0x700a4a40 <_out_char+0x20> @ imm = #-0x2
  2. 700a4a40: b004         	add	sp, #0x10
  3. 700a4a42: bd80         	pop	{r7, pc}

Sync: Idx:62976; ID:10;	BRANCH_ADDRESS : Branch address.; Addr=0x70098F58 ~[0x98F58];

P_HDR Event: Idx:62979 (Pattern: EEEEEEEN, Function: _vsnprintf)
Executed Assembly Steps:
  1. 70098f58: 983c         	ldr	r0, [sp, #0xf0]
  2. 70098f5a: 3001         	adds	r0, #0x1
  3. 70098f5c: 903c         	str	r0, [sp, #0xf0]
  4. 70098f5e: e7e6         	b	0x70098f2e <_vsnprintf+0x2e> @ imm = #-0x34
  5. 70098f2e: 983c         	ldr	r0, [sp, #0xf0]
  6. 70098f30: 7800         	ldrb	r0, [r0]
  7. 70098f32: 2800         	cmp	r0, #0x0
  8. 70098f34: f000 84e3    	beq.w	0x700998fe <_vsnprintf+0x9fe> @ imm = #0x9c6

P_HDR Event: Idx:62980 (Pattern: EEEEN, Function: _vsnprintf)
Executed Assembly Steps:
  1. 70098f38: e7ff         	b	0x70098f3a <_vsnprintf+0x3a> @ imm = #-0x2
  2. 70098f3a: 983c         	ldr	r0, [sp, #0xf0]
  3. 70098f3c: 7800         	ldrb	r0, [r0]
  4. 70098f3e: 2825         	cmp	r0, #0x25
  5. 70098f40: d00e         	beq	0x70098f60 <_vsnprintf+0x60> @ imm = #0x1c

P_HDR Event: Idx:62981 (Pattern: EEEEEEEEEE, Function: _vsnprintf)
Executed Assembly Steps:
  1. 70098f42: e7ff         	b	0x70098f44 <_vsnprintf+0x44> @ imm = #-0x2
  2. 70098f44: f8dd c0fc    	ldr.w	r12, [sp, #0xfc]
  3. 70098f48: 983c         	ldr	r0, [sp, #0xf0]
  4. 70098f4a: 7800         	ldrb	r0, [r0]
  5. 70098f4c: 993e         	ldr	r1, [sp, #0xf8]
  6. 70098f4e: 9a37         	ldr	r2, [sp, #0xdc]
  7. 70098f50: 1c53         	adds	r3, r2, #0x1
  8. 70098f52: 9337         	str	r3, [sp, #0xdc]
  9. 70098f54: 9b3d         	ldr	r3, [sp, #0xf4]
  10. 70098f56: 47e0         	blx	r12

Sync: Idx:62982; ID:10;	BRANCH_ADDRESS : Branch address.; Addr=0x700A4A20 ~[0xA4A20];

P_HDR Event: Idx:62985 (Pattern: EEEEEEEN, Function: _out_char)
Executed Assembly Steps:
  1. 700a4a20: b580         	push	{r7, lr}
  2. 700a4a22: b084         	sub	sp, #0x10
  3. 700a4a24: f88d 000f    	strb.w	r0, [sp, #0xf]
  4. 700a4a28: 9102         	str	r1, [sp, #0x8]
  5. 700a4a2a: 9201         	str	r2, [sp, #0x4]
  6. 700a4a2c: 9300         	str	r3, [sp]
  7. 700a4a2e: f89d 000f    	ldrb.w	r0, [sp, #0xf]
  8. 700a4a32: b128         	cbz	r0, 0x700a4a40 <_out_char+0x20> @ imm = #0xa

P_HDR Event: Idx:62986 (Pattern: EEEEEE, Function: _out_char)
Executed Assembly Steps:
  1. 700a4a34: e7ff         	b	0x700a4a36 <_out_char+0x16> @ imm = #-0x2
  2. 700a4a36: f89d 000f    	ldrb.w	r0, [sp, #0xf]
  3. 700a4a3a: f000 fa21    	bl	0x700a4e80 <putchar_>   @ imm = #0x442
  4. 700a4e80: b510         	push	{r4, lr}
  5. 700a4e82: 4604         	mov	r4, r0
  6. 700a4e84: f000 e9ac    	blx	0x700a51e0 <putchar>    @ imm = #0x358

Sync: Idx:62987; ID:10;	BRANCH_ADDRESS : Branch address.; Addr=0x700A51E0 ~[0x700A51E0]; ISA=ARM(32);

P_HDR Event: Idx:62993 (Pattern: EEEEEEEEE, Function: putchar)
Executed Assembly Steps:
  1. 700a51e0: e59f1004     	ldr	r1, [pc, #0x4]          @ 0x700a51ec <putchar+0xc>
  2. 700a51e4: e2811018     	add	r1, r1, #24
  3. 700a51e8: eaffe5b1     	b	0x7009e8b4 <fputc>      @ imm = #-0x693c
  4. 7009e8b4: e92d483c     	push	{r2, r3, r4, r5, r11, lr}
  5. 7009e8b8: e59f20e0     	ldr	r2, [pc, #0xe0]         @ 0x7009e9a0 <fputc+0xec>
  6. 7009e8bc: e1a04001     	mov	r4, r1
  7. 7009e8c0: e1a05000     	mov	r5, r0
  8. 7009e8c4: e5922000     	ldr	r2, [r2]
  9. 7009e8c8: e12fff32     	blx	r2

Sync: Idx:62994; ID:10;	BRANCH_ADDRESS : Branch address.; Addr=0x7009A2DC ~[0x9A2DC];

P_HDR Event: Idx:62997 (Pattern: E, Function: _nop)
Executed Assembly Steps:
  1. 7009a2dc: e12fff1e     	bx	lr

Sync: Idx:62998; ID:10;	BRANCH_ADDRESS : Branch address.; Addr=0x7009E8CC ~[0x68CC];

P_HDR Event: Idx:63000 (Pattern: EEEEEEEN, Function: fputc)
Executed Assembly Steps:
  1. 7009e8cc: e1a00004     	mov	r0, r4
  2. 7009e8d0: eb000949     	bl	0x700a0dfc <__TI_wrt_ok> @ imm = #0x2524
  3. 700a0dfc: e92d4010     	push	{r4, lr}
  4. 700a0e00: e1a04000     	mov	r4, r0
  5. 700a0e04: e5901000     	ldr	r1, [r0]
  6. 700a0e08: e3a00000     	mov	r0, #0
  7. 700a0e0c: e3710001     	cmn	r1, #1
  8. 700a0e10: 0a00001c     	beq	0x700a0e88 <__TI_wrt_ok+0x8c> @ imm = #0x70

P_HDR Event: Idx:63001 (Pattern: EEN, Function: __TI_wrt_ok)
Executed Assembly Steps:
  1. 700a0e14: e5941014     	ldr	r1, [r4, #0x14]
  2. 700a0e18: e3110010     	tst	r1, #16
  3. 700a0e1c: 1a00001a     	bne	0x700a0e8c <__TI_wrt_ok+0x90> @ imm = #0x68

P_HDR Event: Idx:63002 (Pattern: EEEEEEEE, Function: __TI_wrt_ok)
Executed Assembly Steps:
  1. 700a0e20: e3110080     	tst	r1, #128
  2. 700a0e24: 0a000004     	beq	0x700a0e3c <__TI_wrt_ok+0x40> @ imm = #0x10
  3. 700a0e3c: e2010060     	and	r0, r1, #96
  4. 700a0e40: e3500040     	cmp	r0, #64
  5. 700a0e44: 1a000001     	bne	0x700a0e50 <__TI_wrt_ok+0x54> @ imm = #0x4
  6. 700a0e50: e5942004     	ldr	r2, [r4, #0x4]
  7. 700a0e54: e3a00001     	mov	r0, #1
  8. 700a0e58: e3520000     	cmp	r2, #0

P_HDR Event: Idx:63003 (Pattern: NE, Function: __TI_wrt_ok)
Executed Assembly Steps:
  1. 700a0e5c: 02112004     	andseq	r2, r1, #4
  2. 700a0e60: 1a000006     	bne	0x700a0e80 <__TI_wrt_ok+0x84> @ imm = #0x18

P_HDR Event: Idx:63004 (Pattern: EEE, Function: __TI_wrt_ok)
Executed Assembly Steps:
  1. 700a0e80: e594100c     	ldr	r1, [r4, #0xc]
  2. 700a0e84: e5841010     	str	r1, [r4, #0x10]
  3. 700a0e88: e8bd8010     	pop	{r4, pc}

Sync: Idx:63005; ID:10;	BRANCH_ADDRESS : Branch address.; Addr=0x7009E8D4 ~[0xD4];

P_HDR Event: Idx:63006 (Pattern: EN, Function: fputc)
Executed Assembly Steps:
  1. 7009e8d4: e3500000     	cmp	r0, #0
  2. 7009e8d8: 0a00000b     	beq	0x7009e90c <fputc+0x58> @ imm = #0x2c

P_HDR Event: Idx:63008 (Pattern: EEEEEEEEEEEEEEE, Function: fputc)
Executed Assembly Steps:
  1. 7009e8dc: e5940014     	ldr	r0, [r4, #0x14]
  2. 7009e8e0: e2000007     	and	r0, r0, #7
  3. 7009e8e4: e3500004     	cmp	r0, #4
  4. 7009e8e8: 1a00000a     	bne	0x7009e918 <fputc+0x64> @ imm = #0x28
  5. 7009e918: e5940008     	ldr	r0, [r4, #0x8]
  6. 7009e91c: e594100c     	ldr	r1, [r4, #0xc]
  7. 7009e920: e1500001     	cmp	r0, r1
  8. 7009e924: 3a000004     	blo	0x7009e93c <fputc+0x88> @ imm = #0x10
  9. 7009e93c: e2801001     	add	r1, r0, #1
  10. 7009e940: e355000a     	cmp	r5, #10
  11. 7009e944: e5841008     	str	r1, [r4, #0x8]
  12. 7009e948: e5c05000     	strb	r5, [r0]
  13. 7009e94c: 1a00000e     	bne	0x7009e98c <fputc+0xd8> @ imm = #0x38
  14. 7009e98c: e59f0010     	ldr	r0, [pc, #0x10]         @ 0x7009e9a4 <fputc+0xf0>
  15. 7009e990: e5900000     	ldr	r0, [r0]

P_HDR Event: Idx:63009 (Pattern: E, Function: fputc)
Executed Assembly Steps:
  1. 7009e994: e12fff30     	blx	r0

Sync: Idx:63010; ID:10;	BRANCH_ADDRESS : Branch address.; Addr=0x7009A2DC ~[0x22DC];

P_HDR Event: Idx:63012 (Pattern: E, Function: _nop)
Executed Assembly Steps:
  1. 7009a2dc: e12fff1e     	bx	lr

Sync: Idx:63013; ID:10;	BRANCH_ADDRESS : Branch address.; Addr=0x7009E998 ~[0x6998];

P_HDR Event: Idx:63015 (Pattern: EE, Function: fputc)
Executed Assembly Steps:
  1. 7009e998: e6ef0075     	uxtb	r0, r5
  2. 7009e99c: e8bd883c     	pop	{r2, r3, r4, r5, r11, pc}

Sync: Idx:63016; ID:10;	BRANCH_ADDRESS : Branch address.; Addr=0x700A4E88 ~[0x700A4E88]; ISA=Thumb2;

P_HDR Event: Idx:63021 (Pattern: EEEEEEEEEEEEEEE, Function: putchar_)
Executed Assembly Steps:
  1. 700a4e88: 4620         	mov	r0, r4
  2. 700a4e8a: f7f8 fa11    	bl	0x7009d2b0 <DebugP_memLogWriterPutChar> @ imm = #-0x7bde
  3. 7009d2b0: b580         	push	{r7, lr}
  4. 7009d2b2: b088         	sub	sp, #0x20
  5. 7009d2b4: f88d 001f    	strb.w	r0, [sp, #0x1f]
  6. 7009d2b8: f247 30cc    	movw	r0, #0x73cc
  7. 7009d2bc: f2c7 000a    	movt	r0, #0x700a
  8. 7009d2c0: 6800         	ldr	r0, [r0]
  9. 7009d2c2: bb40         	cbnz	r0, 0x7009d316 <DebugP_memLogWriterPutChar+0x66> @ imm = #0x50
  10. 7009d316: f89d 001f    	ldrb.w	r0, [sp, #0x1f]
  11. 7009d31a: f247 31cc    	movw	r1, #0x73cc
  12. 7009d31e: f2c7 010a    	movt	r1, #0x700a
  13. 7009d322: 680b         	ldr	r3, [r1]
  14. 7009d324: f644 42e0    	movw	r2, #0x4ce0
  15. 7009d328: f2c7 0208    	movt	r2, #0x7008

P_HDR Event: Idx:63022 (Pattern: EEEEEEN, Function: DebugP_memLogWriterPutChar)
Executed Assembly Steps:
  1. 7009d32c: 54d0         	strb	r0, [r2, r3]
  2. 7009d32e: 6808         	ldr	r0, [r1]
  3. 7009d330: 3001         	adds	r0, #0x1
  4. 7009d332: 6008         	str	r0, [r1]
  5. 7009d334: f89d 001f    	ldrb.w	r0, [sp, #0x1f]
  6. 7009d338: 280a         	cmp	r0, #0xa
  7. 7009d33a: d008         	beq	0x7009d34e <DebugP_memLogWriterPutChar+0x9e> @ imm = #0x10

P_HDR Event: Idx:63024 (Pattern: EEEEEEEE, Function: DebugP_memLogWriterPutChar)
Executed Assembly Steps:
  1. 7009d33c: e7ff         	b	0x7009d33e <DebugP_memLogWriterPutChar+0x8e> @ imm = #-0x2
  2. 7009d33e: f247 30cc    	movw	r0, #0x73cc
  3. 7009d342: f2c7 000a    	movt	r0, #0x700a
  4. 7009d346: 6800         	ldr	r0, [r0]
  5. 7009d348: 2878         	cmp	r0, #0x78
  6. 7009d34a: d350         	blo	0x7009d3ee <DebugP_memLogWriterPutChar+0x13e> @ imm = #0xa0
  7. 7009d3ee: b008         	add	sp, #0x20
  8. 7009d3f0: bd80         	pop	{r7, pc}

Sync: Idx:63025; ID:10;	BRANCH_ADDRESS : Branch address.; Addr=0x700A4E8E ~[0xE];

P_HDR Event: Idx:63026 (Pattern: EEEEEEEEEEEEEEE, Function: putchar_)
Executed Assembly Steps:
  1. 700a4e8e: 4620         	mov	r0, r4
  2. 700a4e90: e8bd 4010    	pop.w	{r4, lr}
  3. 700a4e94: f7fe bd2c    	b.w	0x700a38f0 <DebugP_uartLogWriterPutChar> @ imm = #-0x15a8
  4. 700a38f0: b580         	push	{r7, lr}
  5. 700a38f2: b088         	sub	sp, #0x20
  6. 700a38f4: f88d 001f    	strb.w	r0, [sp, #0x1f]
  7. 700a38f8: f89d 001f    	ldrb.w	r0, [sp, #0x1f]
  8. 700a38fc: f88d 001e    	strb.w	r0, [sp, #0x1e]
  9. 700a3900: f247 40e0    	movw	r0, #0x74e0
  10. 700a3904: f2c7 000a    	movt	r0, #0x700a
  11. 700a3908: 6800         	ldr	r0, [r0]
  12. 700a390a: f7ff fe41    	bl	0x700a3590 <UART_getHandle> @ imm = #-0x37e
  13. 700a3590: b083         	sub	sp, #0xc
  14. 700a3592: 9002         	str	r0, [sp, #0x8]
  15. 700a3594: 2000         	movs	r0, #0x0

P_HDR Event: Idx:63027 (Pattern: EEEEEEN, Function: UART_getHandle)
Executed Assembly Steps:
  1. 700a3596: 9001         	str	r0, [sp, #0x4]
  2. 700a3598: 9802         	ldr	r0, [sp, #0x8]
  3. 700a359a: f247 41e8    	movw	r1, #0x74e8
  4. 700a359e: f2c7 010a    	movt	r1, #0x700a
  5. 700a35a2: 6809         	ldr	r1, [r1]
  6. 700a35a4: 4288         	cmp	r0, r1
  7. 700a35a6: d217         	bhs	0x700a35d8 <UART_getHandle+0x48> @ imm = #0x2e

P_HDR Event: Idx:63028 (Pattern: EEEEEEEEN, Function: UART_getHandle)
Executed Assembly Steps:
  1. 700a35a8: e7ff         	b	0x700a35aa <UART_getHandle+0x1a> @ imm = #-0x2
  2. 700a35aa: 9902         	ldr	r1, [sp, #0x8]
  3. 700a35ac: f247 40a8    	movw	r0, #0x74a8
  4. 700a35b0: f2c7 000a    	movt	r0, #0x700a
  5. 700a35b4: eb00 00c1    	add.w	r0, r0, r1, lsl #3
  6. 700a35b8: 6840         	ldr	r0, [r0, #0x4]
  7. 700a35ba: 9000         	str	r0, [sp]
  8. 700a35bc: 9800         	ldr	r0, [sp]
  9. 700a35be: b150         	cbz	r0, 0x700a35d6 <UART_getHandle+0x46> @ imm = #0x14

P_HDR Event: Idx:63029 (Pattern: EEEEEEEEE, Function: UART_getHandle)
Executed Assembly Steps:
  1. 700a35c0: e7ff         	b	0x700a35c2 <UART_getHandle+0x32> @ imm = #-0x2
  2. 700a35c2: 9800         	ldr	r0, [sp]
  3. 700a35c4: f8d0 0084    	ldr.w	r0, [r0, #0x84]
  4. 700a35c8: 2801         	cmp	r0, #0x1
  5. 700a35ca: d104         	bne	0x700a35d6 <UART_getHandle+0x46> @ imm = #0x8
  6. 700a35d6: e7ff         	b	0x700a35d8 <UART_getHandle+0x48> @ imm = #-0x2
  7. 700a35d8: 9801         	ldr	r0, [sp, #0x4]
  8. 700a35da: b003         	add	sp, #0xc
  9. 700a35dc: 4770         	bx	lr

Sync: Idx:63030; ID:10;	BRANCH_ADDRESS : Branch address.; Addr=0x700A390E ~[0xA390E];

P_HDR Event: Idx:63033 (Pattern: EEEEE, Function: DebugP_uartLogWriterPutChar)
Executed Assembly Steps:
  1. 700a390e: 9006         	str	r0, [sp, #0x18]
  2. 700a3910: 9806         	ldr	r0, [sp, #0x18]
  3. 700a3912: b170         	cbz	r0, 0x700a3932 <DebugP_uartLogWriterPutChar+0x42> @ imm = #0x1c
  4. 700a3932: b008         	add	sp, #0x20
  5. 700a3934: bd80         	pop	{r7, pc}

Sync: Idx:63034; ID:10;	BRANCH_ADDRESS : Branch address.; Addr=0x700A4A3E ~[0xA4A3E];

P_HDR Event: Idx:63037 (Pattern: EEE, Function: _out_char)
Executed Assembly Steps:
  1. 700a4a3e: e7ff         	b	0x700a4a40 <_out_char+0x20> @ imm = #-0x2
  2. 700a4a40: b004         	add	sp, #0x10
  3. 700a4a42: bd80         	pop	{r7, pc}

Sync: Idx:63038; ID:10;	BRANCH_ADDRESS : Branch address.; Addr=0x70098F58 ~[0x98F58];

P_HDR Event: Idx:63042 (Pattern: EEEEEEEN, Function: _vsnprintf)
Executed Assembly Steps:
  1. 70098f58: 983c         	ldr	r0, [sp, #0xf0]
  2. 70098f5a: 3001         	adds	r0, #0x1
  3. 70098f5c: 903c         	str	r0, [sp, #0xf0]
  4. 70098f5e: e7e6         	b	0x70098f2e <_vsnprintf+0x2e> @ imm = #-0x34
  5. 70098f2e: 983c         	ldr	r0, [sp, #0xf0]
  6. 70098f30: 7800         	ldrb	r0, [r0]
  7. 70098f32: 2800         	cmp	r0, #0x0
  8. 70098f34: f000 84e3    	beq.w	0x700998fe <_vsnprintf+0x9fe> @ imm = #0x9c6

P_HDR Event: Idx:63043 (Pattern: EEEEN, Function: _vsnprintf)
Executed Assembly Steps:
  1. 70098f38: e7ff         	b	0x70098f3a <_vsnprintf+0x3a> @ imm = #-0x2
  2. 70098f3a: 983c         	ldr	r0, [sp, #0xf0]
  3. 70098f3c: 7800         	ldrb	r0, [r0]
  4. 70098f3e: 2825         	cmp	r0, #0x25
  5. 70098f40: d00e         	beq	0x70098f60 <_vsnprintf+0x60> @ imm = #0x1c

P_HDR Event: Idx:63044 (Pattern: EEEEEEEEEE, Function: _vsnprintf)
Executed Assembly Steps:
  1. 70098f42: e7ff         	b	0x70098f44 <_vsnprintf+0x44> @ imm = #-0x2
  2. 70098f44: f8dd c0fc    	ldr.w	r12, [sp, #0xfc]
  3. 70098f48: 983c         	ldr	r0, [sp, #0xf0]
  4. 70098f4a: 7800         	ldrb	r0, [r0]
  5. 70098f4c: 993e         	ldr	r1, [sp, #0xf8]
  6. 70098f4e: 9a37         	ldr	r2, [sp, #0xdc]
  7. 70098f50: 1c53         	adds	r3, r2, #0x1
  8. 70098f52: 9337         	str	r3, [sp, #0xdc]
  9. 70098f54: 9b3d         	ldr	r3, [sp, #0xf4]
  10. 70098f56: 47e0         	blx	r12

Sync: Idx:63045; ID:10;	BRANCH_ADDRESS : Branch address.; Addr=0x700A4A20 ~[0xA4A20];

P_HDR Event: Idx:63048 (Pattern: EEEEEEEN, Function: _out_char)
Executed Assembly Steps:
  1. 700a4a20: b580         	push	{r7, lr}
  2. 700a4a22: b084         	sub	sp, #0x10
  3. 700a4a24: f88d 000f    	strb.w	r0, [sp, #0xf]
  4. 700a4a28: 9102         	str	r1, [sp, #0x8]
  5. 700a4a2a: 9201         	str	r2, [sp, #0x4]
  6. 700a4a2c: 9300         	str	r3, [sp]
  7. 700a4a2e: f89d 000f    	ldrb.w	r0, [sp, #0xf]
  8. 700a4a32: b128         	cbz	r0, 0x700a4a40 <_out_char+0x20> @ imm = #0xa

P_HDR Event: Idx:63049 (Pattern: EEEEEE, Function: _out_char)
Executed Assembly Steps:
  1. 700a4a34: e7ff         	b	0x700a4a36 <_out_char+0x16> @ imm = #-0x2
  2. 700a4a36: f89d 000f    	ldrb.w	r0, [sp, #0xf]
  3. 700a4a3a: f000 fa21    	bl	0x700a4e80 <putchar_>   @ imm = #0x442
  4. 700a4e80: b510         	push	{r4, lr}
  5. 700a4e82: 4604         	mov	r4, r0
  6. 700a4e84: f000 e9ac    	blx	0x700a51e0 <putchar>    @ imm = #0x358

Sync: Idx:63050; ID:10;	BRANCH_ADDRESS : Branch address.; Addr=0x700A51E0 ~[0x700A51E0]; ISA=ARM(32);

P_HDR Event: Idx:63056 (Pattern: EEEEEEEEE, Function: putchar)
Executed Assembly Steps:
  1. 700a51e0: e59f1004     	ldr	r1, [pc, #0x4]          @ 0x700a51ec <putchar+0xc>
  2. 700a51e4: e2811018     	add	r1, r1, #24
  3. 700a51e8: eaffe5b1     	b	0x7009e8b4 <fputc>      @ imm = #-0x693c
  4. 7009e8b4: e92d483c     	push	{r2, r3, r4, r5, r11, lr}
  5. 7009e8b8: e59f20e0     	ldr	r2, [pc, #0xe0]         @ 0x7009e9a0 <fputc+0xec>
  6. 7009e8bc: e1a04001     	mov	r4, r1
  7. 7009e8c0: e1a05000     	mov	r5, r0
  8. 7009e8c4: e5922000     	ldr	r2, [r2]
  9. 7009e8c8: e12fff32     	blx	r2

Sync: Idx:63057; ID:10;	BRANCH_ADDRESS : Branch address.; Addr=0x7009A2DC ~[0x9A2DC];

P_HDR Event: Idx:63060 (Pattern: E, Function: _nop)
Executed Assembly Steps:
  1. 7009a2dc: e12fff1e     	bx	lr

Sync: Idx:63061; ID:10;	BRANCH_ADDRESS : Branch address.; Addr=0x7009E8CC ~[0x68CC];

P_HDR Event: Idx:63063 (Pattern: EEEEEEEN, Function: fputc)
Executed Assembly Steps:
  1. 7009e8cc: e1a00004     	mov	r0, r4
  2. 7009e8d0: eb000949     	bl	0x700a0dfc <__TI_wrt_ok> @ imm = #0x2524
  3. 700a0dfc: e92d4010     	push	{r4, lr}
  4. 700a0e00: e1a04000     	mov	r4, r0
  5. 700a0e04: e5901000     	ldr	r1, [r0]
  6. 700a0e08: e3a00000     	mov	r0, #0
  7. 700a0e0c: e3710001     	cmn	r1, #1
  8. 700a0e10: 0a00001c     	beq	0x700a0e88 <__TI_wrt_ok+0x8c> @ imm = #0x70

P_HDR Event: Idx:63064 (Pattern: EEN, Function: __TI_wrt_ok)
Executed Assembly Steps:
  1. 700a0e14: e5941014     	ldr	r1, [r4, #0x14]
  2. 700a0e18: e3110010     	tst	r1, #16
  3. 700a0e1c: 1a00001a     	bne	0x700a0e8c <__TI_wrt_ok+0x90> @ imm = #0x68

P_HDR Event: Idx:63065 (Pattern: EEEEEEEE, Function: __TI_wrt_ok)
Executed Assembly Steps:
  1. 700a0e20: e3110080     	tst	r1, #128
  2. 700a0e24: 0a000004     	beq	0x700a0e3c <__TI_wrt_ok+0x40> @ imm = #0x10
  3. 700a0e3c: e2010060     	and	r0, r1, #96
  4. 700a0e40: e3500040     	cmp	r0, #64
  5. 700a0e44: 1a000001     	bne	0x700a0e50 <__TI_wrt_ok+0x54> @ imm = #0x4
  6. 700a0e50: e5942004     	ldr	r2, [r4, #0x4]
  7. 700a0e54: e3a00001     	mov	r0, #1
  8. 700a0e58: e3520000     	cmp	r2, #0

P_HDR Event: Idx:63066 (Pattern: NE, Function: __TI_wrt_ok)
Executed Assembly Steps:
  1. 700a0e5c: 02112004     	andseq	r2, r1, #4
  2. 700a0e60: 1a000006     	bne	0x700a0e80 <__TI_wrt_ok+0x84> @ imm = #0x18

P_HDR Event: Idx:63067 (Pattern: EEE, Function: __TI_wrt_ok)
Executed Assembly Steps:
  1. 700a0e80: e594100c     	ldr	r1, [r4, #0xc]
  2. 700a0e84: e5841010     	str	r1, [r4, #0x10]
  3. 700a0e88: e8bd8010     	pop	{r4, pc}

Sync: Idx:63068; ID:10;	BRANCH_ADDRESS : Branch address.; Addr=0x7009E8D4 ~[0xD4];

P_HDR Event: Idx:63069 (Pattern: EN, Function: fputc)
Executed Assembly Steps:
  1. 7009e8d4: e3500000     	cmp	r0, #0
  2. 7009e8d8: 0a00000b     	beq	0x7009e90c <fputc+0x58> @ imm = #0x2c

P_HDR Event: Idx:63070 (Pattern: EEEEEEEEEEEEEEE, Function: fputc)
Executed Assembly Steps:
  1. 7009e8dc: e5940014     	ldr	r0, [r4, #0x14]
  2. 7009e8e0: e2000007     	and	r0, r0, #7
  3. 7009e8e4: e3500004     	cmp	r0, #4
  4. 7009e8e8: 1a00000a     	bne	0x7009e918 <fputc+0x64> @ imm = #0x28
  5. 7009e918: e5940008     	ldr	r0, [r4, #0x8]
  6. 7009e91c: e594100c     	ldr	r1, [r4, #0xc]
  7. 7009e920: e1500001     	cmp	r0, r1
  8. 7009e924: 3a000004     	blo	0x7009e93c <fputc+0x88> @ imm = #0x10
  9. 7009e93c: e2801001     	add	r1, r0, #1
  10. 7009e940: e355000a     	cmp	r5, #10
  11. 7009e944: e5841008     	str	r1, [r4, #0x8]
  12. 7009e948: e5c05000     	strb	r5, [r0]
  13. 7009e94c: 1a00000e     	bne	0x7009e98c <fputc+0xd8> @ imm = #0x38
  14. 7009e98c: e59f0010     	ldr	r0, [pc, #0x10]         @ 0x7009e9a4 <fputc+0xf0>
  15. 7009e990: e5900000     	ldr	r0, [r0]

P_HDR Event: Idx:63072 (Pattern: E, Function: fputc)
Executed Assembly Steps:
  1. 7009e994: e12fff30     	blx	r0

Sync: Idx:63073; ID:10;	BRANCH_ADDRESS : Branch address.; Addr=0x7009A2DC ~[0x22DC];

P_HDR Event: Idx:63075 (Pattern: E, Function: _nop)
Executed Assembly Steps:
  1. 7009a2dc: e12fff1e     	bx	lr

Sync: Idx:63076; ID:10;	BRANCH_ADDRESS : Branch address.; Addr=0x7009E998 ~[0x6998];

P_HDR Event: Idx:63080 (Pattern: EE, Function: fputc)
Executed Assembly Steps:
  1. 7009e998: e6ef0075     	uxtb	r0, r5
  2. 7009e99c: e8bd883c     	pop	{r2, r3, r4, r5, r11, pc}

Sync: Idx:63081; ID:10;	BRANCH_ADDRESS : Branch address.; Addr=0x700A4E88 ~[0x700A4E88]; ISA=Thumb2;

P_HDR Event: Idx:63088 (Pattern: EEEEEEEEEEEEEEE, Function: putchar_)
Executed Assembly Steps:
  1. 700a4e88: 4620         	mov	r0, r4
  2. 700a4e8a: f7f8 fa11    	bl	0x7009d2b0 <DebugP_memLogWriterPutChar> @ imm = #-0x7bde
  3. 7009d2b0: b580         	push	{r7, lr}
  4. 7009d2b2: b088         	sub	sp, #0x20
  5. 7009d2b4: f88d 001f    	strb.w	r0, [sp, #0x1f]
  6. 7009d2b8: f247 30cc    	movw	r0, #0x73cc
  7. 7009d2bc: f2c7 000a    	movt	r0, #0x700a
  8. 7009d2c0: 6800         	ldr	r0, [r0]
  9. 7009d2c2: bb40         	cbnz	r0, 0x7009d316 <DebugP_memLogWriterPutChar+0x66> @ imm = #0x50
  10. 7009d316: f89d 001f    	ldrb.w	r0, [sp, #0x1f]
  11. 7009d31a: f247 31cc    	movw	r1, #0x73cc
  12. 7009d31e: f2c7 010a    	movt	r1, #0x700a
  13. 7009d322: 680b         	ldr	r3, [r1]
  14. 7009d324: f644 42e0    	movw	r2, #0x4ce0
  15. 7009d328: f2c7 0208    	movt	r2, #0x7008

P_HDR Event: Idx:63089 (Pattern: EEEEEEN, Function: DebugP_memLogWriterPutChar)
Executed Assembly Steps:
  1. 7009d32c: 54d0         	strb	r0, [r2, r3]
  2. 7009d32e: 6808         	ldr	r0, [r1]
  3. 7009d330: 3001         	adds	r0, #0x1
  4. 7009d332: 6008         	str	r0, [r1]
  5. 7009d334: f89d 001f    	ldrb.w	r0, [sp, #0x1f]
  6. 7009d338: 280a         	cmp	r0, #0xa
  7. 7009d33a: d008         	beq	0x7009d34e <DebugP_memLogWriterPutChar+0x9e> @ imm = #0x10

P_HDR Event: Idx:63090 (Pattern: EEEEEEEE, Function: DebugP_memLogWriterPutChar)
Executed Assembly Steps:
  1. 7009d33c: e7ff         	b	0x7009d33e <DebugP_memLogWriterPutChar+0x8e> @ imm = #-0x2
  2. 7009d33e: f247 30cc    	movw	r0, #0x73cc
  3. 7009d342: f2c7 000a    	movt	r0, #0x700a
  4. 7009d346: 6800         	ldr	r0, [r0]
  5. 7009d348: 2878         	cmp	r0, #0x78
  6. 7009d34a: d350         	blo	0x7009d3ee <DebugP_memLogWriterPutChar+0x13e> @ imm = #0xa0
  7. 7009d3ee: b008         	add	sp, #0x20
  8. 7009d3f0: bd80         	pop	{r7, pc}

Sync: Idx:63091; ID:10;	BRANCH_ADDRESS : Branch address.; Addr=0x700A4E8E ~[0xE];

P_HDR Event: Idx:63092 (Pattern: EEEEEEEEEEEEEEE, Function: putchar_)
Executed Assembly Steps:
  1. 700a4e8e: 4620         	mov	r0, r4
  2. 700a4e90: e8bd 4010    	pop.w	{r4, lr}
  3. 700a4e94: f7fe bd2c    	b.w	0x700a38f0 <DebugP_uartLogWriterPutChar> @ imm = #-0x15a8
  4. 700a38f0: b580         	push	{r7, lr}
  5. 700a38f2: b088         	sub	sp, #0x20
  6. 700a38f4: f88d 001f    	strb.w	r0, [sp, #0x1f]
  7. 700a38f8: f89d 001f    	ldrb.w	r0, [sp, #0x1f]
  8. 700a38fc: f88d 001e    	strb.w	r0, [sp, #0x1e]
  9. 700a3900: f247 40e0    	movw	r0, #0x74e0
  10. 700a3904: f2c7 000a    	movt	r0, #0x700a
  11. 700a3908: 6800         	ldr	r0, [r0]
  12. 700a390a: f7ff fe41    	bl	0x700a3590 <UART_getHandle> @ imm = #-0x37e
  13. 700a3590: b083         	sub	sp, #0xc
  14. 700a3592: 9002         	str	r0, [sp, #0x8]
  15. 700a3594: 2000         	movs	r0, #0x0

P_HDR Event: Idx:63093 (Pattern: EEEEEEN, Function: UART_getHandle)
Executed Assembly Steps:
  1. 700a3596: 9001         	str	r0, [sp, #0x4]
  2. 700a3598: 9802         	ldr	r0, [sp, #0x8]
  3. 700a359a: f247 41e8    	movw	r1, #0x74e8
  4. 700a359e: f2c7 010a    	movt	r1, #0x700a
  5. 700a35a2: 6809         	ldr	r1, [r1]
  6. 700a35a4: 4288         	cmp	r0, r1
  7. 700a35a6: d217         	bhs	0x700a35d8 <UART_getHandle+0x48> @ imm = #0x2e

P_HDR Event: Idx:63094 (Pattern: EEEEEEEEN, Function: UART_getHandle)
Executed Assembly Steps:
  1. 700a35a8: e7ff         	b	0x700a35aa <UART_getHandle+0x1a> @ imm = #-0x2
  2. 700a35aa: 9902         	ldr	r1, [sp, #0x8]
  3. 700a35ac: f247 40a8    	movw	r0, #0x74a8
  4. 700a35b0: f2c7 000a    	movt	r0, #0x700a
  5. 700a35b4: eb00 00c1    	add.w	r0, r0, r1, lsl #3
  6. 700a35b8: 6840         	ldr	r0, [r0, #0x4]
  7. 700a35ba: 9000         	str	r0, [sp]
  8. 700a35bc: 9800         	ldr	r0, [sp]
  9. 700a35be: b150         	cbz	r0, 0x700a35d6 <UART_getHandle+0x46> @ imm = #0x14

P_HDR Event: Idx:63095 (Pattern: EEEEEEEEE, Function: UART_getHandle)
Executed Assembly Steps:
  1. 700a35c0: e7ff         	b	0x700a35c2 <UART_getHandle+0x32> @ imm = #-0x2
  2. 700a35c2: 9800         	ldr	r0, [sp]
  3. 700a35c4: f8d0 0084    	ldr.w	r0, [r0, #0x84]
  4. 700a35c8: 2801         	cmp	r0, #0x1
  5. 700a35ca: d104         	bne	0x700a35d6 <UART_getHandle+0x46> @ imm = #0x8
  6. 700a35d6: e7ff         	b	0x700a35d8 <UART_getHandle+0x48> @ imm = #-0x2
  7. 700a35d8: 9801         	ldr	r0, [sp, #0x4]
  8. 700a35da: b003         	add	sp, #0xc
  9. 700a35dc: 4770         	bx	lr

Sync: Idx:63096; ID:10;	BRANCH_ADDRESS : Branch address.; Addr=0x700A390E ~[0xA390E];

P_HDR Event: Idx:63099 (Pattern: EEEEE, Function: DebugP_uartLogWriterPutChar)
Executed Assembly Steps:
  1. 700a390e: 9006         	str	r0, [sp, #0x18]
  2. 700a3910: 9806         	ldr	r0, [sp, #0x18]
  3. 700a3912: b170         	cbz	r0, 0x700a3932 <DebugP_uartLogWriterPutChar+0x42> @ imm = #0x1c
  4. 700a3932: b008         	add	sp, #0x20
  5. 700a3934: bd80         	pop	{r7, pc}

Sync: Idx:63100; ID:10;	BRANCH_ADDRESS : Branch address.; Addr=0x700A4A3E ~[0xA4A3E];

P_HDR Event: Idx:63104 (Pattern: EEE, Function: _out_char)
Executed Assembly Steps:
  1. 700a4a3e: e7ff         	b	0x700a4a40 <_out_char+0x20> @ imm = #-0x2
  2. 700a4a40: b004         	add	sp, #0x10
  3. 700a4a42: bd80         	pop	{r7, pc}

Sync: Idx:63105; ID:10;	BRANCH_ADDRESS : Branch address.; Addr=0x70098F58 ~[0x98F58];

P_HDR Event: Idx:63108 (Pattern: EEEEEEEN, Function: _vsnprintf)
Executed Assembly Steps:
  1. 70098f58: 983c         	ldr	r0, [sp, #0xf0]
  2. 70098f5a: 3001         	adds	r0, #0x1
  3. 70098f5c: 903c         	str	r0, [sp, #0xf0]
  4. 70098f5e: e7e6         	b	0x70098f2e <_vsnprintf+0x2e> @ imm = #-0x34
  5. 70098f2e: 983c         	ldr	r0, [sp, #0xf0]
  6. 70098f30: 7800         	ldrb	r0, [r0]
  7. 70098f32: 2800         	cmp	r0, #0x0
  8. 70098f34: f000 84e3    	beq.w	0x700998fe <_vsnprintf+0x9fe> @ imm = #0x9c6

P_HDR Event: Idx:63109 (Pattern: EEEEN, Function: _vsnprintf)
Executed Assembly Steps:
  1. 70098f38: e7ff         	b	0x70098f3a <_vsnprintf+0x3a> @ imm = #-0x2
  2. 70098f3a: 983c         	ldr	r0, [sp, #0xf0]
  3. 70098f3c: 7800         	ldrb	r0, [r0]
  4. 70098f3e: 2825         	cmp	r0, #0x25
  5. 70098f40: d00e         	beq	0x70098f60 <_vsnprintf+0x60> @ imm = #0x1c

P_HDR Event: Idx:63110 (Pattern: EEEEEEEEEE, Function: _vsnprintf)
Executed Assembly Steps:
  1. 70098f42: e7ff         	b	0x70098f44 <_vsnprintf+0x44> @ imm = #-0x2
  2. 70098f44: f8dd c0fc    	ldr.w	r12, [sp, #0xfc]
  3. 70098f48: 983c         	ldr	r0, [sp, #0xf0]
  4. 70098f4a: 7800         	ldrb	r0, [r0]
  5. 70098f4c: 993e         	ldr	r1, [sp, #0xf8]
  6. 70098f4e: 9a37         	ldr	r2, [sp, #0xdc]
  7. 70098f50: 1c53         	adds	r3, r2, #0x1
  8. 70098f52: 9337         	str	r3, [sp, #0xdc]
  9. 70098f54: 9b3d         	ldr	r3, [sp, #0xf4]
  10. 70098f56: 47e0         	blx	r12

Sync: Idx:63111; ID:10;	BRANCH_ADDRESS : Branch address.; Addr=0x700A4A20 ~[0xA4A20];

P_HDR Event: Idx:63114 (Pattern: EEEEEEEN, Function: _out_char)
Executed Assembly Steps:
  1. 700a4a20: b580         	push	{r7, lr}
  2. 700a4a22: b084         	sub	sp, #0x10
  3. 700a4a24: f88d 000f    	strb.w	r0, [sp, #0xf]
  4. 700a4a28: 9102         	str	r1, [sp, #0x8]
  5. 700a4a2a: 9201         	str	r2, [sp, #0x4]
  6. 700a4a2c: 9300         	str	r3, [sp]
  7. 700a4a2e: f89d 000f    	ldrb.w	r0, [sp, #0xf]
  8. 700a4a32: b128         	cbz	r0, 0x700a4a40 <_out_char+0x20> @ imm = #0xa

P_HDR Event: Idx:63115 (Pattern: EEEEEE, Function: _out_char)
Executed Assembly Steps:
  1. 700a4a34: e7ff         	b	0x700a4a36 <_out_char+0x16> @ imm = #-0x2
  2. 700a4a36: f89d 000f    	ldrb.w	r0, [sp, #0xf]
  3. 700a4a3a: f000 fa21    	bl	0x700a4e80 <putchar_>   @ imm = #0x442
  4. 700a4e80: b510         	push	{r4, lr}
  5. 700a4e82: 4604         	mov	r4, r0
  6. 700a4e84: f000 e9ac    	blx	0x700a51e0 <putchar>    @ imm = #0x358

Sync: Idx:63116; ID:10;	BRANCH_ADDRESS : Branch address.; Addr=0x700A51E0 ~[0x700A51E0]; ISA=ARM(32);

P_HDR Event: Idx:63122 (Pattern: EEEEEEEEE, Function: putchar)
Executed Assembly Steps:
  1. 700a51e0: e59f1004     	ldr	r1, [pc, #0x4]          @ 0x700a51ec <putchar+0xc>
  2. 700a51e4: e2811018     	add	r1, r1, #24
  3. 700a51e8: eaffe5b1     	b	0x7009e8b4 <fputc>      @ imm = #-0x693c
  4. 7009e8b4: e92d483c     	push	{r2, r3, r4, r5, r11, lr}
  5. 7009e8b8: e59f20e0     	ldr	r2, [pc, #0xe0]         @ 0x7009e9a0 <fputc+0xec>
  6. 7009e8bc: e1a04001     	mov	r4, r1
  7. 7009e8c0: e1a05000     	mov	r5, r0
  8. 7009e8c4: e5922000     	ldr	r2, [r2]
  9. 7009e8c8: e12fff32     	blx	r2

Sync: Idx:63123; ID:10;	BRANCH_ADDRESS : Branch address.; Addr=0x7009A2DC ~[0x9A2DC];

P_HDR Event: Idx:63126 (Pattern: E, Function: _nop)
Executed Assembly Steps:
  1. 7009a2dc: e12fff1e     	bx	lr

Sync: Idx:63127; ID:10;	BRANCH_ADDRESS : Branch address.; Addr=0x7009E8CC ~[0x68CC];

P_HDR Event: Idx:63129 (Pattern: EEEEEEEN, Function: fputc)
Executed Assembly Steps:
  1. 7009e8cc: e1a00004     	mov	r0, r4
  2. 7009e8d0: eb000949     	bl	0x700a0dfc <__TI_wrt_ok> @ imm = #0x2524
  3. 700a0dfc: e92d4010     	push	{r4, lr}
  4. 700a0e00: e1a04000     	mov	r4, r0
  5. 700a0e04: e5901000     	ldr	r1, [r0]
  6. 700a0e08: e3a00000     	mov	r0, #0
  7. 700a0e0c: e3710001     	cmn	r1, #1
  8. 700a0e10: 0a00001c     	beq	0x700a0e88 <__TI_wrt_ok+0x8c> @ imm = #0x70

P_HDR Event: Idx:63130 (Pattern: EEN, Function: __TI_wrt_ok)
Executed Assembly Steps:
  1. 700a0e14: e5941014     	ldr	r1, [r4, #0x14]
  2. 700a0e18: e3110010     	tst	r1, #16
  3. 700a0e1c: 1a00001a     	bne	0x700a0e8c <__TI_wrt_ok+0x90> @ imm = #0x68

P_HDR Event: Idx:63131 (Pattern: EEEEEEEE, Function: __TI_wrt_ok)
Executed Assembly Steps:
  1. 700a0e20: e3110080     	tst	r1, #128
  2. 700a0e24: 0a000004     	beq	0x700a0e3c <__TI_wrt_ok+0x40> @ imm = #0x10
  3. 700a0e3c: e2010060     	and	r0, r1, #96
  4. 700a0e40: e3500040     	cmp	r0, #64
  5. 700a0e44: 1a000001     	bne	0x700a0e50 <__TI_wrt_ok+0x54> @ imm = #0x4
  6. 700a0e50: e5942004     	ldr	r2, [r4, #0x4]
  7. 700a0e54: e3a00001     	mov	r0, #1
  8. 700a0e58: e3520000     	cmp	r2, #0

P_HDR Event: Idx:63132 (Pattern: NE, Function: __TI_wrt_ok)
Executed Assembly Steps:
  1. 700a0e5c: 02112004     	andseq	r2, r1, #4
  2. 700a0e60: 1a000006     	bne	0x700a0e80 <__TI_wrt_ok+0x84> @ imm = #0x18

P_HDR Event: Idx:63133 (Pattern: EEE, Function: __TI_wrt_ok)
Executed Assembly Steps:
  1. 700a0e80: e594100c     	ldr	r1, [r4, #0xc]
  2. 700a0e84: e5841010     	str	r1, [r4, #0x10]
  3. 700a0e88: e8bd8010     	pop	{r4, pc}

Sync: Idx:63134; ID:10;	BRANCH_ADDRESS : Branch address.; Addr=0x7009E8D4 ~[0xD4];

P_HDR Event: Idx:63136 (Pattern: EN, Function: fputc)
Executed Assembly Steps:
  1. 7009e8d4: e3500000     	cmp	r0, #0
  2. 7009e8d8: 0a00000b     	beq	0x7009e90c <fputc+0x58> @ imm = #0x2c

P_HDR Event: Idx:63137 (Pattern: EEEEEEEEEEEEEEE, Function: fputc)
Executed Assembly Steps:
  1. 7009e8dc: e5940014     	ldr	r0, [r4, #0x14]
  2. 7009e8e0: e2000007     	and	r0, r0, #7
  3. 7009e8e4: e3500004     	cmp	r0, #4
  4. 7009e8e8: 1a00000a     	bne	0x7009e918 <fputc+0x64> @ imm = #0x28
  5. 7009e918: e5940008     	ldr	r0, [r4, #0x8]
  6. 7009e91c: e594100c     	ldr	r1, [r4, #0xc]
  7. 7009e920: e1500001     	cmp	r0, r1
  8. 7009e924: 3a000004     	blo	0x7009e93c <fputc+0x88> @ imm = #0x10
  9. 7009e93c: e2801001     	add	r1, r0, #1
  10. 7009e940: e355000a     	cmp	r5, #10
  11. 7009e944: e5841008     	str	r1, [r4, #0x8]
  12. 7009e948: e5c05000     	strb	r5, [r0]
  13. 7009e94c: 1a00000e     	bne	0x7009e98c <fputc+0xd8> @ imm = #0x38
  14. 7009e98c: e59f0010     	ldr	r0, [pc, #0x10]         @ 0x7009e9a4 <fputc+0xf0>
  15. 7009e990: e5900000     	ldr	r0, [r0]

P_HDR Event: Idx:63138 (Pattern: E, Function: fputc)
Executed Assembly Steps:
  1. 7009e994: e12fff30     	blx	r0

Sync: Idx:63139; ID:10;	BRANCH_ADDRESS : Branch address.; Addr=0x7009A2DC ~[0x22DC];

P_HDR Event: Idx:63141 (Pattern: E, Function: _nop)
Executed Assembly Steps:
  1. 7009a2dc: e12fff1e     	bx	lr

Sync: Idx:63142; ID:10;	BRANCH_ADDRESS : Branch address.; Addr=0x7009E998 ~[0x6998];

P_HDR Event: Idx:63144 (Pattern: EE, Function: fputc)
Executed Assembly Steps:
  1. 7009e998: e6ef0075     	uxtb	r0, r5
  2. 7009e99c: e8bd883c     	pop	{r2, r3, r4, r5, r11, pc}

Sync: Idx:63145; ID:10;	BRANCH_ADDRESS : Branch address.; Addr=0x700A4E88 ~[0x700A4E88]; ISA=Thumb2;

P_HDR Event: Idx:63150 (Pattern: EEEEEEEEEEEEEEE, Function: putchar_)
Executed Assembly Steps:
  1. 700a4e88: 4620         	mov	r0, r4
  2. 700a4e8a: f7f8 fa11    	bl	0x7009d2b0 <DebugP_memLogWriterPutChar> @ imm = #-0x7bde
  3. 7009d2b0: b580         	push	{r7, lr}
  4. 7009d2b2: b088         	sub	sp, #0x20
  5. 7009d2b4: f88d 001f    	strb.w	r0, [sp, #0x1f]
  6. 7009d2b8: f247 30cc    	movw	r0, #0x73cc
  7. 7009d2bc: f2c7 000a    	movt	r0, #0x700a
  8. 7009d2c0: 6800         	ldr	r0, [r0]
  9. 7009d2c2: bb40         	cbnz	r0, 0x7009d316 <DebugP_memLogWriterPutChar+0x66> @ imm = #0x50
  10. 7009d316: f89d 001f    	ldrb.w	r0, [sp, #0x1f]
  11. 7009d31a: f247 31cc    	movw	r1, #0x73cc
  12. 7009d31e: f2c7 010a    	movt	r1, #0x700a
  13. 7009d322: 680b         	ldr	r3, [r1]
  14. 7009d324: f644 42e0    	movw	r2, #0x4ce0
  15. 7009d328: f2c7 0208    	movt	r2, #0x7008

P_HDR Event: Idx:63152 (Pattern: EEEEEEN, Function: DebugP_memLogWriterPutChar)
Executed Assembly Steps:
  1. 7009d32c: 54d0         	strb	r0, [r2, r3]
  2. 7009d32e: 6808         	ldr	r0, [r1]
  3. 7009d330: 3001         	adds	r0, #0x1
  4. 7009d332: 6008         	str	r0, [r1]
  5. 7009d334: f89d 001f    	ldrb.w	r0, [sp, #0x1f]
  6. 7009d338: 280a         	cmp	r0, #0xa
  7. 7009d33a: d008         	beq	0x7009d34e <DebugP_memLogWriterPutChar+0x9e> @ imm = #0x10

P_HDR Event: Idx:63153 (Pattern: EEEEEEEE, Function: DebugP_memLogWriterPutChar)
Executed Assembly Steps:
  1. 7009d33c: e7ff         	b	0x7009d33e <DebugP_memLogWriterPutChar+0x8e> @ imm = #-0x2
  2. 7009d33e: f247 30cc    	movw	r0, #0x73cc
  3. 7009d342: f2c7 000a    	movt	r0, #0x700a
  4. 7009d346: 6800         	ldr	r0, [r0]
  5. 7009d348: 2878         	cmp	r0, #0x78
  6. 7009d34a: d350         	blo	0x7009d3ee <DebugP_memLogWriterPutChar+0x13e> @ imm = #0xa0
  7. 7009d3ee: b008         	add	sp, #0x20
  8. 7009d3f0: bd80         	pop	{r7, pc}

Sync: Idx:63154; ID:10;	BRANCH_ADDRESS : Branch address.; Addr=0x700A4E8E ~[0xE];

P_HDR Event: Idx:63155 (Pattern: EEEEEEEEEEEEEEE, Function: putchar_)
Executed Assembly Steps:
  1. 700a4e8e: 4620         	mov	r0, r4
  2. 700a4e90: e8bd 4010    	pop.w	{r4, lr}
  3. 700a4e94: f7fe bd2c    	b.w	0x700a38f0 <DebugP_uartLogWriterPutChar> @ imm = #-0x15a8
  4. 700a38f0: b580         	push	{r7, lr}
  5. 700a38f2: b088         	sub	sp, #0x20
  6. 700a38f4: f88d 001f    	strb.w	r0, [sp, #0x1f]
  7. 700a38f8: f89d 001f    	ldrb.w	r0, [sp, #0x1f]
  8. 700a38fc: f88d 001e    	strb.w	r0, [sp, #0x1e]
  9. 700a3900: f247 40e0    	movw	r0, #0x74e0
  10. 700a3904: f2c7 000a    	movt	r0, #0x700a
  11. 700a3908: 6800         	ldr	r0, [r0]
  12. 700a390a: f7ff fe41    	bl	0x700a3590 <UART_getHandle> @ imm = #-0x37e
  13. 700a3590: b083         	sub	sp, #0xc
  14. 700a3592: 9002         	str	r0, [sp, #0x8]
  15. 700a3594: 2000         	movs	r0, #0x0

P_HDR Event: Idx:63156 (Pattern: EEEEEEN, Function: UART_getHandle)
Executed Assembly Steps:
  1. 700a3596: 9001         	str	r0, [sp, #0x4]
  2. 700a3598: 9802         	ldr	r0, [sp, #0x8]
  3. 700a359a: f247 41e8    	movw	r1, #0x74e8
  4. 700a359e: f2c7 010a    	movt	r1, #0x700a
  5. 700a35a2: 6809         	ldr	r1, [r1]
  6. 700a35a4: 4288         	cmp	r0, r1
  7. 700a35a6: d217         	bhs	0x700a35d8 <UART_getHandle+0x48> @ imm = #0x2e

P_HDR Event: Idx:63157 (Pattern: EEEEEEEEN, Function: UART_getHandle)
Executed Assembly Steps:
  1. 700a35a8: e7ff         	b	0x700a35aa <UART_getHandle+0x1a> @ imm = #-0x2
  2. 700a35aa: 9902         	ldr	r1, [sp, #0x8]
  3. 700a35ac: f247 40a8    	movw	r0, #0x74a8
  4. 700a35b0: f2c7 000a    	movt	r0, #0x700a
  5. 700a35b4: eb00 00c1    	add.w	r0, r0, r1, lsl #3
  6. 700a35b8: 6840         	ldr	r0, [r0, #0x4]
  7. 700a35ba: 9000         	str	r0, [sp]
  8. 700a35bc: 9800         	ldr	r0, [sp]
  9. 700a35be: b150         	cbz	r0, 0x700a35d6 <UART_getHandle+0x46> @ imm = #0x14

P_HDR Event: Idx:63158 (Pattern: EEEEEEEEE, Function: UART_getHandle)
Executed Assembly Steps:
  1. 700a35c0: e7ff         	b	0x700a35c2 <UART_getHandle+0x32> @ imm = #-0x2
  2. 700a35c2: 9800         	ldr	r0, [sp]
  3. 700a35c4: f8d0 0084    	ldr.w	r0, [r0, #0x84]
  4. 700a35c8: 2801         	cmp	r0, #0x1
  5. 700a35ca: d104         	bne	0x700a35d6 <UART_getHandle+0x46> @ imm = #0x8
  6. 700a35d6: e7ff         	b	0x700a35d8 <UART_getHandle+0x48> @ imm = #-0x2
  7. 700a35d8: 9801         	ldr	r0, [sp, #0x4]
  8. 700a35da: b003         	add	sp, #0xc
  9. 700a35dc: 4770         	bx	lr

Sync: Idx:63159; ID:10;	BRANCH_ADDRESS : Branch address.; Addr=0x700A390E ~[0xA390E];

P_HDR Event: Idx:63162 (Pattern: EEEEE, Function: DebugP_uartLogWriterPutChar)
Executed Assembly Steps:
  1. 700a390e: 9006         	str	r0, [sp, #0x18]
  2. 700a3910: 9806         	ldr	r0, [sp, #0x18]
  3. 700a3912: b170         	cbz	r0, 0x700a3932 <DebugP_uartLogWriterPutChar+0x42> @ imm = #0x1c
  4. 700a3932: b008         	add	sp, #0x20
  5. 700a3934: bd80         	pop	{r7, pc}

Sync: Idx:63163; ID:10;	BRANCH_ADDRESS : Branch address.; Addr=0x700A4A3E ~[0xA4A3E];

P_HDR Event: Idx:63166 (Pattern: EEE, Function: _out_char)
Executed Assembly Steps:
  1. 700a4a3e: e7ff         	b	0x700a4a40 <_out_char+0x20> @ imm = #-0x2
  2. 700a4a40: b004         	add	sp, #0x10
  3. 700a4a42: bd80         	pop	{r7, pc}

Sync: Idx:63168; ID:10;	BRANCH_ADDRESS : Branch address.; Addr=0x70098F58 ~[0x98F58];

P_HDR Event: Idx:63171 (Pattern: EEEEEEEN, Function: _vsnprintf)
Executed Assembly Steps:
  1. 70098f58: 983c         	ldr	r0, [sp, #0xf0]
  2. 70098f5a: 3001         	adds	r0, #0x1
  3. 70098f5c: 903c         	str	r0, [sp, #0xf0]
  4. 70098f5e: e7e6         	b	0x70098f2e <_vsnprintf+0x2e> @ imm = #-0x34
  5. 70098f2e: 983c         	ldr	r0, [sp, #0xf0]
  6. 70098f30: 7800         	ldrb	r0, [r0]
  7. 70098f32: 2800         	cmp	r0, #0x0
  8. 70098f34: f000 84e3    	beq.w	0x700998fe <_vsnprintf+0x9fe> @ imm = #0x9c6

P_HDR Event: Idx:63172 (Pattern: EEEEN, Function: _vsnprintf)
Executed Assembly Steps:
  1. 70098f38: e7ff         	b	0x70098f3a <_vsnprintf+0x3a> @ imm = #-0x2
  2. 70098f3a: 983c         	ldr	r0, [sp, #0xf0]
  3. 70098f3c: 7800         	ldrb	r0, [r0]
  4. 70098f3e: 2825         	cmp	r0, #0x25
  5. 70098f40: d00e         	beq	0x70098f60 <_vsnprintf+0x60> @ imm = #0x1c

P_HDR Event: Idx:63173 (Pattern: EEEEEEEEEE, Function: _vsnprintf)
Executed Assembly Steps:
  1. 70098f42: e7ff         	b	0x70098f44 <_vsnprintf+0x44> @ imm = #-0x2
  2. 70098f44: f8dd c0fc    	ldr.w	r12, [sp, #0xfc]
  3. 70098f48: 983c         	ldr	r0, [sp, #0xf0]
  4. 70098f4a: 7800         	ldrb	r0, [r0]
  5. 70098f4c: 993e         	ldr	r1, [sp, #0xf8]
  6. 70098f4e: 9a37         	ldr	r2, [sp, #0xdc]
  7. 70098f50: 1c53         	adds	r3, r2, #0x1
  8. 70098f52: 9337         	str	r3, [sp, #0xdc]
  9. 70098f54: 9b3d         	ldr	r3, [sp, #0xf4]
  10. 70098f56: 47e0         	blx	r12

Sync: Idx:63174; ID:10;	BRANCH_ADDRESS : Branch address.; Addr=0x700A4A20 ~[0xA4A20];

P_HDR Event: Idx:63177 (Pattern: EEEEEEEN, Function: _out_char)
Executed Assembly Steps:
  1. 700a4a20: b580         	push	{r7, lr}
  2. 700a4a22: b084         	sub	sp, #0x10
  3. 700a4a24: f88d 000f    	strb.w	r0, [sp, #0xf]
  4. 700a4a28: 9102         	str	r1, [sp, #0x8]
  5. 700a4a2a: 9201         	str	r2, [sp, #0x4]
  6. 700a4a2c: 9300         	str	r3, [sp]
  7. 700a4a2e: f89d 000f    	ldrb.w	r0, [sp, #0xf]
  8. 700a4a32: b128         	cbz	r0, 0x700a4a40 <_out_char+0x20> @ imm = #0xa

P_HDR Event: Idx:63178 (Pattern: EEEEEE, Function: _out_char)
Executed Assembly Steps:
  1. 700a4a34: e7ff         	b	0x700a4a36 <_out_char+0x16> @ imm = #-0x2
  2. 700a4a36: f89d 000f    	ldrb.w	r0, [sp, #0xf]
  3. 700a4a3a: f000 fa21    	bl	0x700a4e80 <putchar_>   @ imm = #0x442
  4. 700a4e80: b510         	push	{r4, lr}
  5. 700a4e82: 4604         	mov	r4, r0
  6. 700a4e84: f000 e9ac    	blx	0x700a51e0 <putchar>    @ imm = #0x358

Sync: Idx:63179; ID:10;	BRANCH_ADDRESS : Branch address.; Addr=0x700A51E0 ~[0x700A51E0]; ISA=ARM(32);

P_HDR Event: Idx:63185 (Pattern: EEEEEEEEE, Function: putchar)
Executed Assembly Steps:
  1. 700a51e0: e59f1004     	ldr	r1, [pc, #0x4]          @ 0x700a51ec <putchar+0xc>
  2. 700a51e4: e2811018     	add	r1, r1, #24
  3. 700a51e8: eaffe5b1     	b	0x7009e8b4 <fputc>      @ imm = #-0x693c
  4. 7009e8b4: e92d483c     	push	{r2, r3, r4, r5, r11, lr}
  5. 7009e8b8: e59f20e0     	ldr	r2, [pc, #0xe0]         @ 0x7009e9a0 <fputc+0xec>
  6. 7009e8bc: e1a04001     	mov	r4, r1
  7. 7009e8c0: e1a05000     	mov	r5, r0
  8. 7009e8c4: e5922000     	ldr	r2, [r2]
  9. 7009e8c8: e12fff32     	blx	r2

Sync: Idx:63186; ID:10;	BRANCH_ADDRESS : Branch address.; Addr=0x7009A2DC ~[0x9A2DC];

P_HDR Event: Idx:63189 (Pattern: E, Function: _nop)
Executed Assembly Steps:
  1. 7009a2dc: e12fff1e     	bx	lr

Sync: Idx:63190; ID:10;	BRANCH_ADDRESS : Branch address.; Addr=0x7009E8CC ~[0x68CC];

P_HDR Event: Idx:63192 (Pattern: EEEEEEEN, Function: fputc)
Executed Assembly Steps:
  1. 7009e8cc: e1a00004     	mov	r0, r4
  2. 7009e8d0: eb000949     	bl	0x700a0dfc <__TI_wrt_ok> @ imm = #0x2524
  3. 700a0dfc: e92d4010     	push	{r4, lr}
  4. 700a0e00: e1a04000     	mov	r4, r0
  5. 700a0e04: e5901000     	ldr	r1, [r0]
  6. 700a0e08: e3a00000     	mov	r0, #0
  7. 700a0e0c: e3710001     	cmn	r1, #1
  8. 700a0e10: 0a00001c     	beq	0x700a0e88 <__TI_wrt_ok+0x8c> @ imm = #0x70

P_HDR Event: Idx:63193 (Pattern: EEN, Function: __TI_wrt_ok)
Executed Assembly Steps:
  1. 700a0e14: e5941014     	ldr	r1, [r4, #0x14]
  2. 700a0e18: e3110010     	tst	r1, #16
  3. 700a0e1c: 1a00001a     	bne	0x700a0e8c <__TI_wrt_ok+0x90> @ imm = #0x68

P_HDR Event: Idx:63194 (Pattern: EEEEEEEE, Function: __TI_wrt_ok)
Executed Assembly Steps:
  1. 700a0e20: e3110080     	tst	r1, #128
  2. 700a0e24: 0a000004     	beq	0x700a0e3c <__TI_wrt_ok+0x40> @ imm = #0x10
  3. 700a0e3c: e2010060     	and	r0, r1, #96
  4. 700a0e40: e3500040     	cmp	r0, #64
  5. 700a0e44: 1a000001     	bne	0x700a0e50 <__TI_wrt_ok+0x54> @ imm = #0x4
  6. 700a0e50: e5942004     	ldr	r2, [r4, #0x4]
  7. 700a0e54: e3a00001     	mov	r0, #1
  8. 700a0e58: e3520000     	cmp	r2, #0

P_HDR Event: Idx:63195 (Pattern: NE, Function: __TI_wrt_ok)
Executed Assembly Steps:
  1. 700a0e5c: 02112004     	andseq	r2, r1, #4
  2. 700a0e60: 1a000006     	bne	0x700a0e80 <__TI_wrt_ok+0x84> @ imm = #0x18

P_HDR Event: Idx:63196 (Pattern: EEE, Function: __TI_wrt_ok)
Executed Assembly Steps:
  1. 700a0e80: e594100c     	ldr	r1, [r4, #0xc]
  2. 700a0e84: e5841010     	str	r1, [r4, #0x10]
  3. 700a0e88: e8bd8010     	pop	{r4, pc}

Sync: Idx:63197; ID:10;	BRANCH_ADDRESS : Branch address.; Addr=0x7009E8D4 ~[0xD4];

P_HDR Event: Idx:63198 (Pattern: EN, Function: fputc)
Executed Assembly Steps:
  1. 7009e8d4: e3500000     	cmp	r0, #0
  2. 7009e8d8: 0a00000b     	beq	0x7009e90c <fputc+0x58> @ imm = #0x2c

P_HDR Event: Idx:63200 (Pattern: EEEEEEEEEEEEEEE, Function: fputc)
Executed Assembly Steps:
  1. 7009e8dc: e5940014     	ldr	r0, [r4, #0x14]
  2. 7009e8e0: e2000007     	and	r0, r0, #7
  3. 7009e8e4: e3500004     	cmp	r0, #4
  4. 7009e8e8: 1a00000a     	bne	0x7009e918 <fputc+0x64> @ imm = #0x28
  5. 7009e918: e5940008     	ldr	r0, [r4, #0x8]
  6. 7009e91c: e594100c     	ldr	r1, [r4, #0xc]
  7. 7009e920: e1500001     	cmp	r0, r1
  8. 7009e924: 3a000004     	blo	0x7009e93c <fputc+0x88> @ imm = #0x10
  9. 7009e93c: e2801001     	add	r1, r0, #1
  10. 7009e940: e355000a     	cmp	r5, #10
  11. 7009e944: e5841008     	str	r1, [r4, #0x8]
  12. 7009e948: e5c05000     	strb	r5, [r0]
  13. 7009e94c: 1a00000e     	bne	0x7009e98c <fputc+0xd8> @ imm = #0x38
  14. 7009e98c: e59f0010     	ldr	r0, [pc, #0x10]         @ 0x7009e9a4 <fputc+0xf0>
  15. 7009e990: e5900000     	ldr	r0, [r0]

P_HDR Event: Idx:63201 (Pattern: E, Function: fputc)
Executed Assembly Steps:
  1. 7009e994: e12fff30     	blx	r0

Sync: Idx:63202; ID:10;	BRANCH_ADDRESS : Branch address.; Addr=0x7009A2DC ~[0x22DC];

P_HDR Event: Idx:63204 (Pattern: E, Function: _nop)
Executed Assembly Steps:
  1. 7009a2dc: e12fff1e     	bx	lr

Sync: Idx:63205; ID:10;	BRANCH_ADDRESS : Branch address.; Addr=0x7009E998 ~[0x6998];

P_HDR Event: Idx:63207 (Pattern: EE, Function: fputc)
Executed Assembly Steps:
  1. 7009e998: e6ef0075     	uxtb	r0, r5
  2. 7009e99c: e8bd883c     	pop	{r2, r3, r4, r5, r11, pc}

Sync: Idx:63208; ID:10;	BRANCH_ADDRESS : Branch address.; Addr=0x700A4E88 ~[0x700A4E88]; ISA=Thumb2;

P_HDR Event: Idx:63213 (Pattern: EEEEEEEEEEEEEEE, Function: putchar_)
Executed Assembly Steps:
  1. 700a4e88: 4620         	mov	r0, r4
  2. 700a4e8a: f7f8 fa11    	bl	0x7009d2b0 <DebugP_memLogWriterPutChar> @ imm = #-0x7bde
  3. 7009d2b0: b580         	push	{r7, lr}
  4. 7009d2b2: b088         	sub	sp, #0x20
  5. 7009d2b4: f88d 001f    	strb.w	r0, [sp, #0x1f]
  6. 7009d2b8: f247 30cc    	movw	r0, #0x73cc
  7. 7009d2bc: f2c7 000a    	movt	r0, #0x700a
  8. 7009d2c0: 6800         	ldr	r0, [r0]
  9. 7009d2c2: bb40         	cbnz	r0, 0x7009d316 <DebugP_memLogWriterPutChar+0x66> @ imm = #0x50
  10. 7009d316: f89d 001f    	ldrb.w	r0, [sp, #0x1f]
  11. 7009d31a: f247 31cc    	movw	r1, #0x73cc
  12. 7009d31e: f2c7 010a    	movt	r1, #0x700a
  13. 7009d322: 680b         	ldr	r3, [r1]
  14. 7009d324: f644 42e0    	movw	r2, #0x4ce0
  15. 7009d328: f2c7 0208    	movt	r2, #0x7008

P_HDR Event: Idx:63214 (Pattern: EEEEEEN, Function: DebugP_memLogWriterPutChar)
Executed Assembly Steps:
  1. 7009d32c: 54d0         	strb	r0, [r2, r3]
  2. 7009d32e: 6808         	ldr	r0, [r1]
  3. 7009d330: 3001         	adds	r0, #0x1
  4. 7009d332: 6008         	str	r0, [r1]
  5. 7009d334: f89d 001f    	ldrb.w	r0, [sp, #0x1f]
  6. 7009d338: 280a         	cmp	r0, #0xa
  7. 7009d33a: d008         	beq	0x7009d34e <DebugP_memLogWriterPutChar+0x9e> @ imm = #0x10

P_HDR Event: Idx:63216 (Pattern: EEEEEEEE, Function: DebugP_memLogWriterPutChar)
Executed Assembly Steps:
  1. 7009d33c: e7ff         	b	0x7009d33e <DebugP_memLogWriterPutChar+0x8e> @ imm = #-0x2
  2. 7009d33e: f247 30cc    	movw	r0, #0x73cc
  3. 7009d342: f2c7 000a    	movt	r0, #0x700a
  4. 7009d346: 6800         	ldr	r0, [r0]
  5. 7009d348: 2878         	cmp	r0, #0x78
  6. 7009d34a: d350         	blo	0x7009d3ee <DebugP_memLogWriterPutChar+0x13e> @ imm = #0xa0
  7. 7009d3ee: b008         	add	sp, #0x20
  8. 7009d3f0: bd80         	pop	{r7, pc}

Sync: Idx:63217; ID:10;	BRANCH_ADDRESS : Branch address.; Addr=0x700A4E8E ~[0xE];

P_HDR Event: Idx:63218 (Pattern: EEEEEEEEEEEEEEE, Function: putchar_)
Executed Assembly Steps:
  1. 700a4e8e: 4620         	mov	r0, r4
  2. 700a4e90: e8bd 4010    	pop.w	{r4, lr}
  3. 700a4e94: f7fe bd2c    	b.w	0x700a38f0 <DebugP_uartLogWriterPutChar> @ imm = #-0x15a8
  4. 700a38f0: b580         	push	{r7, lr}
  5. 700a38f2: b088         	sub	sp, #0x20
  6. 700a38f4: f88d 001f    	strb.w	r0, [sp, #0x1f]
  7. 700a38f8: f89d 001f    	ldrb.w	r0, [sp, #0x1f]
  8. 700a38fc: f88d 001e    	strb.w	r0, [sp, #0x1e]
  9. 700a3900: f247 40e0    	movw	r0, #0x74e0
  10. 700a3904: f2c7 000a    	movt	r0, #0x700a
  11. 700a3908: 6800         	ldr	r0, [r0]
  12. 700a390a: f7ff fe41    	bl	0x700a3590 <UART_getHandle> @ imm = #-0x37e
  13. 700a3590: b083         	sub	sp, #0xc
  14. 700a3592: 9002         	str	r0, [sp, #0x8]
  15. 700a3594: 2000         	movs	r0, #0x0

P_HDR Event: Idx:63219 (Pattern: EEEEEEN, Function: UART_getHandle)
Executed Assembly Steps:
  1. 700a3596: 9001         	str	r0, [sp, #0x4]
  2. 700a3598: 9802         	ldr	r0, [sp, #0x8]
  3. 700a359a: f247 41e8    	movw	r1, #0x74e8
  4. 700a359e: f2c7 010a    	movt	r1, #0x700a
  5. 700a35a2: 6809         	ldr	r1, [r1]
  6. 700a35a4: 4288         	cmp	r0, r1
  7. 700a35a6: d217         	bhs	0x700a35d8 <UART_getHandle+0x48> @ imm = #0x2e

P_HDR Event: Idx:63220 (Pattern: EEEEEEEEN, Function: UART_getHandle)
Executed Assembly Steps:
  1. 700a35a8: e7ff         	b	0x700a35aa <UART_getHandle+0x1a> @ imm = #-0x2
  2. 700a35aa: 9902         	ldr	r1, [sp, #0x8]
  3. 700a35ac: f247 40a8    	movw	r0, #0x74a8
  4. 700a35b0: f2c7 000a    	movt	r0, #0x700a
  5. 700a35b4: eb00 00c1    	add.w	r0, r0, r1, lsl #3
  6. 700a35b8: 6840         	ldr	r0, [r0, #0x4]
  7. 700a35ba: 9000         	str	r0, [sp]
  8. 700a35bc: 9800         	ldr	r0, [sp]
  9. 700a35be: b150         	cbz	r0, 0x700a35d6 <UART_getHandle+0x46> @ imm = #0x14

P_HDR Event: Idx:63221 (Pattern: EEEEEEEEE, Function: UART_getHandle)
Executed Assembly Steps:
  1. 700a35c0: e7ff         	b	0x700a35c2 <UART_getHandle+0x32> @ imm = #-0x2
  2. 700a35c2: 9800         	ldr	r0, [sp]
  3. 700a35c4: f8d0 0084    	ldr.w	r0, [r0, #0x84]
  4. 700a35c8: 2801         	cmp	r0, #0x1
  5. 700a35ca: d104         	bne	0x700a35d6 <UART_getHandle+0x46> @ imm = #0x8
  6. 700a35d6: e7ff         	b	0x700a35d8 <UART_getHandle+0x48> @ imm = #-0x2
  7. 700a35d8: 9801         	ldr	r0, [sp, #0x4]
  8. 700a35da: b003         	add	sp, #0xc
  9. 700a35dc: 4770         	bx	lr

Sync: Idx:63222; ID:10;	BRANCH_ADDRESS : Branch address.; Addr=0x700A390E ~[0xA390E];

P_HDR Event: Idx:63225 (Pattern: EEEEE, Function: DebugP_uartLogWriterPutChar)
Executed Assembly Steps:
  1. 700a390e: 9006         	str	r0, [sp, #0x18]
  2. 700a3910: 9806         	ldr	r0, [sp, #0x18]
  3. 700a3912: b170         	cbz	r0, 0x700a3932 <DebugP_uartLogWriterPutChar+0x42> @ imm = #0x1c
  4. 700a3932: b008         	add	sp, #0x20
  5. 700a3934: bd80         	pop	{r7, pc}

Sync: Idx:63226; ID:10;	BRANCH_ADDRESS : Branch address.; Addr=0x700A4A3E ~[0xA4A3E];

P_HDR Event: Idx:63229 (Pattern: EEE, Function: _out_char)
Executed Assembly Steps:
  1. 700a4a3e: e7ff         	b	0x700a4a40 <_out_char+0x20> @ imm = #-0x2
  2. 700a4a40: b004         	add	sp, #0x10
  3. 700a4a42: bd80         	pop	{r7, pc}

Sync: Idx:63230; ID:10;	BRANCH_ADDRESS : Branch address.; Addr=0x70098F58 ~[0x98F58];

P_HDR Event: Idx:63234 (Pattern: EEEEEEEN, Function: _vsnprintf)
Executed Assembly Steps:
  1. 70098f58: 983c         	ldr	r0, [sp, #0xf0]
  2. 70098f5a: 3001         	adds	r0, #0x1
  3. 70098f5c: 903c         	str	r0, [sp, #0xf0]
  4. 70098f5e: e7e6         	b	0x70098f2e <_vsnprintf+0x2e> @ imm = #-0x34
  5. 70098f2e: 983c         	ldr	r0, [sp, #0xf0]
  6. 70098f30: 7800         	ldrb	r0, [r0]
  7. 70098f32: 2800         	cmp	r0, #0x0
  8. 70098f34: f000 84e3    	beq.w	0x700998fe <_vsnprintf+0x9fe> @ imm = #0x9c6

P_HDR Event: Idx:63235 (Pattern: EEEEN, Function: _vsnprintf)
Executed Assembly Steps:
  1. 70098f38: e7ff         	b	0x70098f3a <_vsnprintf+0x3a> @ imm = #-0x2
  2. 70098f3a: 983c         	ldr	r0, [sp, #0xf0]
  3. 70098f3c: 7800         	ldrb	r0, [r0]
  4. 70098f3e: 2825         	cmp	r0, #0x25
  5. 70098f40: d00e         	beq	0x70098f60 <_vsnprintf+0x60> @ imm = #0x1c

P_HDR Event: Idx:63236 (Pattern: EEEEEEEEEE, Function: _vsnprintf)
Executed Assembly Steps:
  1. 70098f42: e7ff         	b	0x70098f44 <_vsnprintf+0x44> @ imm = #-0x2
  2. 70098f44: f8dd c0fc    	ldr.w	r12, [sp, #0xfc]
  3. 70098f48: 983c         	ldr	r0, [sp, #0xf0]
  4. 70098f4a: 7800         	ldrb	r0, [r0]
  5. 70098f4c: 993e         	ldr	r1, [sp, #0xf8]
  6. 70098f4e: 9a37         	ldr	r2, [sp, #0xdc]
  7. 70098f50: 1c53         	adds	r3, r2, #0x1
  8. 70098f52: 9337         	str	r3, [sp, #0xdc]
  9. 70098f54: 9b3d         	ldr	r3, [sp, #0xf4]
  10. 70098f56: 47e0         	blx	r12

Sync: Idx:63237; ID:10;	BRANCH_ADDRESS : Branch address.; Addr=0x700A4A20 ~[0xA4A20];

P_HDR Event: Idx:63240 (Pattern: EEEEEEEN, Function: _out_char)
Executed Assembly Steps:
  1. 700a4a20: b580         	push	{r7, lr}
  2. 700a4a22: b084         	sub	sp, #0x10
  3. 700a4a24: f88d 000f    	strb.w	r0, [sp, #0xf]
  4. 700a4a28: 9102         	str	r1, [sp, #0x8]
  5. 700a4a2a: 9201         	str	r2, [sp, #0x4]
  6. 700a4a2c: 9300         	str	r3, [sp]
  7. 700a4a2e: f89d 000f    	ldrb.w	r0, [sp, #0xf]
  8. 700a4a32: b128         	cbz	r0, 0x700a4a40 <_out_char+0x20> @ imm = #0xa

P_HDR Event: Idx:63241 (Pattern: EEEEEE, Function: _out_char)
Executed Assembly Steps:
  1. 700a4a34: e7ff         	b	0x700a4a36 <_out_char+0x16> @ imm = #-0x2
  2. 700a4a36: f89d 000f    	ldrb.w	r0, [sp, #0xf]
  3. 700a4a3a: f000 fa21    	bl	0x700a4e80 <putchar_>   @ imm = #0x442
  4. 700a4e80: b510         	push	{r4, lr}
  5. 700a4e82: 4604         	mov	r4, r0
  6. 700a4e84: f000 e9ac    	blx	0x700a51e0 <putchar>    @ imm = #0x358

Sync: Idx:63242; ID:10;	BRANCH_ADDRESS : Branch address.; Addr=0x700A51E0 ~[0x700A51E0]; ISA=ARM(32);

P_HDR Event: Idx:63248 (Pattern: EEEEEEEEE, Function: putchar)
Executed Assembly Steps:
  1. 700a51e0: e59f1004     	ldr	r1, [pc, #0x4]          @ 0x700a51ec <putchar+0xc>
  2. 700a51e4: e2811018     	add	r1, r1, #24
  3. 700a51e8: eaffe5b1     	b	0x7009e8b4 <fputc>      @ imm = #-0x693c
  4. 7009e8b4: e92d483c     	push	{r2, r3, r4, r5, r11, lr}
  5. 7009e8b8: e59f20e0     	ldr	r2, [pc, #0xe0]         @ 0x7009e9a0 <fputc+0xec>
  6. 7009e8bc: e1a04001     	mov	r4, r1
  7. 7009e8c0: e1a05000     	mov	r5, r0
  8. 7009e8c4: e5922000     	ldr	r2, [r2]
  9. 7009e8c8: e12fff32     	blx	r2

Sync: Idx:63249; ID:10;	BRANCH_ADDRESS : Branch address.; Addr=0x7009A2DC ~[0x9A2DC];

P_HDR Event: Idx:63252 (Pattern: E, Function: _nop)
Executed Assembly Steps:
  1. 7009a2dc: e12fff1e     	bx	lr

Sync: Idx:63253; ID:10;	BRANCH_ADDRESS : Branch address.; Addr=0x7009E8CC ~[0x68CC];

P_HDR Event: Idx:63255 (Pattern: EEEEEEEN, Function: fputc)
Executed Assembly Steps:
  1. 7009e8cc: e1a00004     	mov	r0, r4
  2. 7009e8d0: eb000949     	bl	0x700a0dfc <__TI_wrt_ok> @ imm = #0x2524
  3. 700a0dfc: e92d4010     	push	{r4, lr}
  4. 700a0e00: e1a04000     	mov	r4, r0
  5. 700a0e04: e5901000     	ldr	r1, [r0]
  6. 700a0e08: e3a00000     	mov	r0, #0
  7. 700a0e0c: e3710001     	cmn	r1, #1
  8. 700a0e10: 0a00001c     	beq	0x700a0e88 <__TI_wrt_ok+0x8c> @ imm = #0x70

P_HDR Event: Idx:63256 (Pattern: EEN, Function: __TI_wrt_ok)
Executed Assembly Steps:
  1. 700a0e14: e5941014     	ldr	r1, [r4, #0x14]
  2. 700a0e18: e3110010     	tst	r1, #16
  3. 700a0e1c: 1a00001a     	bne	0x700a0e8c <__TI_wrt_ok+0x90> @ imm = #0x68

P_HDR Event: Idx:63257 (Pattern: EEEEEEEE, Function: __TI_wrt_ok)
Executed Assembly Steps:
  1. 700a0e20: e3110080     	tst	r1, #128
  2. 700a0e24: 0a000004     	beq	0x700a0e3c <__TI_wrt_ok+0x40> @ imm = #0x10
  3. 700a0e3c: e2010060     	and	r0, r1, #96
  4. 700a0e40: e3500040     	cmp	r0, #64
  5. 700a0e44: 1a000001     	bne	0x700a0e50 <__TI_wrt_ok+0x54> @ imm = #0x4
  6. 700a0e50: e5942004     	ldr	r2, [r4, #0x4]
  7. 700a0e54: e3a00001     	mov	r0, #1
  8. 700a0e58: e3520000     	cmp	r2, #0

P_HDR Event: Idx:63258 (Pattern: NE, Function: __TI_wrt_ok)
Executed Assembly Steps:
  1. 700a0e5c: 02112004     	andseq	r2, r1, #4
  2. 700a0e60: 1a000006     	bne	0x700a0e80 <__TI_wrt_ok+0x84> @ imm = #0x18

P_HDR Event: Idx:63259 (Pattern: EEE, Function: __TI_wrt_ok)
Executed Assembly Steps:
  1. 700a0e80: e594100c     	ldr	r1, [r4, #0xc]
  2. 700a0e84: e5841010     	str	r1, [r4, #0x10]
  3. 700a0e88: e8bd8010     	pop	{r4, pc}

Sync: Idx:63260; ID:10;	BRANCH_ADDRESS : Branch address.; Addr=0x7009E8D4 ~[0xD4];

P_HDR Event: Idx:63261 (Pattern: EN, Function: fputc)
Executed Assembly Steps:
  1. 7009e8d4: e3500000     	cmp	r0, #0
  2. 7009e8d8: 0a00000b     	beq	0x7009e90c <fputc+0x58> @ imm = #0x2c

Sync: Idx:63262; ID:10;	I_SYNC : Instruction Packet synchronisation.; (Periodic); Addr=0x7009e8dc; S;  ISA=ARM(32);

P_HDR Event: Idx:63269 (Pattern: EEEEEEEEEEEEEEE, Function: fputc)
Executed Assembly Steps:
  1. 7009e8dc: e5940014     	ldr	r0, [r4, #0x14]
  2. 7009e8e0: e2000007     	and	r0, r0, #7
  3. 7009e8e4: e3500004     	cmp	r0, #4
  4. 7009e8e8: 1a00000a     	bne	0x7009e918 <fputc+0x64> @ imm = #0x28
  5. 7009e918: e5940008     	ldr	r0, [r4, #0x8]
  6. 7009e91c: e594100c     	ldr	r1, [r4, #0xc]
  7. 7009e920: e1500001     	cmp	r0, r1
  8. 7009e924: 3a000004     	blo	0x7009e93c <fputc+0x88> @ imm = #0x10
  9. 7009e93c: e2801001     	add	r1, r0, #1
  10. 7009e940: e355000a     	cmp	r5, #10
  11. 7009e944: e5841008     	str	r1, [r4, #0x8]
  12. 7009e948: e5c05000     	strb	r5, [r0]
  13. 7009e94c: 1a00000e     	bne	0x7009e98c <fputc+0xd8> @ imm = #0x38
  14. 7009e98c: e59f0010     	ldr	r0, [pc, #0x10]         @ 0x7009e9a4 <fputc+0xf0>
  15. 7009e990: e5900000     	ldr	r0, [r0]

P_HDR Event: Idx:63270 (Pattern: E, Function: fputc)
Executed Assembly Steps:
  1. 7009e994: e12fff30     	blx	r0

Sync: Idx:63271; ID:10;	BRANCH_ADDRESS : Branch address.; Addr=0x7009A2DC ~[0x22DC];

P_HDR Event: Idx:63273 (Pattern: E, Function: _nop)
Executed Assembly Steps:
  1. 7009a2dc: e12fff1e     	bx	lr

Sync: Idx:63274; ID:10;	BRANCH_ADDRESS : Branch address.; Addr=0x7009E998 ~[0x6998];

P_HDR Event: Idx:63276 (Pattern: EE, Function: fputc)
Executed Assembly Steps:
  1. 7009e998: e6ef0075     	uxtb	r0, r5
  2. 7009e99c: e8bd883c     	pop	{r2, r3, r4, r5, r11, pc}

Sync: Idx:63277; ID:10;	BRANCH_ADDRESS : Branch address.; Addr=0x700A4E88 ~[0x700A4E88]; ISA=Thumb2;

P_HDR Event: Idx:63283 (Pattern: EEEEEEEEEEEEEEE, Function: putchar_)
Executed Assembly Steps:
  1. 700a4e88: 4620         	mov	r0, r4
  2. 700a4e8a: f7f8 fa11    	bl	0x7009d2b0 <DebugP_memLogWriterPutChar> @ imm = #-0x7bde
  3. 7009d2b0: b580         	push	{r7, lr}
  4. 7009d2b2: b088         	sub	sp, #0x20
  5. 7009d2b4: f88d 001f    	strb.w	r0, [sp, #0x1f]
  6. 7009d2b8: f247 30cc    	movw	r0, #0x73cc
  7. 7009d2bc: f2c7 000a    	movt	r0, #0x700a
  8. 7009d2c0: 6800         	ldr	r0, [r0]
  9. 7009d2c2: bb40         	cbnz	r0, 0x7009d316 <DebugP_memLogWriterPutChar+0x66> @ imm = #0x50
  10. 7009d316: f89d 001f    	ldrb.w	r0, [sp, #0x1f]
  11. 7009d31a: f247 31cc    	movw	r1, #0x73cc
  12. 7009d31e: f2c7 010a    	movt	r1, #0x700a
  13. 7009d322: 680b         	ldr	r3, [r1]
  14. 7009d324: f644 42e0    	movw	r2, #0x4ce0
  15. 7009d328: f2c7 0208    	movt	r2, #0x7008

P_HDR Event: Idx:63284 (Pattern: EEEEEEN, Function: DebugP_memLogWriterPutChar)
Executed Assembly Steps:
  1. 7009d32c: 54d0         	strb	r0, [r2, r3]
  2. 7009d32e: 6808         	ldr	r0, [r1]
  3. 7009d330: 3001         	adds	r0, #0x1
  4. 7009d332: 6008         	str	r0, [r1]
  5. 7009d334: f89d 001f    	ldrb.w	r0, [sp, #0x1f]
  6. 7009d338: 280a         	cmp	r0, #0xa
  7. 7009d33a: d008         	beq	0x7009d34e <DebugP_memLogWriterPutChar+0x9e> @ imm = #0x10

P_HDR Event: Idx:63285 (Pattern: EEEEEEEE, Function: DebugP_memLogWriterPutChar)
Executed Assembly Steps:
  1. 7009d33c: e7ff         	b	0x7009d33e <DebugP_memLogWriterPutChar+0x8e> @ imm = #-0x2
  2. 7009d33e: f247 30cc    	movw	r0, #0x73cc
  3. 7009d342: f2c7 000a    	movt	r0, #0x700a
  4. 7009d346: 6800         	ldr	r0, [r0]
  5. 7009d348: 2878         	cmp	r0, #0x78
  6. 7009d34a: d350         	blo	0x7009d3ee <DebugP_memLogWriterPutChar+0x13e> @ imm = #0xa0
  7. 7009d3ee: b008         	add	sp, #0x20
  8. 7009d3f0: bd80         	pop	{r7, pc}

Sync: Idx:63286; ID:10;	BRANCH_ADDRESS : Branch address.; Addr=0x700A4E8E ~[0xE];

P_HDR Event: Idx:63287 (Pattern: EEEEEEEEEEEEEEE, Function: putchar_)
Executed Assembly Steps:
  1. 700a4e8e: 4620         	mov	r0, r4
  2. 700a4e90: e8bd 4010    	pop.w	{r4, lr}
  3. 700a4e94: f7fe bd2c    	b.w	0x700a38f0 <DebugP_uartLogWriterPutChar> @ imm = #-0x15a8
  4. 700a38f0: b580         	push	{r7, lr}
  5. 700a38f2: b088         	sub	sp, #0x20
  6. 700a38f4: f88d 001f    	strb.w	r0, [sp, #0x1f]
  7. 700a38f8: f89d 001f    	ldrb.w	r0, [sp, #0x1f]
  8. 700a38fc: f88d 001e    	strb.w	r0, [sp, #0x1e]
  9. 700a3900: f247 40e0    	movw	r0, #0x74e0
  10. 700a3904: f2c7 000a    	movt	r0, #0x700a
  11. 700a3908: 6800         	ldr	r0, [r0]
  12. 700a390a: f7ff fe41    	bl	0x700a3590 <UART_getHandle> @ imm = #-0x37e
  13. 700a3590: b083         	sub	sp, #0xc
  14. 700a3592: 9002         	str	r0, [sp, #0x8]
  15. 700a3594: 2000         	movs	r0, #0x0

P_HDR Event: Idx:63288 (Pattern: EEEEEEN, Function: UART_getHandle)
Executed Assembly Steps:
  1. 700a3596: 9001         	str	r0, [sp, #0x4]
  2. 700a3598: 9802         	ldr	r0, [sp, #0x8]
  3. 700a359a: f247 41e8    	movw	r1, #0x74e8
  4. 700a359e: f2c7 010a    	movt	r1, #0x700a
  5. 700a35a2: 6809         	ldr	r1, [r1]
  6. 700a35a4: 4288         	cmp	r0, r1
  7. 700a35a6: d217         	bhs	0x700a35d8 <UART_getHandle+0x48> @ imm = #0x2e

P_HDR Event: Idx:63289 (Pattern: EEEEEEEEN, Function: UART_getHandle)
Executed Assembly Steps:
  1. 700a35a8: e7ff         	b	0x700a35aa <UART_getHandle+0x1a> @ imm = #-0x2
  2. 700a35aa: 9902         	ldr	r1, [sp, #0x8]
  3. 700a35ac: f247 40a8    	movw	r0, #0x74a8
  4. 700a35b0: f2c7 000a    	movt	r0, #0x700a
  5. 700a35b4: eb00 00c1    	add.w	r0, r0, r1, lsl #3
  6. 700a35b8: 6840         	ldr	r0, [r0, #0x4]
  7. 700a35ba: 9000         	str	r0, [sp]
  8. 700a35bc: 9800         	ldr	r0, [sp]
  9. 700a35be: b150         	cbz	r0, 0x700a35d6 <UART_getHandle+0x46> @ imm = #0x14

P_HDR Event: Idx:63290 (Pattern: EEEEEEEEE, Function: UART_getHandle)
Executed Assembly Steps:
  1. 700a35c0: e7ff         	b	0x700a35c2 <UART_getHandle+0x32> @ imm = #-0x2
  2. 700a35c2: 9800         	ldr	r0, [sp]
  3. 700a35c4: f8d0 0084    	ldr.w	r0, [r0, #0x84]
  4. 700a35c8: 2801         	cmp	r0, #0x1
  5. 700a35ca: d104         	bne	0x700a35d6 <UART_getHandle+0x46> @ imm = #0x8
  6. 700a35d6: e7ff         	b	0x700a35d8 <UART_getHandle+0x48> @ imm = #-0x2
  7. 700a35d8: 9801         	ldr	r0, [sp, #0x4]
  8. 700a35da: b003         	add	sp, #0xc
  9. 700a35dc: 4770         	bx	lr

Sync: Idx:63291; ID:10;	BRANCH_ADDRESS : Branch address.; Addr=0x700A390E ~[0xA390E];

P_HDR Event: Idx:63294 (Pattern: EEEEE, Function: DebugP_uartLogWriterPutChar)
Executed Assembly Steps:
  1. 700a390e: 9006         	str	r0, [sp, #0x18]
  2. 700a3910: 9806         	ldr	r0, [sp, #0x18]
  3. 700a3912: b170         	cbz	r0, 0x700a3932 <DebugP_uartLogWriterPutChar+0x42> @ imm = #0x1c
  4. 700a3932: b008         	add	sp, #0x20
  5. 700a3934: bd80         	pop	{r7, pc}

Sync: Idx:63296; ID:10;	BRANCH_ADDRESS : Branch address.; Addr=0x700A4A3E ~[0xA4A3E];

P_HDR Event: Idx:63299 (Pattern: EEE, Function: _out_char)
Executed Assembly Steps:
  1. 700a4a3e: e7ff         	b	0x700a4a40 <_out_char+0x20> @ imm = #-0x2
  2. 700a4a40: b004         	add	sp, #0x10
  3. 700a4a42: bd80         	pop	{r7, pc}

Sync: Idx:63300; ID:10;	BRANCH_ADDRESS : Branch address.; Addr=0x70098F58 ~[0x98F58];

P_HDR Event: Idx:63303 (Pattern: EEEEEEEN, Function: _vsnprintf)
Executed Assembly Steps:
  1. 70098f58: 983c         	ldr	r0, [sp, #0xf0]
  2. 70098f5a: 3001         	adds	r0, #0x1
  3. 70098f5c: 903c         	str	r0, [sp, #0xf0]
  4. 70098f5e: e7e6         	b	0x70098f2e <_vsnprintf+0x2e> @ imm = #-0x34
  5. 70098f2e: 983c         	ldr	r0, [sp, #0xf0]
  6. 70098f30: 7800         	ldrb	r0, [r0]
  7. 70098f32: 2800         	cmp	r0, #0x0
  8. 70098f34: f000 84e3    	beq.w	0x700998fe <_vsnprintf+0x9fe> @ imm = #0x9c6

P_HDR Event: Idx:63304 (Pattern: EEEEN, Function: _vsnprintf)
Executed Assembly Steps:
  1. 70098f38: e7ff         	b	0x70098f3a <_vsnprintf+0x3a> @ imm = #-0x2
  2. 70098f3a: 983c         	ldr	r0, [sp, #0xf0]
  3. 70098f3c: 7800         	ldrb	r0, [r0]
  4. 70098f3e: 2825         	cmp	r0, #0x25
  5. 70098f40: d00e         	beq	0x70098f60 <_vsnprintf+0x60> @ imm = #0x1c

P_HDR Event: Idx:63305 (Pattern: EEEEEEEEEE, Function: _vsnprintf)
Executed Assembly Steps:
  1. 70098f42: e7ff         	b	0x70098f44 <_vsnprintf+0x44> @ imm = #-0x2
  2. 70098f44: f8dd c0fc    	ldr.w	r12, [sp, #0xfc]
  3. 70098f48: 983c         	ldr	r0, [sp, #0xf0]
  4. 70098f4a: 7800         	ldrb	r0, [r0]
  5. 70098f4c: 993e         	ldr	r1, [sp, #0xf8]
  6. 70098f4e: 9a37         	ldr	r2, [sp, #0xdc]
  7. 70098f50: 1c53         	adds	r3, r2, #0x1
  8. 70098f52: 9337         	str	r3, [sp, #0xdc]
  9. 70098f54: 9b3d         	ldr	r3, [sp, #0xf4]
  10. 70098f56: 47e0         	blx	r12

Sync: Idx:63306; ID:10;	BRANCH_ADDRESS : Branch address.; Addr=0x700A4A20 ~[0xA4A20];

P_HDR Event: Idx:63309 (Pattern: EEEEEEEN, Function: _out_char)
Executed Assembly Steps:
  1. 700a4a20: b580         	push	{r7, lr}
  2. 700a4a22: b084         	sub	sp, #0x10
  3. 700a4a24: f88d 000f    	strb.w	r0, [sp, #0xf]
  4. 700a4a28: 9102         	str	r1, [sp, #0x8]
  5. 700a4a2a: 9201         	str	r2, [sp, #0x4]
  6. 700a4a2c: 9300         	str	r3, [sp]
  7. 700a4a2e: f89d 000f    	ldrb.w	r0, [sp, #0xf]
  8. 700a4a32: b128         	cbz	r0, 0x700a4a40 <_out_char+0x20> @ imm = #0xa

P_HDR Event: Idx:63310 (Pattern: EEEEEE, Function: _out_char)
Executed Assembly Steps:
  1. 700a4a34: e7ff         	b	0x700a4a36 <_out_char+0x16> @ imm = #-0x2
  2. 700a4a36: f89d 000f    	ldrb.w	r0, [sp, #0xf]
  3. 700a4a3a: f000 fa21    	bl	0x700a4e80 <putchar_>   @ imm = #0x442
  4. 700a4e80: b510         	push	{r4, lr}
  5. 700a4e82: 4604         	mov	r4, r0
  6. 700a4e84: f000 e9ac    	blx	0x700a51e0 <putchar>    @ imm = #0x358

Sync: Idx:63312; ID:10;	BRANCH_ADDRESS : Branch address.; Addr=0x700A51E0 ~[0x700A51E0]; ISA=ARM(32);

P_HDR Event: Idx:63317 (Pattern: EEEEEEEEE, Function: putchar)
Executed Assembly Steps:
  1. 700a51e0: e59f1004     	ldr	r1, [pc, #0x4]          @ 0x700a51ec <putchar+0xc>
  2. 700a51e4: e2811018     	add	r1, r1, #24
  3. 700a51e8: eaffe5b1     	b	0x7009e8b4 <fputc>      @ imm = #-0x693c
  4. 7009e8b4: e92d483c     	push	{r2, r3, r4, r5, r11, lr}
  5. 7009e8b8: e59f20e0     	ldr	r2, [pc, #0xe0]         @ 0x7009e9a0 <fputc+0xec>
  6. 7009e8bc: e1a04001     	mov	r4, r1
  7. 7009e8c0: e1a05000     	mov	r5, r0
  8. 7009e8c4: e5922000     	ldr	r2, [r2]
  9. 7009e8c8: e12fff32     	blx	r2

Sync: Idx:63318; ID:10;	BRANCH_ADDRESS : Branch address.; Addr=0x7009A2DC ~[0x9A2DC];

P_HDR Event: Idx:63321 (Pattern: E, Function: _nop)
Executed Assembly Steps:
  1. 7009a2dc: e12fff1e     	bx	lr

Sync: Idx:63322; ID:10;	BRANCH_ADDRESS : Branch address.; Addr=0x7009E8CC ~[0x68CC];

P_HDR Event: Idx:63324 (Pattern: EEEEEEEN, Function: fputc)
Executed Assembly Steps:
  1. 7009e8cc: e1a00004     	mov	r0, r4
  2. 7009e8d0: eb000949     	bl	0x700a0dfc <__TI_wrt_ok> @ imm = #0x2524
  3. 700a0dfc: e92d4010     	push	{r4, lr}
  4. 700a0e00: e1a04000     	mov	r4, r0
  5. 700a0e04: e5901000     	ldr	r1, [r0]
  6. 700a0e08: e3a00000     	mov	r0, #0
  7. 700a0e0c: e3710001     	cmn	r1, #1
  8. 700a0e10: 0a00001c     	beq	0x700a0e88 <__TI_wrt_ok+0x8c> @ imm = #0x70

P_HDR Event: Idx:63325 (Pattern: EEN, Function: __TI_wrt_ok)
Executed Assembly Steps:
  1. 700a0e14: e5941014     	ldr	r1, [r4, #0x14]
  2. 700a0e18: e3110010     	tst	r1, #16
  3. 700a0e1c: 1a00001a     	bne	0x700a0e8c <__TI_wrt_ok+0x90> @ imm = #0x68

P_HDR Event: Idx:63326 (Pattern: EEEEEEEE, Function: __TI_wrt_ok)
Executed Assembly Steps:
  1. 700a0e20: e3110080     	tst	r1, #128
  2. 700a0e24: 0a000004     	beq	0x700a0e3c <__TI_wrt_ok+0x40> @ imm = #0x10
  3. 700a0e3c: e2010060     	and	r0, r1, #96
  4. 700a0e40: e3500040     	cmp	r0, #64
  5. 700a0e44: 1a000001     	bne	0x700a0e50 <__TI_wrt_ok+0x54> @ imm = #0x4
  6. 700a0e50: e5942004     	ldr	r2, [r4, #0x4]
  7. 700a0e54: e3a00001     	mov	r0, #1
  8. 700a0e58: e3520000     	cmp	r2, #0

P_HDR Event: Idx:63328 (Pattern: NE, Function: __TI_wrt_ok)
Executed Assembly Steps:
  1. 700a0e5c: 02112004     	andseq	r2, r1, #4
  2. 700a0e60: 1a000006     	bne	0x700a0e80 <__TI_wrt_ok+0x84> @ imm = #0x18

P_HDR Event: Idx:63330 (Pattern: EEE, Function: __TI_wrt_ok)
Executed Assembly Steps:
  1. 700a0e80: e594100c     	ldr	r1, [r4, #0xc]
  2. 700a0e84: e5841010     	str	r1, [r4, #0x10]
  3. 700a0e88: e8bd8010     	pop	{r4, pc}

Sync: Idx:63331; ID:10;	BRANCH_ADDRESS : Branch address.; Addr=0x7009E8D4 ~[0xD4];

P_HDR Event: Idx:63332 (Pattern: EN, Function: fputc)
Executed Assembly Steps:
  1. 7009e8d4: e3500000     	cmp	r0, #0
  2. 7009e8d8: 0a00000b     	beq	0x7009e90c <fputc+0x58> @ imm = #0x2c

P_HDR Event: Idx:63333 (Pattern: EEEEEEEEEEEEEEE, Function: fputc)
Executed Assembly Steps:
  1. 7009e8dc: e5940014     	ldr	r0, [r4, #0x14]
  2. 7009e8e0: e2000007     	and	r0, r0, #7
  3. 7009e8e4: e3500004     	cmp	r0, #4
  4. 7009e8e8: 1a00000a     	bne	0x7009e918 <fputc+0x64> @ imm = #0x28
  5. 7009e918: e5940008     	ldr	r0, [r4, #0x8]
  6. 7009e91c: e594100c     	ldr	r1, [r4, #0xc]
  7. 7009e920: e1500001     	cmp	r0, r1
  8. 7009e924: 3a000004     	blo	0x7009e93c <fputc+0x88> @ imm = #0x10
  9. 7009e93c: e2801001     	add	r1, r0, #1
  10. 7009e940: e355000a     	cmp	r5, #10
  11. 7009e944: e5841008     	str	r1, [r4, #0x8]
  12. 7009e948: e5c05000     	strb	r5, [r0]
  13. 7009e94c: 1a00000e     	bne	0x7009e98c <fputc+0xd8> @ imm = #0x38
  14. 7009e98c: e59f0010     	ldr	r0, [pc, #0x10]         @ 0x7009e9a4 <fputc+0xf0>
  15. 7009e990: e5900000     	ldr	r0, [r0]

P_HDR Event: Idx:63334 (Pattern: E, Function: fputc)
Executed Assembly Steps:
  1. 7009e994: e12fff30     	blx	r0

Sync: Idx:63335; ID:10;	BRANCH_ADDRESS : Branch address.; Addr=0x7009A2DC ~[0x22DC];

P_HDR Event: Idx:63337 (Pattern: E, Function: _nop)
Executed Assembly Steps:
  1. 7009a2dc: e12fff1e     	bx	lr

Sync: Idx:63338; ID:10;	BRANCH_ADDRESS : Branch address.; Addr=0x7009E998 ~[0x6998];

P_HDR Event: Idx:63340 (Pattern: EE, Function: fputc)
Executed Assembly Steps:
  1. 7009e998: e6ef0075     	uxtb	r0, r5
  2. 7009e99c: e8bd883c     	pop	{r2, r3, r4, r5, r11, pc}

Sync: Idx:63344; ID:10;	BRANCH_ADDRESS : Branch address.; Addr=0x700A4E88 ~[0x700A4E88]; ISA=Thumb2;

P_HDR Event: Idx:63349 (Pattern: EEEEEEEEEEEEEEE, Function: putchar_)
Executed Assembly Steps:
  1. 700a4e88: 4620         	mov	r0, r4
  2. 700a4e8a: f7f8 fa11    	bl	0x7009d2b0 <DebugP_memLogWriterPutChar> @ imm = #-0x7bde
  3. 7009d2b0: b580         	push	{r7, lr}
  4. 7009d2b2: b088         	sub	sp, #0x20
  5. 7009d2b4: f88d 001f    	strb.w	r0, [sp, #0x1f]
  6. 7009d2b8: f247 30cc    	movw	r0, #0x73cc
  7. 7009d2bc: f2c7 000a    	movt	r0, #0x700a
  8. 7009d2c0: 6800         	ldr	r0, [r0]
  9. 7009d2c2: bb40         	cbnz	r0, 0x7009d316 <DebugP_memLogWriterPutChar+0x66> @ imm = #0x50
  10. 7009d316: f89d 001f    	ldrb.w	r0, [sp, #0x1f]
  11. 7009d31a: f247 31cc    	movw	r1, #0x73cc
  12. 7009d31e: f2c7 010a    	movt	r1, #0x700a
  13. 7009d322: 680b         	ldr	r3, [r1]
  14. 7009d324: f644 42e0    	movw	r2, #0x4ce0
  15. 7009d328: f2c7 0208    	movt	r2, #0x7008

P_HDR Event: Idx:63350 (Pattern: EEEEEEN, Function: DebugP_memLogWriterPutChar)
Executed Assembly Steps:
  1. 7009d32c: 54d0         	strb	r0, [r2, r3]
  2. 7009d32e: 6808         	ldr	r0, [r1]
  3. 7009d330: 3001         	adds	r0, #0x1
  4. 7009d332: 6008         	str	r0, [r1]
  5. 7009d334: f89d 001f    	ldrb.w	r0, [sp, #0x1f]
  6. 7009d338: 280a         	cmp	r0, #0xa
  7. 7009d33a: d008         	beq	0x7009d34e <DebugP_memLogWriterPutChar+0x9e> @ imm = #0x10

P_HDR Event: Idx:63351 (Pattern: EEEEEEEE, Function: DebugP_memLogWriterPutChar)
Executed Assembly Steps:
  1. 7009d33c: e7ff         	b	0x7009d33e <DebugP_memLogWriterPutChar+0x8e> @ imm = #-0x2
  2. 7009d33e: f247 30cc    	movw	r0, #0x73cc
  3. 7009d342: f2c7 000a    	movt	r0, #0x700a
  4. 7009d346: 6800         	ldr	r0, [r0]
  5. 7009d348: 2878         	cmp	r0, #0x78
  6. 7009d34a: d350         	blo	0x7009d3ee <DebugP_memLogWriterPutChar+0x13e> @ imm = #0xa0
  7. 7009d3ee: b008         	add	sp, #0x20
  8. 7009d3f0: bd80         	pop	{r7, pc}

Sync: Idx:63352; ID:10;	BRANCH_ADDRESS : Branch address.; Addr=0x700A4E8E ~[0xE];

P_HDR Event: Idx:63353 (Pattern: EEEEEEEEEEEEEEE, Function: putchar_)
Executed Assembly Steps:
  1. 700a4e8e: 4620         	mov	r0, r4
  2. 700a4e90: e8bd 4010    	pop.w	{r4, lr}
  3. 700a4e94: f7fe bd2c    	b.w	0x700a38f0 <DebugP_uartLogWriterPutChar> @ imm = #-0x15a8
  4. 700a38f0: b580         	push	{r7, lr}
  5. 700a38f2: b088         	sub	sp, #0x20
  6. 700a38f4: f88d 001f    	strb.w	r0, [sp, #0x1f]
  7. 700a38f8: f89d 001f    	ldrb.w	r0, [sp, #0x1f]
  8. 700a38fc: f88d 001e    	strb.w	r0, [sp, #0x1e]
  9. 700a3900: f247 40e0    	movw	r0, #0x74e0
  10. 700a3904: f2c7 000a    	movt	r0, #0x700a
  11. 700a3908: 6800         	ldr	r0, [r0]
  12. 700a390a: f7ff fe41    	bl	0x700a3590 <UART_getHandle> @ imm = #-0x37e
  13. 700a3590: b083         	sub	sp, #0xc
  14. 700a3592: 9002         	str	r0, [sp, #0x8]
  15. 700a3594: 2000         	movs	r0, #0x0

P_HDR Event: Idx:63354 (Pattern: EEEEEEN, Function: UART_getHandle)
Executed Assembly Steps:
  1. 700a3596: 9001         	str	r0, [sp, #0x4]
  2. 700a3598: 9802         	ldr	r0, [sp, #0x8]
  3. 700a359a: f247 41e8    	movw	r1, #0x74e8
  4. 700a359e: f2c7 010a    	movt	r1, #0x700a
  5. 700a35a2: 6809         	ldr	r1, [r1]
  6. 700a35a4: 4288         	cmp	r0, r1
  7. 700a35a6: d217         	bhs	0x700a35d8 <UART_getHandle+0x48> @ imm = #0x2e

P_HDR Event: Idx:63355 (Pattern: EEEEEEEEN, Function: UART_getHandle)
Executed Assembly Steps:
  1. 700a35a8: e7ff         	b	0x700a35aa <UART_getHandle+0x1a> @ imm = #-0x2
  2. 700a35aa: 9902         	ldr	r1, [sp, #0x8]
  3. 700a35ac: f247 40a8    	movw	r0, #0x74a8
  4. 700a35b0: f2c7 000a    	movt	r0, #0x700a
  5. 700a35b4: eb00 00c1    	add.w	r0, r0, r1, lsl #3
  6. 700a35b8: 6840         	ldr	r0, [r0, #0x4]
  7. 700a35ba: 9000         	str	r0, [sp]
  8. 700a35bc: 9800         	ldr	r0, [sp]
  9. 700a35be: b150         	cbz	r0, 0x700a35d6 <UART_getHandle+0x46> @ imm = #0x14

P_HDR Event: Idx:63356 (Pattern: EEEEEEEEE, Function: UART_getHandle)
Executed Assembly Steps:
  1. 700a35c0: e7ff         	b	0x700a35c2 <UART_getHandle+0x32> @ imm = #-0x2
  2. 700a35c2: 9800         	ldr	r0, [sp]
  3. 700a35c4: f8d0 0084    	ldr.w	r0, [r0, #0x84]
  4. 700a35c8: 2801         	cmp	r0, #0x1
  5. 700a35ca: d104         	bne	0x700a35d6 <UART_getHandle+0x46> @ imm = #0x8
  6. 700a35d6: e7ff         	b	0x700a35d8 <UART_getHandle+0x48> @ imm = #-0x2
  7. 700a35d8: 9801         	ldr	r0, [sp, #0x4]
  8. 700a35da: b003         	add	sp, #0xc
  9. 700a35dc: 4770         	bx	lr

Sync: Idx:63357; ID:10;	BRANCH_ADDRESS : Branch address.; Addr=0x700A390E ~[0xA390E];

P_HDR Event: Idx:63361 (Pattern: EEEEE, Function: DebugP_uartLogWriterPutChar)
Executed Assembly Steps:
  1. 700a390e: 9006         	str	r0, [sp, #0x18]
  2. 700a3910: 9806         	ldr	r0, [sp, #0x18]
  3. 700a3912: b170         	cbz	r0, 0x700a3932 <DebugP_uartLogWriterPutChar+0x42> @ imm = #0x1c
  4. 700a3932: b008         	add	sp, #0x20
  5. 700a3934: bd80         	pop	{r7, pc}

Sync: Idx:63362; ID:10;	BRANCH_ADDRESS : Branch address.; Addr=0x700A4A3E ~[0xA4A3E];

P_HDR Event: Idx:63365 (Pattern: EEE, Function: _out_char)
Executed Assembly Steps:
  1. 700a4a3e: e7ff         	b	0x700a4a40 <_out_char+0x20> @ imm = #-0x2
  2. 700a4a40: b004         	add	sp, #0x10
  3. 700a4a42: bd80         	pop	{r7, pc}

Sync: Idx:63366; ID:10;	BRANCH_ADDRESS : Branch address.; Addr=0x70098F58 ~[0x98F58];

P_HDR Event: Idx:63369 (Pattern: EEEEEEEN, Function: _vsnprintf)
Executed Assembly Steps:
  1. 70098f58: 983c         	ldr	r0, [sp, #0xf0]
  2. 70098f5a: 3001         	adds	r0, #0x1
  3. 70098f5c: 903c         	str	r0, [sp, #0xf0]
  4. 70098f5e: e7e6         	b	0x70098f2e <_vsnprintf+0x2e> @ imm = #-0x34
  5. 70098f2e: 983c         	ldr	r0, [sp, #0xf0]
  6. 70098f30: 7800         	ldrb	r0, [r0]
  7. 70098f32: 2800         	cmp	r0, #0x0
  8. 70098f34: f000 84e3    	beq.w	0x700998fe <_vsnprintf+0x9fe> @ imm = #0x9c6

P_HDR Event: Idx:63370 (Pattern: EEEEN, Function: _vsnprintf)
Executed Assembly Steps:
  1. 70098f38: e7ff         	b	0x70098f3a <_vsnprintf+0x3a> @ imm = #-0x2
  2. 70098f3a: 983c         	ldr	r0, [sp, #0xf0]
  3. 70098f3c: 7800         	ldrb	r0, [r0]
  4. 70098f3e: 2825         	cmp	r0, #0x25
  5. 70098f40: d00e         	beq	0x70098f60 <_vsnprintf+0x60> @ imm = #0x1c

P_HDR Event: Idx:63371 (Pattern: EEEEEEEEEE, Function: _vsnprintf)
Executed Assembly Steps:
  1. 70098f42: e7ff         	b	0x70098f44 <_vsnprintf+0x44> @ imm = #-0x2
  2. 70098f44: f8dd c0fc    	ldr.w	r12, [sp, #0xfc]
  3. 70098f48: 983c         	ldr	r0, [sp, #0xf0]
  4. 70098f4a: 7800         	ldrb	r0, [r0]
  5. 70098f4c: 993e         	ldr	r1, [sp, #0xf8]
  6. 70098f4e: 9a37         	ldr	r2, [sp, #0xdc]
  7. 70098f50: 1c53         	adds	r3, r2, #0x1
  8. 70098f52: 9337         	str	r3, [sp, #0xdc]
  9. 70098f54: 9b3d         	ldr	r3, [sp, #0xf4]
  10. 70098f56: 47e0         	blx	r12

Sync: Idx:63372; ID:10;	BRANCH_ADDRESS : Branch address.; Addr=0x700A4A20 ~[0xA4A20];

P_HDR Event: Idx:63376 (Pattern: EEEEEEEN, Function: _out_char)
Executed Assembly Steps:
  1. 700a4a20: b580         	push	{r7, lr}
  2. 700a4a22: b084         	sub	sp, #0x10
  3. 700a4a24: f88d 000f    	strb.w	r0, [sp, #0xf]
  4. 700a4a28: 9102         	str	r1, [sp, #0x8]
  5. 700a4a2a: 9201         	str	r2, [sp, #0x4]
  6. 700a4a2c: 9300         	str	r3, [sp]
  7. 700a4a2e: f89d 000f    	ldrb.w	r0, [sp, #0xf]
  8. 700a4a32: b128         	cbz	r0, 0x700a4a40 <_out_char+0x20> @ imm = #0xa

P_HDR Event: Idx:63377 (Pattern: EEEEEE, Function: _out_char)
Executed Assembly Steps:
  1. 700a4a34: e7ff         	b	0x700a4a36 <_out_char+0x16> @ imm = #-0x2
  2. 700a4a36: f89d 000f    	ldrb.w	r0, [sp, #0xf]
  3. 700a4a3a: f000 fa21    	bl	0x700a4e80 <putchar_>   @ imm = #0x442
  4. 700a4e80: b510         	push	{r4, lr}
  5. 700a4e82: 4604         	mov	r4, r0
  6. 700a4e84: f000 e9ac    	blx	0x700a51e0 <putchar>    @ imm = #0x358

Sync: Idx:63378; ID:10;	BRANCH_ADDRESS : Branch address.; Addr=0x700A51E0 ~[0x700A51E0]; ISA=ARM(32);

P_HDR Event: Idx:63383 (Pattern: EEEEEEEEE, Function: putchar)
Executed Assembly Steps:
  1. 700a51e0: e59f1004     	ldr	r1, [pc, #0x4]          @ 0x700a51ec <putchar+0xc>
  2. 700a51e4: e2811018     	add	r1, r1, #24
  3. 700a51e8: eaffe5b1     	b	0x7009e8b4 <fputc>      @ imm = #-0x693c
  4. 7009e8b4: e92d483c     	push	{r2, r3, r4, r5, r11, lr}
  5. 7009e8b8: e59f20e0     	ldr	r2, [pc, #0xe0]         @ 0x7009e9a0 <fputc+0xec>
  6. 7009e8bc: e1a04001     	mov	r4, r1
  7. 7009e8c0: e1a05000     	mov	r5, r0
  8. 7009e8c4: e5922000     	ldr	r2, [r2]
  9. 7009e8c8: e12fff32     	blx	r2

Sync: Idx:63384; ID:10;	BRANCH_ADDRESS : Branch address.; Addr=0x7009A2DC ~[0x9A2DC];

P_HDR Event: Idx:63387 (Pattern: E, Function: _nop)
Executed Assembly Steps:
  1. 7009a2dc: e12fff1e     	bx	lr

Sync: Idx:63388; ID:10;	BRANCH_ADDRESS : Branch address.; Addr=0x7009E8CC ~[0x68CC];

P_HDR Event: Idx:63390 (Pattern: EEEEEEEN, Function: fputc)
Executed Assembly Steps:
  1. 7009e8cc: e1a00004     	mov	r0, r4
  2. 7009e8d0: eb000949     	bl	0x700a0dfc <__TI_wrt_ok> @ imm = #0x2524
  3. 700a0dfc: e92d4010     	push	{r4, lr}
  4. 700a0e00: e1a04000     	mov	r4, r0
  5. 700a0e04: e5901000     	ldr	r1, [r0]
  6. 700a0e08: e3a00000     	mov	r0, #0
  7. 700a0e0c: e3710001     	cmn	r1, #1
  8. 700a0e10: 0a00001c     	beq	0x700a0e88 <__TI_wrt_ok+0x8c> @ imm = #0x70

P_HDR Event: Idx:63392 (Pattern: EEN, Function: __TI_wrt_ok)
Executed Assembly Steps:
  1. 700a0e14: e5941014     	ldr	r1, [r4, #0x14]
  2. 700a0e18: e3110010     	tst	r1, #16
  3. 700a0e1c: 1a00001a     	bne	0x700a0e8c <__TI_wrt_ok+0x90> @ imm = #0x68

P_HDR Event: Idx:63393 (Pattern: EEEEEEEE, Function: __TI_wrt_ok)
Executed Assembly Steps:
  1. 700a0e20: e3110080     	tst	r1, #128
  2. 700a0e24: 0a000004     	beq	0x700a0e3c <__TI_wrt_ok+0x40> @ imm = #0x10
  3. 700a0e3c: e2010060     	and	r0, r1, #96
  4. 700a0e40: e3500040     	cmp	r0, #64
  5. 700a0e44: 1a000001     	bne	0x700a0e50 <__TI_wrt_ok+0x54> @ imm = #0x4
  6. 700a0e50: e5942004     	ldr	r2, [r4, #0x4]
  7. 700a0e54: e3a00001     	mov	r0, #1
  8. 700a0e58: e3520000     	cmp	r2, #0

P_HDR Event: Idx:63394 (Pattern: NE, Function: __TI_wrt_ok)
Executed Assembly Steps:
  1. 700a0e5c: 02112004     	andseq	r2, r1, #4
  2. 700a0e60: 1a000006     	bne	0x700a0e80 <__TI_wrt_ok+0x84> @ imm = #0x18

P_HDR Event: Idx:63395 (Pattern: EEE, Function: __TI_wrt_ok)
Executed Assembly Steps:
  1. 700a0e80: e594100c     	ldr	r1, [r4, #0xc]
  2. 700a0e84: e5841010     	str	r1, [r4, #0x10]
  3. 700a0e88: e8bd8010     	pop	{r4, pc}

Sync: Idx:63396; ID:10;	BRANCH_ADDRESS : Branch address.; Addr=0x7009E8D4 ~[0xD4];

P_HDR Event: Idx:63397 (Pattern: EN, Function: fputc)
Executed Assembly Steps:
  1. 7009e8d4: e3500000     	cmp	r0, #0
  2. 7009e8d8: 0a00000b     	beq	0x7009e90c <fputc+0x58> @ imm = #0x2c

P_HDR Event: Idx:63398 (Pattern: EEEEEEEEEEEEEEE, Function: fputc)
Executed Assembly Steps:
  1. 7009e8dc: e5940014     	ldr	r0, [r4, #0x14]
  2. 7009e8e0: e2000007     	and	r0, r0, #7
  3. 7009e8e4: e3500004     	cmp	r0, #4
  4. 7009e8e8: 1a00000a     	bne	0x7009e918 <fputc+0x64> @ imm = #0x28
  5. 7009e918: e5940008     	ldr	r0, [r4, #0x8]
  6. 7009e91c: e594100c     	ldr	r1, [r4, #0xc]
  7. 7009e920: e1500001     	cmp	r0, r1
  8. 7009e924: 3a000004     	blo	0x7009e93c <fputc+0x88> @ imm = #0x10
  9. 7009e93c: e2801001     	add	r1, r0, #1
  10. 7009e940: e355000a     	cmp	r5, #10
  11. 7009e944: e5841008     	str	r1, [r4, #0x8]
  12. 7009e948: e5c05000     	strb	r5, [r0]
  13. 7009e94c: 1a00000e     	bne	0x7009e98c <fputc+0xd8> @ imm = #0x38
  14. 7009e98c: e59f0010     	ldr	r0, [pc, #0x10]         @ 0x7009e9a4 <fputc+0xf0>
  15. 7009e990: e5900000     	ldr	r0, [r0]

P_HDR Event: Idx:63399 (Pattern: E, Function: fputc)
Executed Assembly Steps:
  1. 7009e994: e12fff30     	blx	r0

Sync: Idx:63400; ID:10;	BRANCH_ADDRESS : Branch address.; Addr=0x7009A2DC ~[0x22DC];

P_HDR Event: Idx:63402 (Pattern: E, Function: _nop)
Executed Assembly Steps:
  1. 7009a2dc: e12fff1e     	bx	lr

Sync: Idx:63403; ID:10;	BRANCH_ADDRESS : Branch address.; Addr=0x7009E998 ~[0x6998];

P_HDR Event: Idx:63405 (Pattern: EE, Function: fputc)
Executed Assembly Steps:
  1. 7009e998: e6ef0075     	uxtb	r0, r5
  2. 7009e99c: e8bd883c     	pop	{r2, r3, r4, r5, r11, pc}

Sync: Idx:63406; ID:10;	BRANCH_ADDRESS : Branch address.; Addr=0x700A4E88 ~[0x700A4E88]; ISA=Thumb2;

P_HDR Event: Idx:63412 (Pattern: EEEEEEEEEEEEEEE, Function: putchar_)
Executed Assembly Steps:
  1. 700a4e88: 4620         	mov	r0, r4
  2. 700a4e8a: f7f8 fa11    	bl	0x7009d2b0 <DebugP_memLogWriterPutChar> @ imm = #-0x7bde
  3. 7009d2b0: b580         	push	{r7, lr}
  4. 7009d2b2: b088         	sub	sp, #0x20
  5. 7009d2b4: f88d 001f    	strb.w	r0, [sp, #0x1f]
  6. 7009d2b8: f247 30cc    	movw	r0, #0x73cc
  7. 7009d2bc: f2c7 000a    	movt	r0, #0x700a
  8. 7009d2c0: 6800         	ldr	r0, [r0]
  9. 7009d2c2: bb40         	cbnz	r0, 0x7009d316 <DebugP_memLogWriterPutChar+0x66> @ imm = #0x50
  10. 7009d316: f89d 001f    	ldrb.w	r0, [sp, #0x1f]
  11. 7009d31a: f247 31cc    	movw	r1, #0x73cc
  12. 7009d31e: f2c7 010a    	movt	r1, #0x700a
  13. 7009d322: 680b         	ldr	r3, [r1]
  14. 7009d324: f644 42e0    	movw	r2, #0x4ce0
  15. 7009d328: f2c7 0208    	movt	r2, #0x7008

P_HDR Event: Idx:63413 (Pattern: EEEEEEN, Function: DebugP_memLogWriterPutChar)
Executed Assembly Steps:
  1. 7009d32c: 54d0         	strb	r0, [r2, r3]
  2. 7009d32e: 6808         	ldr	r0, [r1]
  3. 7009d330: 3001         	adds	r0, #0x1
  4. 7009d332: 6008         	str	r0, [r1]
  5. 7009d334: f89d 001f    	ldrb.w	r0, [sp, #0x1f]
  6. 7009d338: 280a         	cmp	r0, #0xa
  7. 7009d33a: d008         	beq	0x7009d34e <DebugP_memLogWriterPutChar+0x9e> @ imm = #0x10

P_HDR Event: Idx:63414 (Pattern: EEEEEEEE, Function: DebugP_memLogWriterPutChar)
Executed Assembly Steps:
  1. 7009d33c: e7ff         	b	0x7009d33e <DebugP_memLogWriterPutChar+0x8e> @ imm = #-0x2
  2. 7009d33e: f247 30cc    	movw	r0, #0x73cc
  3. 7009d342: f2c7 000a    	movt	r0, #0x700a
  4. 7009d346: 6800         	ldr	r0, [r0]
  5. 7009d348: 2878         	cmp	r0, #0x78
  6. 7009d34a: d350         	blo	0x7009d3ee <DebugP_memLogWriterPutChar+0x13e> @ imm = #0xa0
  7. 7009d3ee: b008         	add	sp, #0x20
  8. 7009d3f0: bd80         	pop	{r7, pc}

Sync: Idx:63415; ID:10;	BRANCH_ADDRESS : Branch address.; Addr=0x700A4E8E ~[0xE];

P_HDR Event: Idx:63416 (Pattern: EEEEEEEEEEEEEEE, Function: putchar_)
Executed Assembly Steps:
  1. 700a4e8e: 4620         	mov	r0, r4
  2. 700a4e90: e8bd 4010    	pop.w	{r4, lr}
  3. 700a4e94: f7fe bd2c    	b.w	0x700a38f0 <DebugP_uartLogWriterPutChar> @ imm = #-0x15a8
  4. 700a38f0: b580         	push	{r7, lr}
  5. 700a38f2: b088         	sub	sp, #0x20
  6. 700a38f4: f88d 001f    	strb.w	r0, [sp, #0x1f]
  7. 700a38f8: f89d 001f    	ldrb.w	r0, [sp, #0x1f]
  8. 700a38fc: f88d 001e    	strb.w	r0, [sp, #0x1e]
  9. 700a3900: f247 40e0    	movw	r0, #0x74e0
  10. 700a3904: f2c7 000a    	movt	r0, #0x700a
  11. 700a3908: 6800         	ldr	r0, [r0]
  12. 700a390a: f7ff fe41    	bl	0x700a3590 <UART_getHandle> @ imm = #-0x37e
  13. 700a3590: b083         	sub	sp, #0xc
  14. 700a3592: 9002         	str	r0, [sp, #0x8]
  15. 700a3594: 2000         	movs	r0, #0x0

P_HDR Event: Idx:63417 (Pattern: EEEEEEN, Function: UART_getHandle)
Executed Assembly Steps:
  1. 700a3596: 9001         	str	r0, [sp, #0x4]
  2. 700a3598: 9802         	ldr	r0, [sp, #0x8]
  3. 700a359a: f247 41e8    	movw	r1, #0x74e8
  4. 700a359e: f2c7 010a    	movt	r1, #0x700a
  5. 700a35a2: 6809         	ldr	r1, [r1]
  6. 700a35a4: 4288         	cmp	r0, r1
  7. 700a35a6: d217         	bhs	0x700a35d8 <UART_getHandle+0x48> @ imm = #0x2e

P_HDR Event: Idx:63418 (Pattern: EEEEEEEEN, Function: UART_getHandle)
Executed Assembly Steps:
  1. 700a35a8: e7ff         	b	0x700a35aa <UART_getHandle+0x1a> @ imm = #-0x2
  2. 700a35aa: 9902         	ldr	r1, [sp, #0x8]
  3. 700a35ac: f247 40a8    	movw	r0, #0x74a8
  4. 700a35b0: f2c7 000a    	movt	r0, #0x700a
  5. 700a35b4: eb00 00c1    	add.w	r0, r0, r1, lsl #3
  6. 700a35b8: 6840         	ldr	r0, [r0, #0x4]
  7. 700a35ba: 9000         	str	r0, [sp]
  8. 700a35bc: 9800         	ldr	r0, [sp]
  9. 700a35be: b150         	cbz	r0, 0x700a35d6 <UART_getHandle+0x46> @ imm = #0x14

P_HDR Event: Idx:63419 (Pattern: EEEEEEEEE, Function: UART_getHandle)
Executed Assembly Steps:
  1. 700a35c0: e7ff         	b	0x700a35c2 <UART_getHandle+0x32> @ imm = #-0x2
  2. 700a35c2: 9800         	ldr	r0, [sp]
  3. 700a35c4: f8d0 0084    	ldr.w	r0, [r0, #0x84]
  4. 700a35c8: 2801         	cmp	r0, #0x1
  5. 700a35ca: d104         	bne	0x700a35d6 <UART_getHandle+0x46> @ imm = #0x8
  6. 700a35d6: e7ff         	b	0x700a35d8 <UART_getHandle+0x48> @ imm = #-0x2
  7. 700a35d8: 9801         	ldr	r0, [sp, #0x4]
  8. 700a35da: b003         	add	sp, #0xc
  9. 700a35dc: 4770         	bx	lr

Sync: Idx:63420; ID:10;	BRANCH_ADDRESS : Branch address.; Addr=0x700A390E ~[0xA390E];

P_HDR Event: Idx:63424 (Pattern: EEEEE, Function: DebugP_uartLogWriterPutChar)
Executed Assembly Steps:
  1. 700a390e: 9006         	str	r0, [sp, #0x18]
  2. 700a3910: 9806         	ldr	r0, [sp, #0x18]
  3. 700a3912: b170         	cbz	r0, 0x700a3932 <DebugP_uartLogWriterPutChar+0x42> @ imm = #0x1c
  4. 700a3932: b008         	add	sp, #0x20
  5. 700a3934: bd80         	pop	{r7, pc}

Sync: Idx:63425; ID:10;	BRANCH_ADDRESS : Branch address.; Addr=0x700A4A3E ~[0xA4A3E];

P_HDR Event: Idx:63428 (Pattern: EEE, Function: _out_char)
Executed Assembly Steps:
  1. 700a4a3e: e7ff         	b	0x700a4a40 <_out_char+0x20> @ imm = #-0x2
  2. 700a4a40: b004         	add	sp, #0x10
  3. 700a4a42: bd80         	pop	{r7, pc}

Sync: Idx:63429; ID:10;	BRANCH_ADDRESS : Branch address.; Addr=0x70098F58 ~[0x98F58];

P_HDR Event: Idx:63432 (Pattern: EEEEEEEN, Function: _vsnprintf)
Executed Assembly Steps:
  1. 70098f58: 983c         	ldr	r0, [sp, #0xf0]
  2. 70098f5a: 3001         	adds	r0, #0x1
  3. 70098f5c: 903c         	str	r0, [sp, #0xf0]
  4. 70098f5e: e7e6         	b	0x70098f2e <_vsnprintf+0x2e> @ imm = #-0x34
  5. 70098f2e: 983c         	ldr	r0, [sp, #0xf0]
  6. 70098f30: 7800         	ldrb	r0, [r0]
  7. 70098f32: 2800         	cmp	r0, #0x0
  8. 70098f34: f000 84e3    	beq.w	0x700998fe <_vsnprintf+0x9fe> @ imm = #0x9c6

P_HDR Event: Idx:63433 (Pattern: EEEEN, Function: _vsnprintf)
Executed Assembly Steps:
  1. 70098f38: e7ff         	b	0x70098f3a <_vsnprintf+0x3a> @ imm = #-0x2
  2. 70098f3a: 983c         	ldr	r0, [sp, #0xf0]
  3. 70098f3c: 7800         	ldrb	r0, [r0]
  4. 70098f3e: 2825         	cmp	r0, #0x25
  5. 70098f40: d00e         	beq	0x70098f60 <_vsnprintf+0x60> @ imm = #0x1c

P_HDR Event: Idx:63434 (Pattern: EEEEEEEEEE, Function: _vsnprintf)
Executed Assembly Steps:
  1. 70098f42: e7ff         	b	0x70098f44 <_vsnprintf+0x44> @ imm = #-0x2
  2. 70098f44: f8dd c0fc    	ldr.w	r12, [sp, #0xfc]
  3. 70098f48: 983c         	ldr	r0, [sp, #0xf0]
  4. 70098f4a: 7800         	ldrb	r0, [r0]
  5. 70098f4c: 993e         	ldr	r1, [sp, #0xf8]
  6. 70098f4e: 9a37         	ldr	r2, [sp, #0xdc]
  7. 70098f50: 1c53         	adds	r3, r2, #0x1
  8. 70098f52: 9337         	str	r3, [sp, #0xdc]
  9. 70098f54: 9b3d         	ldr	r3, [sp, #0xf4]
  10. 70098f56: 47e0         	blx	r12

Sync: Idx:63435; ID:10;	BRANCH_ADDRESS : Branch address.; Addr=0x700A4A20 ~[0xA4A20];

P_HDR Event: Idx:63438 (Pattern: EEEEEEEN, Function: _out_char)
Executed Assembly Steps:
  1. 700a4a20: b580         	push	{r7, lr}
  2. 700a4a22: b084         	sub	sp, #0x10
  3. 700a4a24: f88d 000f    	strb.w	r0, [sp, #0xf]
  4. 700a4a28: 9102         	str	r1, [sp, #0x8]
  5. 700a4a2a: 9201         	str	r2, [sp, #0x4]
  6. 700a4a2c: 9300         	str	r3, [sp]
  7. 700a4a2e: f89d 000f    	ldrb.w	r0, [sp, #0xf]
  8. 700a4a32: b128         	cbz	r0, 0x700a4a40 <_out_char+0x20> @ imm = #0xa

P_HDR Event: Idx:63440 (Pattern: EEEEEE, Function: _out_char)
Executed Assembly Steps:
  1. 700a4a34: e7ff         	b	0x700a4a36 <_out_char+0x16> @ imm = #-0x2
  2. 700a4a36: f89d 000f    	ldrb.w	r0, [sp, #0xf]
  3. 700a4a3a: f000 fa21    	bl	0x700a4e80 <putchar_>   @ imm = #0x442
  4. 700a4e80: b510         	push	{r4, lr}
  5. 700a4e82: 4604         	mov	r4, r0
  6. 700a4e84: f000 e9ac    	blx	0x700a51e0 <putchar>    @ imm = #0x358

Sync: Idx:63441; ID:10;	BRANCH_ADDRESS : Branch address.; Addr=0x700A51E0 ~[0x700A51E0]; ISA=ARM(32);

P_HDR Event: Idx:63446 (Pattern: EEEEEEEEE, Function: putchar)
Executed Assembly Steps:
  1. 700a51e0: e59f1004     	ldr	r1, [pc, #0x4]          @ 0x700a51ec <putchar+0xc>
  2. 700a51e4: e2811018     	add	r1, r1, #24
  3. 700a51e8: eaffe5b1     	b	0x7009e8b4 <fputc>      @ imm = #-0x693c
  4. 7009e8b4: e92d483c     	push	{r2, r3, r4, r5, r11, lr}
  5. 7009e8b8: e59f20e0     	ldr	r2, [pc, #0xe0]         @ 0x7009e9a0 <fputc+0xec>
  6. 7009e8bc: e1a04001     	mov	r4, r1
  7. 7009e8c0: e1a05000     	mov	r5, r0
  8. 7009e8c4: e5922000     	ldr	r2, [r2]
  9. 7009e8c8: e12fff32     	blx	r2

Sync: Idx:63447; ID:10;	BRANCH_ADDRESS : Branch address.; Addr=0x7009A2DC ~[0x9A2DC];

P_HDR Event: Idx:63450 (Pattern: E, Function: _nop)
Executed Assembly Steps:
  1. 7009a2dc: e12fff1e     	bx	lr

Sync: Idx:63451; ID:10;	BRANCH_ADDRESS : Branch address.; Addr=0x7009E8CC ~[0x68CC];

P_HDR Event: Idx:63453 (Pattern: EEEEEEEN, Function: fputc)
Executed Assembly Steps:
  1. 7009e8cc: e1a00004     	mov	r0, r4
  2. 7009e8d0: eb000949     	bl	0x700a0dfc <__TI_wrt_ok> @ imm = #0x2524
  3. 700a0dfc: e92d4010     	push	{r4, lr}
  4. 700a0e00: e1a04000     	mov	r4, r0
  5. 700a0e04: e5901000     	ldr	r1, [r0]
  6. 700a0e08: e3a00000     	mov	r0, #0
  7. 700a0e0c: e3710001     	cmn	r1, #1
  8. 700a0e10: 0a00001c     	beq	0x700a0e88 <__TI_wrt_ok+0x8c> @ imm = #0x70

P_HDR Event: Idx:63454 (Pattern: EEN, Function: __TI_wrt_ok)
Executed Assembly Steps:
  1. 700a0e14: e5941014     	ldr	r1, [r4, #0x14]
  2. 700a0e18: e3110010     	tst	r1, #16
  3. 700a0e1c: 1a00001a     	bne	0x700a0e8c <__TI_wrt_ok+0x90> @ imm = #0x68

P_HDR Event: Idx:63456 (Pattern: EEEEEEEE, Function: __TI_wrt_ok)
Executed Assembly Steps:
  1. 700a0e20: e3110080     	tst	r1, #128
  2. 700a0e24: 0a000004     	beq	0x700a0e3c <__TI_wrt_ok+0x40> @ imm = #0x10
  3. 700a0e3c: e2010060     	and	r0, r1, #96
  4. 700a0e40: e3500040     	cmp	r0, #64
  5. 700a0e44: 1a000001     	bne	0x700a0e50 <__TI_wrt_ok+0x54> @ imm = #0x4
  6. 700a0e50: e5942004     	ldr	r2, [r4, #0x4]
  7. 700a0e54: e3a00001     	mov	r0, #1
  8. 700a0e58: e3520000     	cmp	r2, #0

P_HDR Event: Idx:63457 (Pattern: NE, Function: __TI_wrt_ok)
Executed Assembly Steps:
  1. 700a0e5c: 02112004     	andseq	r2, r1, #4
  2. 700a0e60: 1a000006     	bne	0x700a0e80 <__TI_wrt_ok+0x84> @ imm = #0x18

P_HDR Event: Idx:63458 (Pattern: EEE, Function: __TI_wrt_ok)
Executed Assembly Steps:
  1. 700a0e80: e594100c     	ldr	r1, [r4, #0xc]
  2. 700a0e84: e5841010     	str	r1, [r4, #0x10]
  3. 700a0e88: e8bd8010     	pop	{r4, pc}

Sync: Idx:63459; ID:10;	BRANCH_ADDRESS : Branch address.; Addr=0x7009E8D4 ~[0xD4];

P_HDR Event: Idx:63460 (Pattern: EN, Function: fputc)
Executed Assembly Steps:
  1. 7009e8d4: e3500000     	cmp	r0, #0
  2. 7009e8d8: 0a00000b     	beq	0x7009e90c <fputc+0x58> @ imm = #0x2c

P_HDR Event: Idx:63461 (Pattern: EEEEEEEEEEEEEEE, Function: fputc)
Executed Assembly Steps:
  1. 7009e8dc: e5940014     	ldr	r0, [r4, #0x14]
  2. 7009e8e0: e2000007     	and	r0, r0, #7
  3. 7009e8e4: e3500004     	cmp	r0, #4
  4. 7009e8e8: 1a00000a     	bne	0x7009e918 <fputc+0x64> @ imm = #0x28
  5. 7009e918: e5940008     	ldr	r0, [r4, #0x8]
  6. 7009e91c: e594100c     	ldr	r1, [r4, #0xc]
  7. 7009e920: e1500001     	cmp	r0, r1
  8. 7009e924: 3a000004     	blo	0x7009e93c <fputc+0x88> @ imm = #0x10
  9. 7009e93c: e2801001     	add	r1, r0, #1
  10. 7009e940: e355000a     	cmp	r5, #10
  11. 7009e944: e5841008     	str	r1, [r4, #0x8]
  12. 7009e948: e5c05000     	strb	r5, [r0]
  13. 7009e94c: 1a00000e     	bne	0x7009e98c <fputc+0xd8> @ imm = #0x38
  14. 7009e98c: e59f0010     	ldr	r0, [pc, #0x10]         @ 0x7009e9a4 <fputc+0xf0>
  15. 7009e990: e5900000     	ldr	r0, [r0]

P_HDR Event: Idx:63462 (Pattern: E, Function: fputc)
Executed Assembly Steps:
  1. 7009e994: e12fff30     	blx	r0

Sync: Idx:63463; ID:10;	BRANCH_ADDRESS : Branch address.; Addr=0x7009A2DC ~[0x22DC];

P_HDR Event: Idx:63465 (Pattern: E, Function: _nop)
Executed Assembly Steps:
  1. 7009a2dc: e12fff1e     	bx	lr

Sync: Idx:63466; ID:10;	BRANCH_ADDRESS : Branch address.; Addr=0x7009E998 ~[0x6998];

P_HDR Event: Idx:63468 (Pattern: EE, Function: fputc)
Executed Assembly Steps:
  1. 7009e998: e6ef0075     	uxtb	r0, r5
  2. 7009e99c: e8bd883c     	pop	{r2, r3, r4, r5, r11, pc}

Sync: Idx:63469; ID:10;	BRANCH_ADDRESS : Branch address.; Addr=0x700A4E88 ~[0x700A4E88]; ISA=Thumb2;

P_HDR Event: Idx:63475 (Pattern: EEEEEEEEEEEEEEE, Function: putchar_)
Executed Assembly Steps:
  1. 700a4e88: 4620         	mov	r0, r4
  2. 700a4e8a: f7f8 fa11    	bl	0x7009d2b0 <DebugP_memLogWriterPutChar> @ imm = #-0x7bde
  3. 7009d2b0: b580         	push	{r7, lr}
  4. 7009d2b2: b088         	sub	sp, #0x20
  5. 7009d2b4: f88d 001f    	strb.w	r0, [sp, #0x1f]
  6. 7009d2b8: f247 30cc    	movw	r0, #0x73cc
  7. 7009d2bc: f2c7 000a    	movt	r0, #0x700a
  8. 7009d2c0: 6800         	ldr	r0, [r0]
  9. 7009d2c2: bb40         	cbnz	r0, 0x7009d316 <DebugP_memLogWriterPutChar+0x66> @ imm = #0x50
  10. 7009d316: f89d 001f    	ldrb.w	r0, [sp, #0x1f]
  11. 7009d31a: f247 31cc    	movw	r1, #0x73cc
  12. 7009d31e: f2c7 010a    	movt	r1, #0x700a
  13. 7009d322: 680b         	ldr	r3, [r1]
  14. 7009d324: f644 42e0    	movw	r2, #0x4ce0
  15. 7009d328: f2c7 0208    	movt	r2, #0x7008

P_HDR Event: Idx:63476 (Pattern: EEEEEEN, Function: DebugP_memLogWriterPutChar)
Executed Assembly Steps:
  1. 7009d32c: 54d0         	strb	r0, [r2, r3]
  2. 7009d32e: 6808         	ldr	r0, [r1]
  3. 7009d330: 3001         	adds	r0, #0x1
  4. 7009d332: 6008         	str	r0, [r1]
  5. 7009d334: f89d 001f    	ldrb.w	r0, [sp, #0x1f]
  6. 7009d338: 280a         	cmp	r0, #0xa
  7. 7009d33a: d008         	beq	0x7009d34e <DebugP_memLogWriterPutChar+0x9e> @ imm = #0x10

P_HDR Event: Idx:63477 (Pattern: EEEEEEEE, Function: DebugP_memLogWriterPutChar)
Executed Assembly Steps:
  1. 7009d33c: e7ff         	b	0x7009d33e <DebugP_memLogWriterPutChar+0x8e> @ imm = #-0x2
  2. 7009d33e: f247 30cc    	movw	r0, #0x73cc
  3. 7009d342: f2c7 000a    	movt	r0, #0x700a
  4. 7009d346: 6800         	ldr	r0, [r0]
  5. 7009d348: 2878         	cmp	r0, #0x78
  6. 7009d34a: d350         	blo	0x7009d3ee <DebugP_memLogWriterPutChar+0x13e> @ imm = #0xa0
  7. 7009d3ee: b008         	add	sp, #0x20
  8. 7009d3f0: bd80         	pop	{r7, pc}

Sync: Idx:63478; ID:10;	BRANCH_ADDRESS : Branch address.; Addr=0x700A4E8E ~[0xE];

P_HDR Event: Idx:63479 (Pattern: EEEEEEEEEEEEEEE, Function: putchar_)
Executed Assembly Steps:
  1. 700a4e8e: 4620         	mov	r0, r4
  2. 700a4e90: e8bd 4010    	pop.w	{r4, lr}
  3. 700a4e94: f7fe bd2c    	b.w	0x700a38f0 <DebugP_uartLogWriterPutChar> @ imm = #-0x15a8
  4. 700a38f0: b580         	push	{r7, lr}
  5. 700a38f2: b088         	sub	sp, #0x20
  6. 700a38f4: f88d 001f    	strb.w	r0, [sp, #0x1f]
  7. 700a38f8: f89d 001f    	ldrb.w	r0, [sp, #0x1f]
  8. 700a38fc: f88d 001e    	strb.w	r0, [sp, #0x1e]
  9. 700a3900: f247 40e0    	movw	r0, #0x74e0
  10. 700a3904: f2c7 000a    	movt	r0, #0x700a
  11. 700a3908: 6800         	ldr	r0, [r0]
  12. 700a390a: f7ff fe41    	bl	0x700a3590 <UART_getHandle> @ imm = #-0x37e
  13. 700a3590: b083         	sub	sp, #0xc
  14. 700a3592: 9002         	str	r0, [sp, #0x8]
  15. 700a3594: 2000         	movs	r0, #0x0

P_HDR Event: Idx:63480 (Pattern: EEEEEEN, Function: UART_getHandle)
Executed Assembly Steps:
  1. 700a3596: 9001         	str	r0, [sp, #0x4]
  2. 700a3598: 9802         	ldr	r0, [sp, #0x8]
  3. 700a359a: f247 41e8    	movw	r1, #0x74e8
  4. 700a359e: f2c7 010a    	movt	r1, #0x700a
  5. 700a35a2: 6809         	ldr	r1, [r1]
  6. 700a35a4: 4288         	cmp	r0, r1
  7. 700a35a6: d217         	bhs	0x700a35d8 <UART_getHandle+0x48> @ imm = #0x2e

P_HDR Event: Idx:63481 (Pattern: EEEEEEEEN, Function: UART_getHandle)
Executed Assembly Steps:
  1. 700a35a8: e7ff         	b	0x700a35aa <UART_getHandle+0x1a> @ imm = #-0x2
  2. 700a35aa: 9902         	ldr	r1, [sp, #0x8]
  3. 700a35ac: f247 40a8    	movw	r0, #0x74a8
  4. 700a35b0: f2c7 000a    	movt	r0, #0x700a
  5. 700a35b4: eb00 00c1    	add.w	r0, r0, r1, lsl #3
  6. 700a35b8: 6840         	ldr	r0, [r0, #0x4]
  7. 700a35ba: 9000         	str	r0, [sp]
  8. 700a35bc: 9800         	ldr	r0, [sp]
  9. 700a35be: b150         	cbz	r0, 0x700a35d6 <UART_getHandle+0x46> @ imm = #0x14

P_HDR Event: Idx:63482 (Pattern: EEEEEEEEE, Function: UART_getHandle)
Executed Assembly Steps:
  1. 700a35c0: e7ff         	b	0x700a35c2 <UART_getHandle+0x32> @ imm = #-0x2
  2. 700a35c2: 9800         	ldr	r0, [sp]
  3. 700a35c4: f8d0 0084    	ldr.w	r0, [r0, #0x84]
  4. 700a35c8: 2801         	cmp	r0, #0x1
  5. 700a35ca: d104         	bne	0x700a35d6 <UART_getHandle+0x46> @ imm = #0x8
  6. 700a35d6: e7ff         	b	0x700a35d8 <UART_getHandle+0x48> @ imm = #-0x2
  7. 700a35d8: 9801         	ldr	r0, [sp, #0x4]
  8. 700a35da: b003         	add	sp, #0xc
  9. 700a35dc: 4770         	bx	lr

Sync: Idx:63483; ID:10;	BRANCH_ADDRESS : Branch address.; Addr=0x700A390E ~[0xA390E];

P_HDR Event: Idx:63486 (Pattern: EEEEE, Function: DebugP_uartLogWriterPutChar)
Executed Assembly Steps:
  1. 700a390e: 9006         	str	r0, [sp, #0x18]
  2. 700a3910: 9806         	ldr	r0, [sp, #0x18]
  3. 700a3912: b170         	cbz	r0, 0x700a3932 <DebugP_uartLogWriterPutChar+0x42> @ imm = #0x1c
  4. 700a3932: b008         	add	sp, #0x20
  5. 700a3934: bd80         	pop	{r7, pc}

Sync: Idx:63488; ID:10;	BRANCH_ADDRESS : Branch address.; Addr=0x700A4A3E ~[0xA4A3E];

P_HDR Event: Idx:63491 (Pattern: EEE, Function: _out_char)
Executed Assembly Steps:
  1. 700a4a3e: e7ff         	b	0x700a4a40 <_out_char+0x20> @ imm = #-0x2
  2. 700a4a40: b004         	add	sp, #0x10
  3. 700a4a42: bd80         	pop	{r7, pc}

Sync: Idx:63492; ID:10;	BRANCH_ADDRESS : Branch address.; Addr=0x70098F58 ~[0x98F58];

P_HDR Event: Idx:63495 (Pattern: EEEEEEEN, Function: _vsnprintf)
Executed Assembly Steps:
  1. 70098f58: 983c         	ldr	r0, [sp, #0xf0]
  2. 70098f5a: 3001         	adds	r0, #0x1
  3. 70098f5c: 903c         	str	r0, [sp, #0xf0]
  4. 70098f5e: e7e6         	b	0x70098f2e <_vsnprintf+0x2e> @ imm = #-0x34
  5. 70098f2e: 983c         	ldr	r0, [sp, #0xf0]
  6. 70098f30: 7800         	ldrb	r0, [r0]
  7. 70098f32: 2800         	cmp	r0, #0x0
  8. 70098f34: f000 84e3    	beq.w	0x700998fe <_vsnprintf+0x9fe> @ imm = #0x9c6

P_HDR Event: Idx:63496 (Pattern: EEEEN, Function: _vsnprintf)
Executed Assembly Steps:
  1. 70098f38: e7ff         	b	0x70098f3a <_vsnprintf+0x3a> @ imm = #-0x2
  2. 70098f3a: 983c         	ldr	r0, [sp, #0xf0]
  3. 70098f3c: 7800         	ldrb	r0, [r0]
  4. 70098f3e: 2825         	cmp	r0, #0x25
  5. 70098f40: d00e         	beq	0x70098f60 <_vsnprintf+0x60> @ imm = #0x1c

P_HDR Event: Idx:63497 (Pattern: EEEEEEEEEE, Function: _vsnprintf)
Executed Assembly Steps:
  1. 70098f42: e7ff         	b	0x70098f44 <_vsnprintf+0x44> @ imm = #-0x2
  2. 70098f44: f8dd c0fc    	ldr.w	r12, [sp, #0xfc]
  3. 70098f48: 983c         	ldr	r0, [sp, #0xf0]
  4. 70098f4a: 7800         	ldrb	r0, [r0]
  5. 70098f4c: 993e         	ldr	r1, [sp, #0xf8]
  6. 70098f4e: 9a37         	ldr	r2, [sp, #0xdc]
  7. 70098f50: 1c53         	adds	r3, r2, #0x1
  8. 70098f52: 9337         	str	r3, [sp, #0xdc]
  9. 70098f54: 9b3d         	ldr	r3, [sp, #0xf4]
  10. 70098f56: 47e0         	blx	r12

Sync: Idx:63498; ID:10;	BRANCH_ADDRESS : Branch address.; Addr=0x700A4A20 ~[0xA4A20];

P_HDR Event: Idx:63501 (Pattern: EEEEEEEN, Function: _out_char)
Executed Assembly Steps:
  1. 700a4a20: b580         	push	{r7, lr}
  2. 700a4a22: b084         	sub	sp, #0x10
  3. 700a4a24: f88d 000f    	strb.w	r0, [sp, #0xf]
  4. 700a4a28: 9102         	str	r1, [sp, #0x8]
  5. 700a4a2a: 9201         	str	r2, [sp, #0x4]
  6. 700a4a2c: 9300         	str	r3, [sp]
  7. 700a4a2e: f89d 000f    	ldrb.w	r0, [sp, #0xf]
  8. 700a4a32: b128         	cbz	r0, 0x700a4a40 <_out_char+0x20> @ imm = #0xa

P_HDR Event: Idx:63502 (Pattern: EEEEEE, Function: _out_char)
Executed Assembly Steps:
  1. 700a4a34: e7ff         	b	0x700a4a36 <_out_char+0x16> @ imm = #-0x2
  2. 700a4a36: f89d 000f    	ldrb.w	r0, [sp, #0xf]
  3. 700a4a3a: f000 fa21    	bl	0x700a4e80 <putchar_>   @ imm = #0x442
  4. 700a4e80: b510         	push	{r4, lr}
  5. 700a4e82: 4604         	mov	r4, r0
  6. 700a4e84: f000 e9ac    	blx	0x700a51e0 <putchar>    @ imm = #0x358

Sync: Idx:63504; ID:10;	BRANCH_ADDRESS : Branch address.; Addr=0x700A51E0 ~[0x700A51E0]; ISA=ARM(32);

P_HDR Event: Idx:63509 (Pattern: EEEEEEEEE, Function: putchar)
Executed Assembly Steps:
  1. 700a51e0: e59f1004     	ldr	r1, [pc, #0x4]          @ 0x700a51ec <putchar+0xc>
  2. 700a51e4: e2811018     	add	r1, r1, #24
  3. 700a51e8: eaffe5b1     	b	0x7009e8b4 <fputc>      @ imm = #-0x693c
  4. 7009e8b4: e92d483c     	push	{r2, r3, r4, r5, r11, lr}
  5. 7009e8b8: e59f20e0     	ldr	r2, [pc, #0xe0]         @ 0x7009e9a0 <fputc+0xec>
  6. 7009e8bc: e1a04001     	mov	r4, r1
  7. 7009e8c0: e1a05000     	mov	r5, r0
  8. 7009e8c4: e5922000     	ldr	r2, [r2]
  9. 7009e8c8: e12fff32     	blx	r2

Sync: Idx:63510; ID:10;	BRANCH_ADDRESS : Branch address.; Addr=0x7009A2DC ~[0x9A2DC];

P_HDR Event: Idx:63513 (Pattern: E, Function: _nop)
Executed Assembly Steps:
  1. 7009a2dc: e12fff1e     	bx	lr

Sync: Idx:63514; ID:10;	BRANCH_ADDRESS : Branch address.; Addr=0x7009E8CC ~[0x68CC];

P_HDR Event: Idx:63516 (Pattern: EEEEEEEN, Function: fputc)
Executed Assembly Steps:
  1. 7009e8cc: e1a00004     	mov	r0, r4
  2. 7009e8d0: eb000949     	bl	0x700a0dfc <__TI_wrt_ok> @ imm = #0x2524
  3. 700a0dfc: e92d4010     	push	{r4, lr}
  4. 700a0e00: e1a04000     	mov	r4, r0
  5. 700a0e04: e5901000     	ldr	r1, [r0]
  6. 700a0e08: e3a00000     	mov	r0, #0
  7. 700a0e0c: e3710001     	cmn	r1, #1
  8. 700a0e10: 0a00001c     	beq	0x700a0e88 <__TI_wrt_ok+0x8c> @ imm = #0x70

P_HDR Event: Idx:63517 (Pattern: EEN, Function: __TI_wrt_ok)
Executed Assembly Steps:
  1. 700a0e14: e5941014     	ldr	r1, [r4, #0x14]
  2. 700a0e18: e3110010     	tst	r1, #16
  3. 700a0e1c: 1a00001a     	bne	0x700a0e8c <__TI_wrt_ok+0x90> @ imm = #0x68

P_HDR Event: Idx:63518 (Pattern: EEEEEEEE, Function: __TI_wrt_ok)
Executed Assembly Steps:
  1. 700a0e20: e3110080     	tst	r1, #128
  2. 700a0e24: 0a000004     	beq	0x700a0e3c <__TI_wrt_ok+0x40> @ imm = #0x10
  3. 700a0e3c: e2010060     	and	r0, r1, #96
  4. 700a0e40: e3500040     	cmp	r0, #64
  5. 700a0e44: 1a000001     	bne	0x700a0e50 <__TI_wrt_ok+0x54> @ imm = #0x4
  6. 700a0e50: e5942004     	ldr	r2, [r4, #0x4]
  7. 700a0e54: e3a00001     	mov	r0, #1
  8. 700a0e58: e3520000     	cmp	r2, #0

P_HDR Event: Idx:63520 (Pattern: NE, Function: __TI_wrt_ok)
Executed Assembly Steps:
  1. 700a0e5c: 02112004     	andseq	r2, r1, #4
  2. 700a0e60: 1a000006     	bne	0x700a0e80 <__TI_wrt_ok+0x84> @ imm = #0x18

P_HDR Event: Idx:63521 (Pattern: EEE, Function: __TI_wrt_ok)
Executed Assembly Steps:
  1. 700a0e80: e594100c     	ldr	r1, [r4, #0xc]
  2. 700a0e84: e5841010     	str	r1, [r4, #0x10]
  3. 700a0e88: e8bd8010     	pop	{r4, pc}

Sync: Idx:63522; ID:10;	BRANCH_ADDRESS : Branch address.; Addr=0x7009E8D4 ~[0xD4];

P_HDR Event: Idx:63523 (Pattern: EN, Function: fputc)
Executed Assembly Steps:
  1. 7009e8d4: e3500000     	cmp	r0, #0
  2. 7009e8d8: 0a00000b     	beq	0x7009e90c <fputc+0x58> @ imm = #0x2c

P_HDR Event: Idx:63524 (Pattern: EEEEEEEEEEEEEEE, Function: fputc)
Executed Assembly Steps:
  1. 7009e8dc: e5940014     	ldr	r0, [r4, #0x14]
  2. 7009e8e0: e2000007     	and	r0, r0, #7
  3. 7009e8e4: e3500004     	cmp	r0, #4
  4. 7009e8e8: 1a00000a     	bne	0x7009e918 <fputc+0x64> @ imm = #0x28
  5. 7009e918: e5940008     	ldr	r0, [r4, #0x8]
  6. 7009e91c: e594100c     	ldr	r1, [r4, #0xc]
  7. 7009e920: e1500001     	cmp	r0, r1
  8. 7009e924: 3a000004     	blo	0x7009e93c <fputc+0x88> @ imm = #0x10
  9. 7009e93c: e2801001     	add	r1, r0, #1
  10. 7009e940: e355000a     	cmp	r5, #10
  11. 7009e944: e5841008     	str	r1, [r4, #0x8]
  12. 7009e948: e5c05000     	strb	r5, [r0]
  13. 7009e94c: 1a00000e     	bne	0x7009e98c <fputc+0xd8> @ imm = #0x38
  14. 7009e98c: e59f0010     	ldr	r0, [pc, #0x10]         @ 0x7009e9a4 <fputc+0xf0>
  15. 7009e990: e5900000     	ldr	r0, [r0]

P_HDR Event: Idx:63525 (Pattern: E, Function: fputc)
Executed Assembly Steps:
  1. 7009e994: e12fff30     	blx	r0

Sync: Idx:63526; ID:10;	BRANCH_ADDRESS : Branch address.; Addr=0x7009A2DC ~[0x22DC];

P_HDR Event: Idx:63528 (Pattern: E, Function: _nop)
Executed Assembly Steps:
  1. 7009a2dc: e12fff1e     	bx	lr

Sync: Idx:63529; ID:10;	BRANCH_ADDRESS : Branch address.; Addr=0x7009E998 ~[0x6998];

P_HDR Event: Idx:63531 (Pattern: EE, Function: fputc)
Executed Assembly Steps:
  1. 7009e998: e6ef0075     	uxtb	r0, r5
  2. 7009e99c: e8bd883c     	pop	{r2, r3, r4, r5, r11, pc}

Sync: Idx:63532; ID:10;	BRANCH_ADDRESS : Branch address.; Addr=0x700A4E88 ~[0x700A4E88]; ISA=Thumb2;

P_HDR Event: Idx:63538 (Pattern: EEEEEEEEEEEEEEE, Function: putchar_)
Executed Assembly Steps:
  1. 700a4e88: 4620         	mov	r0, r4
  2. 700a4e8a: f7f8 fa11    	bl	0x7009d2b0 <DebugP_memLogWriterPutChar> @ imm = #-0x7bde
  3. 7009d2b0: b580         	push	{r7, lr}
  4. 7009d2b2: b088         	sub	sp, #0x20
  5. 7009d2b4: f88d 001f    	strb.w	r0, [sp, #0x1f]
  6. 7009d2b8: f247 30cc    	movw	r0, #0x73cc
  7. 7009d2bc: f2c7 000a    	movt	r0, #0x700a
  8. 7009d2c0: 6800         	ldr	r0, [r0]
  9. 7009d2c2: bb40         	cbnz	r0, 0x7009d316 <DebugP_memLogWriterPutChar+0x66> @ imm = #0x50
  10. 7009d316: f89d 001f    	ldrb.w	r0, [sp, #0x1f]
  11. 7009d31a: f247 31cc    	movw	r1, #0x73cc
  12. 7009d31e: f2c7 010a    	movt	r1, #0x700a
  13. 7009d322: 680b         	ldr	r3, [r1]
  14. 7009d324: f644 42e0    	movw	r2, #0x4ce0
  15. 7009d328: f2c7 0208    	movt	r2, #0x7008

P_HDR Event: Idx:63539 (Pattern: EEEEEEN, Function: DebugP_memLogWriterPutChar)
Executed Assembly Steps:
  1. 7009d32c: 54d0         	strb	r0, [r2, r3]
  2. 7009d32e: 6808         	ldr	r0, [r1]
  3. 7009d330: 3001         	adds	r0, #0x1
  4. 7009d332: 6008         	str	r0, [r1]
  5. 7009d334: f89d 001f    	ldrb.w	r0, [sp, #0x1f]
  6. 7009d338: 280a         	cmp	r0, #0xa
  7. 7009d33a: d008         	beq	0x7009d34e <DebugP_memLogWriterPutChar+0x9e> @ imm = #0x10

P_HDR Event: Idx:63540 (Pattern: EEEEEEEE, Function: DebugP_memLogWriterPutChar)
Executed Assembly Steps:
  1. 7009d33c: e7ff         	b	0x7009d33e <DebugP_memLogWriterPutChar+0x8e> @ imm = #-0x2
  2. 7009d33e: f247 30cc    	movw	r0, #0x73cc
  3. 7009d342: f2c7 000a    	movt	r0, #0x700a
  4. 7009d346: 6800         	ldr	r0, [r0]
  5. 7009d348: 2878         	cmp	r0, #0x78
  6. 7009d34a: d350         	blo	0x7009d3ee <DebugP_memLogWriterPutChar+0x13e> @ imm = #0xa0
  7. 7009d3ee: b008         	add	sp, #0x20
  8. 7009d3f0: bd80         	pop	{r7, pc}

Sync: Idx:63541; ID:10;	BRANCH_ADDRESS : Branch address.; Addr=0x700A4E8E ~[0xE];

P_HDR Event: Idx:63542 (Pattern: EEEEEEEEEEEEEEE, Function: putchar_)
Executed Assembly Steps:
  1. 700a4e8e: 4620         	mov	r0, r4
  2. 700a4e90: e8bd 4010    	pop.w	{r4, lr}
  3. 700a4e94: f7fe bd2c    	b.w	0x700a38f0 <DebugP_uartLogWriterPutChar> @ imm = #-0x15a8
  4. 700a38f0: b580         	push	{r7, lr}
  5. 700a38f2: b088         	sub	sp, #0x20
  6. 700a38f4: f88d 001f    	strb.w	r0, [sp, #0x1f]
  7. 700a38f8: f89d 001f    	ldrb.w	r0, [sp, #0x1f]
  8. 700a38fc: f88d 001e    	strb.w	r0, [sp, #0x1e]
  9. 700a3900: f247 40e0    	movw	r0, #0x74e0
  10. 700a3904: f2c7 000a    	movt	r0, #0x700a
  11. 700a3908: 6800         	ldr	r0, [r0]
  12. 700a390a: f7ff fe41    	bl	0x700a3590 <UART_getHandle> @ imm = #-0x37e
  13. 700a3590: b083         	sub	sp, #0xc
  14. 700a3592: 9002         	str	r0, [sp, #0x8]
  15. 700a3594: 2000         	movs	r0, #0x0

P_HDR Event: Idx:63543 (Pattern: EEEEEEN, Function: UART_getHandle)
Executed Assembly Steps:
  1. 700a3596: 9001         	str	r0, [sp, #0x4]
  2. 700a3598: 9802         	ldr	r0, [sp, #0x8]
  3. 700a359a: f247 41e8    	movw	r1, #0x74e8
  4. 700a359e: f2c7 010a    	movt	r1, #0x700a
  5. 700a35a2: 6809         	ldr	r1, [r1]
  6. 700a35a4: 4288         	cmp	r0, r1
  7. 700a35a6: d217         	bhs	0x700a35d8 <UART_getHandle+0x48> @ imm = #0x2e

P_HDR Event: Idx:63544 (Pattern: EEEEEEEEN, Function: UART_getHandle)
Executed Assembly Steps:
  1. 700a35a8: e7ff         	b	0x700a35aa <UART_getHandle+0x1a> @ imm = #-0x2
  2. 700a35aa: 9902         	ldr	r1, [sp, #0x8]
  3. 700a35ac: f247 40a8    	movw	r0, #0x74a8
  4. 700a35b0: f2c7 000a    	movt	r0, #0x700a
  5. 700a35b4: eb00 00c1    	add.w	r0, r0, r1, lsl #3
  6. 700a35b8: 6840         	ldr	r0, [r0, #0x4]
  7. 700a35ba: 9000         	str	r0, [sp]
  8. 700a35bc: 9800         	ldr	r0, [sp]
  9. 700a35be: b150         	cbz	r0, 0x700a35d6 <UART_getHandle+0x46> @ imm = #0x14

P_HDR Event: Idx:63545 (Pattern: EEEEEEEEE, Function: UART_getHandle)
Executed Assembly Steps:
  1. 700a35c0: e7ff         	b	0x700a35c2 <UART_getHandle+0x32> @ imm = #-0x2
  2. 700a35c2: 9800         	ldr	r0, [sp]
  3. 700a35c4: f8d0 0084    	ldr.w	r0, [r0, #0x84]
  4. 700a35c8: 2801         	cmp	r0, #0x1
  5. 700a35ca: d104         	bne	0x700a35d6 <UART_getHandle+0x46> @ imm = #0x8
  6. 700a35d6: e7ff         	b	0x700a35d8 <UART_getHandle+0x48> @ imm = #-0x2
  7. 700a35d8: 9801         	ldr	r0, [sp, #0x4]
  8. 700a35da: b003         	add	sp, #0xc
  9. 700a35dc: 4770         	bx	lr

Sync: Idx:63546; ID:10;	BRANCH_ADDRESS : Branch address.; Addr=0x700A390E ~[0xA390E];

P_HDR Event: Idx:63549 (Pattern: EEEEE, Function: DebugP_uartLogWriterPutChar)
Executed Assembly Steps:
  1. 700a390e: 9006         	str	r0, [sp, #0x18]
  2. 700a3910: 9806         	ldr	r0, [sp, #0x18]
  3. 700a3912: b170         	cbz	r0, 0x700a3932 <DebugP_uartLogWriterPutChar+0x42> @ imm = #0x1c
  4. 700a3932: b008         	add	sp, #0x20
  5. 700a3934: bd80         	pop	{r7, pc}

Sync: Idx:63550; ID:10;	BRANCH_ADDRESS : Branch address.; Addr=0x700A4A3E ~[0xA4A3E];

P_HDR Event: Idx:63554 (Pattern: EEE, Function: _out_char)
Executed Assembly Steps:
  1. 700a4a3e: e7ff         	b	0x700a4a40 <_out_char+0x20> @ imm = #-0x2
  2. 700a4a40: b004         	add	sp, #0x10
  3. 700a4a42: bd80         	pop	{r7, pc}

Sync: Idx:63555; ID:10;	BRANCH_ADDRESS : Branch address.; Addr=0x70098F58 ~[0x98F58];

P_HDR Event: Idx:63558 (Pattern: EEEEEEEN, Function: _vsnprintf)
Executed Assembly Steps:
  1. 70098f58: 983c         	ldr	r0, [sp, #0xf0]
  2. 70098f5a: 3001         	adds	r0, #0x1
  3. 70098f5c: 903c         	str	r0, [sp, #0xf0]
  4. 70098f5e: e7e6         	b	0x70098f2e <_vsnprintf+0x2e> @ imm = #-0x34
  5. 70098f2e: 983c         	ldr	r0, [sp, #0xf0]
  6. 70098f30: 7800         	ldrb	r0, [r0]
  7. 70098f32: 2800         	cmp	r0, #0x0
  8. 70098f34: f000 84e3    	beq.w	0x700998fe <_vsnprintf+0x9fe> @ imm = #0x9c6

P_HDR Event: Idx:63559 (Pattern: EEEEN, Function: _vsnprintf)
Executed Assembly Steps:
  1. 70098f38: e7ff         	b	0x70098f3a <_vsnprintf+0x3a> @ imm = #-0x2
  2. 70098f3a: 983c         	ldr	r0, [sp, #0xf0]
  3. 70098f3c: 7800         	ldrb	r0, [r0]
  4. 70098f3e: 2825         	cmp	r0, #0x25
  5. 70098f40: d00e         	beq	0x70098f60 <_vsnprintf+0x60> @ imm = #0x1c

P_HDR Event: Idx:63560 (Pattern: EEEEEEEEEE, Function: _vsnprintf)
Executed Assembly Steps:
  1. 70098f42: e7ff         	b	0x70098f44 <_vsnprintf+0x44> @ imm = #-0x2
  2. 70098f44: f8dd c0fc    	ldr.w	r12, [sp, #0xfc]
  3. 70098f48: 983c         	ldr	r0, [sp, #0xf0]
  4. 70098f4a: 7800         	ldrb	r0, [r0]
  5. 70098f4c: 993e         	ldr	r1, [sp, #0xf8]
  6. 70098f4e: 9a37         	ldr	r2, [sp, #0xdc]
  7. 70098f50: 1c53         	adds	r3, r2, #0x1
  8. 70098f52: 9337         	str	r3, [sp, #0xdc]
  9. 70098f54: 9b3d         	ldr	r3, [sp, #0xf4]
  10. 70098f56: 47e0         	blx	r12

Sync: Idx:63561; ID:10;	BRANCH_ADDRESS : Branch address.; Addr=0x700A4A20 ~[0xA4A20];

P_HDR Event: Idx:63564 (Pattern: EEEEEEEN, Function: _out_char)
Executed Assembly Steps:
  1. 700a4a20: b580         	push	{r7, lr}
  2. 700a4a22: b084         	sub	sp, #0x10
  3. 700a4a24: f88d 000f    	strb.w	r0, [sp, #0xf]
  4. 700a4a28: 9102         	str	r1, [sp, #0x8]
  5. 700a4a2a: 9201         	str	r2, [sp, #0x4]
  6. 700a4a2c: 9300         	str	r3, [sp]
  7. 700a4a2e: f89d 000f    	ldrb.w	r0, [sp, #0xf]
  8. 700a4a32: b128         	cbz	r0, 0x700a4a40 <_out_char+0x20> @ imm = #0xa

P_HDR Event: Idx:63565 (Pattern: EEEEEE, Function: _out_char)
Executed Assembly Steps:
  1. 700a4a34: e7ff         	b	0x700a4a36 <_out_char+0x16> @ imm = #-0x2
  2. 700a4a36: f89d 000f    	ldrb.w	r0, [sp, #0xf]
  3. 700a4a3a: f000 fa21    	bl	0x700a4e80 <putchar_>   @ imm = #0x442
  4. 700a4e80: b510         	push	{r4, lr}
  5. 700a4e82: 4604         	mov	r4, r0
  6. 700a4e84: f000 e9ac    	blx	0x700a51e0 <putchar>    @ imm = #0x358

Sync: Idx:63566; ID:10;	BRANCH_ADDRESS : Branch address.; Addr=0x700A51E0 ~[0x700A51E0]; ISA=ARM(32);

P_HDR Event: Idx:63572 (Pattern: EEEEEEEEE, Function: putchar)
Executed Assembly Steps:
  1. 700a51e0: e59f1004     	ldr	r1, [pc, #0x4]          @ 0x700a51ec <putchar+0xc>
  2. 700a51e4: e2811018     	add	r1, r1, #24
  3. 700a51e8: eaffe5b1     	b	0x7009e8b4 <fputc>      @ imm = #-0x693c
  4. 7009e8b4: e92d483c     	push	{r2, r3, r4, r5, r11, lr}
  5. 7009e8b8: e59f20e0     	ldr	r2, [pc, #0xe0]         @ 0x7009e9a0 <fputc+0xec>
  6. 7009e8bc: e1a04001     	mov	r4, r1
  7. 7009e8c0: e1a05000     	mov	r5, r0
  8. 7009e8c4: e5922000     	ldr	r2, [r2]
  9. 7009e8c8: e12fff32     	blx	r2

Sync: Idx:63573; ID:10;	BRANCH_ADDRESS : Branch address.; Addr=0x7009A2DC ~[0x9A2DC];

P_HDR Event: Idx:63576 (Pattern: E, Function: _nop)
Executed Assembly Steps:
  1. 7009a2dc: e12fff1e     	bx	lr

Sync: Idx:63577; ID:10;	BRANCH_ADDRESS : Branch address.; Addr=0x7009E8CC ~[0x68CC];

P_HDR Event: Idx:63579 (Pattern: EEEEEEEN, Function: fputc)
Executed Assembly Steps:
  1. 7009e8cc: e1a00004     	mov	r0, r4
  2. 7009e8d0: eb000949     	bl	0x700a0dfc <__TI_wrt_ok> @ imm = #0x2524
  3. 700a0dfc: e92d4010     	push	{r4, lr}
  4. 700a0e00: e1a04000     	mov	r4, r0
  5. 700a0e04: e5901000     	ldr	r1, [r0]
  6. 700a0e08: e3a00000     	mov	r0, #0
  7. 700a0e0c: e3710001     	cmn	r1, #1
  8. 700a0e10: 0a00001c     	beq	0x700a0e88 <__TI_wrt_ok+0x8c> @ imm = #0x70

P_HDR Event: Idx:63580 (Pattern: EEN, Function: __TI_wrt_ok)
Executed Assembly Steps:
  1. 700a0e14: e5941014     	ldr	r1, [r4, #0x14]
  2. 700a0e18: e3110010     	tst	r1, #16
  3. 700a0e1c: 1a00001a     	bne	0x700a0e8c <__TI_wrt_ok+0x90> @ imm = #0x68

P_HDR Event: Idx:63581 (Pattern: EEEEEEEE, Function: __TI_wrt_ok)
Executed Assembly Steps:
  1. 700a0e20: e3110080     	tst	r1, #128
  2. 700a0e24: 0a000004     	beq	0x700a0e3c <__TI_wrt_ok+0x40> @ imm = #0x10
  3. 700a0e3c: e2010060     	and	r0, r1, #96
  4. 700a0e40: e3500040     	cmp	r0, #64
  5. 700a0e44: 1a000001     	bne	0x700a0e50 <__TI_wrt_ok+0x54> @ imm = #0x4
  6. 700a0e50: e5942004     	ldr	r2, [r4, #0x4]
  7. 700a0e54: e3a00001     	mov	r0, #1
  8. 700a0e58: e3520000     	cmp	r2, #0

P_HDR Event: Idx:63582 (Pattern: NE, Function: __TI_wrt_ok)
Executed Assembly Steps:
  1. 700a0e5c: 02112004     	andseq	r2, r1, #4
  2. 700a0e60: 1a000006     	bne	0x700a0e80 <__TI_wrt_ok+0x84> @ imm = #0x18

P_HDR Event: Idx:63584 (Pattern: EEE, Function: __TI_wrt_ok)
Executed Assembly Steps:
  1. 700a0e80: e594100c     	ldr	r1, [r4, #0xc]
  2. 700a0e84: e5841010     	str	r1, [r4, #0x10]
  3. 700a0e88: e8bd8010     	pop	{r4, pc}

Sync: Idx:63585; ID:10;	BRANCH_ADDRESS : Branch address.; Addr=0x7009E8D4 ~[0xD4];

P_HDR Event: Idx:63586 (Pattern: EN, Function: fputc)
Executed Assembly Steps:
  1. 7009e8d4: e3500000     	cmp	r0, #0
  2. 7009e8d8: 0a00000b     	beq	0x7009e90c <fputc+0x58> @ imm = #0x2c

P_HDR Event: Idx:63587 (Pattern: EEEEEEEEEEEEEEE, Function: fputc)
Executed Assembly Steps:
  1. 7009e8dc: e5940014     	ldr	r0, [r4, #0x14]
  2. 7009e8e0: e2000007     	and	r0, r0, #7
  3. 7009e8e4: e3500004     	cmp	r0, #4
  4. 7009e8e8: 1a00000a     	bne	0x7009e918 <fputc+0x64> @ imm = #0x28
  5. 7009e918: e5940008     	ldr	r0, [r4, #0x8]
  6. 7009e91c: e594100c     	ldr	r1, [r4, #0xc]
  7. 7009e920: e1500001     	cmp	r0, r1
  8. 7009e924: 3a000004     	blo	0x7009e93c <fputc+0x88> @ imm = #0x10
  9. 7009e93c: e2801001     	add	r1, r0, #1
  10. 7009e940: e355000a     	cmp	r5, #10
  11. 7009e944: e5841008     	str	r1, [r4, #0x8]
  12. 7009e948: e5c05000     	strb	r5, [r0]
  13. 7009e94c: 1a00000e     	bne	0x7009e98c <fputc+0xd8> @ imm = #0x38
  14. 7009e98c: e59f0010     	ldr	r0, [pc, #0x10]         @ 0x7009e9a4 <fputc+0xf0>
  15. 7009e990: e5900000     	ldr	r0, [r0]

P_HDR Event: Idx:63590 (Pattern: E, Function: fputc)
Executed Assembly Steps:
  1. 7009e994: e12fff30     	blx	r0

Sync: Idx:63591; ID:10;	BRANCH_ADDRESS : Branch address.; Addr=0x7009A2DC ~[0x22DC];

P_HDR Event: Idx:63593 (Pattern: E, Function: _nop)
Executed Assembly Steps:
  1. 7009a2dc: e12fff1e     	bx	lr

Sync: Idx:63594; ID:10;	BRANCH_ADDRESS : Branch address.; Addr=0x7009E998 ~[0x6998];

P_HDR Event: Idx:63596 (Pattern: EE, Function: fputc)
Executed Assembly Steps:
  1. 7009e998: e6ef0075     	uxtb	r0, r5
  2. 7009e99c: e8bd883c     	pop	{r2, r3, r4, r5, r11, pc}

Sync: Idx:63597; ID:10;	BRANCH_ADDRESS : Branch address.; Addr=0x700A4E88 ~[0x700A4E88]; ISA=Thumb2;

P_HDR Event: Idx:63604 (Pattern: EEEEEEEEEEEEEEE, Function: putchar_)
Executed Assembly Steps:
  1. 700a4e88: 4620         	mov	r0, r4
  2. 700a4e8a: f7f8 fa11    	bl	0x7009d2b0 <DebugP_memLogWriterPutChar> @ imm = #-0x7bde
  3. 7009d2b0: b580         	push	{r7, lr}
  4. 7009d2b2: b088         	sub	sp, #0x20
  5. 7009d2b4: f88d 001f    	strb.w	r0, [sp, #0x1f]
  6. 7009d2b8: f247 30cc    	movw	r0, #0x73cc
  7. 7009d2bc: f2c7 000a    	movt	r0, #0x700a
  8. 7009d2c0: 6800         	ldr	r0, [r0]
  9. 7009d2c2: bb40         	cbnz	r0, 0x7009d316 <DebugP_memLogWriterPutChar+0x66> @ imm = #0x50
  10. 7009d316: f89d 001f    	ldrb.w	r0, [sp, #0x1f]
  11. 7009d31a: f247 31cc    	movw	r1, #0x73cc
  12. 7009d31e: f2c7 010a    	movt	r1, #0x700a
  13. 7009d322: 680b         	ldr	r3, [r1]
  14. 7009d324: f644 42e0    	movw	r2, #0x4ce0
  15. 7009d328: f2c7 0208    	movt	r2, #0x7008

P_HDR Event: Idx:63605 (Pattern: EEEEEEN, Function: DebugP_memLogWriterPutChar)
Executed Assembly Steps:
  1. 7009d32c: 54d0         	strb	r0, [r2, r3]
  2. 7009d32e: 6808         	ldr	r0, [r1]
  3. 7009d330: 3001         	adds	r0, #0x1
  4. 7009d332: 6008         	str	r0, [r1]
  5. 7009d334: f89d 001f    	ldrb.w	r0, [sp, #0x1f]
  6. 7009d338: 280a         	cmp	r0, #0xa
  7. 7009d33a: d008         	beq	0x7009d34e <DebugP_memLogWriterPutChar+0x9e> @ imm = #0x10

P_HDR Event: Idx:63606 (Pattern: EEEEEEEE, Function: DebugP_memLogWriterPutChar)
Executed Assembly Steps:
  1. 7009d33c: e7ff         	b	0x7009d33e <DebugP_memLogWriterPutChar+0x8e> @ imm = #-0x2
  2. 7009d33e: f247 30cc    	movw	r0, #0x73cc
  3. 7009d342: f2c7 000a    	movt	r0, #0x700a
  4. 7009d346: 6800         	ldr	r0, [r0]
  5. 7009d348: 2878         	cmp	r0, #0x78
  6. 7009d34a: d350         	blo	0x7009d3ee <DebugP_memLogWriterPutChar+0x13e> @ imm = #0xa0
  7. 7009d3ee: b008         	add	sp, #0x20
  8. 7009d3f0: bd80         	pop	{r7, pc}

Sync: Idx:63607; ID:10;	BRANCH_ADDRESS : Branch address.; Addr=0x700A4E8E ~[0xE];

P_HDR Event: Idx:63608 (Pattern: EEEEEEEEEEEEEEE, Function: putchar_)
Executed Assembly Steps:
  1. 700a4e8e: 4620         	mov	r0, r4
  2. 700a4e90: e8bd 4010    	pop.w	{r4, lr}
  3. 700a4e94: f7fe bd2c    	b.w	0x700a38f0 <DebugP_uartLogWriterPutChar> @ imm = #-0x15a8
  4. 700a38f0: b580         	push	{r7, lr}
  5. 700a38f2: b088         	sub	sp, #0x20
  6. 700a38f4: f88d 001f    	strb.w	r0, [sp, #0x1f]
  7. 700a38f8: f89d 001f    	ldrb.w	r0, [sp, #0x1f]
  8. 700a38fc: f88d 001e    	strb.w	r0, [sp, #0x1e]
  9. 700a3900: f247 40e0    	movw	r0, #0x74e0
  10. 700a3904: f2c7 000a    	movt	r0, #0x700a
  11. 700a3908: 6800         	ldr	r0, [r0]
  12. 700a390a: f7ff fe41    	bl	0x700a3590 <UART_getHandle> @ imm = #-0x37e
  13. 700a3590: b083         	sub	sp, #0xc
  14. 700a3592: 9002         	str	r0, [sp, #0x8]
  15. 700a3594: 2000         	movs	r0, #0x0

P_HDR Event: Idx:63609 (Pattern: EEEEEEN, Function: UART_getHandle)
Executed Assembly Steps:
  1. 700a3596: 9001         	str	r0, [sp, #0x4]
  2. 700a3598: 9802         	ldr	r0, [sp, #0x8]
  3. 700a359a: f247 41e8    	movw	r1, #0x74e8
  4. 700a359e: f2c7 010a    	movt	r1, #0x700a
  5. 700a35a2: 6809         	ldr	r1, [r1]
  6. 700a35a4: 4288         	cmp	r0, r1
  7. 700a35a6: d217         	bhs	0x700a35d8 <UART_getHandle+0x48> @ imm = #0x2e

P_HDR Event: Idx:63610 (Pattern: EEEEEEEEN, Function: UART_getHandle)
Executed Assembly Steps:
  1. 700a35a8: e7ff         	b	0x700a35aa <UART_getHandle+0x1a> @ imm = #-0x2
  2. 700a35aa: 9902         	ldr	r1, [sp, #0x8]
  3. 700a35ac: f247 40a8    	movw	r0, #0x74a8
  4. 700a35b0: f2c7 000a    	movt	r0, #0x700a
  5. 700a35b4: eb00 00c1    	add.w	r0, r0, r1, lsl #3
  6. 700a35b8: 6840         	ldr	r0, [r0, #0x4]
  7. 700a35ba: 9000         	str	r0, [sp]
  8. 700a35bc: 9800         	ldr	r0, [sp]
  9. 700a35be: b150         	cbz	r0, 0x700a35d6 <UART_getHandle+0x46> @ imm = #0x14

P_HDR Event: Idx:63611 (Pattern: EEEEEEEEE, Function: UART_getHandle)
Executed Assembly Steps:
  1. 700a35c0: e7ff         	b	0x700a35c2 <UART_getHandle+0x32> @ imm = #-0x2
  2. 700a35c2: 9800         	ldr	r0, [sp]
  3. 700a35c4: f8d0 0084    	ldr.w	r0, [r0, #0x84]
  4. 700a35c8: 2801         	cmp	r0, #0x1
  5. 700a35ca: d104         	bne	0x700a35d6 <UART_getHandle+0x46> @ imm = #0x8
  6. 700a35d6: e7ff         	b	0x700a35d8 <UART_getHandle+0x48> @ imm = #-0x2
  7. 700a35d8: 9801         	ldr	r0, [sp, #0x4]
  8. 700a35da: b003         	add	sp, #0xc
  9. 700a35dc: 4770         	bx	lr

Sync: Idx:63612; ID:10;	BRANCH_ADDRESS : Branch address.; Addr=0x700A390E ~[0xA390E];

P_HDR Event: Idx:63616 (Pattern: EEEEE, Function: DebugP_uartLogWriterPutChar)
Executed Assembly Steps:
  1. 700a390e: 9006         	str	r0, [sp, #0x18]
  2. 700a3910: 9806         	ldr	r0, [sp, #0x18]
  3. 700a3912: b170         	cbz	r0, 0x700a3932 <DebugP_uartLogWriterPutChar+0x42> @ imm = #0x1c
  4. 700a3932: b008         	add	sp, #0x20
  5. 700a3934: bd80         	pop	{r7, pc}

Sync: Idx:63617; ID:10;	BRANCH_ADDRESS : Branch address.; Addr=0x700A4A3E ~[0xA4A3E];

P_HDR Event: Idx:63620 (Pattern: EEE, Function: _out_char)
Executed Assembly Steps:
  1. 700a4a3e: e7ff         	b	0x700a4a40 <_out_char+0x20> @ imm = #-0x2
  2. 700a4a40: b004         	add	sp, #0x10
  3. 700a4a42: bd80         	pop	{r7, pc}

Sync: Idx:63621; ID:10;	BRANCH_ADDRESS : Branch address.; Addr=0x70098F58 ~[0x98F58];

P_HDR Event: Idx:63624 (Pattern: EEEEEEEN, Function: _vsnprintf)
Executed Assembly Steps:
  1. 70098f58: 983c         	ldr	r0, [sp, #0xf0]
  2. 70098f5a: 3001         	adds	r0, #0x1
  3. 70098f5c: 903c         	str	r0, [sp, #0xf0]
  4. 70098f5e: e7e6         	b	0x70098f2e <_vsnprintf+0x2e> @ imm = #-0x34
  5. 70098f2e: 983c         	ldr	r0, [sp, #0xf0]
  6. 70098f30: 7800         	ldrb	r0, [r0]
  7. 70098f32: 2800         	cmp	r0, #0x0
  8. 70098f34: f000 84e3    	beq.w	0x700998fe <_vsnprintf+0x9fe> @ imm = #0x9c6

P_HDR Event: Idx:63625 (Pattern: EEEEN, Function: _vsnprintf)
Executed Assembly Steps:
  1. 70098f38: e7ff         	b	0x70098f3a <_vsnprintf+0x3a> @ imm = #-0x2
  2. 70098f3a: 983c         	ldr	r0, [sp, #0xf0]
  3. 70098f3c: 7800         	ldrb	r0, [r0]
  4. 70098f3e: 2825         	cmp	r0, #0x25
  5. 70098f40: d00e         	beq	0x70098f60 <_vsnprintf+0x60> @ imm = #0x1c

P_HDR Event: Idx:63626 (Pattern: EEEEEEEEEE, Function: _vsnprintf)
Executed Assembly Steps:
  1. 70098f42: e7ff         	b	0x70098f44 <_vsnprintf+0x44> @ imm = #-0x2
  2. 70098f44: f8dd c0fc    	ldr.w	r12, [sp, #0xfc]
  3. 70098f48: 983c         	ldr	r0, [sp, #0xf0]
  4. 70098f4a: 7800         	ldrb	r0, [r0]
  5. 70098f4c: 993e         	ldr	r1, [sp, #0xf8]
  6. 70098f4e: 9a37         	ldr	r2, [sp, #0xdc]
  7. 70098f50: 1c53         	adds	r3, r2, #0x1
  8. 70098f52: 9337         	str	r3, [sp, #0xdc]
  9. 70098f54: 9b3d         	ldr	r3, [sp, #0xf4]
  10. 70098f56: 47e0         	blx	r12

Sync: Idx:63627; ID:10;	BRANCH_ADDRESS : Branch address.; Addr=0x700A4A20 ~[0xA4A20];

P_HDR Event: Idx:63630 (Pattern: EEEEEEEN, Function: _out_char)
Executed Assembly Steps:
  1. 700a4a20: b580         	push	{r7, lr}
  2. 700a4a22: b084         	sub	sp, #0x10
  3. 700a4a24: f88d 000f    	strb.w	r0, [sp, #0xf]
  4. 700a4a28: 9102         	str	r1, [sp, #0x8]
  5. 700a4a2a: 9201         	str	r2, [sp, #0x4]
  6. 700a4a2c: 9300         	str	r3, [sp]
  7. 700a4a2e: f89d 000f    	ldrb.w	r0, [sp, #0xf]
  8. 700a4a32: b128         	cbz	r0, 0x700a4a40 <_out_char+0x20> @ imm = #0xa

P_HDR Event: Idx:63632 (Pattern: EEEEEE, Function: _out_char)
Executed Assembly Steps:
  1. 700a4a34: e7ff         	b	0x700a4a36 <_out_char+0x16> @ imm = #-0x2
  2. 700a4a36: f89d 000f    	ldrb.w	r0, [sp, #0xf]
  3. 700a4a3a: f000 fa21    	bl	0x700a4e80 <putchar_>   @ imm = #0x442
  4. 700a4e80: b510         	push	{r4, lr}
  5. 700a4e82: 4604         	mov	r4, r0
  6. 700a4e84: f000 e9ac    	blx	0x700a51e0 <putchar>    @ imm = #0x358

Sync: Idx:63633; ID:10;	BRANCH_ADDRESS : Branch address.; Addr=0x700A51E0 ~[0x700A51E0]; ISA=ARM(32);

P_HDR Event: Idx:63638 (Pattern: EEEEEEEEE, Function: putchar)
Executed Assembly Steps:
  1. 700a51e0: e59f1004     	ldr	r1, [pc, #0x4]          @ 0x700a51ec <putchar+0xc>
  2. 700a51e4: e2811018     	add	r1, r1, #24
  3. 700a51e8: eaffe5b1     	b	0x7009e8b4 <fputc>      @ imm = #-0x693c
  4. 7009e8b4: e92d483c     	push	{r2, r3, r4, r5, r11, lr}
  5. 7009e8b8: e59f20e0     	ldr	r2, [pc, #0xe0]         @ 0x7009e9a0 <fputc+0xec>
  6. 7009e8bc: e1a04001     	mov	r4, r1
  7. 7009e8c0: e1a05000     	mov	r5, r0
  8. 7009e8c4: e5922000     	ldr	r2, [r2]
  9. 7009e8c8: e12fff32     	blx	r2

Sync: Idx:63639; ID:10;	BRANCH_ADDRESS : Branch address.; Addr=0x7009A2DC ~[0x9A2DC];

P_HDR Event: Idx:63642 (Pattern: E, Function: _nop)
Executed Assembly Steps:
  1. 7009a2dc: e12fff1e     	bx	lr

Sync: Idx:63643; ID:10;	BRANCH_ADDRESS : Branch address.; Addr=0x7009E8CC ~[0x68CC];

P_HDR Event: Idx:63645 (Pattern: EEEEEEEN, Function: fputc)
Executed Assembly Steps:
  1. 7009e8cc: e1a00004     	mov	r0, r4
  2. 7009e8d0: eb000949     	bl	0x700a0dfc <__TI_wrt_ok> @ imm = #0x2524
  3. 700a0dfc: e92d4010     	push	{r4, lr}
  4. 700a0e00: e1a04000     	mov	r4, r0
  5. 700a0e04: e5901000     	ldr	r1, [r0]
  6. 700a0e08: e3a00000     	mov	r0, #0
  7. 700a0e0c: e3710001     	cmn	r1, #1
  8. 700a0e10: 0a00001c     	beq	0x700a0e88 <__TI_wrt_ok+0x8c> @ imm = #0x70

P_HDR Event: Idx:63646 (Pattern: EEN, Function: __TI_wrt_ok)
Executed Assembly Steps:
  1. 700a0e14: e5941014     	ldr	r1, [r4, #0x14]
  2. 700a0e18: e3110010     	tst	r1, #16
  3. 700a0e1c: 1a00001a     	bne	0x700a0e8c <__TI_wrt_ok+0x90> @ imm = #0x68

P_HDR Event: Idx:63648 (Pattern: EEEEEEEE, Function: __TI_wrt_ok)
Executed Assembly Steps:
  1. 700a0e20: e3110080     	tst	r1, #128
  2. 700a0e24: 0a000004     	beq	0x700a0e3c <__TI_wrt_ok+0x40> @ imm = #0x10
  3. 700a0e3c: e2010060     	and	r0, r1, #96
  4. 700a0e40: e3500040     	cmp	r0, #64
  5. 700a0e44: 1a000001     	bne	0x700a0e50 <__TI_wrt_ok+0x54> @ imm = #0x4
  6. 700a0e50: e5942004     	ldr	r2, [r4, #0x4]
  7. 700a0e54: e3a00001     	mov	r0, #1
  8. 700a0e58: e3520000     	cmp	r2, #0

P_HDR Event: Idx:63649 (Pattern: NE, Function: __TI_wrt_ok)
Executed Assembly Steps:
  1. 700a0e5c: 02112004     	andseq	r2, r1, #4
  2. 700a0e60: 1a000006     	bne	0x700a0e80 <__TI_wrt_ok+0x84> @ imm = #0x18

P_HDR Event: Idx:63650 (Pattern: EEE, Function: __TI_wrt_ok)
Executed Assembly Steps:
  1. 700a0e80: e594100c     	ldr	r1, [r4, #0xc]
  2. 700a0e84: e5841010     	str	r1, [r4, #0x10]
  3. 700a0e88: e8bd8010     	pop	{r4, pc}

Sync: Idx:63651; ID:10;	BRANCH_ADDRESS : Branch address.; Addr=0x7009E8D4 ~[0xD4];

P_HDR Event: Idx:63652 (Pattern: EN, Function: fputc)
Executed Assembly Steps:
  1. 7009e8d4: e3500000     	cmp	r0, #0
  2. 7009e8d8: 0a00000b     	beq	0x7009e90c <fputc+0x58> @ imm = #0x2c

P_HDR Event: Idx:63653 (Pattern: EEEEEEEEEEEEEEE, Function: fputc)
Executed Assembly Steps:
  1. 7009e8dc: e5940014     	ldr	r0, [r4, #0x14]
  2. 7009e8e0: e2000007     	and	r0, r0, #7
  3. 7009e8e4: e3500004     	cmp	r0, #4
  4. 7009e8e8: 1a00000a     	bne	0x7009e918 <fputc+0x64> @ imm = #0x28
  5. 7009e918: e5940008     	ldr	r0, [r4, #0x8]
  6. 7009e91c: e594100c     	ldr	r1, [r4, #0xc]
  7. 7009e920: e1500001     	cmp	r0, r1
  8. 7009e924: 3a000004     	blo	0x7009e93c <fputc+0x88> @ imm = #0x10
  9. 7009e93c: e2801001     	add	r1, r0, #1
  10. 7009e940: e355000a     	cmp	r5, #10
  11. 7009e944: e5841008     	str	r1, [r4, #0x8]
  12. 7009e948: e5c05000     	strb	r5, [r0]
  13. 7009e94c: 1a00000e     	bne	0x7009e98c <fputc+0xd8> @ imm = #0x38
  14. 7009e98c: e59f0010     	ldr	r0, [pc, #0x10]         @ 0x7009e9a4 <fputc+0xf0>
  15. 7009e990: e5900000     	ldr	r0, [r0]

P_HDR Event: Idx:63654 (Pattern: E, Function: fputc)
Executed Assembly Steps:
  1. 7009e994: e12fff30     	blx	r0

Sync: Idx:63655; ID:10;	BRANCH_ADDRESS : Branch address.; Addr=0x7009A2DC ~[0x22DC];

P_HDR Event: Idx:63657 (Pattern: E, Function: _nop)
Executed Assembly Steps:
  1. 7009a2dc: e12fff1e     	bx	lr

Sync: Idx:63658; ID:10;	BRANCH_ADDRESS : Branch address.; Addr=0x7009E998 ~[0x6998];

P_HDR Event: Idx:63660 (Pattern: EE, Function: fputc)
Executed Assembly Steps:
  1. 7009e998: e6ef0075     	uxtb	r0, r5
  2. 7009e99c: e8bd883c     	pop	{r2, r3, r4, r5, r11, pc}

Sync: Idx:63661; ID:10;	BRANCH_ADDRESS : Branch address.; Addr=0x700A4E88 ~[0x700A4E88]; ISA=Thumb2;

P_HDR Event: Idx:63667 (Pattern: EEEEEEEEEEEEEEE, Function: putchar_)
Executed Assembly Steps:
  1. 700a4e88: 4620         	mov	r0, r4
  2. 700a4e8a: f7f8 fa11    	bl	0x7009d2b0 <DebugP_memLogWriterPutChar> @ imm = #-0x7bde
  3. 7009d2b0: b580         	push	{r7, lr}
  4. 7009d2b2: b088         	sub	sp, #0x20
  5. 7009d2b4: f88d 001f    	strb.w	r0, [sp, #0x1f]
  6. 7009d2b8: f247 30cc    	movw	r0, #0x73cc
  7. 7009d2bc: f2c7 000a    	movt	r0, #0x700a
  8. 7009d2c0: 6800         	ldr	r0, [r0]
  9. 7009d2c2: bb40         	cbnz	r0, 0x7009d316 <DebugP_memLogWriterPutChar+0x66> @ imm = #0x50
  10. 7009d316: f89d 001f    	ldrb.w	r0, [sp, #0x1f]
  11. 7009d31a: f247 31cc    	movw	r1, #0x73cc
  12. 7009d31e: f2c7 010a    	movt	r1, #0x700a
  13. 7009d322: 680b         	ldr	r3, [r1]
  14. 7009d324: f644 42e0    	movw	r2, #0x4ce0
  15. 7009d328: f2c7 0208    	movt	r2, #0x7008

P_HDR Event: Idx:63668 (Pattern: EEEEEEN, Function: DebugP_memLogWriterPutChar)
Executed Assembly Steps:
  1. 7009d32c: 54d0         	strb	r0, [r2, r3]
  2. 7009d32e: 6808         	ldr	r0, [r1]
  3. 7009d330: 3001         	adds	r0, #0x1
  4. 7009d332: 6008         	str	r0, [r1]
  5. 7009d334: f89d 001f    	ldrb.w	r0, [sp, #0x1f]
  6. 7009d338: 280a         	cmp	r0, #0xa
  7. 7009d33a: d008         	beq	0x7009d34e <DebugP_memLogWriterPutChar+0x9e> @ imm = #0x10

P_HDR Event: Idx:63669 (Pattern: EEEEEEEE, Function: DebugP_memLogWriterPutChar)
Executed Assembly Steps:
  1. 7009d33c: e7ff         	b	0x7009d33e <DebugP_memLogWriterPutChar+0x8e> @ imm = #-0x2
  2. 7009d33e: f247 30cc    	movw	r0, #0x73cc
  3. 7009d342: f2c7 000a    	movt	r0, #0x700a
  4. 7009d346: 6800         	ldr	r0, [r0]
  5. 7009d348: 2878         	cmp	r0, #0x78
  6. 7009d34a: d350         	blo	0x7009d3ee <DebugP_memLogWriterPutChar+0x13e> @ imm = #0xa0
  7. 7009d3ee: b008         	add	sp, #0x20
  8. 7009d3f0: bd80         	pop	{r7, pc}

Sync: Idx:63670; ID:10;	BRANCH_ADDRESS : Branch address.; Addr=0x700A4E8E ~[0xE];

P_HDR Event: Idx:63671 (Pattern: EEEEEEEEEEEEEEE, Function: putchar_)
Executed Assembly Steps:
  1. 700a4e8e: 4620         	mov	r0, r4
  2. 700a4e90: e8bd 4010    	pop.w	{r4, lr}
  3. 700a4e94: f7fe bd2c    	b.w	0x700a38f0 <DebugP_uartLogWriterPutChar> @ imm = #-0x15a8
  4. 700a38f0: b580         	push	{r7, lr}
  5. 700a38f2: b088         	sub	sp, #0x20
  6. 700a38f4: f88d 001f    	strb.w	r0, [sp, #0x1f]
  7. 700a38f8: f89d 001f    	ldrb.w	r0, [sp, #0x1f]
  8. 700a38fc: f88d 001e    	strb.w	r0, [sp, #0x1e]
  9. 700a3900: f247 40e0    	movw	r0, #0x74e0
  10. 700a3904: f2c7 000a    	movt	r0, #0x700a
  11. 700a3908: 6800         	ldr	r0, [r0]
  12. 700a390a: f7ff fe41    	bl	0x700a3590 <UART_getHandle> @ imm = #-0x37e
  13. 700a3590: b083         	sub	sp, #0xc
  14. 700a3592: 9002         	str	r0, [sp, #0x8]
  15. 700a3594: 2000         	movs	r0, #0x0

P_HDR Event: Idx:63672 (Pattern: EEEEEEN, Function: UART_getHandle)
Executed Assembly Steps:
  1. 700a3596: 9001         	str	r0, [sp, #0x4]
  2. 700a3598: 9802         	ldr	r0, [sp, #0x8]
  3. 700a359a: f247 41e8    	movw	r1, #0x74e8
  4. 700a359e: f2c7 010a    	movt	r1, #0x700a
  5. 700a35a2: 6809         	ldr	r1, [r1]
  6. 700a35a4: 4288         	cmp	r0, r1
  7. 700a35a6: d217         	bhs	0x700a35d8 <UART_getHandle+0x48> @ imm = #0x2e

P_HDR Event: Idx:63673 (Pattern: EEEEEEEEN, Function: UART_getHandle)
Executed Assembly Steps:
  1. 700a35a8: e7ff         	b	0x700a35aa <UART_getHandle+0x1a> @ imm = #-0x2
  2. 700a35aa: 9902         	ldr	r1, [sp, #0x8]
  3. 700a35ac: f247 40a8    	movw	r0, #0x74a8
  4. 700a35b0: f2c7 000a    	movt	r0, #0x700a
  5. 700a35b4: eb00 00c1    	add.w	r0, r0, r1, lsl #3
  6. 700a35b8: 6840         	ldr	r0, [r0, #0x4]
  7. 700a35ba: 9000         	str	r0, [sp]
  8. 700a35bc: 9800         	ldr	r0, [sp]
  9. 700a35be: b150         	cbz	r0, 0x700a35d6 <UART_getHandle+0x46> @ imm = #0x14

P_HDR Event: Idx:63674 (Pattern: EEEEEEEEE, Function: UART_getHandle)
Executed Assembly Steps:
  1. 700a35c0: e7ff         	b	0x700a35c2 <UART_getHandle+0x32> @ imm = #-0x2
  2. 700a35c2: 9800         	ldr	r0, [sp]
  3. 700a35c4: f8d0 0084    	ldr.w	r0, [r0, #0x84]
  4. 700a35c8: 2801         	cmp	r0, #0x1
  5. 700a35ca: d104         	bne	0x700a35d6 <UART_getHandle+0x46> @ imm = #0x8
  6. 700a35d6: e7ff         	b	0x700a35d8 <UART_getHandle+0x48> @ imm = #-0x2
  7. 700a35d8: 9801         	ldr	r0, [sp, #0x4]
  8. 700a35da: b003         	add	sp, #0xc
  9. 700a35dc: 4770         	bx	lr

Sync: Idx:63675; ID:10;	BRANCH_ADDRESS : Branch address.; Addr=0x700A390E ~[0xA390E];

P_HDR Event: Idx:63678 (Pattern: EEEEE, Function: DebugP_uartLogWriterPutChar)
Executed Assembly Steps:
  1. 700a390e: 9006         	str	r0, [sp, #0x18]
  2. 700a3910: 9806         	ldr	r0, [sp, #0x18]
  3. 700a3912: b170         	cbz	r0, 0x700a3932 <DebugP_uartLogWriterPutChar+0x42> @ imm = #0x1c
  4. 700a3932: b008         	add	sp, #0x20
  5. 700a3934: bd80         	pop	{r7, pc}

Sync: Idx:63680; ID:10;	BRANCH_ADDRESS : Branch address.; Addr=0x700A4A3E ~[0xA4A3E];

P_HDR Event: Idx:63683 (Pattern: EEE, Function: _out_char)
Executed Assembly Steps:
  1. 700a4a3e: e7ff         	b	0x700a4a40 <_out_char+0x20> @ imm = #-0x2
  2. 700a4a40: b004         	add	sp, #0x10
  3. 700a4a42: bd80         	pop	{r7, pc}

Sync: Idx:63684; ID:10;	BRANCH_ADDRESS : Branch address.; Addr=0x70098F58 ~[0x98F58];

P_HDR Event: Idx:63687 (Pattern: EEEEEEEN, Function: _vsnprintf)
Executed Assembly Steps:
  1. 70098f58: 983c         	ldr	r0, [sp, #0xf0]
  2. 70098f5a: 3001         	adds	r0, #0x1
  3. 70098f5c: 903c         	str	r0, [sp, #0xf0]
  4. 70098f5e: e7e6         	b	0x70098f2e <_vsnprintf+0x2e> @ imm = #-0x34
  5. 70098f2e: 983c         	ldr	r0, [sp, #0xf0]
  6. 70098f30: 7800         	ldrb	r0, [r0]
  7. 70098f32: 2800         	cmp	r0, #0x0
  8. 70098f34: f000 84e3    	beq.w	0x700998fe <_vsnprintf+0x9fe> @ imm = #0x9c6

P_HDR Event: Idx:63688 (Pattern: EEEEN, Function: _vsnprintf)
Executed Assembly Steps:
  1. 70098f38: e7ff         	b	0x70098f3a <_vsnprintf+0x3a> @ imm = #-0x2
  2. 70098f3a: 983c         	ldr	r0, [sp, #0xf0]
  3. 70098f3c: 7800         	ldrb	r0, [r0]
  4. 70098f3e: 2825         	cmp	r0, #0x25
  5. 70098f40: d00e         	beq	0x70098f60 <_vsnprintf+0x60> @ imm = #0x1c

P_HDR Event: Idx:63689 (Pattern: EEEEEEEEEE, Function: _vsnprintf)
Executed Assembly Steps:
  1. 70098f42: e7ff         	b	0x70098f44 <_vsnprintf+0x44> @ imm = #-0x2
  2. 70098f44: f8dd c0fc    	ldr.w	r12, [sp, #0xfc]
  3. 70098f48: 983c         	ldr	r0, [sp, #0xf0]
  4. 70098f4a: 7800         	ldrb	r0, [r0]
  5. 70098f4c: 993e         	ldr	r1, [sp, #0xf8]
  6. 70098f4e: 9a37         	ldr	r2, [sp, #0xdc]
  7. 70098f50: 1c53         	adds	r3, r2, #0x1
  8. 70098f52: 9337         	str	r3, [sp, #0xdc]
  9. 70098f54: 9b3d         	ldr	r3, [sp, #0xf4]
  10. 70098f56: 47e0         	blx	r12

Sync: Idx:63690; ID:10;	BRANCH_ADDRESS : Branch address.; Addr=0x700A4A20 ~[0xA4A20];

P_HDR Event: Idx:63693 (Pattern: EEEEEEEN, Function: _out_char)
Executed Assembly Steps:
  1. 700a4a20: b580         	push	{r7, lr}
  2. 700a4a22: b084         	sub	sp, #0x10
  3. 700a4a24: f88d 000f    	strb.w	r0, [sp, #0xf]
  4. 700a4a28: 9102         	str	r1, [sp, #0x8]
  5. 700a4a2a: 9201         	str	r2, [sp, #0x4]
  6. 700a4a2c: 9300         	str	r3, [sp]
  7. 700a4a2e: f89d 000f    	ldrb.w	r0, [sp, #0xf]
  8. 700a4a32: b128         	cbz	r0, 0x700a4a40 <_out_char+0x20> @ imm = #0xa

P_HDR Event: Idx:63694 (Pattern: EEEEEE, Function: _out_char)
Executed Assembly Steps:
  1. 700a4a34: e7ff         	b	0x700a4a36 <_out_char+0x16> @ imm = #-0x2
  2. 700a4a36: f89d 000f    	ldrb.w	r0, [sp, #0xf]
  3. 700a4a3a: f000 fa21    	bl	0x700a4e80 <putchar_>   @ imm = #0x442
  4. 700a4e80: b510         	push	{r4, lr}
  5. 700a4e82: 4604         	mov	r4, r0
  6. 700a4e84: f000 e9ac    	blx	0x700a51e0 <putchar>    @ imm = #0x358

Sync: Idx:63696; ID:10;	BRANCH_ADDRESS : Branch address.; Addr=0x700A51E0 ~[0x700A51E0]; ISA=ARM(32);

P_HDR Event: Idx:63701 (Pattern: EEEEEEEEE, Function: putchar)
Executed Assembly Steps:
  1. 700a51e0: e59f1004     	ldr	r1, [pc, #0x4]          @ 0x700a51ec <putchar+0xc>
  2. 700a51e4: e2811018     	add	r1, r1, #24
  3. 700a51e8: eaffe5b1     	b	0x7009e8b4 <fputc>      @ imm = #-0x693c
  4. 7009e8b4: e92d483c     	push	{r2, r3, r4, r5, r11, lr}
  5. 7009e8b8: e59f20e0     	ldr	r2, [pc, #0xe0]         @ 0x7009e9a0 <fputc+0xec>
  6. 7009e8bc: e1a04001     	mov	r4, r1
  7. 7009e8c0: e1a05000     	mov	r5, r0
  8. 7009e8c4: e5922000     	ldr	r2, [r2]
  9. 7009e8c8: e12fff32     	blx	r2

Sync: Idx:63702; ID:10;	BRANCH_ADDRESS : Branch address.; Addr=0x7009A2DC ~[0x9A2DC];

P_HDR Event: Idx:63705 (Pattern: E, Function: _nop)
Executed Assembly Steps:
  1. 7009a2dc: e12fff1e     	bx	lr

Sync: Idx:63706; ID:10;	BRANCH_ADDRESS : Branch address.; Addr=0x7009E8CC ~[0x68CC];

P_HDR Event: Idx:63708 (Pattern: EEEEEEEN, Function: fputc)
Executed Assembly Steps:
  1. 7009e8cc: e1a00004     	mov	r0, r4
  2. 7009e8d0: eb000949     	bl	0x700a0dfc <__TI_wrt_ok> @ imm = #0x2524
  3. 700a0dfc: e92d4010     	push	{r4, lr}
  4. 700a0e00: e1a04000     	mov	r4, r0
  5. 700a0e04: e5901000     	ldr	r1, [r0]
  6. 700a0e08: e3a00000     	mov	r0, #0
  7. 700a0e0c: e3710001     	cmn	r1, #1
  8. 700a0e10: 0a00001c     	beq	0x700a0e88 <__TI_wrt_ok+0x8c> @ imm = #0x70

P_HDR Event: Idx:63709 (Pattern: EEN, Function: __TI_wrt_ok)
Executed Assembly Steps:
  1. 700a0e14: e5941014     	ldr	r1, [r4, #0x14]
  2. 700a0e18: e3110010     	tst	r1, #16
  3. 700a0e1c: 1a00001a     	bne	0x700a0e8c <__TI_wrt_ok+0x90> @ imm = #0x68

P_HDR Event: Idx:63710 (Pattern: EEEEEEEE, Function: __TI_wrt_ok)
Executed Assembly Steps:
  1. 700a0e20: e3110080     	tst	r1, #128
  2. 700a0e24: 0a000004     	beq	0x700a0e3c <__TI_wrt_ok+0x40> @ imm = #0x10
  3. 700a0e3c: e2010060     	and	r0, r1, #96
  4. 700a0e40: e3500040     	cmp	r0, #64
  5. 700a0e44: 1a000001     	bne	0x700a0e50 <__TI_wrt_ok+0x54> @ imm = #0x4
  6. 700a0e50: e5942004     	ldr	r2, [r4, #0x4]
  7. 700a0e54: e3a00001     	mov	r0, #1
  8. 700a0e58: e3520000     	cmp	r2, #0

P_HDR Event: Idx:63712 (Pattern: NE, Function: __TI_wrt_ok)
Executed Assembly Steps:
  1. 700a0e5c: 02112004     	andseq	r2, r1, #4
  2. 700a0e60: 1a000006     	bne	0x700a0e80 <__TI_wrt_ok+0x84> @ imm = #0x18

P_HDR Event: Idx:63713 (Pattern: EEE, Function: __TI_wrt_ok)
Executed Assembly Steps:
  1. 700a0e80: e594100c     	ldr	r1, [r4, #0xc]
  2. 700a0e84: e5841010     	str	r1, [r4, #0x10]
  3. 700a0e88: e8bd8010     	pop	{r4, pc}

Sync: Idx:63714; ID:10;	BRANCH_ADDRESS : Branch address.; Addr=0x7009E8D4 ~[0xD4];

P_HDR Event: Idx:63715 (Pattern: EN, Function: fputc)
Executed Assembly Steps:
  1. 7009e8d4: e3500000     	cmp	r0, #0
  2. 7009e8d8: 0a00000b     	beq	0x7009e90c <fputc+0x58> @ imm = #0x2c

P_HDR Event: Idx:63716 (Pattern: EEEEEEEEEEEEEEE, Function: fputc)
Executed Assembly Steps:
  1. 7009e8dc: e5940014     	ldr	r0, [r4, #0x14]
  2. 7009e8e0: e2000007     	and	r0, r0, #7
  3. 7009e8e4: e3500004     	cmp	r0, #4
  4. 7009e8e8: 1a00000a     	bne	0x7009e918 <fputc+0x64> @ imm = #0x28
  5. 7009e918: e5940008     	ldr	r0, [r4, #0x8]
  6. 7009e91c: e594100c     	ldr	r1, [r4, #0xc]
  7. 7009e920: e1500001     	cmp	r0, r1
  8. 7009e924: 3a000004     	blo	0x7009e93c <fputc+0x88> @ imm = #0x10
  9. 7009e93c: e2801001     	add	r1, r0, #1
  10. 7009e940: e355000a     	cmp	r5, #10
  11. 7009e944: e5841008     	str	r1, [r4, #0x8]
  12. 7009e948: e5c05000     	strb	r5, [r0]
  13. 7009e94c: 1a00000e     	bne	0x7009e98c <fputc+0xd8> @ imm = #0x38
  14. 7009e98c: e59f0010     	ldr	r0, [pc, #0x10]         @ 0x7009e9a4 <fputc+0xf0>
  15. 7009e990: e5900000     	ldr	r0, [r0]

P_HDR Event: Idx:63717 (Pattern: E, Function: fputc)
Executed Assembly Steps:
  1. 7009e994: e12fff30     	blx	r0

Sync: Idx:63718; ID:10;	BRANCH_ADDRESS : Branch address.; Addr=0x7009A2DC ~[0x22DC];

P_HDR Event: Idx:63720 (Pattern: E, Function: _nop)
Executed Assembly Steps:
  1. 7009a2dc: e12fff1e     	bx	lr

Sync: Idx:63721; ID:10;	BRANCH_ADDRESS : Branch address.; Addr=0x7009E998 ~[0x6998];

P_HDR Event: Idx:63723 (Pattern: EE, Function: fputc)
Executed Assembly Steps:
  1. 7009e998: e6ef0075     	uxtb	r0, r5
  2. 7009e99c: e8bd883c     	pop	{r2, r3, r4, r5, r11, pc}

Sync: Idx:63724; ID:10;	BRANCH_ADDRESS : Branch address.; Addr=0x700A4E88 ~[0x700A4E88]; ISA=Thumb2;

P_HDR Event: Idx:63730 (Pattern: EEEEEEEEEEEEEEE, Function: putchar_)
Executed Assembly Steps:
  1. 700a4e88: 4620         	mov	r0, r4
  2. 700a4e8a: f7f8 fa11    	bl	0x7009d2b0 <DebugP_memLogWriterPutChar> @ imm = #-0x7bde
  3. 7009d2b0: b580         	push	{r7, lr}
  4. 7009d2b2: b088         	sub	sp, #0x20
  5. 7009d2b4: f88d 001f    	strb.w	r0, [sp, #0x1f]
  6. 7009d2b8: f247 30cc    	movw	r0, #0x73cc
  7. 7009d2bc: f2c7 000a    	movt	r0, #0x700a
  8. 7009d2c0: 6800         	ldr	r0, [r0]
  9. 7009d2c2: bb40         	cbnz	r0, 0x7009d316 <DebugP_memLogWriterPutChar+0x66> @ imm = #0x50
  10. 7009d316: f89d 001f    	ldrb.w	r0, [sp, #0x1f]
  11. 7009d31a: f247 31cc    	movw	r1, #0x73cc
  12. 7009d31e: f2c7 010a    	movt	r1, #0x700a
  13. 7009d322: 680b         	ldr	r3, [r1]
  14. 7009d324: f644 42e0    	movw	r2, #0x4ce0
  15. 7009d328: f2c7 0208    	movt	r2, #0x7008

P_HDR Event: Idx:63731 (Pattern: EEEEEEN, Function: DebugP_memLogWriterPutChar)
Executed Assembly Steps:
  1. 7009d32c: 54d0         	strb	r0, [r2, r3]
  2. 7009d32e: 6808         	ldr	r0, [r1]
  3. 7009d330: 3001         	adds	r0, #0x1
  4. 7009d332: 6008         	str	r0, [r1]
  5. 7009d334: f89d 001f    	ldrb.w	r0, [sp, #0x1f]
  6. 7009d338: 280a         	cmp	r0, #0xa
  7. 7009d33a: d008         	beq	0x7009d34e <DebugP_memLogWriterPutChar+0x9e> @ imm = #0x10

P_HDR Event: Idx:63732 (Pattern: EEEEEEEE, Function: DebugP_memLogWriterPutChar)
Executed Assembly Steps:
  1. 7009d33c: e7ff         	b	0x7009d33e <DebugP_memLogWriterPutChar+0x8e> @ imm = #-0x2
  2. 7009d33e: f247 30cc    	movw	r0, #0x73cc
  3. 7009d342: f2c7 000a    	movt	r0, #0x700a
  4. 7009d346: 6800         	ldr	r0, [r0]
  5. 7009d348: 2878         	cmp	r0, #0x78
  6. 7009d34a: d350         	blo	0x7009d3ee <DebugP_memLogWriterPutChar+0x13e> @ imm = #0xa0
  7. 7009d3ee: b008         	add	sp, #0x20
  8. 7009d3f0: bd80         	pop	{r7, pc}

Sync: Idx:63733; ID:10;	BRANCH_ADDRESS : Branch address.; Addr=0x700A4E8E ~[0xE];

P_HDR Event: Idx:63734 (Pattern: EEEEEEEEEEEEEEE, Function: putchar_)
Executed Assembly Steps:
  1. 700a4e8e: 4620         	mov	r0, r4
  2. 700a4e90: e8bd 4010    	pop.w	{r4, lr}
  3. 700a4e94: f7fe bd2c    	b.w	0x700a38f0 <DebugP_uartLogWriterPutChar> @ imm = #-0x15a8
  4. 700a38f0: b580         	push	{r7, lr}
  5. 700a38f2: b088         	sub	sp, #0x20
  6. 700a38f4: f88d 001f    	strb.w	r0, [sp, #0x1f]
  7. 700a38f8: f89d 001f    	ldrb.w	r0, [sp, #0x1f]
  8. 700a38fc: f88d 001e    	strb.w	r0, [sp, #0x1e]
  9. 700a3900: f247 40e0    	movw	r0, #0x74e0
  10. 700a3904: f2c7 000a    	movt	r0, #0x700a
  11. 700a3908: 6800         	ldr	r0, [r0]
  12. 700a390a: f7ff fe41    	bl	0x700a3590 <UART_getHandle> @ imm = #-0x37e
  13. 700a3590: b083         	sub	sp, #0xc
  14. 700a3592: 9002         	str	r0, [sp, #0x8]
  15. 700a3594: 2000         	movs	r0, #0x0

P_HDR Event: Idx:63735 (Pattern: EEEEEEN, Function: UART_getHandle)
Executed Assembly Steps:
  1. 700a3596: 9001         	str	r0, [sp, #0x4]
  2. 700a3598: 9802         	ldr	r0, [sp, #0x8]
  3. 700a359a: f247 41e8    	movw	r1, #0x74e8
  4. 700a359e: f2c7 010a    	movt	r1, #0x700a
  5. 700a35a2: 6809         	ldr	r1, [r1]
  6. 700a35a4: 4288         	cmp	r0, r1
  7. 700a35a6: d217         	bhs	0x700a35d8 <UART_getHandle+0x48> @ imm = #0x2e

P_HDR Event: Idx:63736 (Pattern: EEEEEEEEN, Function: UART_getHandle)
Executed Assembly Steps:
  1. 700a35a8: e7ff         	b	0x700a35aa <UART_getHandle+0x1a> @ imm = #-0x2
  2. 700a35aa: 9902         	ldr	r1, [sp, #0x8]
  3. 700a35ac: f247 40a8    	movw	r0, #0x74a8
  4. 700a35b0: f2c7 000a    	movt	r0, #0x700a
  5. 700a35b4: eb00 00c1    	add.w	r0, r0, r1, lsl #3
  6. 700a35b8: 6840         	ldr	r0, [r0, #0x4]
  7. 700a35ba: 9000         	str	r0, [sp]
  8. 700a35bc: 9800         	ldr	r0, [sp]
  9. 700a35be: b150         	cbz	r0, 0x700a35d6 <UART_getHandle+0x46> @ imm = #0x14

P_HDR Event: Idx:63737 (Pattern: EEEEEEEEE, Function: UART_getHandle)
Executed Assembly Steps:
  1. 700a35c0: e7ff         	b	0x700a35c2 <UART_getHandle+0x32> @ imm = #-0x2
  2. 700a35c2: 9800         	ldr	r0, [sp]
  3. 700a35c4: f8d0 0084    	ldr.w	r0, [r0, #0x84]
  4. 700a35c8: 2801         	cmp	r0, #0x1
  5. 700a35ca: d104         	bne	0x700a35d6 <UART_getHandle+0x46> @ imm = #0x8
  6. 700a35d6: e7ff         	b	0x700a35d8 <UART_getHandle+0x48> @ imm = #-0x2
  7. 700a35d8: 9801         	ldr	r0, [sp, #0x4]
  8. 700a35da: b003         	add	sp, #0xc
  9. 700a35dc: 4770         	bx	lr

Sync: Idx:63738; ID:10;	BRANCH_ADDRESS : Branch address.; Addr=0x700A390E ~[0xA390E];

P_HDR Event: Idx:63741 (Pattern: EEEEE, Function: DebugP_uartLogWriterPutChar)
Executed Assembly Steps:
  1. 700a390e: 9006         	str	r0, [sp, #0x18]
  2. 700a3910: 9806         	ldr	r0, [sp, #0x18]
  3. 700a3912: b170         	cbz	r0, 0x700a3932 <DebugP_uartLogWriterPutChar+0x42> @ imm = #0x1c
  4. 700a3932: b008         	add	sp, #0x20
  5. 700a3934: bd80         	pop	{r7, pc}

Sync: Idx:63742; ID:10;	BRANCH_ADDRESS : Branch address.; Addr=0x700A4A3E ~[0xA4A3E];

P_HDR Event: Idx:63746 (Pattern: EEE, Function: _out_char)
Executed Assembly Steps:
  1. 700a4a3e: e7ff         	b	0x700a4a40 <_out_char+0x20> @ imm = #-0x2
  2. 700a4a40: b004         	add	sp, #0x10
  3. 700a4a42: bd80         	pop	{r7, pc}

Sync: Idx:63747; ID:10;	BRANCH_ADDRESS : Branch address.; Addr=0x70098F58 ~[0x98F58];

P_HDR Event: Idx:63750 (Pattern: EEEEEEEN, Function: _vsnprintf)
Executed Assembly Steps:
  1. 70098f58: 983c         	ldr	r0, [sp, #0xf0]
  2. 70098f5a: 3001         	adds	r0, #0x1
  3. 70098f5c: 903c         	str	r0, [sp, #0xf0]
  4. 70098f5e: e7e6         	b	0x70098f2e <_vsnprintf+0x2e> @ imm = #-0x34
  5. 70098f2e: 983c         	ldr	r0, [sp, #0xf0]
  6. 70098f30: 7800         	ldrb	r0, [r0]
  7. 70098f32: 2800         	cmp	r0, #0x0
  8. 70098f34: f000 84e3    	beq.w	0x700998fe <_vsnprintf+0x9fe> @ imm = #0x9c6

P_HDR Event: Idx:63751 (Pattern: EEEEN, Function: _vsnprintf)
Executed Assembly Steps:
  1. 70098f38: e7ff         	b	0x70098f3a <_vsnprintf+0x3a> @ imm = #-0x2
  2. 70098f3a: 983c         	ldr	r0, [sp, #0xf0]
  3. 70098f3c: 7800         	ldrb	r0, [r0]
  4. 70098f3e: 2825         	cmp	r0, #0x25
  5. 70098f40: d00e         	beq	0x70098f60 <_vsnprintf+0x60> @ imm = #0x1c

P_HDR Event: Idx:63752 (Pattern: EEEEEEEEEE, Function: _vsnprintf)
Executed Assembly Steps:
  1. 70098f42: e7ff         	b	0x70098f44 <_vsnprintf+0x44> @ imm = #-0x2
  2. 70098f44: f8dd c0fc    	ldr.w	r12, [sp, #0xfc]
  3. 70098f48: 983c         	ldr	r0, [sp, #0xf0]
  4. 70098f4a: 7800         	ldrb	r0, [r0]
  5. 70098f4c: 993e         	ldr	r1, [sp, #0xf8]
  6. 70098f4e: 9a37         	ldr	r2, [sp, #0xdc]
  7. 70098f50: 1c53         	adds	r3, r2, #0x1
  8. 70098f52: 9337         	str	r3, [sp, #0xdc]
  9. 70098f54: 9b3d         	ldr	r3, [sp, #0xf4]
  10. 70098f56: 47e0         	blx	r12

Sync: Idx:63753; ID:10;	BRANCH_ADDRESS : Branch address.; Addr=0x700A4A20 ~[0xA4A20];

P_HDR Event: Idx:63756 (Pattern: EEEEEEEN, Function: _out_char)
Executed Assembly Steps:
  1. 700a4a20: b580         	push	{r7, lr}
  2. 700a4a22: b084         	sub	sp, #0x10
  3. 700a4a24: f88d 000f    	strb.w	r0, [sp, #0xf]
  4. 700a4a28: 9102         	str	r1, [sp, #0x8]
  5. 700a4a2a: 9201         	str	r2, [sp, #0x4]
  6. 700a4a2c: 9300         	str	r3, [sp]
  7. 700a4a2e: f89d 000f    	ldrb.w	r0, [sp, #0xf]
  8. 700a4a32: b128         	cbz	r0, 0x700a4a40 <_out_char+0x20> @ imm = #0xa

P_HDR Event: Idx:63757 (Pattern: EEEEEE, Function: _out_char)
Executed Assembly Steps:
  1. 700a4a34: e7ff         	b	0x700a4a36 <_out_char+0x16> @ imm = #-0x2
  2. 700a4a36: f89d 000f    	ldrb.w	r0, [sp, #0xf]
  3. 700a4a3a: f000 fa21    	bl	0x700a4e80 <putchar_>   @ imm = #0x442
  4. 700a4e80: b510         	push	{r4, lr}
  5. 700a4e82: 4604         	mov	r4, r0
  6. 700a4e84: f000 e9ac    	blx	0x700a51e0 <putchar>    @ imm = #0x358

Sync: Idx:63758; ID:10;	BRANCH_ADDRESS : Branch address.; Addr=0x700A51E0 ~[0x700A51E0]; ISA=ARM(32);

P_HDR Event: Idx:63764 (Pattern: EEEEEEEEE, Function: putchar)
Executed Assembly Steps:
  1. 700a51e0: e59f1004     	ldr	r1, [pc, #0x4]          @ 0x700a51ec <putchar+0xc>
  2. 700a51e4: e2811018     	add	r1, r1, #24
  3. 700a51e8: eaffe5b1     	b	0x7009e8b4 <fputc>      @ imm = #-0x693c
  4. 7009e8b4: e92d483c     	push	{r2, r3, r4, r5, r11, lr}
  5. 7009e8b8: e59f20e0     	ldr	r2, [pc, #0xe0]         @ 0x7009e9a0 <fputc+0xec>
  6. 7009e8bc: e1a04001     	mov	r4, r1
  7. 7009e8c0: e1a05000     	mov	r5, r0
  8. 7009e8c4: e5922000     	ldr	r2, [r2]
  9. 7009e8c8: e12fff32     	blx	r2

Sync: Idx:63765; ID:10;	BRANCH_ADDRESS : Branch address.; Addr=0x7009A2DC ~[0x9A2DC];

P_HDR Event: Idx:63768 (Pattern: E, Function: _nop)
Executed Assembly Steps:
  1. 7009a2dc: e12fff1e     	bx	lr

Sync: Idx:63769; ID:10;	BRANCH_ADDRESS : Branch address.; Addr=0x7009E8CC ~[0x68CC];

P_HDR Event: Idx:63771 (Pattern: EEEEEEEN, Function: fputc)
Executed Assembly Steps:
  1. 7009e8cc: e1a00004     	mov	r0, r4
  2. 7009e8d0: eb000949     	bl	0x700a0dfc <__TI_wrt_ok> @ imm = #0x2524
  3. 700a0dfc: e92d4010     	push	{r4, lr}
  4. 700a0e00: e1a04000     	mov	r4, r0
  5. 700a0e04: e5901000     	ldr	r1, [r0]
  6. 700a0e08: e3a00000     	mov	r0, #0
  7. 700a0e0c: e3710001     	cmn	r1, #1
  8. 700a0e10: 0a00001c     	beq	0x700a0e88 <__TI_wrt_ok+0x8c> @ imm = #0x70

P_HDR Event: Idx:63772 (Pattern: EEN, Function: __TI_wrt_ok)
Executed Assembly Steps:
  1. 700a0e14: e5941014     	ldr	r1, [r4, #0x14]
  2. 700a0e18: e3110010     	tst	r1, #16
  3. 700a0e1c: 1a00001a     	bne	0x700a0e8c <__TI_wrt_ok+0x90> @ imm = #0x68

P_HDR Event: Idx:63773 (Pattern: EEEEEEEE, Function: __TI_wrt_ok)
Executed Assembly Steps:
  1. 700a0e20: e3110080     	tst	r1, #128
  2. 700a0e24: 0a000004     	beq	0x700a0e3c <__TI_wrt_ok+0x40> @ imm = #0x10
  3. 700a0e3c: e2010060     	and	r0, r1, #96
  4. 700a0e40: e3500040     	cmp	r0, #64
  5. 700a0e44: 1a000001     	bne	0x700a0e50 <__TI_wrt_ok+0x54> @ imm = #0x4
  6. 700a0e50: e5942004     	ldr	r2, [r4, #0x4]
  7. 700a0e54: e3a00001     	mov	r0, #1
  8. 700a0e58: e3520000     	cmp	r2, #0

P_HDR Event: Idx:63774 (Pattern: NE, Function: __TI_wrt_ok)
Executed Assembly Steps:
  1. 700a0e5c: 02112004     	andseq	r2, r1, #4
  2. 700a0e60: 1a000006     	bne	0x700a0e80 <__TI_wrt_ok+0x84> @ imm = #0x18

P_HDR Event: Idx:63776 (Pattern: EEE, Function: __TI_wrt_ok)
Executed Assembly Steps:
  1. 700a0e80: e594100c     	ldr	r1, [r4, #0xc]
  2. 700a0e84: e5841010     	str	r1, [r4, #0x10]
  3. 700a0e88: e8bd8010     	pop	{r4, pc}

Sync: Idx:63777; ID:10;	BRANCH_ADDRESS : Branch address.; Addr=0x7009E8D4 ~[0xD4];

P_HDR Event: Idx:63778 (Pattern: EN, Function: fputc)
Executed Assembly Steps:
  1. 7009e8d4: e3500000     	cmp	r0, #0
  2. 7009e8d8: 0a00000b     	beq	0x7009e90c <fputc+0x58> @ imm = #0x2c

P_HDR Event: Idx:63779 (Pattern: EEEEEEEEEEEEEEE, Function: fputc)
Executed Assembly Steps:
  1. 7009e8dc: e5940014     	ldr	r0, [r4, #0x14]
  2. 7009e8e0: e2000007     	and	r0, r0, #7
  3. 7009e8e4: e3500004     	cmp	r0, #4
  4. 7009e8e8: 1a00000a     	bne	0x7009e918 <fputc+0x64> @ imm = #0x28
  5. 7009e918: e5940008     	ldr	r0, [r4, #0x8]
  6. 7009e91c: e594100c     	ldr	r1, [r4, #0xc]
  7. 7009e920: e1500001     	cmp	r0, r1
  8. 7009e924: 3a000004     	blo	0x7009e93c <fputc+0x88> @ imm = #0x10
  9. 7009e93c: e2801001     	add	r1, r0, #1
  10. 7009e940: e355000a     	cmp	r5, #10
  11. 7009e944: e5841008     	str	r1, [r4, #0x8]
  12. 7009e948: e5c05000     	strb	r5, [r0]
  13. 7009e94c: 1a00000e     	bne	0x7009e98c <fputc+0xd8> @ imm = #0x38
  14. 7009e98c: e59f0010     	ldr	r0, [pc, #0x10]         @ 0x7009e9a4 <fputc+0xf0>
  15. 7009e990: e5900000     	ldr	r0, [r0]

P_HDR Event: Idx:63780 (Pattern: E, Function: fputc)
Executed Assembly Steps:
  1. 7009e994: e12fff30     	blx	r0

Sync: Idx:63781; ID:10;	BRANCH_ADDRESS : Branch address.; Addr=0x7009A2DC ~[0x22DC];

P_HDR Event: Idx:63783 (Pattern: E, Function: _nop)
Executed Assembly Steps:
  1. 7009a2dc: e12fff1e     	bx	lr

Sync: Idx:63784; ID:10;	BRANCH_ADDRESS : Branch address.; Addr=0x7009E998 ~[0x6998];

P_HDR Event: Idx:63786 (Pattern: EE, Function: fputc)
Executed Assembly Steps:
  1. 7009e998: e6ef0075     	uxtb	r0, r5
  2. 7009e99c: e8bd883c     	pop	{r2, r3, r4, r5, r11, pc}

Sync: Idx:63787; ID:10;	BRANCH_ADDRESS : Branch address.; Addr=0x700A4E88 ~[0x700A4E88]; ISA=Thumb2;

P_HDR Event: Idx:63793 (Pattern: EEEEEEEEEEEEEEE, Function: putchar_)
Executed Assembly Steps:
  1. 700a4e88: 4620         	mov	r0, r4
  2. 700a4e8a: f7f8 fa11    	bl	0x7009d2b0 <DebugP_memLogWriterPutChar> @ imm = #-0x7bde
  3. 7009d2b0: b580         	push	{r7, lr}
  4. 7009d2b2: b088         	sub	sp, #0x20
  5. 7009d2b4: f88d 001f    	strb.w	r0, [sp, #0x1f]
  6. 7009d2b8: f247 30cc    	movw	r0, #0x73cc
  7. 7009d2bc: f2c7 000a    	movt	r0, #0x700a
  8. 7009d2c0: 6800         	ldr	r0, [r0]
  9. 7009d2c2: bb40         	cbnz	r0, 0x7009d316 <DebugP_memLogWriterPutChar+0x66> @ imm = #0x50
  10. 7009d316: f89d 001f    	ldrb.w	r0, [sp, #0x1f]
  11. 7009d31a: f247 31cc    	movw	r1, #0x73cc
  12. 7009d31e: f2c7 010a    	movt	r1, #0x700a
  13. 7009d322: 680b         	ldr	r3, [r1]
  14. 7009d324: f644 42e0    	movw	r2, #0x4ce0
  15. 7009d328: f2c7 0208    	movt	r2, #0x7008

P_HDR Event: Idx:63794 (Pattern: EEEEEEN, Function: DebugP_memLogWriterPutChar)
Executed Assembly Steps:
  1. 7009d32c: 54d0         	strb	r0, [r2, r3]
  2. 7009d32e: 6808         	ldr	r0, [r1]
  3. 7009d330: 3001         	adds	r0, #0x1
  4. 7009d332: 6008         	str	r0, [r1]
  5. 7009d334: f89d 001f    	ldrb.w	r0, [sp, #0x1f]
  6. 7009d338: 280a         	cmp	r0, #0xa
  7. 7009d33a: d008         	beq	0x7009d34e <DebugP_memLogWriterPutChar+0x9e> @ imm = #0x10

P_HDR Event: Idx:63795 (Pattern: EEEEEEEE, Function: DebugP_memLogWriterPutChar)
Executed Assembly Steps:
  1. 7009d33c: e7ff         	b	0x7009d33e <DebugP_memLogWriterPutChar+0x8e> @ imm = #-0x2
  2. 7009d33e: f247 30cc    	movw	r0, #0x73cc
  3. 7009d342: f2c7 000a    	movt	r0, #0x700a
  4. 7009d346: 6800         	ldr	r0, [r0]
  5. 7009d348: 2878         	cmp	r0, #0x78
  6. 7009d34a: d350         	blo	0x7009d3ee <DebugP_memLogWriterPutChar+0x13e> @ imm = #0xa0
  7. 7009d3ee: b008         	add	sp, #0x20
  8. 7009d3f0: bd80         	pop	{r7, pc}

Sync: Idx:63796; ID:10;	BRANCH_ADDRESS : Branch address.; Addr=0x700A4E8E ~[0xE];

P_HDR Event: Idx:63797 (Pattern: EEEEEEEEEEEEEEE, Function: putchar_)
Executed Assembly Steps:
  1. 700a4e8e: 4620         	mov	r0, r4
  2. 700a4e90: e8bd 4010    	pop.w	{r4, lr}
  3. 700a4e94: f7fe bd2c    	b.w	0x700a38f0 <DebugP_uartLogWriterPutChar> @ imm = #-0x15a8
  4. 700a38f0: b580         	push	{r7, lr}
  5. 700a38f2: b088         	sub	sp, #0x20
  6. 700a38f4: f88d 001f    	strb.w	r0, [sp, #0x1f]
  7. 700a38f8: f89d 001f    	ldrb.w	r0, [sp, #0x1f]
  8. 700a38fc: f88d 001e    	strb.w	r0, [sp, #0x1e]
  9. 700a3900: f247 40e0    	movw	r0, #0x74e0
  10. 700a3904: f2c7 000a    	movt	r0, #0x700a
  11. 700a3908: 6800         	ldr	r0, [r0]
  12. 700a390a: f7ff fe41    	bl	0x700a3590 <UART_getHandle> @ imm = #-0x37e
  13. 700a3590: b083         	sub	sp, #0xc
  14. 700a3592: 9002         	str	r0, [sp, #0x8]
  15. 700a3594: 2000         	movs	r0, #0x0

P_HDR Event: Idx:63798 (Pattern: EEEEEEN, Function: UART_getHandle)
Executed Assembly Steps:
  1. 700a3596: 9001         	str	r0, [sp, #0x4]
  2. 700a3598: 9802         	ldr	r0, [sp, #0x8]
  3. 700a359a: f247 41e8    	movw	r1, #0x74e8
  4. 700a359e: f2c7 010a    	movt	r1, #0x700a
  5. 700a35a2: 6809         	ldr	r1, [r1]
  6. 700a35a4: 4288         	cmp	r0, r1
  7. 700a35a6: d217         	bhs	0x700a35d8 <UART_getHandle+0x48> @ imm = #0x2e

P_HDR Event: Idx:63799 (Pattern: EEEEEEEEN, Function: UART_getHandle)
Executed Assembly Steps:
  1. 700a35a8: e7ff         	b	0x700a35aa <UART_getHandle+0x1a> @ imm = #-0x2
  2. 700a35aa: 9902         	ldr	r1, [sp, #0x8]
  3. 700a35ac: f247 40a8    	movw	r0, #0x74a8
  4. 700a35b0: f2c7 000a    	movt	r0, #0x700a
  5. 700a35b4: eb00 00c1    	add.w	r0, r0, r1, lsl #3
  6. 700a35b8: 6840         	ldr	r0, [r0, #0x4]
  7. 700a35ba: 9000         	str	r0, [sp]
  8. 700a35bc: 9800         	ldr	r0, [sp]
  9. 700a35be: b150         	cbz	r0, 0x700a35d6 <UART_getHandle+0x46> @ imm = #0x14

P_HDR Event: Idx:63800 (Pattern: EEEEEEEEE, Function: UART_getHandle)
Executed Assembly Steps:
  1. 700a35c0: e7ff         	b	0x700a35c2 <UART_getHandle+0x32> @ imm = #-0x2
  2. 700a35c2: 9800         	ldr	r0, [sp]
  3. 700a35c4: f8d0 0084    	ldr.w	r0, [r0, #0x84]
  4. 700a35c8: 2801         	cmp	r0, #0x1
  5. 700a35ca: d104         	bne	0x700a35d6 <UART_getHandle+0x46> @ imm = #0x8
  6. 700a35d6: e7ff         	b	0x700a35d8 <UART_getHandle+0x48> @ imm = #-0x2
  7. 700a35d8: 9801         	ldr	r0, [sp, #0x4]
  8. 700a35da: b003         	add	sp, #0xc
  9. 700a35dc: 4770         	bx	lr

Sync: Idx:63801; ID:10;	BRANCH_ADDRESS : Branch address.; Addr=0x700A390E ~[0xA390E];

P_HDR Event: Idx:63804 (Pattern: EEEEE, Function: DebugP_uartLogWriterPutChar)
Executed Assembly Steps:
  1. 700a390e: 9006         	str	r0, [sp, #0x18]
  2. 700a3910: 9806         	ldr	r0, [sp, #0x18]
  3. 700a3912: b170         	cbz	r0, 0x700a3932 <DebugP_uartLogWriterPutChar+0x42> @ imm = #0x1c
  4. 700a3932: b008         	add	sp, #0x20
  5. 700a3934: bd80         	pop	{r7, pc}

Sync: Idx:63805; ID:10;	BRANCH_ADDRESS : Branch address.; Addr=0x700A4A3E ~[0xA4A3E];

P_HDR Event: Idx:63809 (Pattern: EEE, Function: _out_char)
Executed Assembly Steps:
  1. 700a4a3e: e7ff         	b	0x700a4a40 <_out_char+0x20> @ imm = #-0x2
  2. 700a4a40: b004         	add	sp, #0x10
  3. 700a4a42: bd80         	pop	{r7, pc}

Sync: Idx:63810; ID:10;	BRANCH_ADDRESS : Branch address.; Addr=0x70098F58 ~[0x98F58];

P_HDR Event: Idx:63813 (Pattern: EEEEEEEN, Function: _vsnprintf)
Executed Assembly Steps:
  1. 70098f58: 983c         	ldr	r0, [sp, #0xf0]
  2. 70098f5a: 3001         	adds	r0, #0x1
  3. 70098f5c: 903c         	str	r0, [sp, #0xf0]
  4. 70098f5e: e7e6         	b	0x70098f2e <_vsnprintf+0x2e> @ imm = #-0x34
  5. 70098f2e: 983c         	ldr	r0, [sp, #0xf0]
  6. 70098f30: 7800         	ldrb	r0, [r0]
  7. 70098f32: 2800         	cmp	r0, #0x0
  8. 70098f34: f000 84e3    	beq.w	0x700998fe <_vsnprintf+0x9fe> @ imm = #0x9c6

P_HDR Event: Idx:63814 (Pattern: EEEEN, Function: _vsnprintf)
Executed Assembly Steps:
  1. 70098f38: e7ff         	b	0x70098f3a <_vsnprintf+0x3a> @ imm = #-0x2
  2. 70098f3a: 983c         	ldr	r0, [sp, #0xf0]
  3. 70098f3c: 7800         	ldrb	r0, [r0]
  4. 70098f3e: 2825         	cmp	r0, #0x25
  5. 70098f40: d00e         	beq	0x70098f60 <_vsnprintf+0x60> @ imm = #0x1c

P_HDR Event: Idx:63815 (Pattern: EEEEEEEEEE, Function: _vsnprintf)
Executed Assembly Steps:
  1. 70098f42: e7ff         	b	0x70098f44 <_vsnprintf+0x44> @ imm = #-0x2
  2. 70098f44: f8dd c0fc    	ldr.w	r12, [sp, #0xfc]
  3. 70098f48: 983c         	ldr	r0, [sp, #0xf0]
  4. 70098f4a: 7800         	ldrb	r0, [r0]
  5. 70098f4c: 993e         	ldr	r1, [sp, #0xf8]
  6. 70098f4e: 9a37         	ldr	r2, [sp, #0xdc]
  7. 70098f50: 1c53         	adds	r3, r2, #0x1
  8. 70098f52: 9337         	str	r3, [sp, #0xdc]
  9. 70098f54: 9b3d         	ldr	r3, [sp, #0xf4]
  10. 70098f56: 47e0         	blx	r12

Sync: Idx:63816; ID:10;	BRANCH_ADDRESS : Branch address.; Addr=0x700A4A20 ~[0xA4A20];

P_HDR Event: Idx:63819 (Pattern: EEEEEEEN, Function: _out_char)
Executed Assembly Steps:
  1. 700a4a20: b580         	push	{r7, lr}
  2. 700a4a22: b084         	sub	sp, #0x10
  3. 700a4a24: f88d 000f    	strb.w	r0, [sp, #0xf]
  4. 700a4a28: 9102         	str	r1, [sp, #0x8]
  5. 700a4a2a: 9201         	str	r2, [sp, #0x4]
  6. 700a4a2c: 9300         	str	r3, [sp]
  7. 700a4a2e: f89d 000f    	ldrb.w	r0, [sp, #0xf]
  8. 700a4a32: b128         	cbz	r0, 0x700a4a40 <_out_char+0x20> @ imm = #0xa

P_HDR Event: Idx:63820 (Pattern: EEEEEE, Function: _out_char)
Executed Assembly Steps:
  1. 700a4a34: e7ff         	b	0x700a4a36 <_out_char+0x16> @ imm = #-0x2
  2. 700a4a36: f89d 000f    	ldrb.w	r0, [sp, #0xf]
  3. 700a4a3a: f000 fa21    	bl	0x700a4e80 <putchar_>   @ imm = #0x442
  4. 700a4e80: b510         	push	{r4, lr}
  5. 700a4e82: 4604         	mov	r4, r0
  6. 700a4e84: f000 e9ac    	blx	0x700a51e0 <putchar>    @ imm = #0x358

Sync: Idx:63821; ID:10;	BRANCH_ADDRESS : Branch address.; Addr=0x700A51E0 ~[0x700A51E0]; ISA=ARM(32);

P_HDR Event: Idx:63827 (Pattern: EEEEEEEEE, Function: putchar)
Executed Assembly Steps:
  1. 700a51e0: e59f1004     	ldr	r1, [pc, #0x4]          @ 0x700a51ec <putchar+0xc>
  2. 700a51e4: e2811018     	add	r1, r1, #24
  3. 700a51e8: eaffe5b1     	b	0x7009e8b4 <fputc>      @ imm = #-0x693c
  4. 7009e8b4: e92d483c     	push	{r2, r3, r4, r5, r11, lr}
  5. 7009e8b8: e59f20e0     	ldr	r2, [pc, #0xe0]         @ 0x7009e9a0 <fputc+0xec>
  6. 7009e8bc: e1a04001     	mov	r4, r1
  7. 7009e8c0: e1a05000     	mov	r5, r0
  8. 7009e8c4: e5922000     	ldr	r2, [r2]
  9. 7009e8c8: e12fff32     	blx	r2

Sync: Idx:63828; ID:10;	BRANCH_ADDRESS : Branch address.; Addr=0x7009A2DC ~[0x9A2DC];

P_HDR Event: Idx:63831 (Pattern: E, Function: _nop)
Executed Assembly Steps:
  1. 7009a2dc: e12fff1e     	bx	lr

Sync: Idx:63832; ID:10;	BRANCH_ADDRESS : Branch address.; Addr=0x7009E8CC ~[0x68CC];

P_HDR Event: Idx:63834 (Pattern: EEEEEEEN, Function: fputc)
Executed Assembly Steps:
  1. 7009e8cc: e1a00004     	mov	r0, r4
  2. 7009e8d0: eb000949     	bl	0x700a0dfc <__TI_wrt_ok> @ imm = #0x2524
  3. 700a0dfc: e92d4010     	push	{r4, lr}
  4. 700a0e00: e1a04000     	mov	r4, r0
  5. 700a0e04: e5901000     	ldr	r1, [r0]
  6. 700a0e08: e3a00000     	mov	r0, #0
  7. 700a0e0c: e3710001     	cmn	r1, #1
  8. 700a0e10: 0a00001c     	beq	0x700a0e88 <__TI_wrt_ok+0x8c> @ imm = #0x70

P_HDR Event: Idx:63835 (Pattern: EEN, Function: __TI_wrt_ok)
Executed Assembly Steps:
  1. 700a0e14: e5941014     	ldr	r1, [r4, #0x14]
  2. 700a0e18: e3110010     	tst	r1, #16
  3. 700a0e1c: 1a00001a     	bne	0x700a0e8c <__TI_wrt_ok+0x90> @ imm = #0x68

P_HDR Event: Idx:63836 (Pattern: EEEEEEEE, Function: __TI_wrt_ok)
Executed Assembly Steps:
  1. 700a0e20: e3110080     	tst	r1, #128
  2. 700a0e24: 0a000004     	beq	0x700a0e3c <__TI_wrt_ok+0x40> @ imm = #0x10
  3. 700a0e3c: e2010060     	and	r0, r1, #96
  4. 700a0e40: e3500040     	cmp	r0, #64
  5. 700a0e44: 1a000001     	bne	0x700a0e50 <__TI_wrt_ok+0x54> @ imm = #0x4
  6. 700a0e50: e5942004     	ldr	r2, [r4, #0x4]
  7. 700a0e54: e3a00001     	mov	r0, #1
  8. 700a0e58: e3520000     	cmp	r2, #0

P_HDR Event: Idx:63837 (Pattern: NE, Function: __TI_wrt_ok)
Executed Assembly Steps:
  1. 700a0e5c: 02112004     	andseq	r2, r1, #4
  2. 700a0e60: 1a000006     	bne	0x700a0e80 <__TI_wrt_ok+0x84> @ imm = #0x18

P_HDR Event: Idx:63838 (Pattern: EEE, Function: __TI_wrt_ok)
Executed Assembly Steps:
  1. 700a0e80: e594100c     	ldr	r1, [r4, #0xc]
  2. 700a0e84: e5841010     	str	r1, [r4, #0x10]
  3. 700a0e88: e8bd8010     	pop	{r4, pc}

Sync: Idx:63840; ID:10;	BRANCH_ADDRESS : Branch address.; Addr=0x7009E8D4 ~[0xD4];

P_HDR Event: Idx:63841 (Pattern: EN, Function: fputc)
Executed Assembly Steps:
  1. 7009e8d4: e3500000     	cmp	r0, #0
  2. 7009e8d8: 0a00000b     	beq	0x7009e90c <fputc+0x58> @ imm = #0x2c

P_HDR Event: Idx:63842 (Pattern: EEEEEEEEEEEEEEE, Function: fputc)
Executed Assembly Steps:
  1. 7009e8dc: e5940014     	ldr	r0, [r4, #0x14]
  2. 7009e8e0: e2000007     	and	r0, r0, #7
  3. 7009e8e4: e3500004     	cmp	r0, #4
  4. 7009e8e8: 1a00000a     	bne	0x7009e918 <fputc+0x64> @ imm = #0x28
  5. 7009e918: e5940008     	ldr	r0, [r4, #0x8]
  6. 7009e91c: e594100c     	ldr	r1, [r4, #0xc]
  7. 7009e920: e1500001     	cmp	r0, r1
  8. 7009e924: 3a000004     	blo	0x7009e93c <fputc+0x88> @ imm = #0x10
  9. 7009e93c: e2801001     	add	r1, r0, #1
  10. 7009e940: e355000a     	cmp	r5, #10
  11. 7009e944: e5841008     	str	r1, [r4, #0x8]
  12. 7009e948: e5c05000     	strb	r5, [r0]
  13. 7009e94c: 1a00000e     	bne	0x7009e98c <fputc+0xd8> @ imm = #0x38
  14. 7009e98c: e59f0010     	ldr	r0, [pc, #0x10]         @ 0x7009e9a4 <fputc+0xf0>
  15. 7009e990: e5900000     	ldr	r0, [r0]

P_HDR Event: Idx:63843 (Pattern: E, Function: fputc)
Executed Assembly Steps:
  1. 7009e994: e12fff30     	blx	r0

Sync: Idx:63844; ID:10;	BRANCH_ADDRESS : Branch address.; Addr=0x7009A2DC ~[0x22DC];

P_HDR Event: Idx:63846 (Pattern: E, Function: _nop)
Executed Assembly Steps:
  1. 7009a2dc: e12fff1e     	bx	lr

Sync: Idx:63848; ID:10;	BRANCH_ADDRESS : Branch address.; Addr=0x7009E998 ~[0x6998];

P_HDR Event: Idx:63850 (Pattern: EE, Function: fputc)
Executed Assembly Steps:
  1. 7009e998: e6ef0075     	uxtb	r0, r5
  2. 7009e99c: e8bd883c     	pop	{r2, r3, r4, r5, r11, pc}

Sync: Idx:63851; ID:10;	BRANCH_ADDRESS : Branch address.; Addr=0x700A4E88 ~[0x700A4E88]; ISA=Thumb2;

P_HDR Event: Idx:63859 (Pattern: EEEEEEEEEEEEEEE, Function: putchar_)
Executed Assembly Steps:
  1. 700a4e88: 4620         	mov	r0, r4
  2. 700a4e8a: f7f8 fa11    	bl	0x7009d2b0 <DebugP_memLogWriterPutChar> @ imm = #-0x7bde
  3. 7009d2b0: b580         	push	{r7, lr}
  4. 7009d2b2: b088         	sub	sp, #0x20
  5. 7009d2b4: f88d 001f    	strb.w	r0, [sp, #0x1f]
  6. 7009d2b8: f247 30cc    	movw	r0, #0x73cc
  7. 7009d2bc: f2c7 000a    	movt	r0, #0x700a
  8. 7009d2c0: 6800         	ldr	r0, [r0]
  9. 7009d2c2: bb40         	cbnz	r0, 0x7009d316 <DebugP_memLogWriterPutChar+0x66> @ imm = #0x50
  10. 7009d316: f89d 001f    	ldrb.w	r0, [sp, #0x1f]
  11. 7009d31a: f247 31cc    	movw	r1, #0x73cc
  12. 7009d31e: f2c7 010a    	movt	r1, #0x700a
  13. 7009d322: 680b         	ldr	r3, [r1]
  14. 7009d324: f644 42e0    	movw	r2, #0x4ce0
  15. 7009d328: f2c7 0208    	movt	r2, #0x7008

P_HDR Event: Idx:63860 (Pattern: EEEEEEN, Function: DebugP_memLogWriterPutChar)
Executed Assembly Steps:
  1. 7009d32c: 54d0         	strb	r0, [r2, r3]
  2. 7009d32e: 6808         	ldr	r0, [r1]
  3. 7009d330: 3001         	adds	r0, #0x1
  4. 7009d332: 6008         	str	r0, [r1]
  5. 7009d334: f89d 001f    	ldrb.w	r0, [sp, #0x1f]
  6. 7009d338: 280a         	cmp	r0, #0xa
  7. 7009d33a: d008         	beq	0x7009d34e <DebugP_memLogWriterPutChar+0x9e> @ imm = #0x10

P_HDR Event: Idx:63861 (Pattern: EEEEEEEE, Function: DebugP_memLogWriterPutChar)
Executed Assembly Steps:
  1. 7009d33c: e7ff         	b	0x7009d33e <DebugP_memLogWriterPutChar+0x8e> @ imm = #-0x2
  2. 7009d33e: f247 30cc    	movw	r0, #0x73cc
  3. 7009d342: f2c7 000a    	movt	r0, #0x700a
  4. 7009d346: 6800         	ldr	r0, [r0]
  5. 7009d348: 2878         	cmp	r0, #0x78
  6. 7009d34a: d350         	blo	0x7009d3ee <DebugP_memLogWriterPutChar+0x13e> @ imm = #0xa0
  7. 7009d3ee: b008         	add	sp, #0x20
  8. 7009d3f0: bd80         	pop	{r7, pc}

Sync: Idx:63862; ID:10;	BRANCH_ADDRESS : Branch address.; Addr=0x700A4E8E ~[0xE];

P_HDR Event: Idx:63863 (Pattern: EEEEEEEEEEEEEEE, Function: putchar_)
Executed Assembly Steps:
  1. 700a4e8e: 4620         	mov	r0, r4
  2. 700a4e90: e8bd 4010    	pop.w	{r4, lr}
  3. 700a4e94: f7fe bd2c    	b.w	0x700a38f0 <DebugP_uartLogWriterPutChar> @ imm = #-0x15a8
  4. 700a38f0: b580         	push	{r7, lr}
  5. 700a38f2: b088         	sub	sp, #0x20
  6. 700a38f4: f88d 001f    	strb.w	r0, [sp, #0x1f]
  7. 700a38f8: f89d 001f    	ldrb.w	r0, [sp, #0x1f]
  8. 700a38fc: f88d 001e    	strb.w	r0, [sp, #0x1e]
  9. 700a3900: f247 40e0    	movw	r0, #0x74e0
  10. 700a3904: f2c7 000a    	movt	r0, #0x700a
  11. 700a3908: 6800         	ldr	r0, [r0]
  12. 700a390a: f7ff fe41    	bl	0x700a3590 <UART_getHandle> @ imm = #-0x37e
  13. 700a3590: b083         	sub	sp, #0xc
  14. 700a3592: 9002         	str	r0, [sp, #0x8]
  15. 700a3594: 2000         	movs	r0, #0x0

P_HDR Event: Idx:63864 (Pattern: EEEEEEN, Function: UART_getHandle)
Executed Assembly Steps:
  1. 700a3596: 9001         	str	r0, [sp, #0x4]
  2. 700a3598: 9802         	ldr	r0, [sp, #0x8]
  3. 700a359a: f247 41e8    	movw	r1, #0x74e8
  4. 700a359e: f2c7 010a    	movt	r1, #0x700a
  5. 700a35a2: 6809         	ldr	r1, [r1]
  6. 700a35a4: 4288         	cmp	r0, r1
  7. 700a35a6: d217         	bhs	0x700a35d8 <UART_getHandle+0x48> @ imm = #0x2e

P_HDR Event: Idx:63865 (Pattern: EEEEEEEEN, Function: UART_getHandle)
Executed Assembly Steps:
  1. 700a35a8: e7ff         	b	0x700a35aa <UART_getHandle+0x1a> @ imm = #-0x2
  2. 700a35aa: 9902         	ldr	r1, [sp, #0x8]
  3. 700a35ac: f247 40a8    	movw	r0, #0x74a8
  4. 700a35b0: f2c7 000a    	movt	r0, #0x700a
  5. 700a35b4: eb00 00c1    	add.w	r0, r0, r1, lsl #3
  6. 700a35b8: 6840         	ldr	r0, [r0, #0x4]
  7. 700a35ba: 9000         	str	r0, [sp]
  8. 700a35bc: 9800         	ldr	r0, [sp]
  9. 700a35be: b150         	cbz	r0, 0x700a35d6 <UART_getHandle+0x46> @ imm = #0x14

P_HDR Event: Idx:63866 (Pattern: EEEEEEEEE, Function: UART_getHandle)
Executed Assembly Steps:
  1. 700a35c0: e7ff         	b	0x700a35c2 <UART_getHandle+0x32> @ imm = #-0x2
  2. 700a35c2: 9800         	ldr	r0, [sp]
  3. 700a35c4: f8d0 0084    	ldr.w	r0, [r0, #0x84]
  4. 700a35c8: 2801         	cmp	r0, #0x1
  5. 700a35ca: d104         	bne	0x700a35d6 <UART_getHandle+0x46> @ imm = #0x8
  6. 700a35d6: e7ff         	b	0x700a35d8 <UART_getHandle+0x48> @ imm = #-0x2
  7. 700a35d8: 9801         	ldr	r0, [sp, #0x4]
  8. 700a35da: b003         	add	sp, #0xc
  9. 700a35dc: 4770         	bx	lr

Sync: Idx:63867; ID:10;	BRANCH_ADDRESS : Branch address.; Addr=0x700A390E ~[0xA390E];

P_HDR Event: Idx:63870 (Pattern: EEEEE, Function: DebugP_uartLogWriterPutChar)
Executed Assembly Steps:
  1. 700a390e: 9006         	str	r0, [sp, #0x18]
  2. 700a3910: 9806         	ldr	r0, [sp, #0x18]
  3. 700a3912: b170         	cbz	r0, 0x700a3932 <DebugP_uartLogWriterPutChar+0x42> @ imm = #0x1c
  4. 700a3932: b008         	add	sp, #0x20
  5. 700a3934: bd80         	pop	{r7, pc}

Sync: Idx:63872; ID:10;	BRANCH_ADDRESS : Branch address.; Addr=0x700A4A3E ~[0xA4A3E];

P_HDR Event: Idx:63875 (Pattern: EEE, Function: _out_char)
Executed Assembly Steps:
  1. 700a4a3e: e7ff         	b	0x700a4a40 <_out_char+0x20> @ imm = #-0x2
  2. 700a4a40: b004         	add	sp, #0x10
  3. 700a4a42: bd80         	pop	{r7, pc}

Sync: Idx:63876; ID:10;	BRANCH_ADDRESS : Branch address.; Addr=0x70098F58 ~[0x98F58];

P_HDR Event: Idx:63879 (Pattern: EEEEEEEN, Function: _vsnprintf)
Executed Assembly Steps:
  1. 70098f58: 983c         	ldr	r0, [sp, #0xf0]
  2. 70098f5a: 3001         	adds	r0, #0x1
  3. 70098f5c: 903c         	str	r0, [sp, #0xf0]
  4. 70098f5e: e7e6         	b	0x70098f2e <_vsnprintf+0x2e> @ imm = #-0x34
  5. 70098f2e: 983c         	ldr	r0, [sp, #0xf0]
  6. 70098f30: 7800         	ldrb	r0, [r0]
  7. 70098f32: 2800         	cmp	r0, #0x0
  8. 70098f34: f000 84e3    	beq.w	0x700998fe <_vsnprintf+0x9fe> @ imm = #0x9c6

P_HDR Event: Idx:63880 (Pattern: EEEEN, Function: _vsnprintf)
Executed Assembly Steps:
  1. 70098f38: e7ff         	b	0x70098f3a <_vsnprintf+0x3a> @ imm = #-0x2
  2. 70098f3a: 983c         	ldr	r0, [sp, #0xf0]
  3. 70098f3c: 7800         	ldrb	r0, [r0]
  4. 70098f3e: 2825         	cmp	r0, #0x25
  5. 70098f40: d00e         	beq	0x70098f60 <_vsnprintf+0x60> @ imm = #0x1c

P_HDR Event: Idx:63881 (Pattern: EEEEEEEEEE, Function: _vsnprintf)
Executed Assembly Steps:
  1. 70098f42: e7ff         	b	0x70098f44 <_vsnprintf+0x44> @ imm = #-0x2
  2. 70098f44: f8dd c0fc    	ldr.w	r12, [sp, #0xfc]
  3. 70098f48: 983c         	ldr	r0, [sp, #0xf0]
  4. 70098f4a: 7800         	ldrb	r0, [r0]
  5. 70098f4c: 993e         	ldr	r1, [sp, #0xf8]
  6. 70098f4e: 9a37         	ldr	r2, [sp, #0xdc]
  7. 70098f50: 1c53         	adds	r3, r2, #0x1
  8. 70098f52: 9337         	str	r3, [sp, #0xdc]
  9. 70098f54: 9b3d         	ldr	r3, [sp, #0xf4]
  10. 70098f56: 47e0         	blx	r12

Sync: Idx:63882; ID:10;	BRANCH_ADDRESS : Branch address.; Addr=0x700A4A20 ~[0xA4A20];

P_HDR Event: Idx:63885 (Pattern: EEEEEEEN, Function: _out_char)
Executed Assembly Steps:
  1. 700a4a20: b580         	push	{r7, lr}
  2. 700a4a22: b084         	sub	sp, #0x10
  3. 700a4a24: f88d 000f    	strb.w	r0, [sp, #0xf]
  4. 700a4a28: 9102         	str	r1, [sp, #0x8]
  5. 700a4a2a: 9201         	str	r2, [sp, #0x4]
  6. 700a4a2c: 9300         	str	r3, [sp]
  7. 700a4a2e: f89d 000f    	ldrb.w	r0, [sp, #0xf]
  8. 700a4a32: b128         	cbz	r0, 0x700a4a40 <_out_char+0x20> @ imm = #0xa

P_HDR Event: Idx:63886 (Pattern: EEEEEE, Function: _out_char)
Executed Assembly Steps:
  1. 700a4a34: e7ff         	b	0x700a4a36 <_out_char+0x16> @ imm = #-0x2
  2. 700a4a36: f89d 000f    	ldrb.w	r0, [sp, #0xf]
  3. 700a4a3a: f000 fa21    	bl	0x700a4e80 <putchar_>   @ imm = #0x442
  4. 700a4e80: b510         	push	{r4, lr}
  5. 700a4e82: 4604         	mov	r4, r0
  6. 700a4e84: f000 e9ac    	blx	0x700a51e0 <putchar>    @ imm = #0x358

Sync: Idx:63888; ID:10;	BRANCH_ADDRESS : Branch address.; Addr=0x700A51E0 ~[0x700A51E0]; ISA=ARM(32);

P_HDR Event: Idx:63899 (Pattern: EEEEEEEEE, Function: putchar)
Executed Assembly Steps:
  1. 700a51e0: e59f1004     	ldr	r1, [pc, #0x4]          @ 0x700a51ec <putchar+0xc>
  2. 700a51e4: e2811018     	add	r1, r1, #24
  3. 700a51e8: eaffe5b1     	b	0x7009e8b4 <fputc>      @ imm = #-0x693c
  4. 7009e8b4: e92d483c     	push	{r2, r3, r4, r5, r11, lr}
  5. 7009e8b8: e59f20e0     	ldr	r2, [pc, #0xe0]         @ 0x7009e9a0 <fputc+0xec>
  6. 7009e8bc: e1a04001     	mov	r4, r1
  7. 7009e8c0: e1a05000     	mov	r5, r0
  8. 7009e8c4: e5922000     	ldr	r2, [r2]
  9. 7009e8c8: e12fff32     	blx	r2

Sync: Idx:63900; ID:10;	BRANCH_ADDRESS : Branch address.; Addr=0x7009A2DC ~[0x9A2DC];

P_HDR Event: Idx:63904 (Pattern: E, Function: _nop)
Executed Assembly Steps:
  1. 7009a2dc: e12fff1e     	bx	lr

Sync: Idx:63905; ID:10;	BRANCH_ADDRESS : Branch address.; Addr=0x7009E8CC ~[0x68CC];

P_HDR Event: Idx:63907 (Pattern: EEEEEEEN, Function: fputc)
Executed Assembly Steps:
  1. 7009e8cc: e1a00004     	mov	r0, r4
  2. 7009e8d0: eb000949     	bl	0x700a0dfc <__TI_wrt_ok> @ imm = #0x2524
  3. 700a0dfc: e92d4010     	push	{r4, lr}
  4. 700a0e00: e1a04000     	mov	r4, r0
  5. 700a0e04: e5901000     	ldr	r1, [r0]
  6. 700a0e08: e3a00000     	mov	r0, #0
  7. 700a0e0c: e3710001     	cmn	r1, #1
  8. 700a0e10: 0a00001c     	beq	0x700a0e88 <__TI_wrt_ok+0x8c> @ imm = #0x70

P_HDR Event: Idx:63908 (Pattern: EEN, Function: __TI_wrt_ok)
Executed Assembly Steps:
  1. 700a0e14: e5941014     	ldr	r1, [r4, #0x14]
  2. 700a0e18: e3110010     	tst	r1, #16
  3. 700a0e1c: 1a00001a     	bne	0x700a0e8c <__TI_wrt_ok+0x90> @ imm = #0x68

P_HDR Event: Idx:63909 (Pattern: EEEEEEEE, Function: __TI_wrt_ok)
Executed Assembly Steps:
  1. 700a0e20: e3110080     	tst	r1, #128
  2. 700a0e24: 0a000004     	beq	0x700a0e3c <__TI_wrt_ok+0x40> @ imm = #0x10
  3. 700a0e3c: e2010060     	and	r0, r1, #96
  4. 700a0e40: e3500040     	cmp	r0, #64
  5. 700a0e44: 1a000001     	bne	0x700a0e50 <__TI_wrt_ok+0x54> @ imm = #0x4
  6. 700a0e50: e5942004     	ldr	r2, [r4, #0x4]
  7. 700a0e54: e3a00001     	mov	r0, #1
  8. 700a0e58: e3520000     	cmp	r2, #0

P_HDR Event: Idx:63910 (Pattern: NE, Function: __TI_wrt_ok)
Executed Assembly Steps:
  1. 700a0e5c: 02112004     	andseq	r2, r1, #4
  2. 700a0e60: 1a000006     	bne	0x700a0e80 <__TI_wrt_ok+0x84> @ imm = #0x18

P_HDR Event: Idx:63911 (Pattern: EEE, Function: __TI_wrt_ok)
Executed Assembly Steps:
  1. 700a0e80: e594100c     	ldr	r1, [r4, #0xc]
  2. 700a0e84: e5841010     	str	r1, [r4, #0x10]
  3. 700a0e88: e8bd8010     	pop	{r4, pc}

Sync: Idx:63912; ID:10;	BRANCH_ADDRESS : Branch address.; Addr=0x7009E8D4 ~[0xD4];

P_HDR Event: Idx:63913 (Pattern: EN, Function: fputc)
Executed Assembly Steps:
  1. 7009e8d4: e3500000     	cmp	r0, #0
  2. 7009e8d8: 0a00000b     	beq	0x7009e90c <fputc+0x58> @ imm = #0x2c

P_HDR Event: Idx:63914 (Pattern: EEEEEEEEEEEEEEE, Function: fputc)
Executed Assembly Steps:
  1. 7009e8dc: e5940014     	ldr	r0, [r4, #0x14]
  2. 7009e8e0: e2000007     	and	r0, r0, #7
  3. 7009e8e4: e3500004     	cmp	r0, #4
  4. 7009e8e8: 1a00000a     	bne	0x7009e918 <fputc+0x64> @ imm = #0x28
  5. 7009e918: e5940008     	ldr	r0, [r4, #0x8]
  6. 7009e91c: e594100c     	ldr	r1, [r4, #0xc]
  7. 7009e920: e1500001     	cmp	r0, r1
  8. 7009e924: 3a000004     	blo	0x7009e93c <fputc+0x88> @ imm = #0x10
  9. 7009e93c: e2801001     	add	r1, r0, #1
  10. 7009e940: e355000a     	cmp	r5, #10
  11. 7009e944: e5841008     	str	r1, [r4, #0x8]
  12. 7009e948: e5c05000     	strb	r5, [r0]
  13. 7009e94c: 1a00000e     	bne	0x7009e98c <fputc+0xd8> @ imm = #0x38
  14. 7009e98c: e59f0010     	ldr	r0, [pc, #0x10]         @ 0x7009e9a4 <fputc+0xf0>
  15. 7009e990: e5900000     	ldr	r0, [r0]

P_HDR Event: Idx:63915 (Pattern: E, Function: fputc)
Executed Assembly Steps:
  1. 7009e994: e12fff30     	blx	r0

Sync: Idx:63916; ID:10;	BRANCH_ADDRESS : Branch address.; Addr=0x7009A2DC ~[0x22DC];

P_HDR Event: Idx:63918 (Pattern: E, Function: _nop)
Executed Assembly Steps:
  1. 7009a2dc: e12fff1e     	bx	lr

Sync: Idx:63920; ID:10;	BRANCH_ADDRESS : Branch address.; Addr=0x7009E998 ~[0x6998];

P_HDR Event: Idx:63922 (Pattern: EE, Function: fputc)
Executed Assembly Steps:
  1. 7009e998: e6ef0075     	uxtb	r0, r5
  2. 7009e99c: e8bd883c     	pop	{r2, r3, r4, r5, r11, pc}

Sync: Idx:63923; ID:10;	BRANCH_ADDRESS : Branch address.; Addr=0x700A4E88 ~[0x700A4E88]; ISA=Thumb2;

P_HDR Event: Idx:63928 (Pattern: EEEEEEEEEEEEEEE, Function: putchar_)
Executed Assembly Steps:
  1. 700a4e88: 4620         	mov	r0, r4
  2. 700a4e8a: f7f8 fa11    	bl	0x7009d2b0 <DebugP_memLogWriterPutChar> @ imm = #-0x7bde
  3. 7009d2b0: b580         	push	{r7, lr}
  4. 7009d2b2: b088         	sub	sp, #0x20
  5. 7009d2b4: f88d 001f    	strb.w	r0, [sp, #0x1f]
  6. 7009d2b8: f247 30cc    	movw	r0, #0x73cc
  7. 7009d2bc: f2c7 000a    	movt	r0, #0x700a
  8. 7009d2c0: 6800         	ldr	r0, [r0]
  9. 7009d2c2: bb40         	cbnz	r0, 0x7009d316 <DebugP_memLogWriterPutChar+0x66> @ imm = #0x50
  10. 7009d316: f89d 001f    	ldrb.w	r0, [sp, #0x1f]
  11. 7009d31a: f247 31cc    	movw	r1, #0x73cc
  12. 7009d31e: f2c7 010a    	movt	r1, #0x700a
  13. 7009d322: 680b         	ldr	r3, [r1]
  14. 7009d324: f644 42e0    	movw	r2, #0x4ce0
  15. 7009d328: f2c7 0208    	movt	r2, #0x7008

P_HDR Event: Idx:63929 (Pattern: EEEEEEN, Function: DebugP_memLogWriterPutChar)
Executed Assembly Steps:
  1. 7009d32c: 54d0         	strb	r0, [r2, r3]
  2. 7009d32e: 6808         	ldr	r0, [r1]
  3. 7009d330: 3001         	adds	r0, #0x1
  4. 7009d332: 6008         	str	r0, [r1]
  5. 7009d334: f89d 001f    	ldrb.w	r0, [sp, #0x1f]
  6. 7009d338: 280a         	cmp	r0, #0xa
  7. 7009d33a: d008         	beq	0x7009d34e <DebugP_memLogWriterPutChar+0x9e> @ imm = #0x10

P_HDR Event: Idx:63930 (Pattern: EEEEEEEE, Function: DebugP_memLogWriterPutChar)
Executed Assembly Steps:
  1. 7009d33c: e7ff         	b	0x7009d33e <DebugP_memLogWriterPutChar+0x8e> @ imm = #-0x2
  2. 7009d33e: f247 30cc    	movw	r0, #0x73cc
  3. 7009d342: f2c7 000a    	movt	r0, #0x700a
  4. 7009d346: 6800         	ldr	r0, [r0]
  5. 7009d348: 2878         	cmp	r0, #0x78
  6. 7009d34a: d350         	blo	0x7009d3ee <DebugP_memLogWriterPutChar+0x13e> @ imm = #0xa0
  7. 7009d3ee: b008         	add	sp, #0x20
  8. 7009d3f0: bd80         	pop	{r7, pc}

Sync: Idx:63931; ID:10;	BRANCH_ADDRESS : Branch address.; Addr=0x700A4E8E ~[0xE];

P_HDR Event: Idx:63932 (Pattern: EEEEEEEEEEEEEEE, Function: putchar_)
Executed Assembly Steps:
  1. 700a4e8e: 4620         	mov	r0, r4
  2. 700a4e90: e8bd 4010    	pop.w	{r4, lr}
  3. 700a4e94: f7fe bd2c    	b.w	0x700a38f0 <DebugP_uartLogWriterPutChar> @ imm = #-0x15a8
  4. 700a38f0: b580         	push	{r7, lr}
  5. 700a38f2: b088         	sub	sp, #0x20
  6. 700a38f4: f88d 001f    	strb.w	r0, [sp, #0x1f]
  7. 700a38f8: f89d 001f    	ldrb.w	r0, [sp, #0x1f]
  8. 700a38fc: f88d 001e    	strb.w	r0, [sp, #0x1e]
  9. 700a3900: f247 40e0    	movw	r0, #0x74e0
  10. 700a3904: f2c7 000a    	movt	r0, #0x700a
  11. 700a3908: 6800         	ldr	r0, [r0]
  12. 700a390a: f7ff fe41    	bl	0x700a3590 <UART_getHandle> @ imm = #-0x37e
  13. 700a3590: b083         	sub	sp, #0xc
  14. 700a3592: 9002         	str	r0, [sp, #0x8]
  15. 700a3594: 2000         	movs	r0, #0x0

P_HDR Event: Idx:63933 (Pattern: EEEEEEN, Function: UART_getHandle)
Executed Assembly Steps:
  1. 700a3596: 9001         	str	r0, [sp, #0x4]
  2. 700a3598: 9802         	ldr	r0, [sp, #0x8]
  3. 700a359a: f247 41e8    	movw	r1, #0x74e8
  4. 700a359e: f2c7 010a    	movt	r1, #0x700a
  5. 700a35a2: 6809         	ldr	r1, [r1]
  6. 700a35a4: 4288         	cmp	r0, r1
  7. 700a35a6: d217         	bhs	0x700a35d8 <UART_getHandle+0x48> @ imm = #0x2e

P_HDR Event: Idx:63934 (Pattern: EEEEEEEEN, Function: UART_getHandle)
Executed Assembly Steps:
  1. 700a35a8: e7ff         	b	0x700a35aa <UART_getHandle+0x1a> @ imm = #-0x2
  2. 700a35aa: 9902         	ldr	r1, [sp, #0x8]
  3. 700a35ac: f247 40a8    	movw	r0, #0x74a8
  4. 700a35b0: f2c7 000a    	movt	r0, #0x700a
  5. 700a35b4: eb00 00c1    	add.w	r0, r0, r1, lsl #3
  6. 700a35b8: 6840         	ldr	r0, [r0, #0x4]
  7. 700a35ba: 9000         	str	r0, [sp]
  8. 700a35bc: 9800         	ldr	r0, [sp]
  9. 700a35be: b150         	cbz	r0, 0x700a35d6 <UART_getHandle+0x46> @ imm = #0x14

P_HDR Event: Idx:63936 (Pattern: EEEEEEEEE, Function: UART_getHandle)
Executed Assembly Steps:
  1. 700a35c0: e7ff         	b	0x700a35c2 <UART_getHandle+0x32> @ imm = #-0x2
  2. 700a35c2: 9800         	ldr	r0, [sp]
  3. 700a35c4: f8d0 0084    	ldr.w	r0, [r0, #0x84]
  4. 700a35c8: 2801         	cmp	r0, #0x1
  5. 700a35ca: d104         	bne	0x700a35d6 <UART_getHandle+0x46> @ imm = #0x8
  6. 700a35d6: e7ff         	b	0x700a35d8 <UART_getHandle+0x48> @ imm = #-0x2
  7. 700a35d8: 9801         	ldr	r0, [sp, #0x4]
  8. 700a35da: b003         	add	sp, #0xc
  9. 700a35dc: 4770         	bx	lr

Sync: Idx:63937; ID:10;	BRANCH_ADDRESS : Branch address.; Addr=0x700A390E ~[0xA390E];

P_HDR Event: Idx:63940 (Pattern: EEEEE, Function: DebugP_uartLogWriterPutChar)
Executed Assembly Steps:
  1. 700a390e: 9006         	str	r0, [sp, #0x18]
  2. 700a3910: 9806         	ldr	r0, [sp, #0x18]
  3. 700a3912: b170         	cbz	r0, 0x700a3932 <DebugP_uartLogWriterPutChar+0x42> @ imm = #0x1c
  4. 700a3932: b008         	add	sp, #0x20
  5. 700a3934: bd80         	pop	{r7, pc}

Sync: Idx:63941; ID:10;	BRANCH_ADDRESS : Branch address.; Addr=0x700A4A3E ~[0xA4A3E];

P_HDR Event: Idx:63944 (Pattern: EEE, Function: _out_char)
Executed Assembly Steps:
  1. 700a4a3e: e7ff         	b	0x700a4a40 <_out_char+0x20> @ imm = #-0x2
  2. 700a4a40: b004         	add	sp, #0x10
  3. 700a4a42: bd80         	pop	{r7, pc}

Sync: Idx:63945; ID:10;	BRANCH_ADDRESS : Branch address.; Addr=0x70098F58 ~[0x98F58];

P_HDR Event: Idx:63948 (Pattern: EEEEEEEN, Function: _vsnprintf)
Executed Assembly Steps:
  1. 70098f58: 983c         	ldr	r0, [sp, #0xf0]
  2. 70098f5a: 3001         	adds	r0, #0x1
  3. 70098f5c: 903c         	str	r0, [sp, #0xf0]
  4. 70098f5e: e7e6         	b	0x70098f2e <_vsnprintf+0x2e> @ imm = #-0x34
  5. 70098f2e: 983c         	ldr	r0, [sp, #0xf0]
  6. 70098f30: 7800         	ldrb	r0, [r0]
  7. 70098f32: 2800         	cmp	r0, #0x0
  8. 70098f34: f000 84e3    	beq.w	0x700998fe <_vsnprintf+0x9fe> @ imm = #0x9c6

P_HDR Event: Idx:63949 (Pattern: EEEEN, Function: _vsnprintf)
Executed Assembly Steps:
  1. 70098f38: e7ff         	b	0x70098f3a <_vsnprintf+0x3a> @ imm = #-0x2
  2. 70098f3a: 983c         	ldr	r0, [sp, #0xf0]
  3. 70098f3c: 7800         	ldrb	r0, [r0]
  4. 70098f3e: 2825         	cmp	r0, #0x25
  5. 70098f40: d00e         	beq	0x70098f60 <_vsnprintf+0x60> @ imm = #0x1c

P_HDR Event: Idx:63950 (Pattern: EEEEEEEEEE, Function: _vsnprintf)
Executed Assembly Steps:
  1. 70098f42: e7ff         	b	0x70098f44 <_vsnprintf+0x44> @ imm = #-0x2
  2. 70098f44: f8dd c0fc    	ldr.w	r12, [sp, #0xfc]
  3. 70098f48: 983c         	ldr	r0, [sp, #0xf0]
  4. 70098f4a: 7800         	ldrb	r0, [r0]
  5. 70098f4c: 993e         	ldr	r1, [sp, #0xf8]
  6. 70098f4e: 9a37         	ldr	r2, [sp, #0xdc]
  7. 70098f50: 1c53         	adds	r3, r2, #0x1
  8. 70098f52: 9337         	str	r3, [sp, #0xdc]
  9. 70098f54: 9b3d         	ldr	r3, [sp, #0xf4]
  10. 70098f56: 47e0         	blx	r12

Sync: Idx:63952; ID:10;	BRANCH_ADDRESS : Branch address.; Addr=0x700A4A20 ~[0xA4A20];

P_HDR Event: Idx:63955 (Pattern: EEEEEEEN, Function: _out_char)
Executed Assembly Steps:
  1. 700a4a20: b580         	push	{r7, lr}
  2. 700a4a22: b084         	sub	sp, #0x10
  3. 700a4a24: f88d 000f    	strb.w	r0, [sp, #0xf]
  4. 700a4a28: 9102         	str	r1, [sp, #0x8]
  5. 700a4a2a: 9201         	str	r2, [sp, #0x4]
  6. 700a4a2c: 9300         	str	r3, [sp]
  7. 700a4a2e: f89d 000f    	ldrb.w	r0, [sp, #0xf]
  8. 700a4a32: b128         	cbz	r0, 0x700a4a40 <_out_char+0x20> @ imm = #0xa

P_HDR Event: Idx:63956 (Pattern: EEEEEE, Function: _out_char)
Executed Assembly Steps:
  1. 700a4a34: e7ff         	b	0x700a4a36 <_out_char+0x16> @ imm = #-0x2
  2. 700a4a36: f89d 000f    	ldrb.w	r0, [sp, #0xf]
  3. 700a4a3a: f000 fa21    	bl	0x700a4e80 <putchar_>   @ imm = #0x442
  4. 700a4e80: b510         	push	{r4, lr}
  5. 700a4e82: 4604         	mov	r4, r0
  6. 700a4e84: f000 e9ac    	blx	0x700a51e0 <putchar>    @ imm = #0x358

Sync: Idx:63957; ID:10;	BRANCH_ADDRESS : Branch address.; Addr=0x700A51E0 ~[0x700A51E0]; ISA=ARM(32);

P_HDR Event: Idx:63962 (Pattern: EEEEEEEEE, Function: putchar)
Executed Assembly Steps:
  1. 700a51e0: e59f1004     	ldr	r1, [pc, #0x4]          @ 0x700a51ec <putchar+0xc>
  2. 700a51e4: e2811018     	add	r1, r1, #24
  3. 700a51e8: eaffe5b1     	b	0x7009e8b4 <fputc>      @ imm = #-0x693c
  4. 7009e8b4: e92d483c     	push	{r2, r3, r4, r5, r11, lr}
  5. 7009e8b8: e59f20e0     	ldr	r2, [pc, #0xe0]         @ 0x7009e9a0 <fputc+0xec>
  6. 7009e8bc: e1a04001     	mov	r4, r1
  7. 7009e8c0: e1a05000     	mov	r5, r0
  8. 7009e8c4: e5922000     	ldr	r2, [r2]
  9. 7009e8c8: e12fff32     	blx	r2

Sync: Idx:63963; ID:10;	BRANCH_ADDRESS : Branch address.; Addr=0x7009A2DC ~[0x9A2DC];

P_HDR Event: Idx:63966 (Pattern: E, Function: _nop)
Executed Assembly Steps:
  1. 7009a2dc: e12fff1e     	bx	lr

Sync: Idx:63968; ID:10;	BRANCH_ADDRESS : Branch address.; Addr=0x7009E8CC ~[0x68CC];

P_HDR Event: Idx:63970 (Pattern: EEEEEEEN, Function: fputc)
Executed Assembly Steps:
  1. 7009e8cc: e1a00004     	mov	r0, r4
  2. 7009e8d0: eb000949     	bl	0x700a0dfc <__TI_wrt_ok> @ imm = #0x2524
  3. 700a0dfc: e92d4010     	push	{r4, lr}
  4. 700a0e00: e1a04000     	mov	r4, r0
  5. 700a0e04: e5901000     	ldr	r1, [r0]
  6. 700a0e08: e3a00000     	mov	r0, #0
  7. 700a0e0c: e3710001     	cmn	r1, #1
  8. 700a0e10: 0a00001c     	beq	0x700a0e88 <__TI_wrt_ok+0x8c> @ imm = #0x70

P_HDR Event: Idx:63971 (Pattern: EEN, Function: __TI_wrt_ok)
Executed Assembly Steps:
  1. 700a0e14: e5941014     	ldr	r1, [r4, #0x14]
  2. 700a0e18: e3110010     	tst	r1, #16
  3. 700a0e1c: 1a00001a     	bne	0x700a0e8c <__TI_wrt_ok+0x90> @ imm = #0x68

P_HDR Event: Idx:63972 (Pattern: EEEEEEEE, Function: __TI_wrt_ok)
Executed Assembly Steps:
  1. 700a0e20: e3110080     	tst	r1, #128
  2. 700a0e24: 0a000004     	beq	0x700a0e3c <__TI_wrt_ok+0x40> @ imm = #0x10
  3. 700a0e3c: e2010060     	and	r0, r1, #96
  4. 700a0e40: e3500040     	cmp	r0, #64
  5. 700a0e44: 1a000001     	bne	0x700a0e50 <__TI_wrt_ok+0x54> @ imm = #0x4
  6. 700a0e50: e5942004     	ldr	r2, [r4, #0x4]
  7. 700a0e54: e3a00001     	mov	r0, #1
  8. 700a0e58: e3520000     	cmp	r2, #0

P_HDR Event: Idx:63973 (Pattern: NE, Function: __TI_wrt_ok)
Executed Assembly Steps:
  1. 700a0e5c: 02112004     	andseq	r2, r1, #4
  2. 700a0e60: 1a000006     	bne	0x700a0e80 <__TI_wrt_ok+0x84> @ imm = #0x18

P_HDR Event: Idx:63974 (Pattern: EEE, Function: __TI_wrt_ok)
Executed Assembly Steps:
  1. 700a0e80: e594100c     	ldr	r1, [r4, #0xc]
  2. 700a0e84: e5841010     	str	r1, [r4, #0x10]
  3. 700a0e88: e8bd8010     	pop	{r4, pc}

Sync: Idx:63975; ID:10;	BRANCH_ADDRESS : Branch address.; Addr=0x7009E8D4 ~[0xD4];

P_HDR Event: Idx:63976 (Pattern: EN, Function: fputc)
Executed Assembly Steps:
  1. 7009e8d4: e3500000     	cmp	r0, #0
  2. 7009e8d8: 0a00000b     	beq	0x7009e90c <fputc+0x58> @ imm = #0x2c

P_HDR Event: Idx:63977 (Pattern: EEEEEEEEEEEEEEE, Function: fputc)
Executed Assembly Steps:
  1. 7009e8dc: e5940014     	ldr	r0, [r4, #0x14]
  2. 7009e8e0: e2000007     	and	r0, r0, #7
  3. 7009e8e4: e3500004     	cmp	r0, #4
  4. 7009e8e8: 1a00000a     	bne	0x7009e918 <fputc+0x64> @ imm = #0x28
  5. 7009e918: e5940008     	ldr	r0, [r4, #0x8]
  6. 7009e91c: e594100c     	ldr	r1, [r4, #0xc]
  7. 7009e920: e1500001     	cmp	r0, r1
  8. 7009e924: 3a000004     	blo	0x7009e93c <fputc+0x88> @ imm = #0x10
  9. 7009e93c: e2801001     	add	r1, r0, #1
  10. 7009e940: e355000a     	cmp	r5, #10
  11. 7009e944: e5841008     	str	r1, [r4, #0x8]
  12. 7009e948: e5c05000     	strb	r5, [r0]
  13. 7009e94c: 1a00000e     	bne	0x7009e98c <fputc+0xd8> @ imm = #0x38
  14. 7009e98c: e59f0010     	ldr	r0, [pc, #0x10]         @ 0x7009e9a4 <fputc+0xf0>
  15. 7009e990: e5900000     	ldr	r0, [r0]

P_HDR Event: Idx:63978 (Pattern: E, Function: fputc)
Executed Assembly Steps:
  1. 7009e994: e12fff30     	blx	r0

Sync: Idx:63979; ID:10;	BRANCH_ADDRESS : Branch address.; Addr=0x7009A2DC ~[0x22DC];

P_HDR Event: Idx:63981 (Pattern: E, Function: _nop)
Executed Assembly Steps:
  1. 7009a2dc: e12fff1e     	bx	lr

Sync: Idx:63982; ID:10;	BRANCH_ADDRESS : Branch address.; Addr=0x7009E998 ~[0x6998];

P_HDR Event: Idx:63985 (Pattern: EE, Function: fputc)
Executed Assembly Steps:
  1. 7009e998: e6ef0075     	uxtb	r0, r5
  2. 7009e99c: e8bd883c     	pop	{r2, r3, r4, r5, r11, pc}

Sync: Idx:63986; ID:10;	BRANCH_ADDRESS : Branch address.; Addr=0x700A4E88 ~[0x700A4E88]; ISA=Thumb2;

P_HDR Event: Idx:63991 (Pattern: EEEEEEEEEEEEEEE, Function: putchar_)
Executed Assembly Steps:
  1. 700a4e88: 4620         	mov	r0, r4
  2. 700a4e8a: f7f8 fa11    	bl	0x7009d2b0 <DebugP_memLogWriterPutChar> @ imm = #-0x7bde
  3. 7009d2b0: b580         	push	{r7, lr}
  4. 7009d2b2: b088         	sub	sp, #0x20
  5. 7009d2b4: f88d 001f    	strb.w	r0, [sp, #0x1f]
  6. 7009d2b8: f247 30cc    	movw	r0, #0x73cc
  7. 7009d2bc: f2c7 000a    	movt	r0, #0x700a
  8. 7009d2c0: 6800         	ldr	r0, [r0]
  9. 7009d2c2: bb40         	cbnz	r0, 0x7009d316 <DebugP_memLogWriterPutChar+0x66> @ imm = #0x50
  10. 7009d316: f89d 001f    	ldrb.w	r0, [sp, #0x1f]
  11. 7009d31a: f247 31cc    	movw	r1, #0x73cc
  12. 7009d31e: f2c7 010a    	movt	r1, #0x700a
  13. 7009d322: 680b         	ldr	r3, [r1]
  14. 7009d324: f644 42e0    	movw	r2, #0x4ce0
  15. 7009d328: f2c7 0208    	movt	r2, #0x7008

P_HDR Event: Idx:63992 (Pattern: EEEEEEN, Function: DebugP_memLogWriterPutChar)
Executed Assembly Steps:
  1. 7009d32c: 54d0         	strb	r0, [r2, r3]
  2. 7009d32e: 6808         	ldr	r0, [r1]
  3. 7009d330: 3001         	adds	r0, #0x1
  4. 7009d332: 6008         	str	r0, [r1]
  5. 7009d334: f89d 001f    	ldrb.w	r0, [sp, #0x1f]
  6. 7009d338: 280a         	cmp	r0, #0xa
  7. 7009d33a: d008         	beq	0x7009d34e <DebugP_memLogWriterPutChar+0x9e> @ imm = #0x10

P_HDR Event: Idx:63993 (Pattern: EEEEEEEE, Function: DebugP_memLogWriterPutChar)
Executed Assembly Steps:
  1. 7009d33c: e7ff         	b	0x7009d33e <DebugP_memLogWriterPutChar+0x8e> @ imm = #-0x2
  2. 7009d33e: f247 30cc    	movw	r0, #0x73cc
  3. 7009d342: f2c7 000a    	movt	r0, #0x700a
  4. 7009d346: 6800         	ldr	r0, [r0]
  5. 7009d348: 2878         	cmp	r0, #0x78
  6. 7009d34a: d350         	blo	0x7009d3ee <DebugP_memLogWriterPutChar+0x13e> @ imm = #0xa0
  7. 7009d3ee: b008         	add	sp, #0x20
  8. 7009d3f0: bd80         	pop	{r7, pc}

Sync: Idx:63994; ID:10;	BRANCH_ADDRESS : Branch address.; Addr=0x700A4E8E ~[0xE];

P_HDR Event: Idx:63995 (Pattern: EEEEEEEEEEEEEEE, Function: putchar_)
Executed Assembly Steps:
  1. 700a4e8e: 4620         	mov	r0, r4
  2. 700a4e90: e8bd 4010    	pop.w	{r4, lr}
  3. 700a4e94: f7fe bd2c    	b.w	0x700a38f0 <DebugP_uartLogWriterPutChar> @ imm = #-0x15a8
  4. 700a38f0: b580         	push	{r7, lr}
  5. 700a38f2: b088         	sub	sp, #0x20
  6. 700a38f4: f88d 001f    	strb.w	r0, [sp, #0x1f]
  7. 700a38f8: f89d 001f    	ldrb.w	r0, [sp, #0x1f]
  8. 700a38fc: f88d 001e    	strb.w	r0, [sp, #0x1e]
  9. 700a3900: f247 40e0    	movw	r0, #0x74e0
  10. 700a3904: f2c7 000a    	movt	r0, #0x700a
  11. 700a3908: 6800         	ldr	r0, [r0]
  12. 700a390a: f7ff fe41    	bl	0x700a3590 <UART_getHandle> @ imm = #-0x37e
  13. 700a3590: b083         	sub	sp, #0xc
  14. 700a3592: 9002         	str	r0, [sp, #0x8]
  15. 700a3594: 2000         	movs	r0, #0x0

P_HDR Event: Idx:63996 (Pattern: EEEEEEN, Function: UART_getHandle)
Executed Assembly Steps:
  1. 700a3596: 9001         	str	r0, [sp, #0x4]
  2. 700a3598: 9802         	ldr	r0, [sp, #0x8]
  3. 700a359a: f247 41e8    	movw	r1, #0x74e8
  4. 700a359e: f2c7 010a    	movt	r1, #0x700a
  5. 700a35a2: 6809         	ldr	r1, [r1]
  6. 700a35a4: 4288         	cmp	r0, r1
  7. 700a35a6: d217         	bhs	0x700a35d8 <UART_getHandle+0x48> @ imm = #0x2e

P_HDR Event: Idx:63997 (Pattern: EEEEEEEEN, Function: UART_getHandle)
Executed Assembly Steps:
  1. 700a35a8: e7ff         	b	0x700a35aa <UART_getHandle+0x1a> @ imm = #-0x2
  2. 700a35aa: 9902         	ldr	r1, [sp, #0x8]
  3. 700a35ac: f247 40a8    	movw	r0, #0x74a8
  4. 700a35b0: f2c7 000a    	movt	r0, #0x700a
  5. 700a35b4: eb00 00c1    	add.w	r0, r0, r1, lsl #3
  6. 700a35b8: 6840         	ldr	r0, [r0, #0x4]
  7. 700a35ba: 9000         	str	r0, [sp]
  8. 700a35bc: 9800         	ldr	r0, [sp]
  9. 700a35be: b150         	cbz	r0, 0x700a35d6 <UART_getHandle+0x46> @ imm = #0x14

P_HDR Event: Idx:63998 (Pattern: EEEEEEEEE, Function: UART_getHandle)
Executed Assembly Steps:
  1. 700a35c0: e7ff         	b	0x700a35c2 <UART_getHandle+0x32> @ imm = #-0x2
  2. 700a35c2: 9800         	ldr	r0, [sp]
  3. 700a35c4: f8d0 0084    	ldr.w	r0, [r0, #0x84]
  4. 700a35c8: 2801         	cmp	r0, #0x1
  5. 700a35ca: d104         	bne	0x700a35d6 <UART_getHandle+0x46> @ imm = #0x8
  6. 700a35d6: e7ff         	b	0x700a35d8 <UART_getHandle+0x48> @ imm = #-0x2
  7. 700a35d8: 9801         	ldr	r0, [sp, #0x4]
  8. 700a35da: b003         	add	sp, #0xc
  9. 700a35dc: 4770         	bx	lr

Sync: Idx:64000; ID:10;	BRANCH_ADDRESS : Branch address.; Addr=0x700A390E ~[0xA390E];

P_HDR Event: Idx:64003 (Pattern: EEEEE, Function: DebugP_uartLogWriterPutChar)
Executed Assembly Steps:
  1. 700a390e: 9006         	str	r0, [sp, #0x18]
  2. 700a3910: 9806         	ldr	r0, [sp, #0x18]
  3. 700a3912: b170         	cbz	r0, 0x700a3932 <DebugP_uartLogWriterPutChar+0x42> @ imm = #0x1c
  4. 700a3932: b008         	add	sp, #0x20
  5. 700a3934: bd80         	pop	{r7, pc}

Sync: Idx:64004; ID:10;	BRANCH_ADDRESS : Branch address.; Addr=0x700A4A3E ~[0xA4A3E];

P_HDR Event: Idx:64007 (Pattern: EEE, Function: _out_char)
Executed Assembly Steps:
  1. 700a4a3e: e7ff         	b	0x700a4a40 <_out_char+0x20> @ imm = #-0x2
  2. 700a4a40: b004         	add	sp, #0x10
  3. 700a4a42: bd80         	pop	{r7, pc}

Sync: Idx:64008; ID:10;	BRANCH_ADDRESS : Branch address.; Addr=0x70098F58 ~[0x98F58];

P_HDR Event: Idx:64011 (Pattern: EEEEEEEN, Function: _vsnprintf)
Executed Assembly Steps:
  1. 70098f58: 983c         	ldr	r0, [sp, #0xf0]
  2. 70098f5a: 3001         	adds	r0, #0x1
  3. 70098f5c: 903c         	str	r0, [sp, #0xf0]
  4. 70098f5e: e7e6         	b	0x70098f2e <_vsnprintf+0x2e> @ imm = #-0x34
  5. 70098f2e: 983c         	ldr	r0, [sp, #0xf0]
  6. 70098f30: 7800         	ldrb	r0, [r0]
  7. 70098f32: 2800         	cmp	r0, #0x0
  8. 70098f34: f000 84e3    	beq.w	0x700998fe <_vsnprintf+0x9fe> @ imm = #0x9c6

P_HDR Event: Idx:64012 (Pattern: EEEEN, Function: _vsnprintf)
Executed Assembly Steps:
  1. 70098f38: e7ff         	b	0x70098f3a <_vsnprintf+0x3a> @ imm = #-0x2
  2. 70098f3a: 983c         	ldr	r0, [sp, #0xf0]
  3. 70098f3c: 7800         	ldrb	r0, [r0]
  4. 70098f3e: 2825         	cmp	r0, #0x25
  5. 70098f40: d00e         	beq	0x70098f60 <_vsnprintf+0x60> @ imm = #0x1c

P_HDR Event: Idx:64013 (Pattern: EEEEEEEEEE, Function: _vsnprintf)
Executed Assembly Steps:
  1. 70098f42: e7ff         	b	0x70098f44 <_vsnprintf+0x44> @ imm = #-0x2
  2. 70098f44: f8dd c0fc    	ldr.w	r12, [sp, #0xfc]
  3. 70098f48: 983c         	ldr	r0, [sp, #0xf0]
  4. 70098f4a: 7800         	ldrb	r0, [r0]
  5. 70098f4c: 993e         	ldr	r1, [sp, #0xf8]
  6. 70098f4e: 9a37         	ldr	r2, [sp, #0xdc]
  7. 70098f50: 1c53         	adds	r3, r2, #0x1
  8. 70098f52: 9337         	str	r3, [sp, #0xdc]
  9. 70098f54: 9b3d         	ldr	r3, [sp, #0xf4]
  10. 70098f56: 47e0         	blx	r12

Sync: Idx:64014; ID:10;	BRANCH_ADDRESS : Branch address.; Addr=0x700A4A20 ~[0xA4A20];

P_HDR Event: Idx:64018 (Pattern: EEEEEEEN, Function: _out_char)
Executed Assembly Steps:
  1. 700a4a20: b580         	push	{r7, lr}
  2. 700a4a22: b084         	sub	sp, #0x10
  3. 700a4a24: f88d 000f    	strb.w	r0, [sp, #0xf]
  4. 700a4a28: 9102         	str	r1, [sp, #0x8]
  5. 700a4a2a: 9201         	str	r2, [sp, #0x4]
  6. 700a4a2c: 9300         	str	r3, [sp]
  7. 700a4a2e: f89d 000f    	ldrb.w	r0, [sp, #0xf]
  8. 700a4a32: b128         	cbz	r0, 0x700a4a40 <_out_char+0x20> @ imm = #0xa

P_HDR Event: Idx:64019 (Pattern: EEEEEE, Function: _out_char)
Executed Assembly Steps:
  1. 700a4a34: e7ff         	b	0x700a4a36 <_out_char+0x16> @ imm = #-0x2
  2. 700a4a36: f89d 000f    	ldrb.w	r0, [sp, #0xf]
  3. 700a4a3a: f000 fa21    	bl	0x700a4e80 <putchar_>   @ imm = #0x442
  4. 700a4e80: b510         	push	{r4, lr}
  5. 700a4e82: 4604         	mov	r4, r0
  6. 700a4e84: f000 e9ac    	blx	0x700a51e0 <putchar>    @ imm = #0x358

Sync: Idx:64020; ID:10;	BRANCH_ADDRESS : Branch address.; Addr=0x700A51E0 ~[0x700A51E0]; ISA=ARM(32);

P_HDR Event: Idx:64025 (Pattern: EEEEEEEEE, Function: putchar)
Executed Assembly Steps:
  1. 700a51e0: e59f1004     	ldr	r1, [pc, #0x4]          @ 0x700a51ec <putchar+0xc>
  2. 700a51e4: e2811018     	add	r1, r1, #24
  3. 700a51e8: eaffe5b1     	b	0x7009e8b4 <fputc>      @ imm = #-0x693c
  4. 7009e8b4: e92d483c     	push	{r2, r3, r4, r5, r11, lr}
  5. 7009e8b8: e59f20e0     	ldr	r2, [pc, #0xe0]         @ 0x7009e9a0 <fputc+0xec>
  6. 7009e8bc: e1a04001     	mov	r4, r1
  7. 7009e8c0: e1a05000     	mov	r5, r0
  8. 7009e8c4: e5922000     	ldr	r2, [r2]
  9. 7009e8c8: e12fff32     	blx	r2

Sync: Idx:64026; ID:10;	BRANCH_ADDRESS : Branch address.; Addr=0x7009A2DC ~[0x9A2DC];

P_HDR Event: Idx:64029 (Pattern: E, Function: _nop)
Executed Assembly Steps:
  1. 7009a2dc: e12fff1e     	bx	lr

Sync: Idx:64030; ID:10;	BRANCH_ADDRESS : Branch address.; Addr=0x7009E8CC ~[0x68CC];

P_HDR Event: Idx:64033 (Pattern: EEEEEEEN, Function: fputc)
Executed Assembly Steps:
  1. 7009e8cc: e1a00004     	mov	r0, r4
  2. 7009e8d0: eb000949     	bl	0x700a0dfc <__TI_wrt_ok> @ imm = #0x2524
  3. 700a0dfc: e92d4010     	push	{r4, lr}
  4. 700a0e00: e1a04000     	mov	r4, r0
  5. 700a0e04: e5901000     	ldr	r1, [r0]
  6. 700a0e08: e3a00000     	mov	r0, #0
  7. 700a0e0c: e3710001     	cmn	r1, #1
  8. 700a0e10: 0a00001c     	beq	0x700a0e88 <__TI_wrt_ok+0x8c> @ imm = #0x70

P_HDR Event: Idx:64034 (Pattern: EEN, Function: __TI_wrt_ok)
Executed Assembly Steps:
  1. 700a0e14: e5941014     	ldr	r1, [r4, #0x14]
  2. 700a0e18: e3110010     	tst	r1, #16
  3. 700a0e1c: 1a00001a     	bne	0x700a0e8c <__TI_wrt_ok+0x90> @ imm = #0x68

P_HDR Event: Idx:64035 (Pattern: EEEEEEEE, Function: __TI_wrt_ok)
Executed Assembly Steps:
  1. 700a0e20: e3110080     	tst	r1, #128
  2. 700a0e24: 0a000004     	beq	0x700a0e3c <__TI_wrt_ok+0x40> @ imm = #0x10
  3. 700a0e3c: e2010060     	and	r0, r1, #96
  4. 700a0e40: e3500040     	cmp	r0, #64
  5. 700a0e44: 1a000001     	bne	0x700a0e50 <__TI_wrt_ok+0x54> @ imm = #0x4
  6. 700a0e50: e5942004     	ldr	r2, [r4, #0x4]
  7. 700a0e54: e3a00001     	mov	r0, #1
  8. 700a0e58: e3520000     	cmp	r2, #0

P_HDR Event: Idx:64036 (Pattern: NE, Function: __TI_wrt_ok)
Executed Assembly Steps:
  1. 700a0e5c: 02112004     	andseq	r2, r1, #4
  2. 700a0e60: 1a000006     	bne	0x700a0e80 <__TI_wrt_ok+0x84> @ imm = #0x18

P_HDR Event: Idx:64037 (Pattern: EEE, Function: __TI_wrt_ok)
Executed Assembly Steps:
  1. 700a0e80: e594100c     	ldr	r1, [r4, #0xc]
  2. 700a0e84: e5841010     	str	r1, [r4, #0x10]
  3. 700a0e88: e8bd8010     	pop	{r4, pc}

Sync: Idx:64038; ID:10;	BRANCH_ADDRESS : Branch address.; Addr=0x7009E8D4 ~[0xD4];

P_HDR Event: Idx:64039 (Pattern: EN, Function: fputc)
Executed Assembly Steps:
  1. 7009e8d4: e3500000     	cmp	r0, #0
  2. 7009e8d8: 0a00000b     	beq	0x7009e90c <fputc+0x58> @ imm = #0x2c

P_HDR Event: Idx:64040 (Pattern: EEEEEEEEEEEEEEE, Function: fputc)
Executed Assembly Steps:
  1. 7009e8dc: e5940014     	ldr	r0, [r4, #0x14]
  2. 7009e8e0: e2000007     	and	r0, r0, #7
  3. 7009e8e4: e3500004     	cmp	r0, #4
  4. 7009e8e8: 1a00000a     	bne	0x7009e918 <fputc+0x64> @ imm = #0x28
  5. 7009e918: e5940008     	ldr	r0, [r4, #0x8]
  6. 7009e91c: e594100c     	ldr	r1, [r4, #0xc]
  7. 7009e920: e1500001     	cmp	r0, r1
  8. 7009e924: 3a000004     	blo	0x7009e93c <fputc+0x88> @ imm = #0x10
  9. 7009e93c: e2801001     	add	r1, r0, #1
  10. 7009e940: e355000a     	cmp	r5, #10
  11. 7009e944: e5841008     	str	r1, [r4, #0x8]
  12. 7009e948: e5c05000     	strb	r5, [r0]
  13. 7009e94c: 1a00000e     	bne	0x7009e98c <fputc+0xd8> @ imm = #0x38
  14. 7009e98c: e59f0010     	ldr	r0, [pc, #0x10]         @ 0x7009e9a4 <fputc+0xf0>
  15. 7009e990: e5900000     	ldr	r0, [r0]

P_HDR Event: Idx:64041 (Pattern: E, Function: fputc)
Executed Assembly Steps:
  1. 7009e994: e12fff30     	blx	r0

Sync: Idx:64042; ID:10;	BRANCH_ADDRESS : Branch address.; Addr=0x7009A2DC ~[0x22DC];

P_HDR Event: Idx:64044 (Pattern: E, Function: _nop)
Executed Assembly Steps:
  1. 7009a2dc: e12fff1e     	bx	lr

Sync: Idx:64045; ID:10;	BRANCH_ADDRESS : Branch address.; Addr=0x7009E998 ~[0x6998];

P_HDR Event: Idx:64048 (Pattern: EE, Function: fputc)
Executed Assembly Steps:
  1. 7009e998: e6ef0075     	uxtb	r0, r5
  2. 7009e99c: e8bd883c     	pop	{r2, r3, r4, r5, r11, pc}

Sync: Idx:64049; ID:10;	BRANCH_ADDRESS : Branch address.; Addr=0x700A4E88 ~[0x700A4E88]; ISA=Thumb2;

P_HDR Event: Idx:64054 (Pattern: EEEEEEEEEEEEEEE, Function: putchar_)
Executed Assembly Steps:
  1. 700a4e88: 4620         	mov	r0, r4
  2. 700a4e8a: f7f8 fa11    	bl	0x7009d2b0 <DebugP_memLogWriterPutChar> @ imm = #-0x7bde
  3. 7009d2b0: b580         	push	{r7, lr}
  4. 7009d2b2: b088         	sub	sp, #0x20
  5. 7009d2b4: f88d 001f    	strb.w	r0, [sp, #0x1f]
  6. 7009d2b8: f247 30cc    	movw	r0, #0x73cc
  7. 7009d2bc: f2c7 000a    	movt	r0, #0x700a
  8. 7009d2c0: 6800         	ldr	r0, [r0]
  9. 7009d2c2: bb40         	cbnz	r0, 0x7009d316 <DebugP_memLogWriterPutChar+0x66> @ imm = #0x50
  10. 7009d316: f89d 001f    	ldrb.w	r0, [sp, #0x1f]
  11. 7009d31a: f247 31cc    	movw	r1, #0x73cc
  12. 7009d31e: f2c7 010a    	movt	r1, #0x700a
  13. 7009d322: 680b         	ldr	r3, [r1]
  14. 7009d324: f644 42e0    	movw	r2, #0x4ce0
  15. 7009d328: f2c7 0208    	movt	r2, #0x7008

P_HDR Event: Idx:64055 (Pattern: EEEEEEN, Function: DebugP_memLogWriterPutChar)
Executed Assembly Steps:
  1. 7009d32c: 54d0         	strb	r0, [r2, r3]
  2. 7009d32e: 6808         	ldr	r0, [r1]
  3. 7009d330: 3001         	adds	r0, #0x1
  4. 7009d332: 6008         	str	r0, [r1]
  5. 7009d334: f89d 001f    	ldrb.w	r0, [sp, #0x1f]
  6. 7009d338: 280a         	cmp	r0, #0xa
  7. 7009d33a: d008         	beq	0x7009d34e <DebugP_memLogWriterPutChar+0x9e> @ imm = #0x10

P_HDR Event: Idx:64056 (Pattern: EEEEEEEE, Function: DebugP_memLogWriterPutChar)
Executed Assembly Steps:
  1. 7009d33c: e7ff         	b	0x7009d33e <DebugP_memLogWriterPutChar+0x8e> @ imm = #-0x2
  2. 7009d33e: f247 30cc    	movw	r0, #0x73cc
  3. 7009d342: f2c7 000a    	movt	r0, #0x700a
  4. 7009d346: 6800         	ldr	r0, [r0]
  5. 7009d348: 2878         	cmp	r0, #0x78
  6. 7009d34a: d350         	blo	0x7009d3ee <DebugP_memLogWriterPutChar+0x13e> @ imm = #0xa0
  7. 7009d3ee: b008         	add	sp, #0x20
  8. 7009d3f0: bd80         	pop	{r7, pc}

Sync: Idx:64057; ID:10;	BRANCH_ADDRESS : Branch address.; Addr=0x700A4E8E ~[0xE];

P_HDR Event: Idx:64058 (Pattern: EEEEEEEEEEEEEEE, Function: putchar_)
Executed Assembly Steps:
  1. 700a4e8e: 4620         	mov	r0, r4
  2. 700a4e90: e8bd 4010    	pop.w	{r4, lr}
  3. 700a4e94: f7fe bd2c    	b.w	0x700a38f0 <DebugP_uartLogWriterPutChar> @ imm = #-0x15a8
  4. 700a38f0: b580         	push	{r7, lr}
  5. 700a38f2: b088         	sub	sp, #0x20
  6. 700a38f4: f88d 001f    	strb.w	r0, [sp, #0x1f]
  7. 700a38f8: f89d 001f    	ldrb.w	r0, [sp, #0x1f]
  8. 700a38fc: f88d 001e    	strb.w	r0, [sp, #0x1e]
  9. 700a3900: f247 40e0    	movw	r0, #0x74e0
  10. 700a3904: f2c7 000a    	movt	r0, #0x700a
  11. 700a3908: 6800         	ldr	r0, [r0]
  12. 700a390a: f7ff fe41    	bl	0x700a3590 <UART_getHandle> @ imm = #-0x37e
  13. 700a3590: b083         	sub	sp, #0xc
  14. 700a3592: 9002         	str	r0, [sp, #0x8]
  15. 700a3594: 2000         	movs	r0, #0x0

P_HDR Event: Idx:64059 (Pattern: EEEEEEN, Function: UART_getHandle)
Executed Assembly Steps:
  1. 700a3596: 9001         	str	r0, [sp, #0x4]
  2. 700a3598: 9802         	ldr	r0, [sp, #0x8]
  3. 700a359a: f247 41e8    	movw	r1, #0x74e8
  4. 700a359e: f2c7 010a    	movt	r1, #0x700a
  5. 700a35a2: 6809         	ldr	r1, [r1]
  6. 700a35a4: 4288         	cmp	r0, r1
  7. 700a35a6: d217         	bhs	0x700a35d8 <UART_getHandle+0x48> @ imm = #0x2e

P_HDR Event: Idx:64060 (Pattern: EEEEEEEEN, Function: UART_getHandle)
Executed Assembly Steps:
  1. 700a35a8: e7ff         	b	0x700a35aa <UART_getHandle+0x1a> @ imm = #-0x2
  2. 700a35aa: 9902         	ldr	r1, [sp, #0x8]
  3. 700a35ac: f247 40a8    	movw	r0, #0x74a8
  4. 700a35b0: f2c7 000a    	movt	r0, #0x700a
  5. 700a35b4: eb00 00c1    	add.w	r0, r0, r1, lsl #3
  6. 700a35b8: 6840         	ldr	r0, [r0, #0x4]
  7. 700a35ba: 9000         	str	r0, [sp]
  8. 700a35bc: 9800         	ldr	r0, [sp]
  9. 700a35be: b150         	cbz	r0, 0x700a35d6 <UART_getHandle+0x46> @ imm = #0x14

P_HDR Event: Idx:64061 (Pattern: EEEEEEEEE, Function: UART_getHandle)
Executed Assembly Steps:
  1. 700a35c0: e7ff         	b	0x700a35c2 <UART_getHandle+0x32> @ imm = #-0x2
  2. 700a35c2: 9800         	ldr	r0, [sp]
  3. 700a35c4: f8d0 0084    	ldr.w	r0, [r0, #0x84]
  4. 700a35c8: 2801         	cmp	r0, #0x1
  5. 700a35ca: d104         	bne	0x700a35d6 <UART_getHandle+0x46> @ imm = #0x8
  6. 700a35d6: e7ff         	b	0x700a35d8 <UART_getHandle+0x48> @ imm = #-0x2
  7. 700a35d8: 9801         	ldr	r0, [sp, #0x4]
  8. 700a35da: b003         	add	sp, #0xc
  9. 700a35dc: 4770         	bx	lr

Sync: Idx:64062; ID:10;	BRANCH_ADDRESS : Branch address.; Addr=0x700A390E ~[0xA390E];

P_HDR Event: Idx:64066 (Pattern: EEEEE, Function: DebugP_uartLogWriterPutChar)
Executed Assembly Steps:
  1. 700a390e: 9006         	str	r0, [sp, #0x18]
  2. 700a3910: 9806         	ldr	r0, [sp, #0x18]
  3. 700a3912: b170         	cbz	r0, 0x700a3932 <DebugP_uartLogWriterPutChar+0x42> @ imm = #0x1c
  4. 700a3932: b008         	add	sp, #0x20
  5. 700a3934: bd80         	pop	{r7, pc}

Sync: Idx:64067; ID:10;	BRANCH_ADDRESS : Branch address.; Addr=0x700A4A3E ~[0xA4A3E];

P_HDR Event: Idx:64070 (Pattern: EEE, Function: _out_char)
Executed Assembly Steps:
  1. 700a4a3e: e7ff         	b	0x700a4a40 <_out_char+0x20> @ imm = #-0x2
  2. 700a4a40: b004         	add	sp, #0x10
  3. 700a4a42: bd80         	pop	{r7, pc}

Sync: Idx:64071; ID:10;	BRANCH_ADDRESS : Branch address.; Addr=0x70098F58 ~[0x98F58];

P_HDR Event: Idx:64074 (Pattern: EEEEEEEN, Function: _vsnprintf)
Executed Assembly Steps:
  1. 70098f58: 983c         	ldr	r0, [sp, #0xf0]
  2. 70098f5a: 3001         	adds	r0, #0x1
  3. 70098f5c: 903c         	str	r0, [sp, #0xf0]
  4. 70098f5e: e7e6         	b	0x70098f2e <_vsnprintf+0x2e> @ imm = #-0x34
  5. 70098f2e: 983c         	ldr	r0, [sp, #0xf0]
  6. 70098f30: 7800         	ldrb	r0, [r0]
  7. 70098f32: 2800         	cmp	r0, #0x0
  8. 70098f34: f000 84e3    	beq.w	0x700998fe <_vsnprintf+0x9fe> @ imm = #0x9c6

P_HDR Event: Idx:64075 (Pattern: EEEEN, Function: _vsnprintf)
Executed Assembly Steps:
  1. 70098f38: e7ff         	b	0x70098f3a <_vsnprintf+0x3a> @ imm = #-0x2
  2. 70098f3a: 983c         	ldr	r0, [sp, #0xf0]
  3. 70098f3c: 7800         	ldrb	r0, [r0]
  4. 70098f3e: 2825         	cmp	r0, #0x25
  5. 70098f40: d00e         	beq	0x70098f60 <_vsnprintf+0x60> @ imm = #0x1c

P_HDR Event: Idx:64076 (Pattern: EEEEEEEEEE, Function: _vsnprintf)
Executed Assembly Steps:
  1. 70098f42: e7ff         	b	0x70098f44 <_vsnprintf+0x44> @ imm = #-0x2
  2. 70098f44: f8dd c0fc    	ldr.w	r12, [sp, #0xfc]
  3. 70098f48: 983c         	ldr	r0, [sp, #0xf0]
  4. 70098f4a: 7800         	ldrb	r0, [r0]
  5. 70098f4c: 993e         	ldr	r1, [sp, #0xf8]
  6. 70098f4e: 9a37         	ldr	r2, [sp, #0xdc]
  7. 70098f50: 1c53         	adds	r3, r2, #0x1
  8. 70098f52: 9337         	str	r3, [sp, #0xdc]
  9. 70098f54: 9b3d         	ldr	r3, [sp, #0xf4]
  10. 70098f56: 47e0         	blx	r12

Sync: Idx:64077; ID:10;	BRANCH_ADDRESS : Branch address.; Addr=0x700A4A20 ~[0xA4A20];

P_HDR Event: Idx:64081 (Pattern: EEEEEEEN, Function: _out_char)
Executed Assembly Steps:
  1. 700a4a20: b580         	push	{r7, lr}
  2. 700a4a22: b084         	sub	sp, #0x10
  3. 700a4a24: f88d 000f    	strb.w	r0, [sp, #0xf]
  4. 700a4a28: 9102         	str	r1, [sp, #0x8]
  5. 700a4a2a: 9201         	str	r2, [sp, #0x4]
  6. 700a4a2c: 9300         	str	r3, [sp]
  7. 700a4a2e: f89d 000f    	ldrb.w	r0, [sp, #0xf]
  8. 700a4a32: b128         	cbz	r0, 0x700a4a40 <_out_char+0x20> @ imm = #0xa

P_HDR Event: Idx:64082 (Pattern: EEEEEE, Function: _out_char)
Executed Assembly Steps:
  1. 700a4a34: e7ff         	b	0x700a4a36 <_out_char+0x16> @ imm = #-0x2
  2. 700a4a36: f89d 000f    	ldrb.w	r0, [sp, #0xf]
  3. 700a4a3a: f000 fa21    	bl	0x700a4e80 <putchar_>   @ imm = #0x442
  4. 700a4e80: b510         	push	{r4, lr}
  5. 700a4e82: 4604         	mov	r4, r0
  6. 700a4e84: f000 e9ac    	blx	0x700a51e0 <putchar>    @ imm = #0x358

Sync: Idx:64083; ID:10;	BRANCH_ADDRESS : Branch address.; Addr=0x700A51E0 ~[0x700A51E0]; ISA=ARM(32);

P_HDR Event: Idx:64088 (Pattern: EEEEEEEEE, Function: putchar)
Executed Assembly Steps:
  1. 700a51e0: e59f1004     	ldr	r1, [pc, #0x4]          @ 0x700a51ec <putchar+0xc>
  2. 700a51e4: e2811018     	add	r1, r1, #24
  3. 700a51e8: eaffe5b1     	b	0x7009e8b4 <fputc>      @ imm = #-0x693c
  4. 7009e8b4: e92d483c     	push	{r2, r3, r4, r5, r11, lr}
  5. 7009e8b8: e59f20e0     	ldr	r2, [pc, #0xe0]         @ 0x7009e9a0 <fputc+0xec>
  6. 7009e8bc: e1a04001     	mov	r4, r1
  7. 7009e8c0: e1a05000     	mov	r5, r0
  8. 7009e8c4: e5922000     	ldr	r2, [r2]
  9. 7009e8c8: e12fff32     	blx	r2

Sync: Idx:64089; ID:10;	BRANCH_ADDRESS : Branch address.; Addr=0x7009A2DC ~[0x9A2DC];

P_HDR Event: Idx:64092 (Pattern: E, Function: _nop)
Executed Assembly Steps:
  1. 7009a2dc: e12fff1e     	bx	lr

Sync: Idx:64093; ID:10;	BRANCH_ADDRESS : Branch address.; Addr=0x7009E8CC ~[0x68CC];

P_HDR Event: Idx:64098 (Pattern: EEEEEEEN, Function: fputc)
Executed Assembly Steps:
  1. 7009e8cc: e1a00004     	mov	r0, r4
  2. 7009e8d0: eb000949     	bl	0x700a0dfc <__TI_wrt_ok> @ imm = #0x2524
  3. 700a0dfc: e92d4010     	push	{r4, lr}
  4. 700a0e00: e1a04000     	mov	r4, r0
  5. 700a0e04: e5901000     	ldr	r1, [r0]
  6. 700a0e08: e3a00000     	mov	r0, #0
  7. 700a0e0c: e3710001     	cmn	r1, #1
  8. 700a0e10: 0a00001c     	beq	0x700a0e88 <__TI_wrt_ok+0x8c> @ imm = #0x70

P_HDR Event: Idx:64099 (Pattern: EEN, Function: __TI_wrt_ok)
Executed Assembly Steps:
  1. 700a0e14: e5941014     	ldr	r1, [r4, #0x14]
  2. 700a0e18: e3110010     	tst	r1, #16
  3. 700a0e1c: 1a00001a     	bne	0x700a0e8c <__TI_wrt_ok+0x90> @ imm = #0x68

P_HDR Event: Idx:64100 (Pattern: EEEEEEEE, Function: __TI_wrt_ok)
Executed Assembly Steps:
  1. 700a0e20: e3110080     	tst	r1, #128
  2. 700a0e24: 0a000004     	beq	0x700a0e3c <__TI_wrt_ok+0x40> @ imm = #0x10
  3. 700a0e3c: e2010060     	and	r0, r1, #96
  4. 700a0e40: e3500040     	cmp	r0, #64
  5. 700a0e44: 1a000001     	bne	0x700a0e50 <__TI_wrt_ok+0x54> @ imm = #0x4
  6. 700a0e50: e5942004     	ldr	r2, [r4, #0x4]
  7. 700a0e54: e3a00001     	mov	r0, #1
  8. 700a0e58: e3520000     	cmp	r2, #0

P_HDR Event: Idx:64101 (Pattern: NE, Function: __TI_wrt_ok)
Executed Assembly Steps:
  1. 700a0e5c: 02112004     	andseq	r2, r1, #4
  2. 700a0e60: 1a000006     	bne	0x700a0e80 <__TI_wrt_ok+0x84> @ imm = #0x18

P_HDR Event: Idx:64102 (Pattern: EEE, Function: __TI_wrt_ok)
Executed Assembly Steps:
  1. 700a0e80: e594100c     	ldr	r1, [r4, #0xc]
  2. 700a0e84: e5841010     	str	r1, [r4, #0x10]
  3. 700a0e88: e8bd8010     	pop	{r4, pc}

Sync: Idx:64103; ID:10;	BRANCH_ADDRESS : Branch address.; Addr=0x7009E8D4 ~[0xD4];

P_HDR Event: Idx:64104 (Pattern: EN, Function: fputc)
Executed Assembly Steps:
  1. 7009e8d4: e3500000     	cmp	r0, #0
  2. 7009e8d8: 0a00000b     	beq	0x7009e90c <fputc+0x58> @ imm = #0x2c

P_HDR Event: Idx:64105 (Pattern: EEEEEEEEEEEEEEE, Function: fputc)
Executed Assembly Steps:
  1. 7009e8dc: e5940014     	ldr	r0, [r4, #0x14]
  2. 7009e8e0: e2000007     	and	r0, r0, #7
  3. 7009e8e4: e3500004     	cmp	r0, #4
  4. 7009e8e8: 1a00000a     	bne	0x7009e918 <fputc+0x64> @ imm = #0x28
  5. 7009e918: e5940008     	ldr	r0, [r4, #0x8]
  6. 7009e91c: e594100c     	ldr	r1, [r4, #0xc]
  7. 7009e920: e1500001     	cmp	r0, r1
  8. 7009e924: 3a000004     	blo	0x7009e93c <fputc+0x88> @ imm = #0x10
  9. 7009e93c: e2801001     	add	r1, r0, #1
  10. 7009e940: e355000a     	cmp	r5, #10
  11. 7009e944: e5841008     	str	r1, [r4, #0x8]
  12. 7009e948: e5c05000     	strb	r5, [r0]
  13. 7009e94c: 1a00000e     	bne	0x7009e98c <fputc+0xd8> @ imm = #0x38
  14. 7009e98c: e59f0010     	ldr	r0, [pc, #0x10]         @ 0x7009e9a4 <fputc+0xf0>
  15. 7009e990: e5900000     	ldr	r0, [r0]

P_HDR Event: Idx:64106 (Pattern: E, Function: fputc)
Executed Assembly Steps:
  1. 7009e994: e12fff30     	blx	r0

Sync: Idx:64107; ID:10;	BRANCH_ADDRESS : Branch address.; Addr=0x7009A2DC ~[0x22DC];

P_HDR Event: Idx:64109 (Pattern: E, Function: _nop)
Executed Assembly Steps:
  1. 7009a2dc: e12fff1e     	bx	lr

Sync: Idx:64112; ID:10;	BRANCH_ADDRESS : Branch address.; Addr=0x7009E998 ~[0x6998];

P_HDR Event: Idx:64114 (Pattern: EE, Function: fputc)
Executed Assembly Steps:
  1. 7009e998: e6ef0075     	uxtb	r0, r5
  2. 7009e99c: e8bd883c     	pop	{r2, r3, r4, r5, r11, pc}

Sync: Idx:64115; ID:10;	BRANCH_ADDRESS : Branch address.; Addr=0x700A4E88 ~[0x700A4E88]; ISA=Thumb2;

P_HDR Event: Idx:64120 (Pattern: EEEEEEEEEEEEEEE, Function: putchar_)
Executed Assembly Steps:
  1. 700a4e88: 4620         	mov	r0, r4
  2. 700a4e8a: f7f8 fa11    	bl	0x7009d2b0 <DebugP_memLogWriterPutChar> @ imm = #-0x7bde
  3. 7009d2b0: b580         	push	{r7, lr}
  4. 7009d2b2: b088         	sub	sp, #0x20
  5. 7009d2b4: f88d 001f    	strb.w	r0, [sp, #0x1f]
  6. 7009d2b8: f247 30cc    	movw	r0, #0x73cc
  7. 7009d2bc: f2c7 000a    	movt	r0, #0x700a
  8. 7009d2c0: 6800         	ldr	r0, [r0]
  9. 7009d2c2: bb40         	cbnz	r0, 0x7009d316 <DebugP_memLogWriterPutChar+0x66> @ imm = #0x50
  10. 7009d316: f89d 001f    	ldrb.w	r0, [sp, #0x1f]
  11. 7009d31a: f247 31cc    	movw	r1, #0x73cc
  12. 7009d31e: f2c7 010a    	movt	r1, #0x700a
  13. 7009d322: 680b         	ldr	r3, [r1]
  14. 7009d324: f644 42e0    	movw	r2, #0x4ce0
  15. 7009d328: f2c7 0208    	movt	r2, #0x7008

P_HDR Event: Idx:64121 (Pattern: EEEEEEN, Function: DebugP_memLogWriterPutChar)
Executed Assembly Steps:
  1. 7009d32c: 54d0         	strb	r0, [r2, r3]
  2. 7009d32e: 6808         	ldr	r0, [r1]
  3. 7009d330: 3001         	adds	r0, #0x1
  4. 7009d332: 6008         	str	r0, [r1]
  5. 7009d334: f89d 001f    	ldrb.w	r0, [sp, #0x1f]
  6. 7009d338: 280a         	cmp	r0, #0xa
  7. 7009d33a: d008         	beq	0x7009d34e <DebugP_memLogWriterPutChar+0x9e> @ imm = #0x10

P_HDR Event: Idx:64122 (Pattern: EEEEEEEE, Function: DebugP_memLogWriterPutChar)
Executed Assembly Steps:
  1. 7009d33c: e7ff         	b	0x7009d33e <DebugP_memLogWriterPutChar+0x8e> @ imm = #-0x2
  2. 7009d33e: f247 30cc    	movw	r0, #0x73cc
  3. 7009d342: f2c7 000a    	movt	r0, #0x700a
  4. 7009d346: 6800         	ldr	r0, [r0]
  5. 7009d348: 2878         	cmp	r0, #0x78
  6. 7009d34a: d350         	blo	0x7009d3ee <DebugP_memLogWriterPutChar+0x13e> @ imm = #0xa0
  7. 7009d3ee: b008         	add	sp, #0x20
  8. 7009d3f0: bd80         	pop	{r7, pc}

Sync: Idx:64123; ID:10;	BRANCH_ADDRESS : Branch address.; Addr=0x700A4E8E ~[0xE];

P_HDR Event: Idx:64124 (Pattern: EEEEEEEEEEEEEEE, Function: putchar_)
Executed Assembly Steps:
  1. 700a4e8e: 4620         	mov	r0, r4
  2. 700a4e90: e8bd 4010    	pop.w	{r4, lr}
  3. 700a4e94: f7fe bd2c    	b.w	0x700a38f0 <DebugP_uartLogWriterPutChar> @ imm = #-0x15a8
  4. 700a38f0: b580         	push	{r7, lr}
  5. 700a38f2: b088         	sub	sp, #0x20
  6. 700a38f4: f88d 001f    	strb.w	r0, [sp, #0x1f]
  7. 700a38f8: f89d 001f    	ldrb.w	r0, [sp, #0x1f]
  8. 700a38fc: f88d 001e    	strb.w	r0, [sp, #0x1e]
  9. 700a3900: f247 40e0    	movw	r0, #0x74e0
  10. 700a3904: f2c7 000a    	movt	r0, #0x700a
  11. 700a3908: 6800         	ldr	r0, [r0]
  12. 700a390a: f7ff fe41    	bl	0x700a3590 <UART_getHandle> @ imm = #-0x37e
  13. 700a3590: b083         	sub	sp, #0xc
  14. 700a3592: 9002         	str	r0, [sp, #0x8]
  15. 700a3594: 2000         	movs	r0, #0x0

P_HDR Event: Idx:64125 (Pattern: EEEEEEN, Function: UART_getHandle)
Executed Assembly Steps:
  1. 700a3596: 9001         	str	r0, [sp, #0x4]
  2. 700a3598: 9802         	ldr	r0, [sp, #0x8]
  3. 700a359a: f247 41e8    	movw	r1, #0x74e8
  4. 700a359e: f2c7 010a    	movt	r1, #0x700a
  5. 700a35a2: 6809         	ldr	r1, [r1]
  6. 700a35a4: 4288         	cmp	r0, r1
  7. 700a35a6: d217         	bhs	0x700a35d8 <UART_getHandle+0x48> @ imm = #0x2e

P_HDR Event: Idx:64126 (Pattern: EEEEEEEEN, Function: UART_getHandle)
Executed Assembly Steps:
  1. 700a35a8: e7ff         	b	0x700a35aa <UART_getHandle+0x1a> @ imm = #-0x2
  2. 700a35aa: 9902         	ldr	r1, [sp, #0x8]
  3. 700a35ac: f247 40a8    	movw	r0, #0x74a8
  4. 700a35b0: f2c7 000a    	movt	r0, #0x700a
  5. 700a35b4: eb00 00c1    	add.w	r0, r0, r1, lsl #3
  6. 700a35b8: 6840         	ldr	r0, [r0, #0x4]
  7. 700a35ba: 9000         	str	r0, [sp]
  8. 700a35bc: 9800         	ldr	r0, [sp]
  9. 700a35be: b150         	cbz	r0, 0x700a35d6 <UART_getHandle+0x46> @ imm = #0x14

P_HDR Event: Idx:64128 (Pattern: EEEEEEEEE, Function: UART_getHandle)
Executed Assembly Steps:
  1. 700a35c0: e7ff         	b	0x700a35c2 <UART_getHandle+0x32> @ imm = #-0x2
  2. 700a35c2: 9800         	ldr	r0, [sp]
  3. 700a35c4: f8d0 0084    	ldr.w	r0, [r0, #0x84]
  4. 700a35c8: 2801         	cmp	r0, #0x1
  5. 700a35ca: d104         	bne	0x700a35d6 <UART_getHandle+0x46> @ imm = #0x8
  6. 700a35d6: e7ff         	b	0x700a35d8 <UART_getHandle+0x48> @ imm = #-0x2
  7. 700a35d8: 9801         	ldr	r0, [sp, #0x4]
  8. 700a35da: b003         	add	sp, #0xc
  9. 700a35dc: 4770         	bx	lr

Sync: Idx:64129; ID:10;	BRANCH_ADDRESS : Branch address.; Addr=0x700A390E ~[0xA390E];

P_HDR Event: Idx:64132 (Pattern: EEEEE, Function: DebugP_uartLogWriterPutChar)
Executed Assembly Steps:
  1. 700a390e: 9006         	str	r0, [sp, #0x18]
  2. 700a3910: 9806         	ldr	r0, [sp, #0x18]
  3. 700a3912: b170         	cbz	r0, 0x700a3932 <DebugP_uartLogWriterPutChar+0x42> @ imm = #0x1c
  4. 700a3932: b008         	add	sp, #0x20
  5. 700a3934: bd80         	pop	{r7, pc}

Sync: Idx:64133; ID:10;	BRANCH_ADDRESS : Branch address.; Addr=0x700A4A3E ~[0xA4A3E];

P_HDR Event: Idx:64136 (Pattern: EEE, Function: _out_char)
Executed Assembly Steps:
  1. 700a4a3e: e7ff         	b	0x700a4a40 <_out_char+0x20> @ imm = #-0x2
  2. 700a4a40: b004         	add	sp, #0x10
  3. 700a4a42: bd80         	pop	{r7, pc}

Sync: Idx:64137; ID:10;	BRANCH_ADDRESS : Branch address.; Addr=0x70098F58 ~[0x98F58];

P_HDR Event: Idx:64140 (Pattern: EEEEEEEN, Function: _vsnprintf)
Executed Assembly Steps:
  1. 70098f58: 983c         	ldr	r0, [sp, #0xf0]
  2. 70098f5a: 3001         	adds	r0, #0x1
  3. 70098f5c: 903c         	str	r0, [sp, #0xf0]
  4. 70098f5e: e7e6         	b	0x70098f2e <_vsnprintf+0x2e> @ imm = #-0x34
  5. 70098f2e: 983c         	ldr	r0, [sp, #0xf0]
  6. 70098f30: 7800         	ldrb	r0, [r0]
  7. 70098f32: 2800         	cmp	r0, #0x0
  8. 70098f34: f000 84e3    	beq.w	0x700998fe <_vsnprintf+0x9fe> @ imm = #0x9c6

P_HDR Event: Idx:64141 (Pattern: EEEEN, Function: _vsnprintf)
Executed Assembly Steps:
  1. 70098f38: e7ff         	b	0x70098f3a <_vsnprintf+0x3a> @ imm = #-0x2
  2. 70098f3a: 983c         	ldr	r0, [sp, #0xf0]
  3. 70098f3c: 7800         	ldrb	r0, [r0]
  4. 70098f3e: 2825         	cmp	r0, #0x25
  5. 70098f40: d00e         	beq	0x70098f60 <_vsnprintf+0x60> @ imm = #0x1c

P_HDR Event: Idx:64142 (Pattern: EEEEEEEEEE, Function: _vsnprintf)
Executed Assembly Steps:
  1. 70098f42: e7ff         	b	0x70098f44 <_vsnprintf+0x44> @ imm = #-0x2
  2. 70098f44: f8dd c0fc    	ldr.w	r12, [sp, #0xfc]
  3. 70098f48: 983c         	ldr	r0, [sp, #0xf0]
  4. 70098f4a: 7800         	ldrb	r0, [r0]
  5. 70098f4c: 993e         	ldr	r1, [sp, #0xf8]
  6. 70098f4e: 9a37         	ldr	r2, [sp, #0xdc]
  7. 70098f50: 1c53         	adds	r3, r2, #0x1
  8. 70098f52: 9337         	str	r3, [sp, #0xdc]
  9. 70098f54: 9b3d         	ldr	r3, [sp, #0xf4]
  10. 70098f56: 47e0         	blx	r12

Sync: Idx:64144; ID:10;	BRANCH_ADDRESS : Branch address.; Addr=0x700A4A20 ~[0xA4A20];

P_HDR Event: Idx:64147 (Pattern: EEEEEEEN, Function: _out_char)
Executed Assembly Steps:
  1. 700a4a20: b580         	push	{r7, lr}
  2. 700a4a22: b084         	sub	sp, #0x10
  3. 700a4a24: f88d 000f    	strb.w	r0, [sp, #0xf]
  4. 700a4a28: 9102         	str	r1, [sp, #0x8]
  5. 700a4a2a: 9201         	str	r2, [sp, #0x4]
  6. 700a4a2c: 9300         	str	r3, [sp]
  7. 700a4a2e: f89d 000f    	ldrb.w	r0, [sp, #0xf]
  8. 700a4a32: b128         	cbz	r0, 0x700a4a40 <_out_char+0x20> @ imm = #0xa

P_HDR Event: Idx:64148 (Pattern: EEEEEE, Function: _out_char)
Executed Assembly Steps:
  1. 700a4a34: e7ff         	b	0x700a4a36 <_out_char+0x16> @ imm = #-0x2
  2. 700a4a36: f89d 000f    	ldrb.w	r0, [sp, #0xf]
  3. 700a4a3a: f000 fa21    	bl	0x700a4e80 <putchar_>   @ imm = #0x442
  4. 700a4e80: b510         	push	{r4, lr}
  5. 700a4e82: 4604         	mov	r4, r0
  6. 700a4e84: f000 e9ac    	blx	0x700a51e0 <putchar>    @ imm = #0x358

Sync: Idx:64149; ID:10;	BRANCH_ADDRESS : Branch address.; Addr=0x700A51E0 ~[0x700A51E0]; ISA=ARM(32);

P_HDR Event: Idx:64154 (Pattern: EEEEEEEEE, Function: putchar)
Executed Assembly Steps:
  1. 700a51e0: e59f1004     	ldr	r1, [pc, #0x4]          @ 0x700a51ec <putchar+0xc>
  2. 700a51e4: e2811018     	add	r1, r1, #24
  3. 700a51e8: eaffe5b1     	b	0x7009e8b4 <fputc>      @ imm = #-0x693c
  4. 7009e8b4: e92d483c     	push	{r2, r3, r4, r5, r11, lr}
  5. 7009e8b8: e59f20e0     	ldr	r2, [pc, #0xe0]         @ 0x7009e9a0 <fputc+0xec>
  6. 7009e8bc: e1a04001     	mov	r4, r1
  7. 7009e8c0: e1a05000     	mov	r5, r0
  8. 7009e8c4: e5922000     	ldr	r2, [r2]
  9. 7009e8c8: e12fff32     	blx	r2

Sync: Idx:64155; ID:10;	BRANCH_ADDRESS : Branch address.; Addr=0x7009A2DC ~[0x9A2DC];

P_HDR Event: Idx:64158 (Pattern: E, Function: _nop)
Executed Assembly Steps:
  1. 7009a2dc: e12fff1e     	bx	lr

Sync: Idx:64160; ID:10;	BRANCH_ADDRESS : Branch address.; Addr=0x7009E8CC ~[0x68CC];

P_HDR Event: Idx:64162 (Pattern: EEEEEEEN, Function: fputc)
Executed Assembly Steps:
  1. 7009e8cc: e1a00004     	mov	r0, r4
  2. 7009e8d0: eb000949     	bl	0x700a0dfc <__TI_wrt_ok> @ imm = #0x2524
  3. 700a0dfc: e92d4010     	push	{r4, lr}
  4. 700a0e00: e1a04000     	mov	r4, r0
  5. 700a0e04: e5901000     	ldr	r1, [r0]
  6. 700a0e08: e3a00000     	mov	r0, #0
  7. 700a0e0c: e3710001     	cmn	r1, #1
  8. 700a0e10: 0a00001c     	beq	0x700a0e88 <__TI_wrt_ok+0x8c> @ imm = #0x70

P_HDR Event: Idx:64163 (Pattern: EEN, Function: __TI_wrt_ok)
Executed Assembly Steps:
  1. 700a0e14: e5941014     	ldr	r1, [r4, #0x14]
  2. 700a0e18: e3110010     	tst	r1, #16
  3. 700a0e1c: 1a00001a     	bne	0x700a0e8c <__TI_wrt_ok+0x90> @ imm = #0x68

P_HDR Event: Idx:64164 (Pattern: EEEEEEEE, Function: __TI_wrt_ok)
Executed Assembly Steps:
  1. 700a0e20: e3110080     	tst	r1, #128
  2. 700a0e24: 0a000004     	beq	0x700a0e3c <__TI_wrt_ok+0x40> @ imm = #0x10
  3. 700a0e3c: e2010060     	and	r0, r1, #96
  4. 700a0e40: e3500040     	cmp	r0, #64
  5. 700a0e44: 1a000001     	bne	0x700a0e50 <__TI_wrt_ok+0x54> @ imm = #0x4
  6. 700a0e50: e5942004     	ldr	r2, [r4, #0x4]
  7. 700a0e54: e3a00001     	mov	r0, #1
  8. 700a0e58: e3520000     	cmp	r2, #0

P_HDR Event: Idx:64165 (Pattern: NE, Function: __TI_wrt_ok)
Executed Assembly Steps:
  1. 700a0e5c: 02112004     	andseq	r2, r1, #4
  2. 700a0e60: 1a000006     	bne	0x700a0e80 <__TI_wrt_ok+0x84> @ imm = #0x18

P_HDR Event: Idx:64166 (Pattern: EEE, Function: __TI_wrt_ok)
Executed Assembly Steps:
  1. 700a0e80: e594100c     	ldr	r1, [r4, #0xc]
  2. 700a0e84: e5841010     	str	r1, [r4, #0x10]
  3. 700a0e88: e8bd8010     	pop	{r4, pc}

Sync: Idx:64167; ID:10;	BRANCH_ADDRESS : Branch address.; Addr=0x7009E8D4 ~[0xD4];

P_HDR Event: Idx:64168 (Pattern: EN, Function: fputc)
Executed Assembly Steps:
  1. 7009e8d4: e3500000     	cmp	r0, #0
  2. 7009e8d8: 0a00000b     	beq	0x7009e90c <fputc+0x58> @ imm = #0x2c

P_HDR Event: Idx:64169 (Pattern: EEEEEEEEEEEEEEE, Function: fputc)
Executed Assembly Steps:
  1. 7009e8dc: e5940014     	ldr	r0, [r4, #0x14]
  2. 7009e8e0: e2000007     	and	r0, r0, #7
  3. 7009e8e4: e3500004     	cmp	r0, #4
  4. 7009e8e8: 1a00000a     	bne	0x7009e918 <fputc+0x64> @ imm = #0x28
  5. 7009e918: e5940008     	ldr	r0, [r4, #0x8]
  6. 7009e91c: e594100c     	ldr	r1, [r4, #0xc]
  7. 7009e920: e1500001     	cmp	r0, r1
  8. 7009e924: 3a000004     	blo	0x7009e93c <fputc+0x88> @ imm = #0x10
  9. 7009e93c: e2801001     	add	r1, r0, #1
  10. 7009e940: e355000a     	cmp	r5, #10
  11. 7009e944: e5841008     	str	r1, [r4, #0x8]
  12. 7009e948: e5c05000     	strb	r5, [r0]
  13. 7009e94c: 1a00000e     	bne	0x7009e98c <fputc+0xd8> @ imm = #0x38
  14. 7009e98c: e59f0010     	ldr	r0, [pc, #0x10]         @ 0x7009e9a4 <fputc+0xf0>
  15. 7009e990: e5900000     	ldr	r0, [r0]

P_HDR Event: Idx:64170 (Pattern: E, Function: fputc)
Executed Assembly Steps:
  1. 7009e994: e12fff30     	blx	r0

Sync: Idx:64171; ID:10;	BRANCH_ADDRESS : Branch address.; Addr=0x7009A2DC ~[0x22DC];

P_HDR Event: Idx:64173 (Pattern: E, Function: _nop)
Executed Assembly Steps:
  1. 7009a2dc: e12fff1e     	bx	lr

Sync: Idx:64174; ID:10;	BRANCH_ADDRESS : Branch address.; Addr=0x7009E998 ~[0x6998];

P_HDR Event: Idx:64177 (Pattern: EE, Function: fputc)
Executed Assembly Steps:
  1. 7009e998: e6ef0075     	uxtb	r0, r5
  2. 7009e99c: e8bd883c     	pop	{r2, r3, r4, r5, r11, pc}

Sync: Idx:64178; ID:10;	BRANCH_ADDRESS : Branch address.; Addr=0x700A4E88 ~[0x700A4E88]; ISA=Thumb2;

P_HDR Event: Idx:64183 (Pattern: EEEEEEEEEEEEEEE, Function: putchar_)
Executed Assembly Steps:
  1. 700a4e88: 4620         	mov	r0, r4
  2. 700a4e8a: f7f8 fa11    	bl	0x7009d2b0 <DebugP_memLogWriterPutChar> @ imm = #-0x7bde
  3. 7009d2b0: b580         	push	{r7, lr}
  4. 7009d2b2: b088         	sub	sp, #0x20
  5. 7009d2b4: f88d 001f    	strb.w	r0, [sp, #0x1f]
  6. 7009d2b8: f247 30cc    	movw	r0, #0x73cc
  7. 7009d2bc: f2c7 000a    	movt	r0, #0x700a
  8. 7009d2c0: 6800         	ldr	r0, [r0]
  9. 7009d2c2: bb40         	cbnz	r0, 0x7009d316 <DebugP_memLogWriterPutChar+0x66> @ imm = #0x50
  10. 7009d316: f89d 001f    	ldrb.w	r0, [sp, #0x1f]
  11. 7009d31a: f247 31cc    	movw	r1, #0x73cc
  12. 7009d31e: f2c7 010a    	movt	r1, #0x700a
  13. 7009d322: 680b         	ldr	r3, [r1]
  14. 7009d324: f644 42e0    	movw	r2, #0x4ce0
  15. 7009d328: f2c7 0208    	movt	r2, #0x7008

P_HDR Event: Idx:64184 (Pattern: EEEEEEN, Function: DebugP_memLogWriterPutChar)
Executed Assembly Steps:
  1. 7009d32c: 54d0         	strb	r0, [r2, r3]
  2. 7009d32e: 6808         	ldr	r0, [r1]
  3. 7009d330: 3001         	adds	r0, #0x1
  4. 7009d332: 6008         	str	r0, [r1]
  5. 7009d334: f89d 001f    	ldrb.w	r0, [sp, #0x1f]
  6. 7009d338: 280a         	cmp	r0, #0xa
  7. 7009d33a: d008         	beq	0x7009d34e <DebugP_memLogWriterPutChar+0x9e> @ imm = #0x10

P_HDR Event: Idx:64185 (Pattern: EEEEEEEE, Function: DebugP_memLogWriterPutChar)
Executed Assembly Steps:
  1. 7009d33c: e7ff         	b	0x7009d33e <DebugP_memLogWriterPutChar+0x8e> @ imm = #-0x2
  2. 7009d33e: f247 30cc    	movw	r0, #0x73cc
  3. 7009d342: f2c7 000a    	movt	r0, #0x700a
  4. 7009d346: 6800         	ldr	r0, [r0]
  5. 7009d348: 2878         	cmp	r0, #0x78
  6. 7009d34a: d350         	blo	0x7009d3ee <DebugP_memLogWriterPutChar+0x13e> @ imm = #0xa0
  7. 7009d3ee: b008         	add	sp, #0x20
  8. 7009d3f0: bd80         	pop	{r7, pc}

Sync: Idx:64186; ID:10;	BRANCH_ADDRESS : Branch address.; Addr=0x700A4E8E ~[0xE];

P_HDR Event: Idx:64187 (Pattern: EEEEEEEEEEEEEEE, Function: putchar_)
Executed Assembly Steps:
  1. 700a4e8e: 4620         	mov	r0, r4
  2. 700a4e90: e8bd 4010    	pop.w	{r4, lr}
  3. 700a4e94: f7fe bd2c    	b.w	0x700a38f0 <DebugP_uartLogWriterPutChar> @ imm = #-0x15a8
  4. 700a38f0: b580         	push	{r7, lr}
  5. 700a38f2: b088         	sub	sp, #0x20
  6. 700a38f4: f88d 001f    	strb.w	r0, [sp, #0x1f]
  7. 700a38f8: f89d 001f    	ldrb.w	r0, [sp, #0x1f]
  8. 700a38fc: f88d 001e    	strb.w	r0, [sp, #0x1e]
  9. 700a3900: f247 40e0    	movw	r0, #0x74e0
  10. 700a3904: f2c7 000a    	movt	r0, #0x700a
  11. 700a3908: 6800         	ldr	r0, [r0]
  12. 700a390a: f7ff fe41    	bl	0x700a3590 <UART_getHandle> @ imm = #-0x37e
  13. 700a3590: b083         	sub	sp, #0xc
  14. 700a3592: 9002         	str	r0, [sp, #0x8]
  15. 700a3594: 2000         	movs	r0, #0x0

P_HDR Event: Idx:64188 (Pattern: EEEEEEN, Function: UART_getHandle)
Executed Assembly Steps:
  1. 700a3596: 9001         	str	r0, [sp, #0x4]
  2. 700a3598: 9802         	ldr	r0, [sp, #0x8]
  3. 700a359a: f247 41e8    	movw	r1, #0x74e8
  4. 700a359e: f2c7 010a    	movt	r1, #0x700a
  5. 700a35a2: 6809         	ldr	r1, [r1]
  6. 700a35a4: 4288         	cmp	r0, r1
  7. 700a35a6: d217         	bhs	0x700a35d8 <UART_getHandle+0x48> @ imm = #0x2e

P_HDR Event: Idx:64189 (Pattern: EEEEEEEEN, Function: UART_getHandle)
Executed Assembly Steps:
  1. 700a35a8: e7ff         	b	0x700a35aa <UART_getHandle+0x1a> @ imm = #-0x2
  2. 700a35aa: 9902         	ldr	r1, [sp, #0x8]
  3. 700a35ac: f247 40a8    	movw	r0, #0x74a8
  4. 700a35b0: f2c7 000a    	movt	r0, #0x700a
  5. 700a35b4: eb00 00c1    	add.w	r0, r0, r1, lsl #3
  6. 700a35b8: 6840         	ldr	r0, [r0, #0x4]
  7. 700a35ba: 9000         	str	r0, [sp]
  8. 700a35bc: 9800         	ldr	r0, [sp]
  9. 700a35be: b150         	cbz	r0, 0x700a35d6 <UART_getHandle+0x46> @ imm = #0x14

P_HDR Event: Idx:64190 (Pattern: EEEEEEEEE, Function: UART_getHandle)
Executed Assembly Steps:
  1. 700a35c0: e7ff         	b	0x700a35c2 <UART_getHandle+0x32> @ imm = #-0x2
  2. 700a35c2: 9800         	ldr	r0, [sp]
  3. 700a35c4: f8d0 0084    	ldr.w	r0, [r0, #0x84]
  4. 700a35c8: 2801         	cmp	r0, #0x1
  5. 700a35ca: d104         	bne	0x700a35d6 <UART_getHandle+0x46> @ imm = #0x8
  6. 700a35d6: e7ff         	b	0x700a35d8 <UART_getHandle+0x48> @ imm = #-0x2
  7. 700a35d8: 9801         	ldr	r0, [sp, #0x4]
  8. 700a35da: b003         	add	sp, #0xc
  9. 700a35dc: 4770         	bx	lr

Sync: Idx:64192; ID:10;	BRANCH_ADDRESS : Branch address.; Addr=0x700A390E ~[0xA390E];

P_HDR Event: Idx:64195 (Pattern: EEEEE, Function: DebugP_uartLogWriterPutChar)
Executed Assembly Steps:
  1. 700a390e: 9006         	str	r0, [sp, #0x18]
  2. 700a3910: 9806         	ldr	r0, [sp, #0x18]
  3. 700a3912: b170         	cbz	r0, 0x700a3932 <DebugP_uartLogWriterPutChar+0x42> @ imm = #0x1c
  4. 700a3932: b008         	add	sp, #0x20
  5. 700a3934: bd80         	pop	{r7, pc}

Sync: Idx:64196; ID:10;	BRANCH_ADDRESS : Branch address.; Addr=0x700A4A3E ~[0xA4A3E];

P_HDR Event: Idx:64199 (Pattern: EEE, Function: _out_char)
Executed Assembly Steps:
  1. 700a4a3e: e7ff         	b	0x700a4a40 <_out_char+0x20> @ imm = #-0x2
  2. 700a4a40: b004         	add	sp, #0x10
  3. 700a4a42: bd80         	pop	{r7, pc}

Sync: Idx:64200; ID:10;	BRANCH_ADDRESS : Branch address.; Addr=0x70098F58 ~[0x98F58];

P_HDR Event: Idx:64203 (Pattern: EEEEEEEN, Function: _vsnprintf)
Executed Assembly Steps:
  1. 70098f58: 983c         	ldr	r0, [sp, #0xf0]
  2. 70098f5a: 3001         	adds	r0, #0x1
  3. 70098f5c: 903c         	str	r0, [sp, #0xf0]
  4. 70098f5e: e7e6         	b	0x70098f2e <_vsnprintf+0x2e> @ imm = #-0x34
  5. 70098f2e: 983c         	ldr	r0, [sp, #0xf0]
  6. 70098f30: 7800         	ldrb	r0, [r0]
  7. 70098f32: 2800         	cmp	r0, #0x0
  8. 70098f34: f000 84e3    	beq.w	0x700998fe <_vsnprintf+0x9fe> @ imm = #0x9c6

P_HDR Event: Idx:64204 (Pattern: EEEEN, Function: _vsnprintf)
Executed Assembly Steps:
  1. 70098f38: e7ff         	b	0x70098f3a <_vsnprintf+0x3a> @ imm = #-0x2
  2. 70098f3a: 983c         	ldr	r0, [sp, #0xf0]
  3. 70098f3c: 7800         	ldrb	r0, [r0]
  4. 70098f3e: 2825         	cmp	r0, #0x25
  5. 70098f40: d00e         	beq	0x70098f60 <_vsnprintf+0x60> @ imm = #0x1c

P_HDR Event: Idx:64205 (Pattern: EEEEEEEEEE, Function: _vsnprintf)
Executed Assembly Steps:
  1. 70098f42: e7ff         	b	0x70098f44 <_vsnprintf+0x44> @ imm = #-0x2
  2. 70098f44: f8dd c0fc    	ldr.w	r12, [sp, #0xfc]
  3. 70098f48: 983c         	ldr	r0, [sp, #0xf0]
  4. 70098f4a: 7800         	ldrb	r0, [r0]
  5. 70098f4c: 993e         	ldr	r1, [sp, #0xf8]
  6. 70098f4e: 9a37         	ldr	r2, [sp, #0xdc]
  7. 70098f50: 1c53         	adds	r3, r2, #0x1
  8. 70098f52: 9337         	str	r3, [sp, #0xdc]
  9. 70098f54: 9b3d         	ldr	r3, [sp, #0xf4]
  10. 70098f56: 47e0         	blx	r12

Sync: Idx:64206; ID:10;	BRANCH_ADDRESS : Branch address.; Addr=0x700A4A20 ~[0xA4A20];

P_HDR Event: Idx:64210 (Pattern: EEEEEEEN, Function: _out_char)
Executed Assembly Steps:
  1. 700a4a20: b580         	push	{r7, lr}
  2. 700a4a22: b084         	sub	sp, #0x10
  3. 700a4a24: f88d 000f    	strb.w	r0, [sp, #0xf]
  4. 700a4a28: 9102         	str	r1, [sp, #0x8]
  5. 700a4a2a: 9201         	str	r2, [sp, #0x4]
  6. 700a4a2c: 9300         	str	r3, [sp]
  7. 700a4a2e: f89d 000f    	ldrb.w	r0, [sp, #0xf]
  8. 700a4a32: b128         	cbz	r0, 0x700a4a40 <_out_char+0x20> @ imm = #0xa

P_HDR Event: Idx:64211 (Pattern: EEEEEE, Function: _out_char)
Executed Assembly Steps:
  1. 700a4a34: e7ff         	b	0x700a4a36 <_out_char+0x16> @ imm = #-0x2
  2. 700a4a36: f89d 000f    	ldrb.w	r0, [sp, #0xf]
  3. 700a4a3a: f000 fa21    	bl	0x700a4e80 <putchar_>   @ imm = #0x442
  4. 700a4e80: b510         	push	{r4, lr}
  5. 700a4e82: 4604         	mov	r4, r0
  6. 700a4e84: f000 e9ac    	blx	0x700a51e0 <putchar>    @ imm = #0x358

Sync: Idx:64212; ID:10;	BRANCH_ADDRESS : Branch address.; Addr=0x700A51E0 ~[0x700A51E0]; ISA=ARM(32);

P_HDR Event: Idx:64217 (Pattern: EEEEEEEEE, Function: putchar)
Executed Assembly Steps:
  1. 700a51e0: e59f1004     	ldr	r1, [pc, #0x4]          @ 0x700a51ec <putchar+0xc>
  2. 700a51e4: e2811018     	add	r1, r1, #24
  3. 700a51e8: eaffe5b1     	b	0x7009e8b4 <fputc>      @ imm = #-0x693c
  4. 7009e8b4: e92d483c     	push	{r2, r3, r4, r5, r11, lr}
  5. 7009e8b8: e59f20e0     	ldr	r2, [pc, #0xe0]         @ 0x7009e9a0 <fputc+0xec>
  6. 7009e8bc: e1a04001     	mov	r4, r1
  7. 7009e8c0: e1a05000     	mov	r5, r0
  8. 7009e8c4: e5922000     	ldr	r2, [r2]
  9. 7009e8c8: e12fff32     	blx	r2

Sync: Idx:64218; ID:10;	BRANCH_ADDRESS : Branch address.; Addr=0x7009A2DC ~[0x9A2DC];

P_HDR Event: Idx:64221 (Pattern: E, Function: _nop)
Executed Assembly Steps:
  1. 7009a2dc: e12fff1e     	bx	lr

Sync: Idx:64222; ID:10;	BRANCH_ADDRESS : Branch address.; Addr=0x7009E8CC ~[0x68CC];

P_HDR Event: Idx:64225 (Pattern: EEEEEEEN, Function: fputc)
Executed Assembly Steps:
  1. 7009e8cc: e1a00004     	mov	r0, r4
  2. 7009e8d0: eb000949     	bl	0x700a0dfc <__TI_wrt_ok> @ imm = #0x2524
  3. 700a0dfc: e92d4010     	push	{r4, lr}
  4. 700a0e00: e1a04000     	mov	r4, r0
  5. 700a0e04: e5901000     	ldr	r1, [r0]
  6. 700a0e08: e3a00000     	mov	r0, #0
  7. 700a0e0c: e3710001     	cmn	r1, #1
  8. 700a0e10: 0a00001c     	beq	0x700a0e88 <__TI_wrt_ok+0x8c> @ imm = #0x70

P_HDR Event: Idx:64226 (Pattern: EEN, Function: __TI_wrt_ok)
Executed Assembly Steps:
  1. 700a0e14: e5941014     	ldr	r1, [r4, #0x14]
  2. 700a0e18: e3110010     	tst	r1, #16
  3. 700a0e1c: 1a00001a     	bne	0x700a0e8c <__TI_wrt_ok+0x90> @ imm = #0x68

P_HDR Event: Idx:64227 (Pattern: EEEEEEEE, Function: __TI_wrt_ok)
Executed Assembly Steps:
  1. 700a0e20: e3110080     	tst	r1, #128
  2. 700a0e24: 0a000004     	beq	0x700a0e3c <__TI_wrt_ok+0x40> @ imm = #0x10
  3. 700a0e3c: e2010060     	and	r0, r1, #96
  4. 700a0e40: e3500040     	cmp	r0, #64
  5. 700a0e44: 1a000001     	bne	0x700a0e50 <__TI_wrt_ok+0x54> @ imm = #0x4
  6. 700a0e50: e5942004     	ldr	r2, [r4, #0x4]
  7. 700a0e54: e3a00001     	mov	r0, #1
  8. 700a0e58: e3520000     	cmp	r2, #0

P_HDR Event: Idx:64228 (Pattern: NE, Function: __TI_wrt_ok)
Executed Assembly Steps:
  1. 700a0e5c: 02112004     	andseq	r2, r1, #4
  2. 700a0e60: 1a000006     	bne	0x700a0e80 <__TI_wrt_ok+0x84> @ imm = #0x18

P_HDR Event: Idx:64229 (Pattern: EEE, Function: __TI_wrt_ok)
Executed Assembly Steps:
  1. 700a0e80: e594100c     	ldr	r1, [r4, #0xc]
  2. 700a0e84: e5841010     	str	r1, [r4, #0x10]
  3. 700a0e88: e8bd8010     	pop	{r4, pc}

Sync: Idx:64230; ID:10;	BRANCH_ADDRESS : Branch address.; Addr=0x7009E8D4 ~[0xD4];

P_HDR Event: Idx:64231 (Pattern: EN, Function: fputc)
Executed Assembly Steps:
  1. 7009e8d4: e3500000     	cmp	r0, #0
  2. 7009e8d8: 0a00000b     	beq	0x7009e90c <fputc+0x58> @ imm = #0x2c

P_HDR Event: Idx:64232 (Pattern: EEEEEEEEEEEEEEE, Function: fputc)
Executed Assembly Steps:
  1. 7009e8dc: e5940014     	ldr	r0, [r4, #0x14]
  2. 7009e8e0: e2000007     	and	r0, r0, #7
  3. 7009e8e4: e3500004     	cmp	r0, #4
  4. 7009e8e8: 1a00000a     	bne	0x7009e918 <fputc+0x64> @ imm = #0x28
  5. 7009e918: e5940008     	ldr	r0, [r4, #0x8]
  6. 7009e91c: e594100c     	ldr	r1, [r4, #0xc]
  7. 7009e920: e1500001     	cmp	r0, r1
  8. 7009e924: 3a000004     	blo	0x7009e93c <fputc+0x88> @ imm = #0x10
  9. 7009e93c: e2801001     	add	r1, r0, #1
  10. 7009e940: e355000a     	cmp	r5, #10
  11. 7009e944: e5841008     	str	r1, [r4, #0x8]
  12. 7009e948: e5c05000     	strb	r5, [r0]
  13. 7009e94c: 1a00000e     	bne	0x7009e98c <fputc+0xd8> @ imm = #0x38
  14. 7009e98c: e59f0010     	ldr	r0, [pc, #0x10]         @ 0x7009e9a4 <fputc+0xf0>
  15. 7009e990: e5900000     	ldr	r0, [r0]

P_HDR Event: Idx:64233 (Pattern: E, Function: fputc)
Executed Assembly Steps:
  1. 7009e994: e12fff30     	blx	r0

Sync: Idx:64234; ID:10;	BRANCH_ADDRESS : Branch address.; Addr=0x7009A2DC ~[0x22DC];

P_HDR Event: Idx:64236 (Pattern: E, Function: _nop)
Executed Assembly Steps:
  1. 7009a2dc: e12fff1e     	bx	lr

Sync: Idx:64237; ID:10;	BRANCH_ADDRESS : Branch address.; Addr=0x7009E998 ~[0x6998];

P_HDR Event: Idx:64240 (Pattern: EE, Function: fputc)
Executed Assembly Steps:
  1. 7009e998: e6ef0075     	uxtb	r0, r5
  2. 7009e99c: e8bd883c     	pop	{r2, r3, r4, r5, r11, pc}

Sync: Idx:64241; ID:10;	BRANCH_ADDRESS : Branch address.; Addr=0x700A4E88 ~[0x700A4E88]; ISA=Thumb2;

P_HDR Event: Idx:64246 (Pattern: EEEEEEEEEEEEEEE, Function: putchar_)
Executed Assembly Steps:
  1. 700a4e88: 4620         	mov	r0, r4
  2. 700a4e8a: f7f8 fa11    	bl	0x7009d2b0 <DebugP_memLogWriterPutChar> @ imm = #-0x7bde
  3. 7009d2b0: b580         	push	{r7, lr}
  4. 7009d2b2: b088         	sub	sp, #0x20
  5. 7009d2b4: f88d 001f    	strb.w	r0, [sp, #0x1f]
  6. 7009d2b8: f247 30cc    	movw	r0, #0x73cc
  7. 7009d2bc: f2c7 000a    	movt	r0, #0x700a
  8. 7009d2c0: 6800         	ldr	r0, [r0]
  9. 7009d2c2: bb40         	cbnz	r0, 0x7009d316 <DebugP_memLogWriterPutChar+0x66> @ imm = #0x50
  10. 7009d316: f89d 001f    	ldrb.w	r0, [sp, #0x1f]
  11. 7009d31a: f247 31cc    	movw	r1, #0x73cc
  12. 7009d31e: f2c7 010a    	movt	r1, #0x700a
  13. 7009d322: 680b         	ldr	r3, [r1]
  14. 7009d324: f644 42e0    	movw	r2, #0x4ce0
  15. 7009d328: f2c7 0208    	movt	r2, #0x7008

P_HDR Event: Idx:64247 (Pattern: EEEEEEN, Function: DebugP_memLogWriterPutChar)
Executed Assembly Steps:
  1. 7009d32c: 54d0         	strb	r0, [r2, r3]
  2. 7009d32e: 6808         	ldr	r0, [r1]
  3. 7009d330: 3001         	adds	r0, #0x1
  4. 7009d332: 6008         	str	r0, [r1]
  5. 7009d334: f89d 001f    	ldrb.w	r0, [sp, #0x1f]
  6. 7009d338: 280a         	cmp	r0, #0xa
  7. 7009d33a: d008         	beq	0x7009d34e <DebugP_memLogWriterPutChar+0x9e> @ imm = #0x10

P_HDR Event: Idx:64248 (Pattern: EEEEEEEE, Function: DebugP_memLogWriterPutChar)
Executed Assembly Steps:
  1. 7009d33c: e7ff         	b	0x7009d33e <DebugP_memLogWriterPutChar+0x8e> @ imm = #-0x2
  2. 7009d33e: f247 30cc    	movw	r0, #0x73cc
  3. 7009d342: f2c7 000a    	movt	r0, #0x700a
  4. 7009d346: 6800         	ldr	r0, [r0]
  5. 7009d348: 2878         	cmp	r0, #0x78
  6. 7009d34a: d350         	blo	0x7009d3ee <DebugP_memLogWriterPutChar+0x13e> @ imm = #0xa0
  7. 7009d3ee: b008         	add	sp, #0x20
  8. 7009d3f0: bd80         	pop	{r7, pc}

Sync: Idx:64249; ID:10;	BRANCH_ADDRESS : Branch address.; Addr=0x700A4E8E ~[0xE];

P_HDR Event: Idx:64250 (Pattern: EEEEEEEEEEEEEEE, Function: putchar_)
Executed Assembly Steps:
  1. 700a4e8e: 4620         	mov	r0, r4
  2. 700a4e90: e8bd 4010    	pop.w	{r4, lr}
  3. 700a4e94: f7fe bd2c    	b.w	0x700a38f0 <DebugP_uartLogWriterPutChar> @ imm = #-0x15a8
  4. 700a38f0: b580         	push	{r7, lr}
  5. 700a38f2: b088         	sub	sp, #0x20
  6. 700a38f4: f88d 001f    	strb.w	r0, [sp, #0x1f]
  7. 700a38f8: f89d 001f    	ldrb.w	r0, [sp, #0x1f]
  8. 700a38fc: f88d 001e    	strb.w	r0, [sp, #0x1e]
  9. 700a3900: f247 40e0    	movw	r0, #0x74e0
  10. 700a3904: f2c7 000a    	movt	r0, #0x700a
  11. 700a3908: 6800         	ldr	r0, [r0]
  12. 700a390a: f7ff fe41    	bl	0x700a3590 <UART_getHandle> @ imm = #-0x37e
  13. 700a3590: b083         	sub	sp, #0xc
  14. 700a3592: 9002         	str	r0, [sp, #0x8]
  15. 700a3594: 2000         	movs	r0, #0x0

P_HDR Event: Idx:64251 (Pattern: EEEEEEN, Function: UART_getHandle)
Executed Assembly Steps:
  1. 700a3596: 9001         	str	r0, [sp, #0x4]
  2. 700a3598: 9802         	ldr	r0, [sp, #0x8]
  3. 700a359a: f247 41e8    	movw	r1, #0x74e8
  4. 700a359e: f2c7 010a    	movt	r1, #0x700a
  5. 700a35a2: 6809         	ldr	r1, [r1]
  6. 700a35a4: 4288         	cmp	r0, r1
  7. 700a35a6: d217         	bhs	0x700a35d8 <UART_getHandle+0x48> @ imm = #0x2e

P_HDR Event: Idx:64252 (Pattern: EEEEEEEEN, Function: UART_getHandle)
Executed Assembly Steps:
  1. 700a35a8: e7ff         	b	0x700a35aa <UART_getHandle+0x1a> @ imm = #-0x2
  2. 700a35aa: 9902         	ldr	r1, [sp, #0x8]
  3. 700a35ac: f247 40a8    	movw	r0, #0x74a8
  4. 700a35b0: f2c7 000a    	movt	r0, #0x700a
  5. 700a35b4: eb00 00c1    	add.w	r0, r0, r1, lsl #3
  6. 700a35b8: 6840         	ldr	r0, [r0, #0x4]
  7. 700a35ba: 9000         	str	r0, [sp]
  8. 700a35bc: 9800         	ldr	r0, [sp]
  9. 700a35be: b150         	cbz	r0, 0x700a35d6 <UART_getHandle+0x46> @ imm = #0x14

P_HDR Event: Idx:64253 (Pattern: EEEEEEEEE, Function: UART_getHandle)
Executed Assembly Steps:
  1. 700a35c0: e7ff         	b	0x700a35c2 <UART_getHandle+0x32> @ imm = #-0x2
  2. 700a35c2: 9800         	ldr	r0, [sp]
  3. 700a35c4: f8d0 0084    	ldr.w	r0, [r0, #0x84]
  4. 700a35c8: 2801         	cmp	r0, #0x1
  5. 700a35ca: d104         	bne	0x700a35d6 <UART_getHandle+0x46> @ imm = #0x8
  6. 700a35d6: e7ff         	b	0x700a35d8 <UART_getHandle+0x48> @ imm = #-0x2
  7. 700a35d8: 9801         	ldr	r0, [sp, #0x4]
  8. 700a35da: b003         	add	sp, #0xc
  9. 700a35dc: 4770         	bx	lr

Sync: Idx:64254; ID:10;	BRANCH_ADDRESS : Branch address.; Addr=0x700A390E ~[0xA390E];

P_HDR Event: Idx:64258 (Pattern: EEEEE, Function: DebugP_uartLogWriterPutChar)
Executed Assembly Steps:
  1. 700a390e: 9006         	str	r0, [sp, #0x18]
  2. 700a3910: 9806         	ldr	r0, [sp, #0x18]
  3. 700a3912: b170         	cbz	r0, 0x700a3932 <DebugP_uartLogWriterPutChar+0x42> @ imm = #0x1c
  4. 700a3932: b008         	add	sp, #0x20
  5. 700a3934: bd80         	pop	{r7, pc}

Sync: Idx:64259; ID:10;	BRANCH_ADDRESS : Branch address.; Addr=0x700A4A3E ~[0xA4A3E];

P_HDR Event: Idx:64262 (Pattern: EEE, Function: _out_char)
Executed Assembly Steps:
  1. 700a4a3e: e7ff         	b	0x700a4a40 <_out_char+0x20> @ imm = #-0x2
  2. 700a4a40: b004         	add	sp, #0x10
  3. 700a4a42: bd80         	pop	{r7, pc}

Sync: Idx:64263; ID:10;	BRANCH_ADDRESS : Branch address.; Addr=0x70098F58 ~[0x98F58];

P_HDR Event: Idx:64266 (Pattern: EEEEEEEN, Function: _vsnprintf)
Executed Assembly Steps:
  1. 70098f58: 983c         	ldr	r0, [sp, #0xf0]
  2. 70098f5a: 3001         	adds	r0, #0x1
  3. 70098f5c: 903c         	str	r0, [sp, #0xf0]
  4. 70098f5e: e7e6         	b	0x70098f2e <_vsnprintf+0x2e> @ imm = #-0x34
  5. 70098f2e: 983c         	ldr	r0, [sp, #0xf0]
  6. 70098f30: 7800         	ldrb	r0, [r0]
  7. 70098f32: 2800         	cmp	r0, #0x0
  8. 70098f34: f000 84e3    	beq.w	0x700998fe <_vsnprintf+0x9fe> @ imm = #0x9c6

P_HDR Event: Idx:64267 (Pattern: EEEEN, Function: _vsnprintf)
Executed Assembly Steps:
  1. 70098f38: e7ff         	b	0x70098f3a <_vsnprintf+0x3a> @ imm = #-0x2
  2. 70098f3a: 983c         	ldr	r0, [sp, #0xf0]
  3. 70098f3c: 7800         	ldrb	r0, [r0]
  4. 70098f3e: 2825         	cmp	r0, #0x25
  5. 70098f40: d00e         	beq	0x70098f60 <_vsnprintf+0x60> @ imm = #0x1c

P_HDR Event: Idx:64268 (Pattern: EEEEEEEEEE, Function: _vsnprintf)
Executed Assembly Steps:
  1. 70098f42: e7ff         	b	0x70098f44 <_vsnprintf+0x44> @ imm = #-0x2
  2. 70098f44: f8dd c0fc    	ldr.w	r12, [sp, #0xfc]
  3. 70098f48: 983c         	ldr	r0, [sp, #0xf0]
  4. 70098f4a: 7800         	ldrb	r0, [r0]
  5. 70098f4c: 993e         	ldr	r1, [sp, #0xf8]
  6. 70098f4e: 9a37         	ldr	r2, [sp, #0xdc]
  7. 70098f50: 1c53         	adds	r3, r2, #0x1
  8. 70098f52: 9337         	str	r3, [sp, #0xdc]
  9. 70098f54: 9b3d         	ldr	r3, [sp, #0xf4]
  10. 70098f56: 47e0         	blx	r12

Sync: Idx:64269; ID:10;	BRANCH_ADDRESS : Branch address.; Addr=0x700A4A20 ~[0xA4A20];

P_HDR Event: Idx:64273 (Pattern: EEEEEEEN, Function: _out_char)
Executed Assembly Steps:
  1. 700a4a20: b580         	push	{r7, lr}
  2. 700a4a22: b084         	sub	sp, #0x10
  3. 700a4a24: f88d 000f    	strb.w	r0, [sp, #0xf]
  4. 700a4a28: 9102         	str	r1, [sp, #0x8]
  5. 700a4a2a: 9201         	str	r2, [sp, #0x4]
  6. 700a4a2c: 9300         	str	r3, [sp]
  7. 700a4a2e: f89d 000f    	ldrb.w	r0, [sp, #0xf]
  8. 700a4a32: b128         	cbz	r0, 0x700a4a40 <_out_char+0x20> @ imm = #0xa

P_HDR Event: Idx:64274 (Pattern: EEEEEE, Function: _out_char)
Executed Assembly Steps:
  1. 700a4a34: e7ff         	b	0x700a4a36 <_out_char+0x16> @ imm = #-0x2
  2. 700a4a36: f89d 000f    	ldrb.w	r0, [sp, #0xf]
  3. 700a4a3a: f000 fa21    	bl	0x700a4e80 <putchar_>   @ imm = #0x442
  4. 700a4e80: b510         	push	{r4, lr}
  5. 700a4e82: 4604         	mov	r4, r0
  6. 700a4e84: f000 e9ac    	blx	0x700a51e0 <putchar>    @ imm = #0x358

Sync: Idx:64275; ID:10;	BRANCH_ADDRESS : Branch address.; Addr=0x700A51E0 ~[0x700A51E0]; ISA=ARM(32);

P_HDR Event: Idx:64280 (Pattern: EEEEEEEEE, Function: putchar)
Executed Assembly Steps:
  1. 700a51e0: e59f1004     	ldr	r1, [pc, #0x4]          @ 0x700a51ec <putchar+0xc>
  2. 700a51e4: e2811018     	add	r1, r1, #24
  3. 700a51e8: eaffe5b1     	b	0x7009e8b4 <fputc>      @ imm = #-0x693c
  4. 7009e8b4: e92d483c     	push	{r2, r3, r4, r5, r11, lr}
  5. 7009e8b8: e59f20e0     	ldr	r2, [pc, #0xe0]         @ 0x7009e9a0 <fputc+0xec>
  6. 7009e8bc: e1a04001     	mov	r4, r1
  7. 7009e8c0: e1a05000     	mov	r5, r0
  8. 7009e8c4: e5922000     	ldr	r2, [r2]
  9. 7009e8c8: e12fff32     	blx	r2

Sync: Idx:64281; ID:10;	BRANCH_ADDRESS : Branch address.; Addr=0x7009A2DC ~[0x9A2DC];

P_HDR Event: Idx:64284 (Pattern: E, Function: _nop)
Executed Assembly Steps:
  1. 7009a2dc: e12fff1e     	bx	lr

Sync: Idx:64285; ID:10;	BRANCH_ADDRESS : Branch address.; Addr=0x7009E8CC ~[0x68CC];

P_HDR Event: Idx:64288 (Pattern: EEEEEEEN, Function: fputc)
Executed Assembly Steps:
  1. 7009e8cc: e1a00004     	mov	r0, r4
  2. 7009e8d0: eb000949     	bl	0x700a0dfc <__TI_wrt_ok> @ imm = #0x2524
  3. 700a0dfc: e92d4010     	push	{r4, lr}
  4. 700a0e00: e1a04000     	mov	r4, r0
  5. 700a0e04: e5901000     	ldr	r1, [r0]
  6. 700a0e08: e3a00000     	mov	r0, #0
  7. 700a0e0c: e3710001     	cmn	r1, #1
  8. 700a0e10: 0a00001c     	beq	0x700a0e88 <__TI_wrt_ok+0x8c> @ imm = #0x70

P_HDR Event: Idx:64289 (Pattern: EEN, Function: __TI_wrt_ok)
Executed Assembly Steps:
  1. 700a0e14: e5941014     	ldr	r1, [r4, #0x14]
  2. 700a0e18: e3110010     	tst	r1, #16
  3. 700a0e1c: 1a00001a     	bne	0x700a0e8c <__TI_wrt_ok+0x90> @ imm = #0x68

P_HDR Event: Idx:64290 (Pattern: EEEEEEEE, Function: __TI_wrt_ok)
Executed Assembly Steps:
  1. 700a0e20: e3110080     	tst	r1, #128
  2. 700a0e24: 0a000004     	beq	0x700a0e3c <__TI_wrt_ok+0x40> @ imm = #0x10
  3. 700a0e3c: e2010060     	and	r0, r1, #96
  4. 700a0e40: e3500040     	cmp	r0, #64
  5. 700a0e44: 1a000001     	bne	0x700a0e50 <__TI_wrt_ok+0x54> @ imm = #0x4
  6. 700a0e50: e5942004     	ldr	r2, [r4, #0x4]
  7. 700a0e54: e3a00001     	mov	r0, #1
  8. 700a0e58: e3520000     	cmp	r2, #0

P_HDR Event: Idx:64291 (Pattern: NE, Function: __TI_wrt_ok)
Executed Assembly Steps:
  1. 700a0e5c: 02112004     	andseq	r2, r1, #4
  2. 700a0e60: 1a000006     	bne	0x700a0e80 <__TI_wrt_ok+0x84> @ imm = #0x18

P_HDR Event: Idx:64292 (Pattern: EEE, Function: __TI_wrt_ok)
Executed Assembly Steps:
  1. 700a0e80: e594100c     	ldr	r1, [r4, #0xc]
  2. 700a0e84: e5841010     	str	r1, [r4, #0x10]
  3. 700a0e88: e8bd8010     	pop	{r4, pc}

Sync: Idx:64293; ID:10;	BRANCH_ADDRESS : Branch address.; Addr=0x7009E8D4 ~[0xD4];

P_HDR Event: Idx:64294 (Pattern: EN, Function: fputc)
Executed Assembly Steps:
  1. 7009e8d4: e3500000     	cmp	r0, #0
  2. 7009e8d8: 0a00000b     	beq	0x7009e90c <fputc+0x58> @ imm = #0x2c

P_HDR Event: Idx:64295 (Pattern: EEEEEEEEEEEEEEE, Function: fputc)
Executed Assembly Steps:
  1. 7009e8dc: e5940014     	ldr	r0, [r4, #0x14]
  2. 7009e8e0: e2000007     	and	r0, r0, #7
  3. 7009e8e4: e3500004     	cmp	r0, #4
  4. 7009e8e8: 1a00000a     	bne	0x7009e918 <fputc+0x64> @ imm = #0x28
  5. 7009e918: e5940008     	ldr	r0, [r4, #0x8]
  6. 7009e91c: e594100c     	ldr	r1, [r4, #0xc]
  7. 7009e920: e1500001     	cmp	r0, r1
  8. 7009e924: 3a000004     	blo	0x7009e93c <fputc+0x88> @ imm = #0x10
  9. 7009e93c: e2801001     	add	r1, r0, #1
  10. 7009e940: e355000a     	cmp	r5, #10
  11. 7009e944: e5841008     	str	r1, [r4, #0x8]
  12. 7009e948: e5c05000     	strb	r5, [r0]
  13. 7009e94c: 1a00000e     	bne	0x7009e98c <fputc+0xd8> @ imm = #0x38
  14. 7009e98c: e59f0010     	ldr	r0, [pc, #0x10]         @ 0x7009e9a4 <fputc+0xf0>
  15. 7009e990: e5900000     	ldr	r0, [r0]

P_HDR Event: Idx:64296 (Pattern: E, Function: fputc)
Executed Assembly Steps:
  1. 7009e994: e12fff30     	blx	r0

Sync: Idx:64297; ID:10;	BRANCH_ADDRESS : Branch address.; Addr=0x7009A2DC ~[0x22DC];

P_HDR Event: Idx:64299 (Pattern: E, Function: _nop)
Executed Assembly Steps:
  1. 7009a2dc: e12fff1e     	bx	lr

Sync: Idx:64300; ID:10;	BRANCH_ADDRESS : Branch address.; Addr=0x7009E998 ~[0x6998];

P_HDR Event: Idx:64302 (Pattern: EE, Function: fputc)
Executed Assembly Steps:
  1. 7009e998: e6ef0075     	uxtb	r0, r5
  2. 7009e99c: e8bd883c     	pop	{r2, r3, r4, r5, r11, pc}

Sync: Idx:64304; ID:10;	BRANCH_ADDRESS : Branch address.; Addr=0x700A4E88 ~[0x700A4E88]; ISA=Thumb2;

P_HDR Event: Idx:64309 (Pattern: EEEEEEEEEEEEEEE, Function: putchar_)
Executed Assembly Steps:
  1. 700a4e88: 4620         	mov	r0, r4
  2. 700a4e8a: f7f8 fa11    	bl	0x7009d2b0 <DebugP_memLogWriterPutChar> @ imm = #-0x7bde
  3. 7009d2b0: b580         	push	{r7, lr}
  4. 7009d2b2: b088         	sub	sp, #0x20
  5. 7009d2b4: f88d 001f    	strb.w	r0, [sp, #0x1f]
  6. 7009d2b8: f247 30cc    	movw	r0, #0x73cc
  7. 7009d2bc: f2c7 000a    	movt	r0, #0x700a
  8. 7009d2c0: 6800         	ldr	r0, [r0]
  9. 7009d2c2: bb40         	cbnz	r0, 0x7009d316 <DebugP_memLogWriterPutChar+0x66> @ imm = #0x50
  10. 7009d316: f89d 001f    	ldrb.w	r0, [sp, #0x1f]
  11. 7009d31a: f247 31cc    	movw	r1, #0x73cc
  12. 7009d31e: f2c7 010a    	movt	r1, #0x700a
  13. 7009d322: 680b         	ldr	r3, [r1]
  14. 7009d324: f644 42e0    	movw	r2, #0x4ce0
  15. 7009d328: f2c7 0208    	movt	r2, #0x7008

P_HDR Event: Idx:64310 (Pattern: EEEEEEN, Function: DebugP_memLogWriterPutChar)
Executed Assembly Steps:
  1. 7009d32c: 54d0         	strb	r0, [r2, r3]
  2. 7009d32e: 6808         	ldr	r0, [r1]
  3. 7009d330: 3001         	adds	r0, #0x1
  4. 7009d332: 6008         	str	r0, [r1]
  5. 7009d334: f89d 001f    	ldrb.w	r0, [sp, #0x1f]
  6. 7009d338: 280a         	cmp	r0, #0xa
  7. 7009d33a: d008         	beq	0x7009d34e <DebugP_memLogWriterPutChar+0x9e> @ imm = #0x10

P_HDR Event: Idx:64311 (Pattern: EEEEEEEE, Function: DebugP_memLogWriterPutChar)
Executed Assembly Steps:
  1. 7009d33c: e7ff         	b	0x7009d33e <DebugP_memLogWriterPutChar+0x8e> @ imm = #-0x2
  2. 7009d33e: f247 30cc    	movw	r0, #0x73cc
  3. 7009d342: f2c7 000a    	movt	r0, #0x700a
  4. 7009d346: 6800         	ldr	r0, [r0]
  5. 7009d348: 2878         	cmp	r0, #0x78
  6. 7009d34a: d350         	blo	0x7009d3ee <DebugP_memLogWriterPutChar+0x13e> @ imm = #0xa0
  7. 7009d3ee: b008         	add	sp, #0x20
  8. 7009d3f0: bd80         	pop	{r7, pc}

Sync: Idx:64312; ID:10;	BRANCH_ADDRESS : Branch address.; Addr=0x700A4E8E ~[0xE];

P_HDR Event: Idx:64313 (Pattern: EEEEEEEEEEEEEEE, Function: putchar_)
Executed Assembly Steps:
  1. 700a4e8e: 4620         	mov	r0, r4
  2. 700a4e90: e8bd 4010    	pop.w	{r4, lr}
  3. 700a4e94: f7fe bd2c    	b.w	0x700a38f0 <DebugP_uartLogWriterPutChar> @ imm = #-0x15a8
  4. 700a38f0: b580         	push	{r7, lr}
  5. 700a38f2: b088         	sub	sp, #0x20
  6. 700a38f4: f88d 001f    	strb.w	r0, [sp, #0x1f]
  7. 700a38f8: f89d 001f    	ldrb.w	r0, [sp, #0x1f]
  8. 700a38fc: f88d 001e    	strb.w	r0, [sp, #0x1e]
  9. 700a3900: f247 40e0    	movw	r0, #0x74e0
  10. 700a3904: f2c7 000a    	movt	r0, #0x700a
  11. 700a3908: 6800         	ldr	r0, [r0]
  12. 700a390a: f7ff fe41    	bl	0x700a3590 <UART_getHandle> @ imm = #-0x37e
  13. 700a3590: b083         	sub	sp, #0xc
  14. 700a3592: 9002         	str	r0, [sp, #0x8]
  15. 700a3594: 2000         	movs	r0, #0x0

P_HDR Event: Idx:64314 (Pattern: EEEEEEN, Function: UART_getHandle)
Executed Assembly Steps:
  1. 700a3596: 9001         	str	r0, [sp, #0x4]
  2. 700a3598: 9802         	ldr	r0, [sp, #0x8]
  3. 700a359a: f247 41e8    	movw	r1, #0x74e8
  4. 700a359e: f2c7 010a    	movt	r1, #0x700a
  5. 700a35a2: 6809         	ldr	r1, [r1]
  6. 700a35a4: 4288         	cmp	r0, r1
  7. 700a35a6: d217         	bhs	0x700a35d8 <UART_getHandle+0x48> @ imm = #0x2e

P_HDR Event: Idx:64315 (Pattern: EEEEEEEEN, Function: UART_getHandle)
Executed Assembly Steps:
  1. 700a35a8: e7ff         	b	0x700a35aa <UART_getHandle+0x1a> @ imm = #-0x2
  2. 700a35aa: 9902         	ldr	r1, [sp, #0x8]
  3. 700a35ac: f247 40a8    	movw	r0, #0x74a8
  4. 700a35b0: f2c7 000a    	movt	r0, #0x700a
  5. 700a35b4: eb00 00c1    	add.w	r0, r0, r1, lsl #3
  6. 700a35b8: 6840         	ldr	r0, [r0, #0x4]
  7. 700a35ba: 9000         	str	r0, [sp]
  8. 700a35bc: 9800         	ldr	r0, [sp]
  9. 700a35be: b150         	cbz	r0, 0x700a35d6 <UART_getHandle+0x46> @ imm = #0x14

P_HDR Event: Idx:64316 (Pattern: EEEEEEEEE, Function: UART_getHandle)
Executed Assembly Steps:
  1. 700a35c0: e7ff         	b	0x700a35c2 <UART_getHandle+0x32> @ imm = #-0x2
  2. 700a35c2: 9800         	ldr	r0, [sp]
  3. 700a35c4: f8d0 0084    	ldr.w	r0, [r0, #0x84]
  4. 700a35c8: 2801         	cmp	r0, #0x1
  5. 700a35ca: d104         	bne	0x700a35d6 <UART_getHandle+0x46> @ imm = #0x8
  6. 700a35d6: e7ff         	b	0x700a35d8 <UART_getHandle+0x48> @ imm = #-0x2
  7. 700a35d8: 9801         	ldr	r0, [sp, #0x4]
  8. 700a35da: b003         	add	sp, #0xc
  9. 700a35dc: 4770         	bx	lr

Sync: Idx:64317; ID:10;	BRANCH_ADDRESS : Branch address.; Addr=0x700A390E ~[0xA390E];

P_HDR Event: Idx:64321 (Pattern: EEEEE, Function: DebugP_uartLogWriterPutChar)
Executed Assembly Steps:
  1. 700a390e: 9006         	str	r0, [sp, #0x18]
  2. 700a3910: 9806         	ldr	r0, [sp, #0x18]
  3. 700a3912: b170         	cbz	r0, 0x700a3932 <DebugP_uartLogWriterPutChar+0x42> @ imm = #0x1c
  4. 700a3932: b008         	add	sp, #0x20
  5. 700a3934: bd80         	pop	{r7, pc}

Sync: Idx:64322; ID:10;	BRANCH_ADDRESS : Branch address.; Addr=0x700A4A3E ~[0xA4A3E];

P_HDR Event: Idx:64325 (Pattern: EEE, Function: _out_char)
Executed Assembly Steps:
  1. 700a4a3e: e7ff         	b	0x700a4a40 <_out_char+0x20> @ imm = #-0x2
  2. 700a4a40: b004         	add	sp, #0x10
  3. 700a4a42: bd80         	pop	{r7, pc}

Sync: Idx:64326; ID:10;	BRANCH_ADDRESS : Branch address.; Addr=0x70098F58 ~[0x98F58];

P_HDR Event: Idx:64329 (Pattern: EEEEEEEN, Function: _vsnprintf)
Executed Assembly Steps:
  1. 70098f58: 983c         	ldr	r0, [sp, #0xf0]
  2. 70098f5a: 3001         	adds	r0, #0x1
  3. 70098f5c: 903c         	str	r0, [sp, #0xf0]
  4. 70098f5e: e7e6         	b	0x70098f2e <_vsnprintf+0x2e> @ imm = #-0x34
  5. 70098f2e: 983c         	ldr	r0, [sp, #0xf0]
  6. 70098f30: 7800         	ldrb	r0, [r0]
  7. 70098f32: 2800         	cmp	r0, #0x0
  8. 70098f34: f000 84e3    	beq.w	0x700998fe <_vsnprintf+0x9fe> @ imm = #0x9c6

P_HDR Event: Idx:64330 (Pattern: EEEEN, Function: _vsnprintf)
Executed Assembly Steps:
  1. 70098f38: e7ff         	b	0x70098f3a <_vsnprintf+0x3a> @ imm = #-0x2
  2. 70098f3a: 983c         	ldr	r0, [sp, #0xf0]
  3. 70098f3c: 7800         	ldrb	r0, [r0]
  4. 70098f3e: 2825         	cmp	r0, #0x25
  5. 70098f40: d00e         	beq	0x70098f60 <_vsnprintf+0x60> @ imm = #0x1c

P_HDR Event: Idx:64331 (Pattern: EEEEEEEEEE, Function: _vsnprintf)
Executed Assembly Steps:
  1. 70098f42: e7ff         	b	0x70098f44 <_vsnprintf+0x44> @ imm = #-0x2
  2. 70098f44: f8dd c0fc    	ldr.w	r12, [sp, #0xfc]
  3. 70098f48: 983c         	ldr	r0, [sp, #0xf0]
  4. 70098f4a: 7800         	ldrb	r0, [r0]
  5. 70098f4c: 993e         	ldr	r1, [sp, #0xf8]
  6. 70098f4e: 9a37         	ldr	r2, [sp, #0xdc]
  7. 70098f50: 1c53         	adds	r3, r2, #0x1
  8. 70098f52: 9337         	str	r3, [sp, #0xdc]
  9. 70098f54: 9b3d         	ldr	r3, [sp, #0xf4]
  10. 70098f56: 47e0         	blx	r12

Sync: Idx:64332; ID:10;	BRANCH_ADDRESS : Branch address.; Addr=0x700A4A20 ~[0xA4A20];

P_HDR Event: Idx:64336 (Pattern: EEEEEEEN, Function: _out_char)
Executed Assembly Steps:
  1. 700a4a20: b580         	push	{r7, lr}
  2. 700a4a22: b084         	sub	sp, #0x10
  3. 700a4a24: f88d 000f    	strb.w	r0, [sp, #0xf]
  4. 700a4a28: 9102         	str	r1, [sp, #0x8]
  5. 700a4a2a: 9201         	str	r2, [sp, #0x4]
  6. 700a4a2c: 9300         	str	r3, [sp]
  7. 700a4a2e: f89d 000f    	ldrb.w	r0, [sp, #0xf]
  8. 700a4a32: b128         	cbz	r0, 0x700a4a40 <_out_char+0x20> @ imm = #0xa

P_HDR Event: Idx:64337 (Pattern: EEEEEE, Function: _out_char)
Executed Assembly Steps:
  1. 700a4a34: e7ff         	b	0x700a4a36 <_out_char+0x16> @ imm = #-0x2
  2. 700a4a36: f89d 000f    	ldrb.w	r0, [sp, #0xf]
  3. 700a4a3a: f000 fa21    	bl	0x700a4e80 <putchar_>   @ imm = #0x442
  4. 700a4e80: b510         	push	{r4, lr}
  5. 700a4e82: 4604         	mov	r4, r0
  6. 700a4e84: f000 e9ac    	blx	0x700a51e0 <putchar>    @ imm = #0x358

Sync: Idx:64338; ID:10;	BRANCH_ADDRESS : Branch address.; Addr=0x700A51E0 ~[0x700A51E0]; ISA=ARM(32);

P_HDR Event: Idx:64343 (Pattern: EEEEEEEEE, Function: putchar)
Executed Assembly Steps:
  1. 700a51e0: e59f1004     	ldr	r1, [pc, #0x4]          @ 0x700a51ec <putchar+0xc>
  2. 700a51e4: e2811018     	add	r1, r1, #24
  3. 700a51e8: eaffe5b1     	b	0x7009e8b4 <fputc>      @ imm = #-0x693c
  4. 7009e8b4: e92d483c     	push	{r2, r3, r4, r5, r11, lr}
  5. 7009e8b8: e59f20e0     	ldr	r2, [pc, #0xe0]         @ 0x7009e9a0 <fputc+0xec>
  6. 7009e8bc: e1a04001     	mov	r4, r1
  7. 7009e8c0: e1a05000     	mov	r5, r0
  8. 7009e8c4: e5922000     	ldr	r2, [r2]
  9. 7009e8c8: e12fff32     	blx	r2

Sync: Idx:64344; ID:10;	BRANCH_ADDRESS : Branch address.; Addr=0x7009A2DC ~[0x9A2DC];

P_HDR Event: Idx:64347 (Pattern: E, Function: _nop)
Executed Assembly Steps:
  1. 7009a2dc: e12fff1e     	bx	lr

Sync: Idx:64348; ID:10;	BRANCH_ADDRESS : Branch address.; Addr=0x7009E8CC ~[0x68CC];

P_HDR Event: Idx:64350 (Pattern: EEEEEEEN, Function: fputc)
Executed Assembly Steps:
  1. 7009e8cc: e1a00004     	mov	r0, r4
  2. 7009e8d0: eb000949     	bl	0x700a0dfc <__TI_wrt_ok> @ imm = #0x2524
  3. 700a0dfc: e92d4010     	push	{r4, lr}
  4. 700a0e00: e1a04000     	mov	r4, r0
  5. 700a0e04: e5901000     	ldr	r1, [r0]
  6. 700a0e08: e3a00000     	mov	r0, #0
  7. 700a0e0c: e3710001     	cmn	r1, #1
  8. 700a0e10: 0a00001c     	beq	0x700a0e88 <__TI_wrt_ok+0x8c> @ imm = #0x70

P_HDR Event: Idx:64352 (Pattern: EEN, Function: __TI_wrt_ok)
Executed Assembly Steps:
  1. 700a0e14: e5941014     	ldr	r1, [r4, #0x14]
  2. 700a0e18: e3110010     	tst	r1, #16
  3. 700a0e1c: 1a00001a     	bne	0x700a0e8c <__TI_wrt_ok+0x90> @ imm = #0x68

P_HDR Event: Idx:64353 (Pattern: EEEEEEEE, Function: __TI_wrt_ok)
Executed Assembly Steps:
  1. 700a0e20: e3110080     	tst	r1, #128
  2. 700a0e24: 0a000004     	beq	0x700a0e3c <__TI_wrt_ok+0x40> @ imm = #0x10
  3. 700a0e3c: e2010060     	and	r0, r1, #96
  4. 700a0e40: e3500040     	cmp	r0, #64
  5. 700a0e44: 1a000001     	bne	0x700a0e50 <__TI_wrt_ok+0x54> @ imm = #0x4
  6. 700a0e50: e5942004     	ldr	r2, [r4, #0x4]
  7. 700a0e54: e3a00001     	mov	r0, #1
  8. 700a0e58: e3520000     	cmp	r2, #0

P_HDR Event: Idx:64354 (Pattern: NE, Function: __TI_wrt_ok)
Executed Assembly Steps:
  1. 700a0e5c: 02112004     	andseq	r2, r1, #4
  2. 700a0e60: 1a000006     	bne	0x700a0e80 <__TI_wrt_ok+0x84> @ imm = #0x18

P_HDR Event: Idx:64356 (Pattern: EEE, Function: __TI_wrt_ok)
Executed Assembly Steps:
  1. 700a0e80: e594100c     	ldr	r1, [r4, #0xc]
  2. 700a0e84: e5841010     	str	r1, [r4, #0x10]
  3. 700a0e88: e8bd8010     	pop	{r4, pc}

Sync: Idx:64357; ID:10;	BRANCH_ADDRESS : Branch address.; Addr=0x7009E8D4 ~[0xD4];

P_HDR Event: Idx:64358 (Pattern: EN, Function: fputc)
Executed Assembly Steps:
  1. 7009e8d4: e3500000     	cmp	r0, #0
  2. 7009e8d8: 0a00000b     	beq	0x7009e90c <fputc+0x58> @ imm = #0x2c

P_HDR Event: Idx:64359 (Pattern: EEEEEEEEEEEEEEE, Function: fputc)
Executed Assembly Steps:
  1. 7009e8dc: e5940014     	ldr	r0, [r4, #0x14]
  2. 7009e8e0: e2000007     	and	r0, r0, #7
  3. 7009e8e4: e3500004     	cmp	r0, #4
  4. 7009e8e8: 1a00000a     	bne	0x7009e918 <fputc+0x64> @ imm = #0x28
  5. 7009e918: e5940008     	ldr	r0, [r4, #0x8]
  6. 7009e91c: e594100c     	ldr	r1, [r4, #0xc]
  7. 7009e920: e1500001     	cmp	r0, r1
  8. 7009e924: 3a000004     	blo	0x7009e93c <fputc+0x88> @ imm = #0x10
  9. 7009e93c: e2801001     	add	r1, r0, #1
  10. 7009e940: e355000a     	cmp	r5, #10
  11. 7009e944: e5841008     	str	r1, [r4, #0x8]
  12. 7009e948: e5c05000     	strb	r5, [r0]
  13. 7009e94c: 1a00000e     	bne	0x7009e98c <fputc+0xd8> @ imm = #0x38
  14. 7009e98c: e59f0010     	ldr	r0, [pc, #0x10]         @ 0x7009e9a4 <fputc+0xf0>
  15. 7009e990: e5900000     	ldr	r0, [r0]

P_HDR Event: Idx:64360 (Pattern: E, Function: fputc)
Executed Assembly Steps:
  1. 7009e994: e12fff30     	blx	r0

Sync: Idx:64361; ID:10;	BRANCH_ADDRESS : Branch address.; Addr=0x7009A2DC ~[0x22DC];

P_HDR Event: Idx:64363 (Pattern: E, Function: _nop)
Executed Assembly Steps:
  1. 7009a2dc: e12fff1e     	bx	lr

Sync: Idx:64364; ID:10;	BRANCH_ADDRESS : Branch address.; Addr=0x7009E998 ~[0x6998];

P_HDR Event: Idx:64369 (Pattern: EE, Function: fputc)
Executed Assembly Steps:
  1. 7009e998: e6ef0075     	uxtb	r0, r5
  2. 7009e99c: e8bd883c     	pop	{r2, r3, r4, r5, r11, pc}

Sync: Idx:64370; ID:10;	BRANCH_ADDRESS : Branch address.; Addr=0x700A4E88 ~[0x700A4E88]; ISA=Thumb2;

P_HDR Event: Idx:64375 (Pattern: E, Function: putchar_)
Executed Assembly Steps:
  1. 700a4e88: 4620         	mov	r0, r4

Sync: Idx:64376; ID:10;	I_SYNC : Instruction Packet synchronisation.; (Periodic); Addr=0x700a4e8a; S;  ISA=Thumb2;

P_HDR Event: Idx:64382 (Pattern: EEEEEEEEEEEEEEE, Function: putchar_)
Executed Assembly Steps:
  1. 700a4e8a: f7f8 fa11    	bl	0x7009d2b0 <DebugP_memLogWriterPutChar> @ imm = #-0x7bde
  2. 7009d2b0: b580         	push	{r7, lr}
  3. 7009d2b2: b088         	sub	sp, #0x20
  4. 7009d2b4: f88d 001f    	strb.w	r0, [sp, #0x1f]
  5. 7009d2b8: f247 30cc    	movw	r0, #0x73cc
  6. 7009d2bc: f2c7 000a    	movt	r0, #0x700a
  7. 7009d2c0: 6800         	ldr	r0, [r0]
  8. 7009d2c2: bb40         	cbnz	r0, 0x7009d316 <DebugP_memLogWriterPutChar+0x66> @ imm = #0x50
  9. 7009d316: f89d 001f    	ldrb.w	r0, [sp, #0x1f]
  10. 7009d31a: f247 31cc    	movw	r1, #0x73cc
  11. 7009d31e: f2c7 010a    	movt	r1, #0x700a
  12. 7009d322: 680b         	ldr	r3, [r1]
  13. 7009d324: f644 42e0    	movw	r2, #0x4ce0
  14. 7009d328: f2c7 0208    	movt	r2, #0x7008
  15. 7009d32c: 54d0         	strb	r0, [r2, r3]

P_HDR Event: Idx:64384 (Pattern: EEEEEN, Function: DebugP_memLogWriterPutChar)
Executed Assembly Steps:
  1. 7009d32e: 6808         	ldr	r0, [r1]
  2. 7009d330: 3001         	adds	r0, #0x1
  3. 7009d332: 6008         	str	r0, [r1]
  4. 7009d334: f89d 001f    	ldrb.w	r0, [sp, #0x1f]
  5. 7009d338: 280a         	cmp	r0, #0xa
  6. 7009d33a: d008         	beq	0x7009d34e <DebugP_memLogWriterPutChar+0x9e> @ imm = #0x10

P_HDR Event: Idx:64385 (Pattern: EEEEEEEE, Function: DebugP_memLogWriterPutChar)
Executed Assembly Steps:
  1. 7009d33c: e7ff         	b	0x7009d33e <DebugP_memLogWriterPutChar+0x8e> @ imm = #-0x2
  2. 7009d33e: f247 30cc    	movw	r0, #0x73cc
  3. 7009d342: f2c7 000a    	movt	r0, #0x700a
  4. 7009d346: 6800         	ldr	r0, [r0]
  5. 7009d348: 2878         	cmp	r0, #0x78
  6. 7009d34a: d350         	blo	0x7009d3ee <DebugP_memLogWriterPutChar+0x13e> @ imm = #0xa0
  7. 7009d3ee: b008         	add	sp, #0x20
  8. 7009d3f0: bd80         	pop	{r7, pc}

Sync: Idx:64386; ID:10;	BRANCH_ADDRESS : Branch address.; Addr=0x700A4E8E ~[0xE];

P_HDR Event: Idx:64387 (Pattern: EEEEEEEEEEEEEEE, Function: putchar_)
Executed Assembly Steps:
  1. 700a4e8e: 4620         	mov	r0, r4
  2. 700a4e90: e8bd 4010    	pop.w	{r4, lr}
  3. 700a4e94: f7fe bd2c    	b.w	0x700a38f0 <DebugP_uartLogWriterPutChar> @ imm = #-0x15a8
  4. 700a38f0: b580         	push	{r7, lr}
  5. 700a38f2: b088         	sub	sp, #0x20
  6. 700a38f4: f88d 001f    	strb.w	r0, [sp, #0x1f]
  7. 700a38f8: f89d 001f    	ldrb.w	r0, [sp, #0x1f]
  8. 700a38fc: f88d 001e    	strb.w	r0, [sp, #0x1e]
  9. 700a3900: f247 40e0    	movw	r0, #0x74e0
  10. 700a3904: f2c7 000a    	movt	r0, #0x700a
  11. 700a3908: 6800         	ldr	r0, [r0]
  12. 700a390a: f7ff fe41    	bl	0x700a3590 <UART_getHandle> @ imm = #-0x37e
  13. 700a3590: b083         	sub	sp, #0xc
  14. 700a3592: 9002         	str	r0, [sp, #0x8]
  15. 700a3594: 2000         	movs	r0, #0x0

P_HDR Event: Idx:64388 (Pattern: EEEEEEN, Function: UART_getHandle)
Executed Assembly Steps:
  1. 700a3596: 9001         	str	r0, [sp, #0x4]
  2. 700a3598: 9802         	ldr	r0, [sp, #0x8]
  3. 700a359a: f247 41e8    	movw	r1, #0x74e8
  4. 700a359e: f2c7 010a    	movt	r1, #0x700a
  5. 700a35a2: 6809         	ldr	r1, [r1]
  6. 700a35a4: 4288         	cmp	r0, r1
  7. 700a35a6: d217         	bhs	0x700a35d8 <UART_getHandle+0x48> @ imm = #0x2e

P_HDR Event: Idx:64389 (Pattern: EEEEEEEEN, Function: UART_getHandle)
Executed Assembly Steps:
  1. 700a35a8: e7ff         	b	0x700a35aa <UART_getHandle+0x1a> @ imm = #-0x2
  2. 700a35aa: 9902         	ldr	r1, [sp, #0x8]
  3. 700a35ac: f247 40a8    	movw	r0, #0x74a8
  4. 700a35b0: f2c7 000a    	movt	r0, #0x700a
  5. 700a35b4: eb00 00c1    	add.w	r0, r0, r1, lsl #3
  6. 700a35b8: 6840         	ldr	r0, [r0, #0x4]
  7. 700a35ba: 9000         	str	r0, [sp]
  8. 700a35bc: 9800         	ldr	r0, [sp]
  9. 700a35be: b150         	cbz	r0, 0x700a35d6 <UART_getHandle+0x46> @ imm = #0x14

P_HDR Event: Idx:64390 (Pattern: EEEEEEEEE, Function: UART_getHandle)
Executed Assembly Steps:
  1. 700a35c0: e7ff         	b	0x700a35c2 <UART_getHandle+0x32> @ imm = #-0x2
  2. 700a35c2: 9800         	ldr	r0, [sp]
  3. 700a35c4: f8d0 0084    	ldr.w	r0, [r0, #0x84]
  4. 700a35c8: 2801         	cmp	r0, #0x1
  5. 700a35ca: d104         	bne	0x700a35d6 <UART_getHandle+0x46> @ imm = #0x8
  6. 700a35d6: e7ff         	b	0x700a35d8 <UART_getHandle+0x48> @ imm = #-0x2
  7. 700a35d8: 9801         	ldr	r0, [sp, #0x4]
  8. 700a35da: b003         	add	sp, #0xc
  9. 700a35dc: 4770         	bx	lr

Sync: Idx:64391; ID:10;	BRANCH_ADDRESS : Branch address.; Addr=0x700A390E ~[0xA390E];

P_HDR Event: Idx:64394 (Pattern: EEEEE, Function: DebugP_uartLogWriterPutChar)
Executed Assembly Steps:
  1. 700a390e: 9006         	str	r0, [sp, #0x18]
  2. 700a3910: 9806         	ldr	r0, [sp, #0x18]
  3. 700a3912: b170         	cbz	r0, 0x700a3932 <DebugP_uartLogWriterPutChar+0x42> @ imm = #0x1c
  4. 700a3932: b008         	add	sp, #0x20
  5. 700a3934: bd80         	pop	{r7, pc}

Sync: Idx:64395; ID:10;	BRANCH_ADDRESS : Branch address.; Addr=0x700A4A3E ~[0xA4A3E];

P_HDR Event: Idx:64398 (Pattern: EEE, Function: _out_char)
Executed Assembly Steps:
  1. 700a4a3e: e7ff         	b	0x700a4a40 <_out_char+0x20> @ imm = #-0x2
  2. 700a4a40: b004         	add	sp, #0x10
  3. 700a4a42: bd80         	pop	{r7, pc}

Sync: Idx:64400; ID:10;	BRANCH_ADDRESS : Branch address.; Addr=0x70098F58 ~[0x98F58];

P_HDR Event: Idx:64403 (Pattern: EEEEEEEN, Function: _vsnprintf)
Executed Assembly Steps:
  1. 70098f58: 983c         	ldr	r0, [sp, #0xf0]
  2. 70098f5a: 3001         	adds	r0, #0x1
  3. 70098f5c: 903c         	str	r0, [sp, #0xf0]
  4. 70098f5e: e7e6         	b	0x70098f2e <_vsnprintf+0x2e> @ imm = #-0x34
  5. 70098f2e: 983c         	ldr	r0, [sp, #0xf0]
  6. 70098f30: 7800         	ldrb	r0, [r0]
  7. 70098f32: 2800         	cmp	r0, #0x0
  8. 70098f34: f000 84e3    	beq.w	0x700998fe <_vsnprintf+0x9fe> @ imm = #0x9c6

P_HDR Event: Idx:64404 (Pattern: EEEEN, Function: _vsnprintf)
Executed Assembly Steps:
  1. 70098f38: e7ff         	b	0x70098f3a <_vsnprintf+0x3a> @ imm = #-0x2
  2. 70098f3a: 983c         	ldr	r0, [sp, #0xf0]
  3. 70098f3c: 7800         	ldrb	r0, [r0]
  4. 70098f3e: 2825         	cmp	r0, #0x25
  5. 70098f40: d00e         	beq	0x70098f60 <_vsnprintf+0x60> @ imm = #0x1c

P_HDR Event: Idx:64405 (Pattern: EEEEEEEEEE, Function: _vsnprintf)
Executed Assembly Steps:
  1. 70098f42: e7ff         	b	0x70098f44 <_vsnprintf+0x44> @ imm = #-0x2
  2. 70098f44: f8dd c0fc    	ldr.w	r12, [sp, #0xfc]
  3. 70098f48: 983c         	ldr	r0, [sp, #0xf0]
  4. 70098f4a: 7800         	ldrb	r0, [r0]
  5. 70098f4c: 993e         	ldr	r1, [sp, #0xf8]
  6. 70098f4e: 9a37         	ldr	r2, [sp, #0xdc]
  7. 70098f50: 1c53         	adds	r3, r2, #0x1
  8. 70098f52: 9337         	str	r3, [sp, #0xdc]
  9. 70098f54: 9b3d         	ldr	r3, [sp, #0xf4]
  10. 70098f56: 47e0         	blx	r12

Sync: Idx:64406; ID:10;	BRANCH_ADDRESS : Branch address.; Addr=0x700A4A20 ~[0xA4A20];

P_HDR Event: Idx:64409 (Pattern: EEEEEEEN, Function: _out_char)
Executed Assembly Steps:
  1. 700a4a20: b580         	push	{r7, lr}
  2. 700a4a22: b084         	sub	sp, #0x10
  3. 700a4a24: f88d 000f    	strb.w	r0, [sp, #0xf]
  4. 700a4a28: 9102         	str	r1, [sp, #0x8]
  5. 700a4a2a: 9201         	str	r2, [sp, #0x4]
  6. 700a4a2c: 9300         	str	r3, [sp]
  7. 700a4a2e: f89d 000f    	ldrb.w	r0, [sp, #0xf]
  8. 700a4a32: b128         	cbz	r0, 0x700a4a40 <_out_char+0x20> @ imm = #0xa

P_HDR Event: Idx:64410 (Pattern: EEEEEE, Function: _out_char)
Executed Assembly Steps:
  1. 700a4a34: e7ff         	b	0x700a4a36 <_out_char+0x16> @ imm = #-0x2
  2. 700a4a36: f89d 000f    	ldrb.w	r0, [sp, #0xf]
  3. 700a4a3a: f000 fa21    	bl	0x700a4e80 <putchar_>   @ imm = #0x442
  4. 700a4e80: b510         	push	{r4, lr}
  5. 700a4e82: 4604         	mov	r4, r0
  6. 700a4e84: f000 e9ac    	blx	0x700a51e0 <putchar>    @ imm = #0x358

Sync: Idx:64411; ID:10;	BRANCH_ADDRESS : Branch address.; Addr=0x700A51E0 ~[0x700A51E0]; ISA=ARM(32);

P_HDR Event: Idx:64417 (Pattern: EEEEEEEEE, Function: putchar)
Executed Assembly Steps:
  1. 700a51e0: e59f1004     	ldr	r1, [pc, #0x4]          @ 0x700a51ec <putchar+0xc>
  2. 700a51e4: e2811018     	add	r1, r1, #24
  3. 700a51e8: eaffe5b1     	b	0x7009e8b4 <fputc>      @ imm = #-0x693c
  4. 7009e8b4: e92d483c     	push	{r2, r3, r4, r5, r11, lr}
  5. 7009e8b8: e59f20e0     	ldr	r2, [pc, #0xe0]         @ 0x7009e9a0 <fputc+0xec>
  6. 7009e8bc: e1a04001     	mov	r4, r1
  7. 7009e8c0: e1a05000     	mov	r5, r0
  8. 7009e8c4: e5922000     	ldr	r2, [r2]
  9. 7009e8c8: e12fff32     	blx	r2

Sync: Idx:64418; ID:10;	BRANCH_ADDRESS : Branch address.; Addr=0x7009A2DC ~[0x9A2DC];

P_HDR Event: Idx:64421 (Pattern: E, Function: _nop)
Executed Assembly Steps:
  1. 7009a2dc: e12fff1e     	bx	lr

Sync: Idx:64422; ID:10;	BRANCH_ADDRESS : Branch address.; Addr=0x7009E8CC ~[0x68CC];

P_HDR Event: Idx:64424 (Pattern: EEEEEEEN, Function: fputc)
Executed Assembly Steps:
  1. 7009e8cc: e1a00004     	mov	r0, r4
  2. 7009e8d0: eb000949     	bl	0x700a0dfc <__TI_wrt_ok> @ imm = #0x2524
  3. 700a0dfc: e92d4010     	push	{r4, lr}
  4. 700a0e00: e1a04000     	mov	r4, r0
  5. 700a0e04: e5901000     	ldr	r1, [r0]
  6. 700a0e08: e3a00000     	mov	r0, #0
  7. 700a0e0c: e3710001     	cmn	r1, #1
  8. 700a0e10: 0a00001c     	beq	0x700a0e88 <__TI_wrt_ok+0x8c> @ imm = #0x70

P_HDR Event: Idx:64425 (Pattern: EEN, Function: __TI_wrt_ok)
Executed Assembly Steps:
  1. 700a0e14: e5941014     	ldr	r1, [r4, #0x14]
  2. 700a0e18: e3110010     	tst	r1, #16
  3. 700a0e1c: 1a00001a     	bne	0x700a0e8c <__TI_wrt_ok+0x90> @ imm = #0x68

P_HDR Event: Idx:64426 (Pattern: EEEEEEEE, Function: __TI_wrt_ok)
Executed Assembly Steps:
  1. 700a0e20: e3110080     	tst	r1, #128
  2. 700a0e24: 0a000004     	beq	0x700a0e3c <__TI_wrt_ok+0x40> @ imm = #0x10
  3. 700a0e3c: e2010060     	and	r0, r1, #96
  4. 700a0e40: e3500040     	cmp	r0, #64
  5. 700a0e44: 1a000001     	bne	0x700a0e50 <__TI_wrt_ok+0x54> @ imm = #0x4
  6. 700a0e50: e5942004     	ldr	r2, [r4, #0x4]
  7. 700a0e54: e3a00001     	mov	r0, #1
  8. 700a0e58: e3520000     	cmp	r2, #0

P_HDR Event: Idx:64427 (Pattern: NE, Function: __TI_wrt_ok)
Executed Assembly Steps:
  1. 700a0e5c: 02112004     	andseq	r2, r1, #4
  2. 700a0e60: 1a000006     	bne	0x700a0e80 <__TI_wrt_ok+0x84> @ imm = #0x18

P_HDR Event: Idx:64428 (Pattern: EEE, Function: __TI_wrt_ok)
Executed Assembly Steps:
  1. 700a0e80: e594100c     	ldr	r1, [r4, #0xc]
  2. 700a0e84: e5841010     	str	r1, [r4, #0x10]
  3. 700a0e88: e8bd8010     	pop	{r4, pc}

Sync: Idx:64429; ID:10;	BRANCH_ADDRESS : Branch address.; Addr=0x7009E8D4 ~[0xD4];

P_HDR Event: Idx:64430 (Pattern: EN, Function: fputc)
Executed Assembly Steps:
  1. 7009e8d4: e3500000     	cmp	r0, #0
  2. 7009e8d8: 0a00000b     	beq	0x7009e90c <fputc+0x58> @ imm = #0x2c

P_HDR Event: Idx:64432 (Pattern: EEEEEEEEEEEEEEE, Function: fputc)
Executed Assembly Steps:
  1. 7009e8dc: e5940014     	ldr	r0, [r4, #0x14]
  2. 7009e8e0: e2000007     	and	r0, r0, #7
  3. 7009e8e4: e3500004     	cmp	r0, #4
  4. 7009e8e8: 1a00000a     	bne	0x7009e918 <fputc+0x64> @ imm = #0x28
  5. 7009e918: e5940008     	ldr	r0, [r4, #0x8]
  6. 7009e91c: e594100c     	ldr	r1, [r4, #0xc]
  7. 7009e920: e1500001     	cmp	r0, r1
  8. 7009e924: 3a000004     	blo	0x7009e93c <fputc+0x88> @ imm = #0x10
  9. 7009e93c: e2801001     	add	r1, r0, #1
  10. 7009e940: e355000a     	cmp	r5, #10
  11. 7009e944: e5841008     	str	r1, [r4, #0x8]
  12. 7009e948: e5c05000     	strb	r5, [r0]
  13. 7009e94c: 1a00000e     	bne	0x7009e98c <fputc+0xd8> @ imm = #0x38
  14. 7009e98c: e59f0010     	ldr	r0, [pc, #0x10]         @ 0x7009e9a4 <fputc+0xf0>
  15. 7009e990: e5900000     	ldr	r0, [r0]

P_HDR Event: Idx:64433 (Pattern: E, Function: fputc)
Executed Assembly Steps:
  1. 7009e994: e12fff30     	blx	r0

Sync: Idx:64434; ID:10;	BRANCH_ADDRESS : Branch address.; Addr=0x7009A2DC ~[0x22DC];

P_HDR Event: Idx:64436 (Pattern: E, Function: _nop)
Executed Assembly Steps:
  1. 7009a2dc: e12fff1e     	bx	lr

Sync: Idx:64437; ID:10;	BRANCH_ADDRESS : Branch address.; Addr=0x7009E998 ~[0x6998];

P_HDR Event: Idx:64439 (Pattern: EE, Function: fputc)
Executed Assembly Steps:
  1. 7009e998: e6ef0075     	uxtb	r0, r5
  2. 7009e99c: e8bd883c     	pop	{r2, r3, r4, r5, r11, pc}

Sync: Idx:64440; ID:10;	BRANCH_ADDRESS : Branch address.; Addr=0x700A4E88 ~[0x700A4E88]; ISA=Thumb2;

P_HDR Event: Idx:64445 (Pattern: EEEEEEEEEEEEEEE, Function: putchar_)
Executed Assembly Steps:
  1. 700a4e88: 4620         	mov	r0, r4
  2. 700a4e8a: f7f8 fa11    	bl	0x7009d2b0 <DebugP_memLogWriterPutChar> @ imm = #-0x7bde
  3. 7009d2b0: b580         	push	{r7, lr}
  4. 7009d2b2: b088         	sub	sp, #0x20
  5. 7009d2b4: f88d 001f    	strb.w	r0, [sp, #0x1f]
  6. 7009d2b8: f247 30cc    	movw	r0, #0x73cc
  7. 7009d2bc: f2c7 000a    	movt	r0, #0x700a
  8. 7009d2c0: 6800         	ldr	r0, [r0]
  9. 7009d2c2: bb40         	cbnz	r0, 0x7009d316 <DebugP_memLogWriterPutChar+0x66> @ imm = #0x50
  10. 7009d316: f89d 001f    	ldrb.w	r0, [sp, #0x1f]
  11. 7009d31a: f247 31cc    	movw	r1, #0x73cc
  12. 7009d31e: f2c7 010a    	movt	r1, #0x700a
  13. 7009d322: 680b         	ldr	r3, [r1]
  14. 7009d324: f644 42e0    	movw	r2, #0x4ce0
  15. 7009d328: f2c7 0208    	movt	r2, #0x7008

P_HDR Event: Idx:64446 (Pattern: EEEEEEN, Function: DebugP_memLogWriterPutChar)
Executed Assembly Steps:
  1. 7009d32c: 54d0         	strb	r0, [r2, r3]
  2. 7009d32e: 6808         	ldr	r0, [r1]
  3. 7009d330: 3001         	adds	r0, #0x1
  4. 7009d332: 6008         	str	r0, [r1]
  5. 7009d334: f89d 001f    	ldrb.w	r0, [sp, #0x1f]
  6. 7009d338: 280a         	cmp	r0, #0xa
  7. 7009d33a: d008         	beq	0x7009d34e <DebugP_memLogWriterPutChar+0x9e> @ imm = #0x10

P_HDR Event: Idx:64448 (Pattern: EEEEEEEE, Function: DebugP_memLogWriterPutChar)
Executed Assembly Steps:
  1. 7009d33c: e7ff         	b	0x7009d33e <DebugP_memLogWriterPutChar+0x8e> @ imm = #-0x2
  2. 7009d33e: f247 30cc    	movw	r0, #0x73cc
  3. 7009d342: f2c7 000a    	movt	r0, #0x700a
  4. 7009d346: 6800         	ldr	r0, [r0]
  5. 7009d348: 2878         	cmp	r0, #0x78
  6. 7009d34a: d350         	blo	0x7009d3ee <DebugP_memLogWriterPutChar+0x13e> @ imm = #0xa0
  7. 7009d3ee: b008         	add	sp, #0x20
  8. 7009d3f0: bd80         	pop	{r7, pc}

Sync: Idx:64449; ID:10;	BRANCH_ADDRESS : Branch address.; Addr=0x700A4E8E ~[0xE];

P_HDR Event: Idx:64450 (Pattern: EEEEEEEEEEEEEEE, Function: putchar_)
Executed Assembly Steps:
  1. 700a4e8e: 4620         	mov	r0, r4
  2. 700a4e90: e8bd 4010    	pop.w	{r4, lr}
  3. 700a4e94: f7fe bd2c    	b.w	0x700a38f0 <DebugP_uartLogWriterPutChar> @ imm = #-0x15a8
  4. 700a38f0: b580         	push	{r7, lr}
  5. 700a38f2: b088         	sub	sp, #0x20
  6. 700a38f4: f88d 001f    	strb.w	r0, [sp, #0x1f]
  7. 700a38f8: f89d 001f    	ldrb.w	r0, [sp, #0x1f]
  8. 700a38fc: f88d 001e    	strb.w	r0, [sp, #0x1e]
  9. 700a3900: f247 40e0    	movw	r0, #0x74e0
  10. 700a3904: f2c7 000a    	movt	r0, #0x700a
  11. 700a3908: 6800         	ldr	r0, [r0]
  12. 700a390a: f7ff fe41    	bl	0x700a3590 <UART_getHandle> @ imm = #-0x37e
  13. 700a3590: b083         	sub	sp, #0xc
  14. 700a3592: 9002         	str	r0, [sp, #0x8]
  15. 700a3594: 2000         	movs	r0, #0x0

P_HDR Event: Idx:64451 (Pattern: EEEEEEN, Function: UART_getHandle)
Executed Assembly Steps:
  1. 700a3596: 9001         	str	r0, [sp, #0x4]
  2. 700a3598: 9802         	ldr	r0, [sp, #0x8]
  3. 700a359a: f247 41e8    	movw	r1, #0x74e8
  4. 700a359e: f2c7 010a    	movt	r1, #0x700a
  5. 700a35a2: 6809         	ldr	r1, [r1]
  6. 700a35a4: 4288         	cmp	r0, r1
  7. 700a35a6: d217         	bhs	0x700a35d8 <UART_getHandle+0x48> @ imm = #0x2e

P_HDR Event: Idx:64452 (Pattern: EEEEEEEEN, Function: UART_getHandle)
Executed Assembly Steps:
  1. 700a35a8: e7ff         	b	0x700a35aa <UART_getHandle+0x1a> @ imm = #-0x2
  2. 700a35aa: 9902         	ldr	r1, [sp, #0x8]
  3. 700a35ac: f247 40a8    	movw	r0, #0x74a8
  4. 700a35b0: f2c7 000a    	movt	r0, #0x700a
  5. 700a35b4: eb00 00c1    	add.w	r0, r0, r1, lsl #3
  6. 700a35b8: 6840         	ldr	r0, [r0, #0x4]
  7. 700a35ba: 9000         	str	r0, [sp]
  8. 700a35bc: 9800         	ldr	r0, [sp]
  9. 700a35be: b150         	cbz	r0, 0x700a35d6 <UART_getHandle+0x46> @ imm = #0x14

P_HDR Event: Idx:64453 (Pattern: EEEEEEEEE, Function: UART_getHandle)
Executed Assembly Steps:
  1. 700a35c0: e7ff         	b	0x700a35c2 <UART_getHandle+0x32> @ imm = #-0x2
  2. 700a35c2: 9800         	ldr	r0, [sp]
  3. 700a35c4: f8d0 0084    	ldr.w	r0, [r0, #0x84]
  4. 700a35c8: 2801         	cmp	r0, #0x1
  5. 700a35ca: d104         	bne	0x700a35d6 <UART_getHandle+0x46> @ imm = #0x8
  6. 700a35d6: e7ff         	b	0x700a35d8 <UART_getHandle+0x48> @ imm = #-0x2
  7. 700a35d8: 9801         	ldr	r0, [sp, #0x4]
  8. 700a35da: b003         	add	sp, #0xc
  9. 700a35dc: 4770         	bx	lr

Sync: Idx:64454; ID:10;	BRANCH_ADDRESS : Branch address.; Addr=0x700A390E ~[0xA390E];

P_HDR Event: Idx:64457 (Pattern: EEEEE, Function: DebugP_uartLogWriterPutChar)
Executed Assembly Steps:
  1. 700a390e: 9006         	str	r0, [sp, #0x18]
  2. 700a3910: 9806         	ldr	r0, [sp, #0x18]
  3. 700a3912: b170         	cbz	r0, 0x700a3932 <DebugP_uartLogWriterPutChar+0x42> @ imm = #0x1c
  4. 700a3932: b008         	add	sp, #0x20
  5. 700a3934: bd80         	pop	{r7, pc}

Sync: Idx:64458; ID:10;	BRANCH_ADDRESS : Branch address.; Addr=0x700A4A3E ~[0xA4A3E];

P_HDR Event: Idx:64461 (Pattern: EEE, Function: _out_char)
Executed Assembly Steps:
  1. 700a4a3e: e7ff         	b	0x700a4a40 <_out_char+0x20> @ imm = #-0x2
  2. 700a4a40: b004         	add	sp, #0x10
  3. 700a4a42: bd80         	pop	{r7, pc}

Sync: Idx:64462; ID:10;	BRANCH_ADDRESS : Branch address.; Addr=0x70098F58 ~[0x98F58];

P_HDR Event: Idx:64466 (Pattern: EEEEEEEN, Function: _vsnprintf)
Executed Assembly Steps:
  1. 70098f58: 983c         	ldr	r0, [sp, #0xf0]
  2. 70098f5a: 3001         	adds	r0, #0x1
  3. 70098f5c: 903c         	str	r0, [sp, #0xf0]
  4. 70098f5e: e7e6         	b	0x70098f2e <_vsnprintf+0x2e> @ imm = #-0x34
  5. 70098f2e: 983c         	ldr	r0, [sp, #0xf0]
  6. 70098f30: 7800         	ldrb	r0, [r0]
  7. 70098f32: 2800         	cmp	r0, #0x0
  8. 70098f34: f000 84e3    	beq.w	0x700998fe <_vsnprintf+0x9fe> @ imm = #0x9c6

P_HDR Event: Idx:64467 (Pattern: EEEEN, Function: _vsnprintf)
Executed Assembly Steps:
  1. 70098f38: e7ff         	b	0x70098f3a <_vsnprintf+0x3a> @ imm = #-0x2
  2. 70098f3a: 983c         	ldr	r0, [sp, #0xf0]
  3. 70098f3c: 7800         	ldrb	r0, [r0]
  4. 70098f3e: 2825         	cmp	r0, #0x25
  5. 70098f40: d00e         	beq	0x70098f60 <_vsnprintf+0x60> @ imm = #0x1c

P_HDR Event: Idx:64468 (Pattern: EEEEEEEEEE, Function: _vsnprintf)
Executed Assembly Steps:
  1. 70098f42: e7ff         	b	0x70098f44 <_vsnprintf+0x44> @ imm = #-0x2
  2. 70098f44: f8dd c0fc    	ldr.w	r12, [sp, #0xfc]
  3. 70098f48: 983c         	ldr	r0, [sp, #0xf0]
  4. 70098f4a: 7800         	ldrb	r0, [r0]
  5. 70098f4c: 993e         	ldr	r1, [sp, #0xf8]
  6. 70098f4e: 9a37         	ldr	r2, [sp, #0xdc]
  7. 70098f50: 1c53         	adds	r3, r2, #0x1
  8. 70098f52: 9337         	str	r3, [sp, #0xdc]
  9. 70098f54: 9b3d         	ldr	r3, [sp, #0xf4]
  10. 70098f56: 47e0         	blx	r12

Sync: Idx:64469; ID:10;	BRANCH_ADDRESS : Branch address.; Addr=0x700A4A20 ~[0xA4A20];

P_HDR Event: Idx:64472 (Pattern: EEEEEEEN, Function: _out_char)
Executed Assembly Steps:
  1. 700a4a20: b580         	push	{r7, lr}
  2. 700a4a22: b084         	sub	sp, #0x10
  3. 700a4a24: f88d 000f    	strb.w	r0, [sp, #0xf]
  4. 700a4a28: 9102         	str	r1, [sp, #0x8]
  5. 700a4a2a: 9201         	str	r2, [sp, #0x4]
  6. 700a4a2c: 9300         	str	r3, [sp]
  7. 700a4a2e: f89d 000f    	ldrb.w	r0, [sp, #0xf]
  8. 700a4a32: b128         	cbz	r0, 0x700a4a40 <_out_char+0x20> @ imm = #0xa

P_HDR Event: Idx:64473 (Pattern: EEEEEE, Function: _out_char)
Executed Assembly Steps:
  1. 700a4a34: e7ff         	b	0x700a4a36 <_out_char+0x16> @ imm = #-0x2
  2. 700a4a36: f89d 000f    	ldrb.w	r0, [sp, #0xf]
  3. 700a4a3a: f000 fa21    	bl	0x700a4e80 <putchar_>   @ imm = #0x442
  4. 700a4e80: b510         	push	{r4, lr}
  5. 700a4e82: 4604         	mov	r4, r0
  6. 700a4e84: f000 e9ac    	blx	0x700a51e0 <putchar>    @ imm = #0x358

Sync: Idx:64474; ID:10;	BRANCH_ADDRESS : Branch address.; Addr=0x700A51E0 ~[0x700A51E0]; ISA=ARM(32);

P_HDR Event: Idx:64480 (Pattern: EEEEEEEEE, Function: putchar)
Executed Assembly Steps:
  1. 700a51e0: e59f1004     	ldr	r1, [pc, #0x4]          @ 0x700a51ec <putchar+0xc>
  2. 700a51e4: e2811018     	add	r1, r1, #24
  3. 700a51e8: eaffe5b1     	b	0x7009e8b4 <fputc>      @ imm = #-0x693c
  4. 7009e8b4: e92d483c     	push	{r2, r3, r4, r5, r11, lr}
  5. 7009e8b8: e59f20e0     	ldr	r2, [pc, #0xe0]         @ 0x7009e9a0 <fputc+0xec>
  6. 7009e8bc: e1a04001     	mov	r4, r1
  7. 7009e8c0: e1a05000     	mov	r5, r0
  8. 7009e8c4: e5922000     	ldr	r2, [r2]
  9. 7009e8c8: e12fff32     	blx	r2

Sync: Idx:64481; ID:10;	BRANCH_ADDRESS : Branch address.; Addr=0x7009A2DC ~[0x9A2DC];

P_HDR Event: Idx:64484 (Pattern: E, Function: _nop)
Executed Assembly Steps:
  1. 7009a2dc: e12fff1e     	bx	lr

Sync: Idx:64485; ID:10;	BRANCH_ADDRESS : Branch address.; Addr=0x7009E8CC ~[0x68CC];

P_HDR Event: Idx:64487 (Pattern: EEEEEEEN, Function: fputc)
Executed Assembly Steps:
  1. 7009e8cc: e1a00004     	mov	r0, r4
  2. 7009e8d0: eb000949     	bl	0x700a0dfc <__TI_wrt_ok> @ imm = #0x2524
  3. 700a0dfc: e92d4010     	push	{r4, lr}
  4. 700a0e00: e1a04000     	mov	r4, r0
  5. 700a0e04: e5901000     	ldr	r1, [r0]
  6. 700a0e08: e3a00000     	mov	r0, #0
  7. 700a0e0c: e3710001     	cmn	r1, #1
  8. 700a0e10: 0a00001c     	beq	0x700a0e88 <__TI_wrt_ok+0x8c> @ imm = #0x70

P_HDR Event: Idx:64488 (Pattern: EEN, Function: __TI_wrt_ok)
Executed Assembly Steps:
  1. 700a0e14: e5941014     	ldr	r1, [r4, #0x14]
  2. 700a0e18: e3110010     	tst	r1, #16
  3. 700a0e1c: 1a00001a     	bne	0x700a0e8c <__TI_wrt_ok+0x90> @ imm = #0x68

P_HDR Event: Idx:64489 (Pattern: EEEEEEEE, Function: __TI_wrt_ok)
Executed Assembly Steps:
  1. 700a0e20: e3110080     	tst	r1, #128
  2. 700a0e24: 0a000004     	beq	0x700a0e3c <__TI_wrt_ok+0x40> @ imm = #0x10
  3. 700a0e3c: e2010060     	and	r0, r1, #96
  4. 700a0e40: e3500040     	cmp	r0, #64
  5. 700a0e44: 1a000001     	bne	0x700a0e50 <__TI_wrt_ok+0x54> @ imm = #0x4
  6. 700a0e50: e5942004     	ldr	r2, [r4, #0x4]
  7. 700a0e54: e3a00001     	mov	r0, #1
  8. 700a0e58: e3520000     	cmp	r2, #0

P_HDR Event: Idx:64490 (Pattern: NE, Function: __TI_wrt_ok)
Executed Assembly Steps:
  1. 700a0e5c: 02112004     	andseq	r2, r1, #4
  2. 700a0e60: 1a000006     	bne	0x700a0e80 <__TI_wrt_ok+0x84> @ imm = #0x18

P_HDR Event: Idx:64491 (Pattern: EEE, Function: __TI_wrt_ok)
Executed Assembly Steps:
  1. 700a0e80: e594100c     	ldr	r1, [r4, #0xc]
  2. 700a0e84: e5841010     	str	r1, [r4, #0x10]
  3. 700a0e88: e8bd8010     	pop	{r4, pc}

Sync: Idx:64492; ID:10;	BRANCH_ADDRESS : Branch address.; Addr=0x7009E8D4 ~[0xD4];

P_HDR Event: Idx:64493 (Pattern: EN, Function: fputc)
Executed Assembly Steps:
  1. 7009e8d4: e3500000     	cmp	r0, #0
  2. 7009e8d8: 0a00000b     	beq	0x7009e90c <fputc+0x58> @ imm = #0x2c

P_HDR Event: Idx:64494 (Pattern: EEEEEEEEEEEEEEE, Function: fputc)
Executed Assembly Steps:
  1. 7009e8dc: e5940014     	ldr	r0, [r4, #0x14]
  2. 7009e8e0: e2000007     	and	r0, r0, #7
  3. 7009e8e4: e3500004     	cmp	r0, #4
  4. 7009e8e8: 1a00000a     	bne	0x7009e918 <fputc+0x64> @ imm = #0x28
  5. 7009e918: e5940008     	ldr	r0, [r4, #0x8]
  6. 7009e91c: e594100c     	ldr	r1, [r4, #0xc]
  7. 7009e920: e1500001     	cmp	r0, r1
  8. 7009e924: 3a000004     	blo	0x7009e93c <fputc+0x88> @ imm = #0x10
  9. 7009e93c: e2801001     	add	r1, r0, #1
  10. 7009e940: e355000a     	cmp	r5, #10
  11. 7009e944: e5841008     	str	r1, [r4, #0x8]
  12. 7009e948: e5c05000     	strb	r5, [r0]
  13. 7009e94c: 1a00000e     	bne	0x7009e98c <fputc+0xd8> @ imm = #0x38
  14. 7009e98c: e59f0010     	ldr	r0, [pc, #0x10]         @ 0x7009e9a4 <fputc+0xf0>
  15. 7009e990: e5900000     	ldr	r0, [r0]

P_HDR Event: Idx:64496 (Pattern: E, Function: fputc)
Executed Assembly Steps:
  1. 7009e994: e12fff30     	blx	r0

Sync: Idx:64497; ID:10;	BRANCH_ADDRESS : Branch address.; Addr=0x7009A2DC ~[0x22DC];

P_HDR Event: Idx:64499 (Pattern: E, Function: _nop)
Executed Assembly Steps:
  1. 7009a2dc: e12fff1e     	bx	lr

Sync: Idx:64500; ID:10;	BRANCH_ADDRESS : Branch address.; Addr=0x7009E998 ~[0x6998];

P_HDR Event: Idx:64502 (Pattern: EE, Function: fputc)
Executed Assembly Steps:
  1. 7009e998: e6ef0075     	uxtb	r0, r5
  2. 7009e99c: e8bd883c     	pop	{r2, r3, r4, r5, r11, pc}

Sync: Idx:64503; ID:10;	BRANCH_ADDRESS : Branch address.; Addr=0x700A4E88 ~[0x700A4E88]; ISA=Thumb2;

P_HDR Event: Idx:64508 (Pattern: EEEEEEEEEEEEEEE, Function: putchar_)
Executed Assembly Steps:
  1. 700a4e88: 4620         	mov	r0, r4
  2. 700a4e8a: f7f8 fa11    	bl	0x7009d2b0 <DebugP_memLogWriterPutChar> @ imm = #-0x7bde
  3. 7009d2b0: b580         	push	{r7, lr}
  4. 7009d2b2: b088         	sub	sp, #0x20
  5. 7009d2b4: f88d 001f    	strb.w	r0, [sp, #0x1f]
  6. 7009d2b8: f247 30cc    	movw	r0, #0x73cc
  7. 7009d2bc: f2c7 000a    	movt	r0, #0x700a
  8. 7009d2c0: 6800         	ldr	r0, [r0]
  9. 7009d2c2: bb40         	cbnz	r0, 0x7009d316 <DebugP_memLogWriterPutChar+0x66> @ imm = #0x50
  10. 7009d316: f89d 001f    	ldrb.w	r0, [sp, #0x1f]
  11. 7009d31a: f247 31cc    	movw	r1, #0x73cc
  12. 7009d31e: f2c7 010a    	movt	r1, #0x700a
  13. 7009d322: 680b         	ldr	r3, [r1]
  14. 7009d324: f644 42e0    	movw	r2, #0x4ce0
  15. 7009d328: f2c7 0208    	movt	r2, #0x7008

P_HDR Event: Idx:64509 (Pattern: EEEEEEN, Function: DebugP_memLogWriterPutChar)
Executed Assembly Steps:
  1. 7009d32c: 54d0         	strb	r0, [r2, r3]
  2. 7009d32e: 6808         	ldr	r0, [r1]
  3. 7009d330: 3001         	adds	r0, #0x1
  4. 7009d332: 6008         	str	r0, [r1]
  5. 7009d334: f89d 001f    	ldrb.w	r0, [sp, #0x1f]
  6. 7009d338: 280a         	cmp	r0, #0xa
  7. 7009d33a: d008         	beq	0x7009d34e <DebugP_memLogWriterPutChar+0x9e> @ imm = #0x10

P_HDR Event: Idx:64510 (Pattern: EEEEEEEE, Function: DebugP_memLogWriterPutChar)
Executed Assembly Steps:
  1. 7009d33c: e7ff         	b	0x7009d33e <DebugP_memLogWriterPutChar+0x8e> @ imm = #-0x2
  2. 7009d33e: f247 30cc    	movw	r0, #0x73cc
  3. 7009d342: f2c7 000a    	movt	r0, #0x700a
  4. 7009d346: 6800         	ldr	r0, [r0]
  5. 7009d348: 2878         	cmp	r0, #0x78
  6. 7009d34a: d350         	blo	0x7009d3ee <DebugP_memLogWriterPutChar+0x13e> @ imm = #0xa0
  7. 7009d3ee: b008         	add	sp, #0x20
  8. 7009d3f0: bd80         	pop	{r7, pc}

Sync: Idx:64512; ID:10;	BRANCH_ADDRESS : Branch address.; Addr=0x700A4E8E ~[0xE];

P_HDR Event: Idx:64513 (Pattern: EEEEEEEEEEEEEEE, Function: putchar_)
Executed Assembly Steps:
  1. 700a4e8e: 4620         	mov	r0, r4
  2. 700a4e90: e8bd 4010    	pop.w	{r4, lr}
  3. 700a4e94: f7fe bd2c    	b.w	0x700a38f0 <DebugP_uartLogWriterPutChar> @ imm = #-0x15a8
  4. 700a38f0: b580         	push	{r7, lr}
  5. 700a38f2: b088         	sub	sp, #0x20
  6. 700a38f4: f88d 001f    	strb.w	r0, [sp, #0x1f]
  7. 700a38f8: f89d 001f    	ldrb.w	r0, [sp, #0x1f]
  8. 700a38fc: f88d 001e    	strb.w	r0, [sp, #0x1e]
  9. 700a3900: f247 40e0    	movw	r0, #0x74e0
  10. 700a3904: f2c7 000a    	movt	r0, #0x700a
  11. 700a3908: 6800         	ldr	r0, [r0]
  12. 700a390a: f7ff fe41    	bl	0x700a3590 <UART_getHandle> @ imm = #-0x37e
  13. 700a3590: b083         	sub	sp, #0xc
  14. 700a3592: 9002         	str	r0, [sp, #0x8]
  15. 700a3594: 2000         	movs	r0, #0x0

P_HDR Event: Idx:64514 (Pattern: EEEEEEN, Function: UART_getHandle)
Executed Assembly Steps:
  1. 700a3596: 9001         	str	r0, [sp, #0x4]
  2. 700a3598: 9802         	ldr	r0, [sp, #0x8]
  3. 700a359a: f247 41e8    	movw	r1, #0x74e8
  4. 700a359e: f2c7 010a    	movt	r1, #0x700a
  5. 700a35a2: 6809         	ldr	r1, [r1]
  6. 700a35a4: 4288         	cmp	r0, r1
  7. 700a35a6: d217         	bhs	0x700a35d8 <UART_getHandle+0x48> @ imm = #0x2e

P_HDR Event: Idx:64515 (Pattern: EEEEEEEEN, Function: UART_getHandle)
Executed Assembly Steps:
  1. 700a35a8: e7ff         	b	0x700a35aa <UART_getHandle+0x1a> @ imm = #-0x2
  2. 700a35aa: 9902         	ldr	r1, [sp, #0x8]
  3. 700a35ac: f247 40a8    	movw	r0, #0x74a8
  4. 700a35b0: f2c7 000a    	movt	r0, #0x700a
  5. 700a35b4: eb00 00c1    	add.w	r0, r0, r1, lsl #3
  6. 700a35b8: 6840         	ldr	r0, [r0, #0x4]
  7. 700a35ba: 9000         	str	r0, [sp]
  8. 700a35bc: 9800         	ldr	r0, [sp]
  9. 700a35be: b150         	cbz	r0, 0x700a35d6 <UART_getHandle+0x46> @ imm = #0x14

P_HDR Event: Idx:64516 (Pattern: EEEEEEEEE, Function: UART_getHandle)
Executed Assembly Steps:
  1. 700a35c0: e7ff         	b	0x700a35c2 <UART_getHandle+0x32> @ imm = #-0x2
  2. 700a35c2: 9800         	ldr	r0, [sp]
  3. 700a35c4: f8d0 0084    	ldr.w	r0, [r0, #0x84]
  4. 700a35c8: 2801         	cmp	r0, #0x1
  5. 700a35ca: d104         	bne	0x700a35d6 <UART_getHandle+0x46> @ imm = #0x8
  6. 700a35d6: e7ff         	b	0x700a35d8 <UART_getHandle+0x48> @ imm = #-0x2
  7. 700a35d8: 9801         	ldr	r0, [sp, #0x4]
  8. 700a35da: b003         	add	sp, #0xc
  9. 700a35dc: 4770         	bx	lr

Sync: Idx:64517; ID:10;	BRANCH_ADDRESS : Branch address.; Addr=0x700A390E ~[0xA390E];

P_HDR Event: Idx:64520 (Pattern: EEEEE, Function: DebugP_uartLogWriterPutChar)
Executed Assembly Steps:
  1. 700a390e: 9006         	str	r0, [sp, #0x18]
  2. 700a3910: 9806         	ldr	r0, [sp, #0x18]
  3. 700a3912: b170         	cbz	r0, 0x700a3932 <DebugP_uartLogWriterPutChar+0x42> @ imm = #0x1c
  4. 700a3932: b008         	add	sp, #0x20
  5. 700a3934: bd80         	pop	{r7, pc}

Sync: Idx:64521; ID:10;	BRANCH_ADDRESS : Branch address.; Addr=0x700A4A3E ~[0xA4A3E];

P_HDR Event: Idx:64524 (Pattern: EEE, Function: _out_char)
Executed Assembly Steps:
  1. 700a4a3e: e7ff         	b	0x700a4a40 <_out_char+0x20> @ imm = #-0x2
  2. 700a4a40: b004         	add	sp, #0x10
  3. 700a4a42: bd80         	pop	{r7, pc}

Sync: Idx:64525; ID:10;	BRANCH_ADDRESS : Branch address.; Addr=0x70098F58 ~[0x98F58];

P_HDR Event: Idx:64529 (Pattern: EEEEEEEN, Function: _vsnprintf)
Executed Assembly Steps:
  1. 70098f58: 983c         	ldr	r0, [sp, #0xf0]
  2. 70098f5a: 3001         	adds	r0, #0x1
  3. 70098f5c: 903c         	str	r0, [sp, #0xf0]
  4. 70098f5e: e7e6         	b	0x70098f2e <_vsnprintf+0x2e> @ imm = #-0x34
  5. 70098f2e: 983c         	ldr	r0, [sp, #0xf0]
  6. 70098f30: 7800         	ldrb	r0, [r0]
  7. 70098f32: 2800         	cmp	r0, #0x0
  8. 70098f34: f000 84e3    	beq.w	0x700998fe <_vsnprintf+0x9fe> @ imm = #0x9c6

P_HDR Event: Idx:64530 (Pattern: EEEEN, Function: _vsnprintf)
Executed Assembly Steps:
  1. 70098f38: e7ff         	b	0x70098f3a <_vsnprintf+0x3a> @ imm = #-0x2
  2. 70098f3a: 983c         	ldr	r0, [sp, #0xf0]
  3. 70098f3c: 7800         	ldrb	r0, [r0]
  4. 70098f3e: 2825         	cmp	r0, #0x25
  5. 70098f40: d00e         	beq	0x70098f60 <_vsnprintf+0x60> @ imm = #0x1c

P_HDR Event: Idx:64531 (Pattern: EEEEEEEEEE, Function: _vsnprintf)
Executed Assembly Steps:
  1. 70098f42: e7ff         	b	0x70098f44 <_vsnprintf+0x44> @ imm = #-0x2
  2. 70098f44: f8dd c0fc    	ldr.w	r12, [sp, #0xfc]
  3. 70098f48: 983c         	ldr	r0, [sp, #0xf0]
  4. 70098f4a: 7800         	ldrb	r0, [r0]
  5. 70098f4c: 993e         	ldr	r1, [sp, #0xf8]
  6. 70098f4e: 9a37         	ldr	r2, [sp, #0xdc]
  7. 70098f50: 1c53         	adds	r3, r2, #0x1
  8. 70098f52: 9337         	str	r3, [sp, #0xdc]
  9. 70098f54: 9b3d         	ldr	r3, [sp, #0xf4]
  10. 70098f56: 47e0         	blx	r12

Sync: Idx:64532; ID:10;	BRANCH_ADDRESS : Branch address.; Addr=0x700A4A20 ~[0xA4A20];

P_HDR Event: Idx:64535 (Pattern: EEEEEEEN, Function: _out_char)
Executed Assembly Steps:
  1. 700a4a20: b580         	push	{r7, lr}
  2. 700a4a22: b084         	sub	sp, #0x10
  3. 700a4a24: f88d 000f    	strb.w	r0, [sp, #0xf]
  4. 700a4a28: 9102         	str	r1, [sp, #0x8]
  5. 700a4a2a: 9201         	str	r2, [sp, #0x4]
  6. 700a4a2c: 9300         	str	r3, [sp]
  7. 700a4a2e: f89d 000f    	ldrb.w	r0, [sp, #0xf]
  8. 700a4a32: b128         	cbz	r0, 0x700a4a40 <_out_char+0x20> @ imm = #0xa

P_HDR Event: Idx:64536 (Pattern: EEEEEE, Function: _out_char)
Executed Assembly Steps:
  1. 700a4a34: e7ff         	b	0x700a4a36 <_out_char+0x16> @ imm = #-0x2
  2. 700a4a36: f89d 000f    	ldrb.w	r0, [sp, #0xf]
  3. 700a4a3a: f000 fa21    	bl	0x700a4e80 <putchar_>   @ imm = #0x442
  4. 700a4e80: b510         	push	{r4, lr}
  5. 700a4e82: 4604         	mov	r4, r0
  6. 700a4e84: f000 e9ac    	blx	0x700a51e0 <putchar>    @ imm = #0x358

Sync: Idx:64537; ID:10;	BRANCH_ADDRESS : Branch address.; Addr=0x700A51E0 ~[0x700A51E0]; ISA=ARM(32);

P_HDR Event: Idx:64542 (Pattern: EEEEEEEEE, Function: putchar)
Executed Assembly Steps:
  1. 700a51e0: e59f1004     	ldr	r1, [pc, #0x4]          @ 0x700a51ec <putchar+0xc>
  2. 700a51e4: e2811018     	add	r1, r1, #24
  3. 700a51e8: eaffe5b1     	b	0x7009e8b4 <fputc>      @ imm = #-0x693c
  4. 7009e8b4: e92d483c     	push	{r2, r3, r4, r5, r11, lr}
  5. 7009e8b8: e59f20e0     	ldr	r2, [pc, #0xe0]         @ 0x7009e9a0 <fputc+0xec>
  6. 7009e8bc: e1a04001     	mov	r4, r1
  7. 7009e8c0: e1a05000     	mov	r5, r0
  8. 7009e8c4: e5922000     	ldr	r2, [r2]
  9. 7009e8c8: e12fff32     	blx	r2

Sync: Idx:64544; ID:10;	BRANCH_ADDRESS : Branch address.; Addr=0x7009A2DC ~[0x9A2DC];

P_HDR Event: Idx:64547 (Pattern: E, Function: _nop)
Executed Assembly Steps:
  1. 7009a2dc: e12fff1e     	bx	lr

Sync: Idx:64548; ID:10;	BRANCH_ADDRESS : Branch address.; Addr=0x7009E8CC ~[0x68CC];

P_HDR Event: Idx:64550 (Pattern: EEEEEEEN, Function: fputc)
Executed Assembly Steps:
  1. 7009e8cc: e1a00004     	mov	r0, r4
  2. 7009e8d0: eb000949     	bl	0x700a0dfc <__TI_wrt_ok> @ imm = #0x2524
  3. 700a0dfc: e92d4010     	push	{r4, lr}
  4. 700a0e00: e1a04000     	mov	r4, r0
  5. 700a0e04: e5901000     	ldr	r1, [r0]
  6. 700a0e08: e3a00000     	mov	r0, #0
  7. 700a0e0c: e3710001     	cmn	r1, #1
  8. 700a0e10: 0a00001c     	beq	0x700a0e88 <__TI_wrt_ok+0x8c> @ imm = #0x70

P_HDR Event: Idx:64551 (Pattern: EEN, Function: __TI_wrt_ok)
Executed Assembly Steps:
  1. 700a0e14: e5941014     	ldr	r1, [r4, #0x14]
  2. 700a0e18: e3110010     	tst	r1, #16
  3. 700a0e1c: 1a00001a     	bne	0x700a0e8c <__TI_wrt_ok+0x90> @ imm = #0x68

P_HDR Event: Idx:64552 (Pattern: EEEEEEEE, Function: __TI_wrt_ok)
Executed Assembly Steps:
  1. 700a0e20: e3110080     	tst	r1, #128
  2. 700a0e24: 0a000004     	beq	0x700a0e3c <__TI_wrt_ok+0x40> @ imm = #0x10
  3. 700a0e3c: e2010060     	and	r0, r1, #96
  4. 700a0e40: e3500040     	cmp	r0, #64
  5. 700a0e44: 1a000001     	bne	0x700a0e50 <__TI_wrt_ok+0x54> @ imm = #0x4
  6. 700a0e50: e5942004     	ldr	r2, [r4, #0x4]
  7. 700a0e54: e3a00001     	mov	r0, #1
  8. 700a0e58: e3520000     	cmp	r2, #0

P_HDR Event: Idx:64553 (Pattern: NE, Function: __TI_wrt_ok)
Executed Assembly Steps:
  1. 700a0e5c: 02112004     	andseq	r2, r1, #4
  2. 700a0e60: 1a000006     	bne	0x700a0e80 <__TI_wrt_ok+0x84> @ imm = #0x18

P_HDR Event: Idx:64554 (Pattern: EEE, Function: __TI_wrt_ok)
Executed Assembly Steps:
  1. 700a0e80: e594100c     	ldr	r1, [r4, #0xc]
  2. 700a0e84: e5841010     	str	r1, [r4, #0x10]
  3. 700a0e88: e8bd8010     	pop	{r4, pc}

Sync: Idx:64555; ID:10;	BRANCH_ADDRESS : Branch address.; Addr=0x7009E8D4 ~[0xD4];

P_HDR Event: Idx:64556 (Pattern: EN, Function: fputc)
Executed Assembly Steps:
  1. 7009e8d4: e3500000     	cmp	r0, #0
  2. 7009e8d8: 0a00000b     	beq	0x7009e90c <fputc+0x58> @ imm = #0x2c

P_HDR Event: Idx:64557 (Pattern: EEEEEEEEEEEEEEE, Function: fputc)
Executed Assembly Steps:
  1. 7009e8dc: e5940014     	ldr	r0, [r4, #0x14]
  2. 7009e8e0: e2000007     	and	r0, r0, #7
  3. 7009e8e4: e3500004     	cmp	r0, #4
  4. 7009e8e8: 1a00000a     	bne	0x7009e918 <fputc+0x64> @ imm = #0x28
  5. 7009e918: e5940008     	ldr	r0, [r4, #0x8]
  6. 7009e91c: e594100c     	ldr	r1, [r4, #0xc]
  7. 7009e920: e1500001     	cmp	r0, r1
  8. 7009e924: 3a000004     	blo	0x7009e93c <fputc+0x88> @ imm = #0x10
  9. 7009e93c: e2801001     	add	r1, r0, #1
  10. 7009e940: e355000a     	cmp	r5, #10
  11. 7009e944: e5841008     	str	r1, [r4, #0x8]
  12. 7009e948: e5c05000     	strb	r5, [r0]
  13. 7009e94c: 1a00000e     	bne	0x7009e98c <fputc+0xd8> @ imm = #0x38
  14. 7009e98c: e59f0010     	ldr	r0, [pc, #0x10]         @ 0x7009e9a4 <fputc+0xf0>
  15. 7009e990: e5900000     	ldr	r0, [r0]

P_HDR Event: Idx:64558 (Pattern: E, Function: fputc)
Executed Assembly Steps:
  1. 7009e994: e12fff30     	blx	r0

Sync: Idx:64560; ID:10;	BRANCH_ADDRESS : Branch address.; Addr=0x7009A2DC ~[0x22DC];

P_HDR Event: Idx:64562 (Pattern: E, Function: _nop)
Executed Assembly Steps:
  1. 7009a2dc: e12fff1e     	bx	lr

Sync: Idx:64563; ID:10;	BRANCH_ADDRESS : Branch address.; Addr=0x7009E998 ~[0x6998];

P_HDR Event: Idx:64565 (Pattern: EE, Function: fputc)
Executed Assembly Steps:
  1. 7009e998: e6ef0075     	uxtb	r0, r5
  2. 7009e99c: e8bd883c     	pop	{r2, r3, r4, r5, r11, pc}

Sync: Idx:64566; ID:10;	BRANCH_ADDRESS : Branch address.; Addr=0x700A4E88 ~[0x700A4E88]; ISA=Thumb2;

P_HDR Event: Idx:64571 (Pattern: EEEEEEEEEEEEEEE, Function: putchar_)
Executed Assembly Steps:
  1. 700a4e88: 4620         	mov	r0, r4
  2. 700a4e8a: f7f8 fa11    	bl	0x7009d2b0 <DebugP_memLogWriterPutChar> @ imm = #-0x7bde
  3. 7009d2b0: b580         	push	{r7, lr}
  4. 7009d2b2: b088         	sub	sp, #0x20
  5. 7009d2b4: f88d 001f    	strb.w	r0, [sp, #0x1f]
  6. 7009d2b8: f247 30cc    	movw	r0, #0x73cc
  7. 7009d2bc: f2c7 000a    	movt	r0, #0x700a
  8. 7009d2c0: 6800         	ldr	r0, [r0]
  9. 7009d2c2: bb40         	cbnz	r0, 0x7009d316 <DebugP_memLogWriterPutChar+0x66> @ imm = #0x50
  10. 7009d316: f89d 001f    	ldrb.w	r0, [sp, #0x1f]
  11. 7009d31a: f247 31cc    	movw	r1, #0x73cc
  12. 7009d31e: f2c7 010a    	movt	r1, #0x700a
  13. 7009d322: 680b         	ldr	r3, [r1]
  14. 7009d324: f644 42e0    	movw	r2, #0x4ce0
  15. 7009d328: f2c7 0208    	movt	r2, #0x7008

P_HDR Event: Idx:64572 (Pattern: EEEEEEN, Function: DebugP_memLogWriterPutChar)
Executed Assembly Steps:
  1. 7009d32c: 54d0         	strb	r0, [r2, r3]
  2. 7009d32e: 6808         	ldr	r0, [r1]
  3. 7009d330: 3001         	adds	r0, #0x1
  4. 7009d332: 6008         	str	r0, [r1]
  5. 7009d334: f89d 001f    	ldrb.w	r0, [sp, #0x1f]
  6. 7009d338: 280a         	cmp	r0, #0xa
  7. 7009d33a: d008         	beq	0x7009d34e <DebugP_memLogWriterPutChar+0x9e> @ imm = #0x10

P_HDR Event: Idx:64573 (Pattern: EEEEEEEE, Function: DebugP_memLogWriterPutChar)
Executed Assembly Steps:
  1. 7009d33c: e7ff         	b	0x7009d33e <DebugP_memLogWriterPutChar+0x8e> @ imm = #-0x2
  2. 7009d33e: f247 30cc    	movw	r0, #0x73cc
  3. 7009d342: f2c7 000a    	movt	r0, #0x700a
  4. 7009d346: 6800         	ldr	r0, [r0]
  5. 7009d348: 2878         	cmp	r0, #0x78
  6. 7009d34a: d350         	blo	0x7009d3ee <DebugP_memLogWriterPutChar+0x13e> @ imm = #0xa0
  7. 7009d3ee: b008         	add	sp, #0x20
  8. 7009d3f0: bd80         	pop	{r7, pc}

Sync: Idx:64574; ID:10;	BRANCH_ADDRESS : Branch address.; Addr=0x700A4E8E ~[0xE];

P_HDR Event: Idx:64576 (Pattern: EEEEEEEEEEEEEEE, Function: putchar_)
Executed Assembly Steps:
  1. 700a4e8e: 4620         	mov	r0, r4
  2. 700a4e90: e8bd 4010    	pop.w	{r4, lr}
  3. 700a4e94: f7fe bd2c    	b.w	0x700a38f0 <DebugP_uartLogWriterPutChar> @ imm = #-0x15a8
  4. 700a38f0: b580         	push	{r7, lr}
  5. 700a38f2: b088         	sub	sp, #0x20
  6. 700a38f4: f88d 001f    	strb.w	r0, [sp, #0x1f]
  7. 700a38f8: f89d 001f    	ldrb.w	r0, [sp, #0x1f]
  8. 700a38fc: f88d 001e    	strb.w	r0, [sp, #0x1e]
  9. 700a3900: f247 40e0    	movw	r0, #0x74e0
  10. 700a3904: f2c7 000a    	movt	r0, #0x700a
  11. 700a3908: 6800         	ldr	r0, [r0]
  12. 700a390a: f7ff fe41    	bl	0x700a3590 <UART_getHandle> @ imm = #-0x37e
  13. 700a3590: b083         	sub	sp, #0xc
  14. 700a3592: 9002         	str	r0, [sp, #0x8]
  15. 700a3594: 2000         	movs	r0, #0x0

P_HDR Event: Idx:64577 (Pattern: EEEEEEN, Function: UART_getHandle)
Executed Assembly Steps:
  1. 700a3596: 9001         	str	r0, [sp, #0x4]
  2. 700a3598: 9802         	ldr	r0, [sp, #0x8]
  3. 700a359a: f247 41e8    	movw	r1, #0x74e8
  4. 700a359e: f2c7 010a    	movt	r1, #0x700a
  5. 700a35a2: 6809         	ldr	r1, [r1]
  6. 700a35a4: 4288         	cmp	r0, r1
  7. 700a35a6: d217         	bhs	0x700a35d8 <UART_getHandle+0x48> @ imm = #0x2e

P_HDR Event: Idx:64578 (Pattern: EEEEEEEEN, Function: UART_getHandle)
Executed Assembly Steps:
  1. 700a35a8: e7ff         	b	0x700a35aa <UART_getHandle+0x1a> @ imm = #-0x2
  2. 700a35aa: 9902         	ldr	r1, [sp, #0x8]
  3. 700a35ac: f247 40a8    	movw	r0, #0x74a8
  4. 700a35b0: f2c7 000a    	movt	r0, #0x700a
  5. 700a35b4: eb00 00c1    	add.w	r0, r0, r1, lsl #3
  6. 700a35b8: 6840         	ldr	r0, [r0, #0x4]
  7. 700a35ba: 9000         	str	r0, [sp]
  8. 700a35bc: 9800         	ldr	r0, [sp]
  9. 700a35be: b150         	cbz	r0, 0x700a35d6 <UART_getHandle+0x46> @ imm = #0x14

P_HDR Event: Idx:64579 (Pattern: EEEEEEEEE, Function: UART_getHandle)
Executed Assembly Steps:
  1. 700a35c0: e7ff         	b	0x700a35c2 <UART_getHandle+0x32> @ imm = #-0x2
  2. 700a35c2: 9800         	ldr	r0, [sp]
  3. 700a35c4: f8d0 0084    	ldr.w	r0, [r0, #0x84]
  4. 700a35c8: 2801         	cmp	r0, #0x1
  5. 700a35ca: d104         	bne	0x700a35d6 <UART_getHandle+0x46> @ imm = #0x8
  6. 700a35d6: e7ff         	b	0x700a35d8 <UART_getHandle+0x48> @ imm = #-0x2
  7. 700a35d8: 9801         	ldr	r0, [sp, #0x4]
  8. 700a35da: b003         	add	sp, #0xc
  9. 700a35dc: 4770         	bx	lr

Sync: Idx:64580; ID:10;	BRANCH_ADDRESS : Branch address.; Addr=0x700A390E ~[0xA390E];

P_HDR Event: Idx:64583 (Pattern: EEEEE, Function: DebugP_uartLogWriterPutChar)
Executed Assembly Steps:
  1. 700a390e: 9006         	str	r0, [sp, #0x18]
  2. 700a3910: 9806         	ldr	r0, [sp, #0x18]
  3. 700a3912: b170         	cbz	r0, 0x700a3932 <DebugP_uartLogWriterPutChar+0x42> @ imm = #0x1c
  4. 700a3932: b008         	add	sp, #0x20
  5. 700a3934: bd80         	pop	{r7, pc}

Sync: Idx:64584; ID:10;	BRANCH_ADDRESS : Branch address.; Addr=0x700A4A3E ~[0xA4A3E];

P_HDR Event: Idx:64587 (Pattern: EEE, Function: _out_char)
Executed Assembly Steps:
  1. 700a4a3e: e7ff         	b	0x700a4a40 <_out_char+0x20> @ imm = #-0x2
  2. 700a4a40: b004         	add	sp, #0x10
  3. 700a4a42: bd80         	pop	{r7, pc}

Sync: Idx:64588; ID:10;	BRANCH_ADDRESS : Branch address.; Addr=0x70098F58 ~[0x98F58];

P_HDR Event: Idx:64592 (Pattern: EEEEEEEN, Function: _vsnprintf)
Executed Assembly Steps:
  1. 70098f58: 983c         	ldr	r0, [sp, #0xf0]
  2. 70098f5a: 3001         	adds	r0, #0x1
  3. 70098f5c: 903c         	str	r0, [sp, #0xf0]
  4. 70098f5e: e7e6         	b	0x70098f2e <_vsnprintf+0x2e> @ imm = #-0x34
  5. 70098f2e: 983c         	ldr	r0, [sp, #0xf0]
  6. 70098f30: 7800         	ldrb	r0, [r0]
  7. 70098f32: 2800         	cmp	r0, #0x0
  8. 70098f34: f000 84e3    	beq.w	0x700998fe <_vsnprintf+0x9fe> @ imm = #0x9c6

P_HDR Event: Idx:64593 (Pattern: EEEEN, Function: _vsnprintf)
Executed Assembly Steps:
  1. 70098f38: e7ff         	b	0x70098f3a <_vsnprintf+0x3a> @ imm = #-0x2
  2. 70098f3a: 983c         	ldr	r0, [sp, #0xf0]
  3. 70098f3c: 7800         	ldrb	r0, [r0]
  4. 70098f3e: 2825         	cmp	r0, #0x25
  5. 70098f40: d00e         	beq	0x70098f60 <_vsnprintf+0x60> @ imm = #0x1c

P_HDR Event: Idx:64594 (Pattern: EEEEEEEEEE, Function: _vsnprintf)
Executed Assembly Steps:
  1. 70098f42: e7ff         	b	0x70098f44 <_vsnprintf+0x44> @ imm = #-0x2
  2. 70098f44: f8dd c0fc    	ldr.w	r12, [sp, #0xfc]
  3. 70098f48: 983c         	ldr	r0, [sp, #0xf0]
  4. 70098f4a: 7800         	ldrb	r0, [r0]
  5. 70098f4c: 993e         	ldr	r1, [sp, #0xf8]
  6. 70098f4e: 9a37         	ldr	r2, [sp, #0xdc]
  7. 70098f50: 1c53         	adds	r3, r2, #0x1
  8. 70098f52: 9337         	str	r3, [sp, #0xdc]
  9. 70098f54: 9b3d         	ldr	r3, [sp, #0xf4]
  10. 70098f56: 47e0         	blx	r12

Sync: Idx:64595; ID:10;	BRANCH_ADDRESS : Branch address.; Addr=0x700A4A20 ~[0xA4A20];

P_HDR Event: Idx:64598 (Pattern: EEEEEEEN, Function: _out_char)
Executed Assembly Steps:
  1. 700a4a20: b580         	push	{r7, lr}
  2. 700a4a22: b084         	sub	sp, #0x10
  3. 700a4a24: f88d 000f    	strb.w	r0, [sp, #0xf]
  4. 700a4a28: 9102         	str	r1, [sp, #0x8]
  5. 700a4a2a: 9201         	str	r2, [sp, #0x4]
  6. 700a4a2c: 9300         	str	r3, [sp]
  7. 700a4a2e: f89d 000f    	ldrb.w	r0, [sp, #0xf]
  8. 700a4a32: b128         	cbz	r0, 0x700a4a40 <_out_char+0x20> @ imm = #0xa

P_HDR Event: Idx:64599 (Pattern: EEEEEE, Function: _out_char)
Executed Assembly Steps:
  1. 700a4a34: e7ff         	b	0x700a4a36 <_out_char+0x16> @ imm = #-0x2
  2. 700a4a36: f89d 000f    	ldrb.w	r0, [sp, #0xf]
  3. 700a4a3a: f000 fa21    	bl	0x700a4e80 <putchar_>   @ imm = #0x442
  4. 700a4e80: b510         	push	{r4, lr}
  5. 700a4e82: 4604         	mov	r4, r0
  6. 700a4e84: f000 e9ac    	blx	0x700a51e0 <putchar>    @ imm = #0x358

Sync: Idx:64600; ID:10;	BRANCH_ADDRESS : Branch address.; Addr=0x700A51E0 ~[0x700A51E0]; ISA=ARM(32);

P_HDR Event: Idx:64605 (Pattern: EEEEEEEEE, Function: putchar)
Executed Assembly Steps:
  1. 700a51e0: e59f1004     	ldr	r1, [pc, #0x4]          @ 0x700a51ec <putchar+0xc>
  2. 700a51e4: e2811018     	add	r1, r1, #24
  3. 700a51e8: eaffe5b1     	b	0x7009e8b4 <fputc>      @ imm = #-0x693c
  4. 7009e8b4: e92d483c     	push	{r2, r3, r4, r5, r11, lr}
  5. 7009e8b8: e59f20e0     	ldr	r2, [pc, #0xe0]         @ 0x7009e9a0 <fputc+0xec>
  6. 7009e8bc: e1a04001     	mov	r4, r1
  7. 7009e8c0: e1a05000     	mov	r5, r0
  8. 7009e8c4: e5922000     	ldr	r2, [r2]
  9. 7009e8c8: e12fff32     	blx	r2

Sync: Idx:64606; ID:10;	BRANCH_ADDRESS : Branch address.; Addr=0x7009A2DC ~[0x9A2DC];

P_HDR Event: Idx:64610 (Pattern: E, Function: _nop)
Executed Assembly Steps:
  1. 7009a2dc: e12fff1e     	bx	lr

Sync: Idx:64611; ID:10;	BRANCH_ADDRESS : Branch address.; Addr=0x7009E8CC ~[0x68CC];

P_HDR Event: Idx:64613 (Pattern: EEEEEEEN, Function: fputc)
Executed Assembly Steps:
  1. 7009e8cc: e1a00004     	mov	r0, r4
  2. 7009e8d0: eb000949     	bl	0x700a0dfc <__TI_wrt_ok> @ imm = #0x2524
  3. 700a0dfc: e92d4010     	push	{r4, lr}
  4. 700a0e00: e1a04000     	mov	r4, r0
  5. 700a0e04: e5901000     	ldr	r1, [r0]
  6. 700a0e08: e3a00000     	mov	r0, #0
  7. 700a0e0c: e3710001     	cmn	r1, #1
  8. 700a0e10: 0a00001c     	beq	0x700a0e88 <__TI_wrt_ok+0x8c> @ imm = #0x70

P_HDR Event: Idx:64616 (Pattern: EEN, Function: __TI_wrt_ok)
Executed Assembly Steps:
  1. 700a0e14: e5941014     	ldr	r1, [r4, #0x14]
  2. 700a0e18: e3110010     	tst	r1, #16
  3. 700a0e1c: 1a00001a     	bne	0x700a0e8c <__TI_wrt_ok+0x90> @ imm = #0x68

P_HDR Event: Idx:64617 (Pattern: EEEEEEEE, Function: __TI_wrt_ok)
Executed Assembly Steps:
  1. 700a0e20: e3110080     	tst	r1, #128
  2. 700a0e24: 0a000004     	beq	0x700a0e3c <__TI_wrt_ok+0x40> @ imm = #0x10
  3. 700a0e3c: e2010060     	and	r0, r1, #96
  4. 700a0e40: e3500040     	cmp	r0, #64
  5. 700a0e44: 1a000001     	bne	0x700a0e50 <__TI_wrt_ok+0x54> @ imm = #0x4
  6. 700a0e50: e5942004     	ldr	r2, [r4, #0x4]
  7. 700a0e54: e3a00001     	mov	r0, #1
  8. 700a0e58: e3520000     	cmp	r2, #0

P_HDR Event: Idx:64618 (Pattern: NE, Function: __TI_wrt_ok)
Executed Assembly Steps:
  1. 700a0e5c: 02112004     	andseq	r2, r1, #4
  2. 700a0e60: 1a000006     	bne	0x700a0e80 <__TI_wrt_ok+0x84> @ imm = #0x18

P_HDR Event: Idx:64619 (Pattern: EEE, Function: __TI_wrt_ok)
Executed Assembly Steps:
  1. 700a0e80: e594100c     	ldr	r1, [r4, #0xc]
  2. 700a0e84: e5841010     	str	r1, [r4, #0x10]
  3. 700a0e88: e8bd8010     	pop	{r4, pc}

Sync: Idx:64620; ID:10;	BRANCH_ADDRESS : Branch address.; Addr=0x7009E8D4 ~[0xD4];

P_HDR Event: Idx:64621 (Pattern: EN, Function: fputc)
Executed Assembly Steps:
  1. 7009e8d4: e3500000     	cmp	r0, #0
  2. 7009e8d8: 0a00000b     	beq	0x7009e90c <fputc+0x58> @ imm = #0x2c

P_HDR Event: Idx:64624 (Pattern: EEEEEEEEEEEEEEE, Function: fputc)
Executed Assembly Steps:
  1. 7009e8dc: e5940014     	ldr	r0, [r4, #0x14]
  2. 7009e8e0: e2000007     	and	r0, r0, #7
  3. 7009e8e4: e3500004     	cmp	r0, #4
  4. 7009e8e8: 1a00000a     	bne	0x7009e918 <fputc+0x64> @ imm = #0x28
  5. 7009e918: e5940008     	ldr	r0, [r4, #0x8]
  6. 7009e91c: e594100c     	ldr	r1, [r4, #0xc]
  7. 7009e920: e1500001     	cmp	r0, r1
  8. 7009e924: 3a000004     	blo	0x7009e93c <fputc+0x88> @ imm = #0x10
  9. 7009e93c: e2801001     	add	r1, r0, #1
  10. 7009e940: e355000a     	cmp	r5, #10
  11. 7009e944: e5841008     	str	r1, [r4, #0x8]
  12. 7009e948: e5c05000     	strb	r5, [r0]
  13. 7009e94c: 1a00000e     	bne	0x7009e98c <fputc+0xd8> @ imm = #0x38
  14. 7009e98c: e59f0010     	ldr	r0, [pc, #0x10]         @ 0x7009e9a4 <fputc+0xf0>
  15. 7009e990: e5900000     	ldr	r0, [r0]

P_HDR Event: Idx:64625 (Pattern: E, Function: fputc)
Executed Assembly Steps:
  1. 7009e994: e12fff30     	blx	r0

Sync: Idx:64626; ID:10;	BRANCH_ADDRESS : Branch address.; Addr=0x7009A2DC ~[0x22DC];

P_HDR Event: Idx:64628 (Pattern: E, Function: _nop)
Executed Assembly Steps:
  1. 7009a2dc: e12fff1e     	bx	lr

Sync: Idx:64629; ID:10;	BRANCH_ADDRESS : Branch address.; Addr=0x7009E998 ~[0x6998];

P_HDR Event: Idx:64631 (Pattern: EE, Function: fputc)
Executed Assembly Steps:
  1. 7009e998: e6ef0075     	uxtb	r0, r5
  2. 7009e99c: e8bd883c     	pop	{r2, r3, r4, r5, r11, pc}

Sync: Idx:64632; ID:10;	BRANCH_ADDRESS : Branch address.; Addr=0x700A4E88 ~[0x700A4E88]; ISA=Thumb2;

P_HDR Event: Idx:64637 (Pattern: EEEEEEEEEEEEEEE, Function: putchar_)
Executed Assembly Steps:
  1. 700a4e88: 4620         	mov	r0, r4
  2. 700a4e8a: f7f8 fa11    	bl	0x7009d2b0 <DebugP_memLogWriterPutChar> @ imm = #-0x7bde
  3. 7009d2b0: b580         	push	{r7, lr}
  4. 7009d2b2: b088         	sub	sp, #0x20
  5. 7009d2b4: f88d 001f    	strb.w	r0, [sp, #0x1f]
  6. 7009d2b8: f247 30cc    	movw	r0, #0x73cc
  7. 7009d2bc: f2c7 000a    	movt	r0, #0x700a
  8. 7009d2c0: 6800         	ldr	r0, [r0]
  9. 7009d2c2: bb40         	cbnz	r0, 0x7009d316 <DebugP_memLogWriterPutChar+0x66> @ imm = #0x50
  10. 7009d316: f89d 001f    	ldrb.w	r0, [sp, #0x1f]
  11. 7009d31a: f247 31cc    	movw	r1, #0x73cc
  12. 7009d31e: f2c7 010a    	movt	r1, #0x700a
  13. 7009d322: 680b         	ldr	r3, [r1]
  14. 7009d324: f644 42e0    	movw	r2, #0x4ce0
  15. 7009d328: f2c7 0208    	movt	r2, #0x7008

P_HDR Event: Idx:64638 (Pattern: EEEEEEN, Function: DebugP_memLogWriterPutChar)
Executed Assembly Steps:
  1. 7009d32c: 54d0         	strb	r0, [r2, r3]
  2. 7009d32e: 6808         	ldr	r0, [r1]
  3. 7009d330: 3001         	adds	r0, #0x1
  4. 7009d332: 6008         	str	r0, [r1]
  5. 7009d334: f89d 001f    	ldrb.w	r0, [sp, #0x1f]
  6. 7009d338: 280a         	cmp	r0, #0xa
  7. 7009d33a: d008         	beq	0x7009d34e <DebugP_memLogWriterPutChar+0x9e> @ imm = #0x10

P_HDR Event: Idx:64640 (Pattern: EEEEEEEE, Function: DebugP_memLogWriterPutChar)
Executed Assembly Steps:
  1. 7009d33c: e7ff         	b	0x7009d33e <DebugP_memLogWriterPutChar+0x8e> @ imm = #-0x2
  2. 7009d33e: f247 30cc    	movw	r0, #0x73cc
  3. 7009d342: f2c7 000a    	movt	r0, #0x700a
  4. 7009d346: 6800         	ldr	r0, [r0]
  5. 7009d348: 2878         	cmp	r0, #0x78
  6. 7009d34a: d350         	blo	0x7009d3ee <DebugP_memLogWriterPutChar+0x13e> @ imm = #0xa0
  7. 7009d3ee: b008         	add	sp, #0x20
  8. 7009d3f0: bd80         	pop	{r7, pc}

Sync: Idx:64641; ID:10;	BRANCH_ADDRESS : Branch address.; Addr=0x700A4E8E ~[0xE];

P_HDR Event: Idx:64642 (Pattern: EEEEEEEEEEEEEEE, Function: putchar_)
Executed Assembly Steps:
  1. 700a4e8e: 4620         	mov	r0, r4
  2. 700a4e90: e8bd 4010    	pop.w	{r4, lr}
  3. 700a4e94: f7fe bd2c    	b.w	0x700a38f0 <DebugP_uartLogWriterPutChar> @ imm = #-0x15a8
  4. 700a38f0: b580         	push	{r7, lr}
  5. 700a38f2: b088         	sub	sp, #0x20
  6. 700a38f4: f88d 001f    	strb.w	r0, [sp, #0x1f]
  7. 700a38f8: f89d 001f    	ldrb.w	r0, [sp, #0x1f]
  8. 700a38fc: f88d 001e    	strb.w	r0, [sp, #0x1e]
  9. 700a3900: f247 40e0    	movw	r0, #0x74e0
  10. 700a3904: f2c7 000a    	movt	r0, #0x700a
  11. 700a3908: 6800         	ldr	r0, [r0]
  12. 700a390a: f7ff fe41    	bl	0x700a3590 <UART_getHandle> @ imm = #-0x37e
  13. 700a3590: b083         	sub	sp, #0xc
  14. 700a3592: 9002         	str	r0, [sp, #0x8]
  15. 700a3594: 2000         	movs	r0, #0x0

P_HDR Event: Idx:64643 (Pattern: EEEEEEN, Function: UART_getHandle)
Executed Assembly Steps:
  1. 700a3596: 9001         	str	r0, [sp, #0x4]
  2. 700a3598: 9802         	ldr	r0, [sp, #0x8]
  3. 700a359a: f247 41e8    	movw	r1, #0x74e8
  4. 700a359e: f2c7 010a    	movt	r1, #0x700a
  5. 700a35a2: 6809         	ldr	r1, [r1]
  6. 700a35a4: 4288         	cmp	r0, r1
  7. 700a35a6: d217         	bhs	0x700a35d8 <UART_getHandle+0x48> @ imm = #0x2e

P_HDR Event: Idx:64644 (Pattern: EEEEEEEEN, Function: UART_getHandle)
Executed Assembly Steps:
  1. 700a35a8: e7ff         	b	0x700a35aa <UART_getHandle+0x1a> @ imm = #-0x2
  2. 700a35aa: 9902         	ldr	r1, [sp, #0x8]
  3. 700a35ac: f247 40a8    	movw	r0, #0x74a8
  4. 700a35b0: f2c7 000a    	movt	r0, #0x700a
  5. 700a35b4: eb00 00c1    	add.w	r0, r0, r1, lsl #3
  6. 700a35b8: 6840         	ldr	r0, [r0, #0x4]
  7. 700a35ba: 9000         	str	r0, [sp]
  8. 700a35bc: 9800         	ldr	r0, [sp]
  9. 700a35be: b150         	cbz	r0, 0x700a35d6 <UART_getHandle+0x46> @ imm = #0x14

P_HDR Event: Idx:64645 (Pattern: EEEEEEEEE, Function: UART_getHandle)
Executed Assembly Steps:
  1. 700a35c0: e7ff         	b	0x700a35c2 <UART_getHandle+0x32> @ imm = #-0x2
  2. 700a35c2: 9800         	ldr	r0, [sp]
  3. 700a35c4: f8d0 0084    	ldr.w	r0, [r0, #0x84]
  4. 700a35c8: 2801         	cmp	r0, #0x1
  5. 700a35ca: d104         	bne	0x700a35d6 <UART_getHandle+0x46> @ imm = #0x8
  6. 700a35d6: e7ff         	b	0x700a35d8 <UART_getHandle+0x48> @ imm = #-0x2
  7. 700a35d8: 9801         	ldr	r0, [sp, #0x4]
  8. 700a35da: b003         	add	sp, #0xc
  9. 700a35dc: 4770         	bx	lr

Sync: Idx:64646; ID:10;	BRANCH_ADDRESS : Branch address.; Addr=0x700A390E ~[0xA390E];

P_HDR Event: Idx:64649 (Pattern: EEEEE, Function: DebugP_uartLogWriterPutChar)
Executed Assembly Steps:
  1. 700a390e: 9006         	str	r0, [sp, #0x18]
  2. 700a3910: 9806         	ldr	r0, [sp, #0x18]
  3. 700a3912: b170         	cbz	r0, 0x700a3932 <DebugP_uartLogWriterPutChar+0x42> @ imm = #0x1c
  4. 700a3932: b008         	add	sp, #0x20
  5. 700a3934: bd80         	pop	{r7, pc}

Sync: Idx:64650; ID:10;	BRANCH_ADDRESS : Branch address.; Addr=0x700A4A3E ~[0xA4A3E];

P_HDR Event: Idx:64653 (Pattern: EEE, Function: _out_char)
Executed Assembly Steps:
  1. 700a4a3e: e7ff         	b	0x700a4a40 <_out_char+0x20> @ imm = #-0x2
  2. 700a4a40: b004         	add	sp, #0x10
  3. 700a4a42: bd80         	pop	{r7, pc}

Sync: Idx:64654; ID:10;	BRANCH_ADDRESS : Branch address.; Addr=0x70098F58 ~[0x98F58];

P_HDR Event: Idx:64658 (Pattern: EEEEEEEN, Function: _vsnprintf)
Executed Assembly Steps:
  1. 70098f58: 983c         	ldr	r0, [sp, #0xf0]
  2. 70098f5a: 3001         	adds	r0, #0x1
  3. 70098f5c: 903c         	str	r0, [sp, #0xf0]
  4. 70098f5e: e7e6         	b	0x70098f2e <_vsnprintf+0x2e> @ imm = #-0x34
  5. 70098f2e: 983c         	ldr	r0, [sp, #0xf0]
  6. 70098f30: 7800         	ldrb	r0, [r0]
  7. 70098f32: 2800         	cmp	r0, #0x0
  8. 70098f34: f000 84e3    	beq.w	0x700998fe <_vsnprintf+0x9fe> @ imm = #0x9c6

P_HDR Event: Idx:64659 (Pattern: EEEEN, Function: _vsnprintf)
Executed Assembly Steps:
  1. 70098f38: e7ff         	b	0x70098f3a <_vsnprintf+0x3a> @ imm = #-0x2
  2. 70098f3a: 983c         	ldr	r0, [sp, #0xf0]
  3. 70098f3c: 7800         	ldrb	r0, [r0]
  4. 70098f3e: 2825         	cmp	r0, #0x25
  5. 70098f40: d00e         	beq	0x70098f60 <_vsnprintf+0x60> @ imm = #0x1c

P_HDR Event: Idx:64660 (Pattern: EEEEEEEEEE, Function: _vsnprintf)
Executed Assembly Steps:
  1. 70098f42: e7ff         	b	0x70098f44 <_vsnprintf+0x44> @ imm = #-0x2
  2. 70098f44: f8dd c0fc    	ldr.w	r12, [sp, #0xfc]
  3. 70098f48: 983c         	ldr	r0, [sp, #0xf0]
  4. 70098f4a: 7800         	ldrb	r0, [r0]
  5. 70098f4c: 993e         	ldr	r1, [sp, #0xf8]
  6. 70098f4e: 9a37         	ldr	r2, [sp, #0xdc]
  7. 70098f50: 1c53         	adds	r3, r2, #0x1
  8. 70098f52: 9337         	str	r3, [sp, #0xdc]
  9. 70098f54: 9b3d         	ldr	r3, [sp, #0xf4]
  10. 70098f56: 47e0         	blx	r12

Sync: Idx:64661; ID:10;	BRANCH_ADDRESS : Branch address.; Addr=0x700A4A20 ~[0xA4A20];

P_HDR Event: Idx:64664 (Pattern: EEEEEEEN, Function: _out_char)
Executed Assembly Steps:
  1. 700a4a20: b580         	push	{r7, lr}
  2. 700a4a22: b084         	sub	sp, #0x10
  3. 700a4a24: f88d 000f    	strb.w	r0, [sp, #0xf]
  4. 700a4a28: 9102         	str	r1, [sp, #0x8]
  5. 700a4a2a: 9201         	str	r2, [sp, #0x4]
  6. 700a4a2c: 9300         	str	r3, [sp]
  7. 700a4a2e: f89d 000f    	ldrb.w	r0, [sp, #0xf]
  8. 700a4a32: b128         	cbz	r0, 0x700a4a40 <_out_char+0x20> @ imm = #0xa

P_HDR Event: Idx:64665 (Pattern: EEEEEE, Function: _out_char)
Executed Assembly Steps:
  1. 700a4a34: e7ff         	b	0x700a4a36 <_out_char+0x16> @ imm = #-0x2
  2. 700a4a36: f89d 000f    	ldrb.w	r0, [sp, #0xf]
  3. 700a4a3a: f000 fa21    	bl	0x700a4e80 <putchar_>   @ imm = #0x442
  4. 700a4e80: b510         	push	{r4, lr}
  5. 700a4e82: 4604         	mov	r4, r0
  6. 700a4e84: f000 e9ac    	blx	0x700a51e0 <putchar>    @ imm = #0x358

Sync: Idx:64666; ID:10;	BRANCH_ADDRESS : Branch address.; Addr=0x700A51E0 ~[0x700A51E0]; ISA=ARM(32);

P_HDR Event: Idx:64672 (Pattern: EEEEEEEEE, Function: putchar)
Executed Assembly Steps:
  1. 700a51e0: e59f1004     	ldr	r1, [pc, #0x4]          @ 0x700a51ec <putchar+0xc>
  2. 700a51e4: e2811018     	add	r1, r1, #24
  3. 700a51e8: eaffe5b1     	b	0x7009e8b4 <fputc>      @ imm = #-0x693c
  4. 7009e8b4: e92d483c     	push	{r2, r3, r4, r5, r11, lr}
  5. 7009e8b8: e59f20e0     	ldr	r2, [pc, #0xe0]         @ 0x7009e9a0 <fputc+0xec>
  6. 7009e8bc: e1a04001     	mov	r4, r1
  7. 7009e8c0: e1a05000     	mov	r5, r0
  8. 7009e8c4: e5922000     	ldr	r2, [r2]
  9. 7009e8c8: e12fff32     	blx	r2

Sync: Idx:64673; ID:10;	BRANCH_ADDRESS : Branch address.; Addr=0x7009A2DC ~[0x9A2DC];

P_HDR Event: Idx:64676 (Pattern: E, Function: _nop)
Executed Assembly Steps:
  1. 7009a2dc: e12fff1e     	bx	lr

Sync: Idx:64677; ID:10;	BRANCH_ADDRESS : Branch address.; Addr=0x7009E8CC ~[0x68CC];

P_HDR Event: Idx:64679 (Pattern: EEEEEEEN, Function: fputc)
Executed Assembly Steps:
  1. 7009e8cc: e1a00004     	mov	r0, r4
  2. 7009e8d0: eb000949     	bl	0x700a0dfc <__TI_wrt_ok> @ imm = #0x2524
  3. 700a0dfc: e92d4010     	push	{r4, lr}
  4. 700a0e00: e1a04000     	mov	r4, r0
  5. 700a0e04: e5901000     	ldr	r1, [r0]
  6. 700a0e08: e3a00000     	mov	r0, #0
  7. 700a0e0c: e3710001     	cmn	r1, #1
  8. 700a0e10: 0a00001c     	beq	0x700a0e88 <__TI_wrt_ok+0x8c> @ imm = #0x70

P_HDR Event: Idx:64680 (Pattern: EEN, Function: __TI_wrt_ok)
Executed Assembly Steps:
  1. 700a0e14: e5941014     	ldr	r1, [r4, #0x14]
  2. 700a0e18: e3110010     	tst	r1, #16
  3. 700a0e1c: 1a00001a     	bne	0x700a0e8c <__TI_wrt_ok+0x90> @ imm = #0x68

P_HDR Event: Idx:64681 (Pattern: EEEEEEEE, Function: __TI_wrt_ok)
Executed Assembly Steps:
  1. 700a0e20: e3110080     	tst	r1, #128
  2. 700a0e24: 0a000004     	beq	0x700a0e3c <__TI_wrt_ok+0x40> @ imm = #0x10
  3. 700a0e3c: e2010060     	and	r0, r1, #96
  4. 700a0e40: e3500040     	cmp	r0, #64
  5. 700a0e44: 1a000001     	bne	0x700a0e50 <__TI_wrt_ok+0x54> @ imm = #0x4
  6. 700a0e50: e5942004     	ldr	r2, [r4, #0x4]
  7. 700a0e54: e3a00001     	mov	r0, #1
  8. 700a0e58: e3520000     	cmp	r2, #0

P_HDR Event: Idx:64682 (Pattern: NE, Function: __TI_wrt_ok)
Executed Assembly Steps:
  1. 700a0e5c: 02112004     	andseq	r2, r1, #4
  2. 700a0e60: 1a000006     	bne	0x700a0e80 <__TI_wrt_ok+0x84> @ imm = #0x18

P_HDR Event: Idx:64683 (Pattern: EEE, Function: __TI_wrt_ok)
Executed Assembly Steps:
  1. 700a0e80: e594100c     	ldr	r1, [r4, #0xc]
  2. 700a0e84: e5841010     	str	r1, [r4, #0x10]
  3. 700a0e88: e8bd8010     	pop	{r4, pc}

Sync: Idx:64684; ID:10;	BRANCH_ADDRESS : Branch address.; Addr=0x7009E8D4 ~[0xD4];

P_HDR Event: Idx:64685 (Pattern: EN, Function: fputc)
Executed Assembly Steps:
  1. 7009e8d4: e3500000     	cmp	r0, #0
  2. 7009e8d8: 0a00000b     	beq	0x7009e90c <fputc+0x58> @ imm = #0x2c

P_HDR Event: Idx:64686 (Pattern: EEEEEEEEEEEEEEE, Function: fputc)
Executed Assembly Steps:
  1. 7009e8dc: e5940014     	ldr	r0, [r4, #0x14]
  2. 7009e8e0: e2000007     	and	r0, r0, #7
  3. 7009e8e4: e3500004     	cmp	r0, #4
  4. 7009e8e8: 1a00000a     	bne	0x7009e918 <fputc+0x64> @ imm = #0x28
  5. 7009e918: e5940008     	ldr	r0, [r4, #0x8]
  6. 7009e91c: e594100c     	ldr	r1, [r4, #0xc]
  7. 7009e920: e1500001     	cmp	r0, r1
  8. 7009e924: 3a000004     	blo	0x7009e93c <fputc+0x88> @ imm = #0x10
  9. 7009e93c: e2801001     	add	r1, r0, #1
  10. 7009e940: e355000a     	cmp	r5, #10
  11. 7009e944: e5841008     	str	r1, [r4, #0x8]
  12. 7009e948: e5c05000     	strb	r5, [r0]
  13. 7009e94c: 1a00000e     	bne	0x7009e98c <fputc+0xd8> @ imm = #0x38
  14. 7009e98c: e59f0010     	ldr	r0, [pc, #0x10]         @ 0x7009e9a4 <fputc+0xf0>
  15. 7009e990: e5900000     	ldr	r0, [r0]

P_HDR Event: Idx:64688 (Pattern: E, Function: fputc)
Executed Assembly Steps:
  1. 7009e994: e12fff30     	blx	r0

Sync: Idx:64689; ID:10;	BRANCH_ADDRESS : Branch address.; Addr=0x7009A2DC ~[0x22DC];

P_HDR Event: Idx:64691 (Pattern: E, Function: _nop)
Executed Assembly Steps:
  1. 7009a2dc: e12fff1e     	bx	lr

Sync: Idx:64692; ID:10;	BRANCH_ADDRESS : Branch address.; Addr=0x7009E998 ~[0x6998];

P_HDR Event: Idx:64694 (Pattern: EE, Function: fputc)
Executed Assembly Steps:
  1. 7009e998: e6ef0075     	uxtb	r0, r5
  2. 7009e99c: e8bd883c     	pop	{r2, r3, r4, r5, r11, pc}

Sync: Idx:64695; ID:10;	BRANCH_ADDRESS : Branch address.; Addr=0x700A4E88 ~[0x700A4E88]; ISA=Thumb2;

P_HDR Event: Idx:64700 (Pattern: EEEEEEEEEEEEEEE, Function: putchar_)
Executed Assembly Steps:
  1. 700a4e88: 4620         	mov	r0, r4
  2. 700a4e8a: f7f8 fa11    	bl	0x7009d2b0 <DebugP_memLogWriterPutChar> @ imm = #-0x7bde
  3. 7009d2b0: b580         	push	{r7, lr}
  4. 7009d2b2: b088         	sub	sp, #0x20
  5. 7009d2b4: f88d 001f    	strb.w	r0, [sp, #0x1f]
  6. 7009d2b8: f247 30cc    	movw	r0, #0x73cc
  7. 7009d2bc: f2c7 000a    	movt	r0, #0x700a
  8. 7009d2c0: 6800         	ldr	r0, [r0]
  9. 7009d2c2: bb40         	cbnz	r0, 0x7009d316 <DebugP_memLogWriterPutChar+0x66> @ imm = #0x50
  10. 7009d316: f89d 001f    	ldrb.w	r0, [sp, #0x1f]
  11. 7009d31a: f247 31cc    	movw	r1, #0x73cc
  12. 7009d31e: f2c7 010a    	movt	r1, #0x700a
  13. 7009d322: 680b         	ldr	r3, [r1]
  14. 7009d324: f644 42e0    	movw	r2, #0x4ce0
  15. 7009d328: f2c7 0208    	movt	r2, #0x7008

P_HDR Event: Idx:64701 (Pattern: EEEEEEN, Function: DebugP_memLogWriterPutChar)
Executed Assembly Steps:
  1. 7009d32c: 54d0         	strb	r0, [r2, r3]
  2. 7009d32e: 6808         	ldr	r0, [r1]
  3. 7009d330: 3001         	adds	r0, #0x1
  4. 7009d332: 6008         	str	r0, [r1]
  5. 7009d334: f89d 001f    	ldrb.w	r0, [sp, #0x1f]
  6. 7009d338: 280a         	cmp	r0, #0xa
  7. 7009d33a: d008         	beq	0x7009d34e <DebugP_memLogWriterPutChar+0x9e> @ imm = #0x10

P_HDR Event: Idx:64702 (Pattern: EEEEEEEE, Function: DebugP_memLogWriterPutChar)
Executed Assembly Steps:
  1. 7009d33c: e7ff         	b	0x7009d33e <DebugP_memLogWriterPutChar+0x8e> @ imm = #-0x2
  2. 7009d33e: f247 30cc    	movw	r0, #0x73cc
  3. 7009d342: f2c7 000a    	movt	r0, #0x700a
  4. 7009d346: 6800         	ldr	r0, [r0]
  5. 7009d348: 2878         	cmp	r0, #0x78
  6. 7009d34a: d350         	blo	0x7009d3ee <DebugP_memLogWriterPutChar+0x13e> @ imm = #0xa0
  7. 7009d3ee: b008         	add	sp, #0x20
  8. 7009d3f0: bd80         	pop	{r7, pc}

Sync: Idx:64704; ID:10;	BRANCH_ADDRESS : Branch address.; Addr=0x700A4E8E ~[0xE];

P_HDR Event: Idx:64705 (Pattern: EEEEEEEEEEEEEEE, Function: putchar_)
Executed Assembly Steps:
  1. 700a4e8e: 4620         	mov	r0, r4
  2. 700a4e90: e8bd 4010    	pop.w	{r4, lr}
  3. 700a4e94: f7fe bd2c    	b.w	0x700a38f0 <DebugP_uartLogWriterPutChar> @ imm = #-0x15a8
  4. 700a38f0: b580         	push	{r7, lr}
  5. 700a38f2: b088         	sub	sp, #0x20
  6. 700a38f4: f88d 001f    	strb.w	r0, [sp, #0x1f]
  7. 700a38f8: f89d 001f    	ldrb.w	r0, [sp, #0x1f]
  8. 700a38fc: f88d 001e    	strb.w	r0, [sp, #0x1e]
  9. 700a3900: f247 40e0    	movw	r0, #0x74e0
  10. 700a3904: f2c7 000a    	movt	r0, #0x700a
  11. 700a3908: 6800         	ldr	r0, [r0]
  12. 700a390a: f7ff fe41    	bl	0x700a3590 <UART_getHandle> @ imm = #-0x37e
  13. 700a3590: b083         	sub	sp, #0xc
  14. 700a3592: 9002         	str	r0, [sp, #0x8]
  15. 700a3594: 2000         	movs	r0, #0x0

P_HDR Event: Idx:64706 (Pattern: EEEEEEN, Function: UART_getHandle)
Executed Assembly Steps:
  1. 700a3596: 9001         	str	r0, [sp, #0x4]
  2. 700a3598: 9802         	ldr	r0, [sp, #0x8]
  3. 700a359a: f247 41e8    	movw	r1, #0x74e8
  4. 700a359e: f2c7 010a    	movt	r1, #0x700a
  5. 700a35a2: 6809         	ldr	r1, [r1]
  6. 700a35a4: 4288         	cmp	r0, r1
  7. 700a35a6: d217         	bhs	0x700a35d8 <UART_getHandle+0x48> @ imm = #0x2e

P_HDR Event: Idx:64707 (Pattern: EEEEEEEEN, Function: UART_getHandle)
Executed Assembly Steps:
  1. 700a35a8: e7ff         	b	0x700a35aa <UART_getHandle+0x1a> @ imm = #-0x2
  2. 700a35aa: 9902         	ldr	r1, [sp, #0x8]
  3. 700a35ac: f247 40a8    	movw	r0, #0x74a8
  4. 700a35b0: f2c7 000a    	movt	r0, #0x700a
  5. 700a35b4: eb00 00c1    	add.w	r0, r0, r1, lsl #3
  6. 700a35b8: 6840         	ldr	r0, [r0, #0x4]
  7. 700a35ba: 9000         	str	r0, [sp]
  8. 700a35bc: 9800         	ldr	r0, [sp]
  9. 700a35be: b150         	cbz	r0, 0x700a35d6 <UART_getHandle+0x46> @ imm = #0x14

P_HDR Event: Idx:64708 (Pattern: EEEEEEEEE, Function: UART_getHandle)
Executed Assembly Steps:
  1. 700a35c0: e7ff         	b	0x700a35c2 <UART_getHandle+0x32> @ imm = #-0x2
  2. 700a35c2: 9800         	ldr	r0, [sp]
  3. 700a35c4: f8d0 0084    	ldr.w	r0, [r0, #0x84]
  4. 700a35c8: 2801         	cmp	r0, #0x1
  5. 700a35ca: d104         	bne	0x700a35d6 <UART_getHandle+0x46> @ imm = #0x8
  6. 700a35d6: e7ff         	b	0x700a35d8 <UART_getHandle+0x48> @ imm = #-0x2
  7. 700a35d8: 9801         	ldr	r0, [sp, #0x4]
  8. 700a35da: b003         	add	sp, #0xc
  9. 700a35dc: 4770         	bx	lr

Sync: Idx:64709; ID:10;	BRANCH_ADDRESS : Branch address.; Addr=0x700A390E ~[0xA390E];

P_HDR Event: Idx:64712 (Pattern: EEEEE, Function: DebugP_uartLogWriterPutChar)
Executed Assembly Steps:
  1. 700a390e: 9006         	str	r0, [sp, #0x18]
  2. 700a3910: 9806         	ldr	r0, [sp, #0x18]
  3. 700a3912: b170         	cbz	r0, 0x700a3932 <DebugP_uartLogWriterPutChar+0x42> @ imm = #0x1c
  4. 700a3932: b008         	add	sp, #0x20
  5. 700a3934: bd80         	pop	{r7, pc}

Sync: Idx:64713; ID:10;	BRANCH_ADDRESS : Branch address.; Addr=0x700A4A3E ~[0xA4A3E];

P_HDR Event: Idx:64716 (Pattern: EEE, Function: _out_char)
Executed Assembly Steps:
  1. 700a4a3e: e7ff         	b	0x700a4a40 <_out_char+0x20> @ imm = #-0x2
  2. 700a4a40: b004         	add	sp, #0x10
  3. 700a4a42: bd80         	pop	{r7, pc}

Sync: Idx:64717; ID:10;	BRANCH_ADDRESS : Branch address.; Addr=0x70098F58 ~[0x98F58];

P_HDR Event: Idx:64721 (Pattern: EEEEEEEN, Function: _vsnprintf)
Executed Assembly Steps:
  1. 70098f58: 983c         	ldr	r0, [sp, #0xf0]
  2. 70098f5a: 3001         	adds	r0, #0x1
  3. 70098f5c: 903c         	str	r0, [sp, #0xf0]
  4. 70098f5e: e7e6         	b	0x70098f2e <_vsnprintf+0x2e> @ imm = #-0x34
  5. 70098f2e: 983c         	ldr	r0, [sp, #0xf0]
  6. 70098f30: 7800         	ldrb	r0, [r0]
  7. 70098f32: 2800         	cmp	r0, #0x0
  8. 70098f34: f000 84e3    	beq.w	0x700998fe <_vsnprintf+0x9fe> @ imm = #0x9c6

P_HDR Event: Idx:64722 (Pattern: EEEEN, Function: _vsnprintf)
Executed Assembly Steps:
  1. 70098f38: e7ff         	b	0x70098f3a <_vsnprintf+0x3a> @ imm = #-0x2
  2. 70098f3a: 983c         	ldr	r0, [sp, #0xf0]
  3. 70098f3c: 7800         	ldrb	r0, [r0]
  4. 70098f3e: 2825         	cmp	r0, #0x25
  5. 70098f40: d00e         	beq	0x70098f60 <_vsnprintf+0x60> @ imm = #0x1c

P_HDR Event: Idx:64723 (Pattern: EEEEEEEEEE, Function: _vsnprintf)
Executed Assembly Steps:
  1. 70098f42: e7ff         	b	0x70098f44 <_vsnprintf+0x44> @ imm = #-0x2
  2. 70098f44: f8dd c0fc    	ldr.w	r12, [sp, #0xfc]
  3. 70098f48: 983c         	ldr	r0, [sp, #0xf0]
  4. 70098f4a: 7800         	ldrb	r0, [r0]
  5. 70098f4c: 993e         	ldr	r1, [sp, #0xf8]
  6. 70098f4e: 9a37         	ldr	r2, [sp, #0xdc]
  7. 70098f50: 1c53         	adds	r3, r2, #0x1
  8. 70098f52: 9337         	str	r3, [sp, #0xdc]
  9. 70098f54: 9b3d         	ldr	r3, [sp, #0xf4]
  10. 70098f56: 47e0         	blx	r12

Sync: Idx:64724; ID:10;	BRANCH_ADDRESS : Branch address.; Addr=0x700A4A20 ~[0xA4A20];

P_HDR Event: Idx:64727 (Pattern: EEEEEEEN, Function: _out_char)
Executed Assembly Steps:
  1. 700a4a20: b580         	push	{r7, lr}
  2. 700a4a22: b084         	sub	sp, #0x10
  3. 700a4a24: f88d 000f    	strb.w	r0, [sp, #0xf]
  4. 700a4a28: 9102         	str	r1, [sp, #0x8]
  5. 700a4a2a: 9201         	str	r2, [sp, #0x4]
  6. 700a4a2c: 9300         	str	r3, [sp]
  7. 700a4a2e: f89d 000f    	ldrb.w	r0, [sp, #0xf]
  8. 700a4a32: b128         	cbz	r0, 0x700a4a40 <_out_char+0x20> @ imm = #0xa

P_HDR Event: Idx:64728 (Pattern: EEEEEE, Function: _out_char)
Executed Assembly Steps:
  1. 700a4a34: e7ff         	b	0x700a4a36 <_out_char+0x16> @ imm = #-0x2
  2. 700a4a36: f89d 000f    	ldrb.w	r0, [sp, #0xf]
  3. 700a4a3a: f000 fa21    	bl	0x700a4e80 <putchar_>   @ imm = #0x442
  4. 700a4e80: b510         	push	{r4, lr}
  5. 700a4e82: 4604         	mov	r4, r0
  6. 700a4e84: f000 e9ac    	blx	0x700a51e0 <putchar>    @ imm = #0x358

Sync: Idx:64729; ID:10;	BRANCH_ADDRESS : Branch address.; Addr=0x700A51E0 ~[0x700A51E0]; ISA=ARM(32);

P_HDR Event: Idx:64734 (Pattern: EEEEEEEEE, Function: putchar)
Executed Assembly Steps:
  1. 700a51e0: e59f1004     	ldr	r1, [pc, #0x4]          @ 0x700a51ec <putchar+0xc>
  2. 700a51e4: e2811018     	add	r1, r1, #24
  3. 700a51e8: eaffe5b1     	b	0x7009e8b4 <fputc>      @ imm = #-0x693c
  4. 7009e8b4: e92d483c     	push	{r2, r3, r4, r5, r11, lr}
  5. 7009e8b8: e59f20e0     	ldr	r2, [pc, #0xe0]         @ 0x7009e9a0 <fputc+0xec>
  6. 7009e8bc: e1a04001     	mov	r4, r1
  7. 7009e8c0: e1a05000     	mov	r5, r0
  8. 7009e8c4: e5922000     	ldr	r2, [r2]
  9. 7009e8c8: e12fff32     	blx	r2

Sync: Idx:64736; ID:10;	BRANCH_ADDRESS : Branch address.; Addr=0x7009A2DC ~[0x9A2DC];

P_HDR Event: Idx:64739 (Pattern: E, Function: _nop)
Executed Assembly Steps:
  1. 7009a2dc: e12fff1e     	bx	lr

Sync: Idx:64740; ID:10;	BRANCH_ADDRESS : Branch address.; Addr=0x7009E8CC ~[0x68CC];

P_HDR Event: Idx:64742 (Pattern: EEEEEEEN, Function: fputc)
Executed Assembly Steps:
  1. 7009e8cc: e1a00004     	mov	r0, r4
  2. 7009e8d0: eb000949     	bl	0x700a0dfc <__TI_wrt_ok> @ imm = #0x2524
  3. 700a0dfc: e92d4010     	push	{r4, lr}
  4. 700a0e00: e1a04000     	mov	r4, r0
  5. 700a0e04: e5901000     	ldr	r1, [r0]
  6. 700a0e08: e3a00000     	mov	r0, #0
  7. 700a0e0c: e3710001     	cmn	r1, #1
  8. 700a0e10: 0a00001c     	beq	0x700a0e88 <__TI_wrt_ok+0x8c> @ imm = #0x70

P_HDR Event: Idx:64743 (Pattern: EEN, Function: __TI_wrt_ok)
Executed Assembly Steps:
  1. 700a0e14: e5941014     	ldr	r1, [r4, #0x14]
  2. 700a0e18: e3110010     	tst	r1, #16
  3. 700a0e1c: 1a00001a     	bne	0x700a0e8c <__TI_wrt_ok+0x90> @ imm = #0x68

P_HDR Event: Idx:64744 (Pattern: EEEEEEEE, Function: __TI_wrt_ok)
Executed Assembly Steps:
  1. 700a0e20: e3110080     	tst	r1, #128
  2. 700a0e24: 0a000004     	beq	0x700a0e3c <__TI_wrt_ok+0x40> @ imm = #0x10
  3. 700a0e3c: e2010060     	and	r0, r1, #96
  4. 700a0e40: e3500040     	cmp	r0, #64
  5. 700a0e44: 1a000001     	bne	0x700a0e50 <__TI_wrt_ok+0x54> @ imm = #0x4
  6. 700a0e50: e5942004     	ldr	r2, [r4, #0x4]
  7. 700a0e54: e3a00001     	mov	r0, #1
  8. 700a0e58: e3520000     	cmp	r2, #0

P_HDR Event: Idx:64745 (Pattern: NE, Function: __TI_wrt_ok)
Executed Assembly Steps:
  1. 700a0e5c: 02112004     	andseq	r2, r1, #4
  2. 700a0e60: 1a000006     	bne	0x700a0e80 <__TI_wrt_ok+0x84> @ imm = #0x18

P_HDR Event: Idx:64746 (Pattern: EEE, Function: __TI_wrt_ok)
Executed Assembly Steps:
  1. 700a0e80: e594100c     	ldr	r1, [r4, #0xc]
  2. 700a0e84: e5841010     	str	r1, [r4, #0x10]
  3. 700a0e88: e8bd8010     	pop	{r4, pc}

Sync: Idx:64747; ID:10;	BRANCH_ADDRESS : Branch address.; Addr=0x7009E8D4 ~[0xD4];

P_HDR Event: Idx:64748 (Pattern: EN, Function: fputc)
Executed Assembly Steps:
  1. 7009e8d4: e3500000     	cmp	r0, #0
  2. 7009e8d8: 0a00000b     	beq	0x7009e90c <fputc+0x58> @ imm = #0x2c

P_HDR Event: Idx:64749 (Pattern: EEEEEEEEEEEEEEE, Function: fputc)
Executed Assembly Steps:
  1. 7009e8dc: e5940014     	ldr	r0, [r4, #0x14]
  2. 7009e8e0: e2000007     	and	r0, r0, #7
  3. 7009e8e4: e3500004     	cmp	r0, #4
  4. 7009e8e8: 1a00000a     	bne	0x7009e918 <fputc+0x64> @ imm = #0x28
  5. 7009e918: e5940008     	ldr	r0, [r4, #0x8]
  6. 7009e91c: e594100c     	ldr	r1, [r4, #0xc]
  7. 7009e920: e1500001     	cmp	r0, r1
  8. 7009e924: 3a000004     	blo	0x7009e93c <fputc+0x88> @ imm = #0x10
  9. 7009e93c: e2801001     	add	r1, r0, #1
  10. 7009e940: e355000a     	cmp	r5, #10
  11. 7009e944: e5841008     	str	r1, [r4, #0x8]
  12. 7009e948: e5c05000     	strb	r5, [r0]
  13. 7009e94c: 1a00000e     	bne	0x7009e98c <fputc+0xd8> @ imm = #0x38
  14. 7009e98c: e59f0010     	ldr	r0, [pc, #0x10]         @ 0x7009e9a4 <fputc+0xf0>
  15. 7009e990: e5900000     	ldr	r0, [r0]

P_HDR Event: Idx:64750 (Pattern: E, Function: fputc)
Executed Assembly Steps:
  1. 7009e994: e12fff30     	blx	r0

Sync: Idx:64752; ID:10;	BRANCH_ADDRESS : Branch address.; Addr=0x7009A2DC ~[0x22DC];

P_HDR Event: Idx:64754 (Pattern: E, Function: _nop)
Executed Assembly Steps:
  1. 7009a2dc: e12fff1e     	bx	lr

Sync: Idx:64755; ID:10;	BRANCH_ADDRESS : Branch address.; Addr=0x7009E998 ~[0x6998];

P_HDR Event: Idx:64757 (Pattern: EE, Function: fputc)
Executed Assembly Steps:
  1. 7009e998: e6ef0075     	uxtb	r0, r5
  2. 7009e99c: e8bd883c     	pop	{r2, r3, r4, r5, r11, pc}

Sync: Idx:64758; ID:10;	BRANCH_ADDRESS : Branch address.; Addr=0x700A4E88 ~[0x700A4E88]; ISA=Thumb2;

P_HDR Event: Idx:64763 (Pattern: EEEEEEEEEEEEEEE, Function: putchar_)
Executed Assembly Steps:
  1. 700a4e88: 4620         	mov	r0, r4
  2. 700a4e8a: f7f8 fa11    	bl	0x7009d2b0 <DebugP_memLogWriterPutChar> @ imm = #-0x7bde
  3. 7009d2b0: b580         	push	{r7, lr}
  4. 7009d2b2: b088         	sub	sp, #0x20
  5. 7009d2b4: f88d 001f    	strb.w	r0, [sp, #0x1f]
  6. 7009d2b8: f247 30cc    	movw	r0, #0x73cc
  7. 7009d2bc: f2c7 000a    	movt	r0, #0x700a
  8. 7009d2c0: 6800         	ldr	r0, [r0]
  9. 7009d2c2: bb40         	cbnz	r0, 0x7009d316 <DebugP_memLogWriterPutChar+0x66> @ imm = #0x50
  10. 7009d316: f89d 001f    	ldrb.w	r0, [sp, #0x1f]
  11. 7009d31a: f247 31cc    	movw	r1, #0x73cc
  12. 7009d31e: f2c7 010a    	movt	r1, #0x700a
  13. 7009d322: 680b         	ldr	r3, [r1]
  14. 7009d324: f644 42e0    	movw	r2, #0x4ce0
  15. 7009d328: f2c7 0208    	movt	r2, #0x7008

P_HDR Event: Idx:64764 (Pattern: EEEEEEN, Function: DebugP_memLogWriterPutChar)
Executed Assembly Steps:
  1. 7009d32c: 54d0         	strb	r0, [r2, r3]
  2. 7009d32e: 6808         	ldr	r0, [r1]
  3. 7009d330: 3001         	adds	r0, #0x1
  4. 7009d332: 6008         	str	r0, [r1]
  5. 7009d334: f89d 001f    	ldrb.w	r0, [sp, #0x1f]
  6. 7009d338: 280a         	cmp	r0, #0xa
  7. 7009d33a: d008         	beq	0x7009d34e <DebugP_memLogWriterPutChar+0x9e> @ imm = #0x10

P_HDR Event: Idx:64765 (Pattern: EEEEEEEE, Function: DebugP_memLogWriterPutChar)
Executed Assembly Steps:
  1. 7009d33c: e7ff         	b	0x7009d33e <DebugP_memLogWriterPutChar+0x8e> @ imm = #-0x2
  2. 7009d33e: f247 30cc    	movw	r0, #0x73cc
  3. 7009d342: f2c7 000a    	movt	r0, #0x700a
  4. 7009d346: 6800         	ldr	r0, [r0]
  5. 7009d348: 2878         	cmp	r0, #0x78
  6. 7009d34a: d350         	blo	0x7009d3ee <DebugP_memLogWriterPutChar+0x13e> @ imm = #0xa0
  7. 7009d3ee: b008         	add	sp, #0x20
  8. 7009d3f0: bd80         	pop	{r7, pc}

Sync: Idx:64766; ID:10;	BRANCH_ADDRESS : Branch address.; Addr=0x700A4E8E ~[0xE];

P_HDR Event: Idx:64768 (Pattern: EEEEEEEEEEEEEEE, Function: putchar_)
Executed Assembly Steps:
  1. 700a4e8e: 4620         	mov	r0, r4
  2. 700a4e90: e8bd 4010    	pop.w	{r4, lr}
  3. 700a4e94: f7fe bd2c    	b.w	0x700a38f0 <DebugP_uartLogWriterPutChar> @ imm = #-0x15a8
  4. 700a38f0: b580         	push	{r7, lr}
  5. 700a38f2: b088         	sub	sp, #0x20
  6. 700a38f4: f88d 001f    	strb.w	r0, [sp, #0x1f]
  7. 700a38f8: f89d 001f    	ldrb.w	r0, [sp, #0x1f]
  8. 700a38fc: f88d 001e    	strb.w	r0, [sp, #0x1e]
  9. 700a3900: f247 40e0    	movw	r0, #0x74e0
  10. 700a3904: f2c7 000a    	movt	r0, #0x700a
  11. 700a3908: 6800         	ldr	r0, [r0]
  12. 700a390a: f7ff fe41    	bl	0x700a3590 <UART_getHandle> @ imm = #-0x37e
  13. 700a3590: b083         	sub	sp, #0xc
  14. 700a3592: 9002         	str	r0, [sp, #0x8]
  15. 700a3594: 2000         	movs	r0, #0x0

P_HDR Event: Idx:64769 (Pattern: EEEEEEN, Function: UART_getHandle)
Executed Assembly Steps:
  1. 700a3596: 9001         	str	r0, [sp, #0x4]
  2. 700a3598: 9802         	ldr	r0, [sp, #0x8]
  3. 700a359a: f247 41e8    	movw	r1, #0x74e8
  4. 700a359e: f2c7 010a    	movt	r1, #0x700a
  5. 700a35a2: 6809         	ldr	r1, [r1]
  6. 700a35a4: 4288         	cmp	r0, r1
  7. 700a35a6: d217         	bhs	0x700a35d8 <UART_getHandle+0x48> @ imm = #0x2e

P_HDR Event: Idx:64770 (Pattern: EEEEEEEEN, Function: UART_getHandle)
Executed Assembly Steps:
  1. 700a35a8: e7ff         	b	0x700a35aa <UART_getHandle+0x1a> @ imm = #-0x2
  2. 700a35aa: 9902         	ldr	r1, [sp, #0x8]
  3. 700a35ac: f247 40a8    	movw	r0, #0x74a8
  4. 700a35b0: f2c7 000a    	movt	r0, #0x700a
  5. 700a35b4: eb00 00c1    	add.w	r0, r0, r1, lsl #3
  6. 700a35b8: 6840         	ldr	r0, [r0, #0x4]
  7. 700a35ba: 9000         	str	r0, [sp]
  8. 700a35bc: 9800         	ldr	r0, [sp]
  9. 700a35be: b150         	cbz	r0, 0x700a35d6 <UART_getHandle+0x46> @ imm = #0x14

P_HDR Event: Idx:64771 (Pattern: EEEEEEEEE, Function: UART_getHandle)
Executed Assembly Steps:
  1. 700a35c0: e7ff         	b	0x700a35c2 <UART_getHandle+0x32> @ imm = #-0x2
  2. 700a35c2: 9800         	ldr	r0, [sp]
  3. 700a35c4: f8d0 0084    	ldr.w	r0, [r0, #0x84]
  4. 700a35c8: 2801         	cmp	r0, #0x1
  5. 700a35ca: d104         	bne	0x700a35d6 <UART_getHandle+0x46> @ imm = #0x8
  6. 700a35d6: e7ff         	b	0x700a35d8 <UART_getHandle+0x48> @ imm = #-0x2
  7. 700a35d8: 9801         	ldr	r0, [sp, #0x4]
  8. 700a35da: b003         	add	sp, #0xc
  9. 700a35dc: 4770         	bx	lr

Sync: Idx:64772; ID:10;	BRANCH_ADDRESS : Branch address.; Addr=0x700A390E ~[0xA390E];

P_HDR Event: Idx:64775 (Pattern: EEEEE, Function: DebugP_uartLogWriterPutChar)
Executed Assembly Steps:
  1. 700a390e: 9006         	str	r0, [sp, #0x18]
  2. 700a3910: 9806         	ldr	r0, [sp, #0x18]
  3. 700a3912: b170         	cbz	r0, 0x700a3932 <DebugP_uartLogWriterPutChar+0x42> @ imm = #0x1c
  4. 700a3932: b008         	add	sp, #0x20
  5. 700a3934: bd80         	pop	{r7, pc}

Sync: Idx:64776; ID:10;	BRANCH_ADDRESS : Branch address.; Addr=0x700A4A3E ~[0xA4A3E];

P_HDR Event: Idx:64779 (Pattern: EEE, Function: _out_char)
Executed Assembly Steps:
  1. 700a4a3e: e7ff         	b	0x700a4a40 <_out_char+0x20> @ imm = #-0x2
  2. 700a4a40: b004         	add	sp, #0x10
  3. 700a4a42: bd80         	pop	{r7, pc}

Sync: Idx:64780; ID:10;	BRANCH_ADDRESS : Branch address.; Addr=0x70098F58 ~[0x98F58];

P_HDR Event: Idx:64784 (Pattern: EEEEEEEN, Function: _vsnprintf)
Executed Assembly Steps:
  1. 70098f58: 983c         	ldr	r0, [sp, #0xf0]
  2. 70098f5a: 3001         	adds	r0, #0x1
  3. 70098f5c: 903c         	str	r0, [sp, #0xf0]
  4. 70098f5e: e7e6         	b	0x70098f2e <_vsnprintf+0x2e> @ imm = #-0x34
  5. 70098f2e: 983c         	ldr	r0, [sp, #0xf0]
  6. 70098f30: 7800         	ldrb	r0, [r0]
  7. 70098f32: 2800         	cmp	r0, #0x0
  8. 70098f34: f000 84e3    	beq.w	0x700998fe <_vsnprintf+0x9fe> @ imm = #0x9c6

P_HDR Event: Idx:64785 (Pattern: EEEEN, Function: _vsnprintf)
Executed Assembly Steps:
  1. 70098f38: e7ff         	b	0x70098f3a <_vsnprintf+0x3a> @ imm = #-0x2
  2. 70098f3a: 983c         	ldr	r0, [sp, #0xf0]
  3. 70098f3c: 7800         	ldrb	r0, [r0]
  4. 70098f3e: 2825         	cmp	r0, #0x25
  5. 70098f40: d00e         	beq	0x70098f60 <_vsnprintf+0x60> @ imm = #0x1c

P_HDR Event: Idx:64786 (Pattern: EEEEEEEEEE, Function: _vsnprintf)
Executed Assembly Steps:
  1. 70098f42: e7ff         	b	0x70098f44 <_vsnprintf+0x44> @ imm = #-0x2
  2. 70098f44: f8dd c0fc    	ldr.w	r12, [sp, #0xfc]
  3. 70098f48: 983c         	ldr	r0, [sp, #0xf0]
  4. 70098f4a: 7800         	ldrb	r0, [r0]
  5. 70098f4c: 993e         	ldr	r1, [sp, #0xf8]
  6. 70098f4e: 9a37         	ldr	r2, [sp, #0xdc]
  7. 70098f50: 1c53         	adds	r3, r2, #0x1
  8. 70098f52: 9337         	str	r3, [sp, #0xdc]
  9. 70098f54: 9b3d         	ldr	r3, [sp, #0xf4]
  10. 70098f56: 47e0         	blx	r12

Sync: Idx:64787; ID:10;	BRANCH_ADDRESS : Branch address.; Addr=0x700A4A20 ~[0xA4A20];

P_HDR Event: Idx:64790 (Pattern: EEEEEEEN, Function: _out_char)
Executed Assembly Steps:
  1. 700a4a20: b580         	push	{r7, lr}
  2. 700a4a22: b084         	sub	sp, #0x10
  3. 700a4a24: f88d 000f    	strb.w	r0, [sp, #0xf]
  4. 700a4a28: 9102         	str	r1, [sp, #0x8]
  5. 700a4a2a: 9201         	str	r2, [sp, #0x4]
  6. 700a4a2c: 9300         	str	r3, [sp]
  7. 700a4a2e: f89d 000f    	ldrb.w	r0, [sp, #0xf]
  8. 700a4a32: b128         	cbz	r0, 0x700a4a40 <_out_char+0x20> @ imm = #0xa

P_HDR Event: Idx:64791 (Pattern: EEEEEE, Function: _out_char)
Executed Assembly Steps:
  1. 700a4a34: e7ff         	b	0x700a4a36 <_out_char+0x16> @ imm = #-0x2
  2. 700a4a36: f89d 000f    	ldrb.w	r0, [sp, #0xf]
  3. 700a4a3a: f000 fa21    	bl	0x700a4e80 <putchar_>   @ imm = #0x442
  4. 700a4e80: b510         	push	{r4, lr}
  5. 700a4e82: 4604         	mov	r4, r0
  6. 700a4e84: f000 e9ac    	blx	0x700a51e0 <putchar>    @ imm = #0x358

Sync: Idx:64792; ID:10;	BRANCH_ADDRESS : Branch address.; Addr=0x700A51E0 ~[0x700A51E0]; ISA=ARM(32);

P_HDR Event: Idx:64797 (Pattern: EEEEEEEEE, Function: putchar)
Executed Assembly Steps:
  1. 700a51e0: e59f1004     	ldr	r1, [pc, #0x4]          @ 0x700a51ec <putchar+0xc>
  2. 700a51e4: e2811018     	add	r1, r1, #24
  3. 700a51e8: eaffe5b1     	b	0x7009e8b4 <fputc>      @ imm = #-0x693c
  4. 7009e8b4: e92d483c     	push	{r2, r3, r4, r5, r11, lr}
  5. 7009e8b8: e59f20e0     	ldr	r2, [pc, #0xe0]         @ 0x7009e9a0 <fputc+0xec>
  6. 7009e8bc: e1a04001     	mov	r4, r1
  7. 7009e8c0: e1a05000     	mov	r5, r0
  8. 7009e8c4: e5922000     	ldr	r2, [r2]
  9. 7009e8c8: e12fff32     	blx	r2

Sync: Idx:64798; ID:10;	BRANCH_ADDRESS : Branch address.; Addr=0x7009A2DC ~[0x9A2DC];

P_HDR Event: Idx:64802 (Pattern: E, Function: _nop)
Executed Assembly Steps:
  1. 7009a2dc: e12fff1e     	bx	lr

Sync: Idx:64803; ID:10;	BRANCH_ADDRESS : Branch address.; Addr=0x7009E8CC ~[0x68CC];

P_HDR Event: Idx:64805 (Pattern: EEEEEEEN, Function: fputc)
Executed Assembly Steps:
  1. 7009e8cc: e1a00004     	mov	r0, r4
  2. 7009e8d0: eb000949     	bl	0x700a0dfc <__TI_wrt_ok> @ imm = #0x2524
  3. 700a0dfc: e92d4010     	push	{r4, lr}
  4. 700a0e00: e1a04000     	mov	r4, r0
  5. 700a0e04: e5901000     	ldr	r1, [r0]
  6. 700a0e08: e3a00000     	mov	r0, #0
  7. 700a0e0c: e3710001     	cmn	r1, #1
  8. 700a0e10: 0a00001c     	beq	0x700a0e88 <__TI_wrt_ok+0x8c> @ imm = #0x70

P_HDR Event: Idx:64806 (Pattern: EEN, Function: __TI_wrt_ok)
Executed Assembly Steps:
  1. 700a0e14: e5941014     	ldr	r1, [r4, #0x14]
  2. 700a0e18: e3110010     	tst	r1, #16
  3. 700a0e1c: 1a00001a     	bne	0x700a0e8c <__TI_wrt_ok+0x90> @ imm = #0x68

P_HDR Event: Idx:64807 (Pattern: EEEEEEEE, Function: __TI_wrt_ok)
Executed Assembly Steps:
  1. 700a0e20: e3110080     	tst	r1, #128
  2. 700a0e24: 0a000004     	beq	0x700a0e3c <__TI_wrt_ok+0x40> @ imm = #0x10
  3. 700a0e3c: e2010060     	and	r0, r1, #96
  4. 700a0e40: e3500040     	cmp	r0, #64
  5. 700a0e44: 1a000001     	bne	0x700a0e50 <__TI_wrt_ok+0x54> @ imm = #0x4
  6. 700a0e50: e5942004     	ldr	r2, [r4, #0x4]
  7. 700a0e54: e3a00001     	mov	r0, #1
  8. 700a0e58: e3520000     	cmp	r2, #0

P_HDR Event: Idx:64808 (Pattern: NE, Function: __TI_wrt_ok)
Executed Assembly Steps:
  1. 700a0e5c: 02112004     	andseq	r2, r1, #4
  2. 700a0e60: 1a000006     	bne	0x700a0e80 <__TI_wrt_ok+0x84> @ imm = #0x18

P_HDR Event: Idx:64809 (Pattern: EEE, Function: __TI_wrt_ok)
Executed Assembly Steps:
  1. 700a0e80: e594100c     	ldr	r1, [r4, #0xc]
  2. 700a0e84: e5841010     	str	r1, [r4, #0x10]
  3. 700a0e88: e8bd8010     	pop	{r4, pc}

Sync: Idx:64810; ID:10;	BRANCH_ADDRESS : Branch address.; Addr=0x7009E8D4 ~[0xD4];

P_HDR Event: Idx:64811 (Pattern: EN, Function: fputc)
Executed Assembly Steps:
  1. 7009e8d4: e3500000     	cmp	r0, #0
  2. 7009e8d8: 0a00000b     	beq	0x7009e90c <fputc+0x58> @ imm = #0x2c

P_HDR Event: Idx:64812 (Pattern: EEEEEEEEEEEEEEE, Function: fputc)
Executed Assembly Steps:
  1. 7009e8dc: e5940014     	ldr	r0, [r4, #0x14]
  2. 7009e8e0: e2000007     	and	r0, r0, #7
  3. 7009e8e4: e3500004     	cmp	r0, #4
  4. 7009e8e8: 1a00000a     	bne	0x7009e918 <fputc+0x64> @ imm = #0x28
  5. 7009e918: e5940008     	ldr	r0, [r4, #0x8]
  6. 7009e91c: e594100c     	ldr	r1, [r4, #0xc]
  7. 7009e920: e1500001     	cmp	r0, r1
  8. 7009e924: 3a000004     	blo	0x7009e93c <fputc+0x88> @ imm = #0x10
  9. 7009e93c: e2801001     	add	r1, r0, #1
  10. 7009e940: e355000a     	cmp	r5, #10
  11. 7009e944: e5841008     	str	r1, [r4, #0x8]
  12. 7009e948: e5c05000     	strb	r5, [r0]
  13. 7009e94c: 1a00000e     	bne	0x7009e98c <fputc+0xd8> @ imm = #0x38
  14. 7009e98c: e59f0010     	ldr	r0, [pc, #0x10]         @ 0x7009e9a4 <fputc+0xf0>
  15. 7009e990: e5900000     	ldr	r0, [r0]

P_HDR Event: Idx:64813 (Pattern: E, Function: fputc)
Executed Assembly Steps:
  1. 7009e994: e12fff30     	blx	r0

Sync: Idx:64814; ID:10;	BRANCH_ADDRESS : Branch address.; Addr=0x7009A2DC ~[0x22DC];

P_HDR Event: Idx:64817 (Pattern: E, Function: _nop)
Executed Assembly Steps:
  1. 7009a2dc: e12fff1e     	bx	lr

Sync: Idx:64818; ID:10;	BRANCH_ADDRESS : Branch address.; Addr=0x7009E998 ~[0x6998];

P_HDR Event: Idx:64820 (Pattern: EE, Function: fputc)
Executed Assembly Steps:
  1. 7009e998: e6ef0075     	uxtb	r0, r5
  2. 7009e99c: e8bd883c     	pop	{r2, r3, r4, r5, r11, pc}

Sync: Idx:64821; ID:10;	BRANCH_ADDRESS : Branch address.; Addr=0x700A4E88 ~[0x700A4E88]; ISA=Thumb2;

P_HDR Event: Idx:64826 (Pattern: EEEEEEEEEEEEEEE, Function: putchar_)
Executed Assembly Steps:
  1. 700a4e88: 4620         	mov	r0, r4
  2. 700a4e8a: f7f8 fa11    	bl	0x7009d2b0 <DebugP_memLogWriterPutChar> @ imm = #-0x7bde
  3. 7009d2b0: b580         	push	{r7, lr}
  4. 7009d2b2: b088         	sub	sp, #0x20
  5. 7009d2b4: f88d 001f    	strb.w	r0, [sp, #0x1f]
  6. 7009d2b8: f247 30cc    	movw	r0, #0x73cc
  7. 7009d2bc: f2c7 000a    	movt	r0, #0x700a
  8. 7009d2c0: 6800         	ldr	r0, [r0]
  9. 7009d2c2: bb40         	cbnz	r0, 0x7009d316 <DebugP_memLogWriterPutChar+0x66> @ imm = #0x50
  10. 7009d316: f89d 001f    	ldrb.w	r0, [sp, #0x1f]
  11. 7009d31a: f247 31cc    	movw	r1, #0x73cc
  12. 7009d31e: f2c7 010a    	movt	r1, #0x700a
  13. 7009d322: 680b         	ldr	r3, [r1]
  14. 7009d324: f644 42e0    	movw	r2, #0x4ce0
  15. 7009d328: f2c7 0208    	movt	r2, #0x7008

P_HDR Event: Idx:64827 (Pattern: EEEEEEN, Function: DebugP_memLogWriterPutChar)
Executed Assembly Steps:
  1. 7009d32c: 54d0         	strb	r0, [r2, r3]
  2. 7009d32e: 6808         	ldr	r0, [r1]
  3. 7009d330: 3001         	adds	r0, #0x1
  4. 7009d332: 6008         	str	r0, [r1]
  5. 7009d334: f89d 001f    	ldrb.w	r0, [sp, #0x1f]
  6. 7009d338: 280a         	cmp	r0, #0xa
  7. 7009d33a: d008         	beq	0x7009d34e <DebugP_memLogWriterPutChar+0x9e> @ imm = #0x10

P_HDR Event: Idx:64828 (Pattern: EEEEEEEE, Function: DebugP_memLogWriterPutChar)
Executed Assembly Steps:
  1. 7009d33c: e7ff         	b	0x7009d33e <DebugP_memLogWriterPutChar+0x8e> @ imm = #-0x2
  2. 7009d33e: f247 30cc    	movw	r0, #0x73cc
  3. 7009d342: f2c7 000a    	movt	r0, #0x700a
  4. 7009d346: 6800         	ldr	r0, [r0]
  5. 7009d348: 2878         	cmp	r0, #0x78
  6. 7009d34a: d350         	blo	0x7009d3ee <DebugP_memLogWriterPutChar+0x13e> @ imm = #0xa0
  7. 7009d3ee: b008         	add	sp, #0x20
  8. 7009d3f0: bd80         	pop	{r7, pc}

Sync: Idx:64829; ID:10;	BRANCH_ADDRESS : Branch address.; Addr=0x700A4E8E ~[0xE];

P_HDR Event: Idx:64830 (Pattern: EEEEEEEEEEEEEEE, Function: putchar_)
Executed Assembly Steps:
  1. 700a4e8e: 4620         	mov	r0, r4
  2. 700a4e90: e8bd 4010    	pop.w	{r4, lr}
  3. 700a4e94: f7fe bd2c    	b.w	0x700a38f0 <DebugP_uartLogWriterPutChar> @ imm = #-0x15a8
  4. 700a38f0: b580         	push	{r7, lr}
  5. 700a38f2: b088         	sub	sp, #0x20
  6. 700a38f4: f88d 001f    	strb.w	r0, [sp, #0x1f]
  7. 700a38f8: f89d 001f    	ldrb.w	r0, [sp, #0x1f]
  8. 700a38fc: f88d 001e    	strb.w	r0, [sp, #0x1e]
  9. 700a3900: f247 40e0    	movw	r0, #0x74e0
  10. 700a3904: f2c7 000a    	movt	r0, #0x700a
  11. 700a3908: 6800         	ldr	r0, [r0]
  12. 700a390a: f7ff fe41    	bl	0x700a3590 <UART_getHandle> @ imm = #-0x37e
  13. 700a3590: b083         	sub	sp, #0xc
  14. 700a3592: 9002         	str	r0, [sp, #0x8]
  15. 700a3594: 2000         	movs	r0, #0x0

P_HDR Event: Idx:64832 (Pattern: EEEEEEN, Function: UART_getHandle)
Executed Assembly Steps:
  1. 700a3596: 9001         	str	r0, [sp, #0x4]
  2. 700a3598: 9802         	ldr	r0, [sp, #0x8]
  3. 700a359a: f247 41e8    	movw	r1, #0x74e8
  4. 700a359e: f2c7 010a    	movt	r1, #0x700a
  5. 700a35a2: 6809         	ldr	r1, [r1]
  6. 700a35a4: 4288         	cmp	r0, r1
  7. 700a35a6: d217         	bhs	0x700a35d8 <UART_getHandle+0x48> @ imm = #0x2e

P_HDR Event: Idx:64833 (Pattern: EEEEEEEEN, Function: UART_getHandle)
Executed Assembly Steps:
  1. 700a35a8: e7ff         	b	0x700a35aa <UART_getHandle+0x1a> @ imm = #-0x2
  2. 700a35aa: 9902         	ldr	r1, [sp, #0x8]
  3. 700a35ac: f247 40a8    	movw	r0, #0x74a8
  4. 700a35b0: f2c7 000a    	movt	r0, #0x700a
  5. 700a35b4: eb00 00c1    	add.w	r0, r0, r1, lsl #3
  6. 700a35b8: 6840         	ldr	r0, [r0, #0x4]
  7. 700a35ba: 9000         	str	r0, [sp]
  8. 700a35bc: 9800         	ldr	r0, [sp]
  9. 700a35be: b150         	cbz	r0, 0x700a35d6 <UART_getHandle+0x46> @ imm = #0x14

P_HDR Event: Idx:64834 (Pattern: EEEEEEEEE, Function: UART_getHandle)
Executed Assembly Steps:
  1. 700a35c0: e7ff         	b	0x700a35c2 <UART_getHandle+0x32> @ imm = #-0x2
  2. 700a35c2: 9800         	ldr	r0, [sp]
  3. 700a35c4: f8d0 0084    	ldr.w	r0, [r0, #0x84]
  4. 700a35c8: 2801         	cmp	r0, #0x1
  5. 700a35ca: d104         	bne	0x700a35d6 <UART_getHandle+0x46> @ imm = #0x8
  6. 700a35d6: e7ff         	b	0x700a35d8 <UART_getHandle+0x48> @ imm = #-0x2
  7. 700a35d8: 9801         	ldr	r0, [sp, #0x4]
  8. 700a35da: b003         	add	sp, #0xc
  9. 700a35dc: 4770         	bx	lr

Sync: Idx:64835; ID:10;	BRANCH_ADDRESS : Branch address.; Addr=0x700A390E ~[0xA390E];

P_HDR Event: Idx:64838 (Pattern: EEEEE, Function: DebugP_uartLogWriterPutChar)
Executed Assembly Steps:
  1. 700a390e: 9006         	str	r0, [sp, #0x18]
  2. 700a3910: 9806         	ldr	r0, [sp, #0x18]
  3. 700a3912: b170         	cbz	r0, 0x700a3932 <DebugP_uartLogWriterPutChar+0x42> @ imm = #0x1c
  4. 700a3932: b008         	add	sp, #0x20
  5. 700a3934: bd80         	pop	{r7, pc}

Sync: Idx:64839; ID:10;	BRANCH_ADDRESS : Branch address.; Addr=0x700A4A3E ~[0xA4A3E];

P_HDR Event: Idx:64842 (Pattern: EEE, Function: _out_char)
Executed Assembly Steps:
  1. 700a4a3e: e7ff         	b	0x700a4a40 <_out_char+0x20> @ imm = #-0x2
  2. 700a4a40: b004         	add	sp, #0x10
  3. 700a4a42: bd80         	pop	{r7, pc}

Sync: Idx:64843; ID:10;	BRANCH_ADDRESS : Branch address.; Addr=0x70098F58 ~[0x98F58];

P_HDR Event: Idx:64846 (Pattern: EEEEEEEN, Function: _vsnprintf)
Executed Assembly Steps:
  1. 70098f58: 983c         	ldr	r0, [sp, #0xf0]
  2. 70098f5a: 3001         	adds	r0, #0x1
  3. 70098f5c: 903c         	str	r0, [sp, #0xf0]
  4. 70098f5e: e7e6         	b	0x70098f2e <_vsnprintf+0x2e> @ imm = #-0x34
  5. 70098f2e: 983c         	ldr	r0, [sp, #0xf0]
  6. 70098f30: 7800         	ldrb	r0, [r0]
  7. 70098f32: 2800         	cmp	r0, #0x0
  8. 70098f34: f000 84e3    	beq.w	0x700998fe <_vsnprintf+0x9fe> @ imm = #0x9c6

P_HDR Event: Idx:64848 (Pattern: EEEEN, Function: _vsnprintf)
Executed Assembly Steps:
  1. 70098f38: e7ff         	b	0x70098f3a <_vsnprintf+0x3a> @ imm = #-0x2
  2. 70098f3a: 983c         	ldr	r0, [sp, #0xf0]
  3. 70098f3c: 7800         	ldrb	r0, [r0]
  4. 70098f3e: 2825         	cmp	r0, #0x25
  5. 70098f40: d00e         	beq	0x70098f60 <_vsnprintf+0x60> @ imm = #0x1c

P_HDR Event: Idx:64849 (Pattern: EEEEEEEEEE, Function: _vsnprintf)
Executed Assembly Steps:
  1. 70098f42: e7ff         	b	0x70098f44 <_vsnprintf+0x44> @ imm = #-0x2
  2. 70098f44: f8dd c0fc    	ldr.w	r12, [sp, #0xfc]
  3. 70098f48: 983c         	ldr	r0, [sp, #0xf0]
  4. 70098f4a: 7800         	ldrb	r0, [r0]
  5. 70098f4c: 993e         	ldr	r1, [sp, #0xf8]
  6. 70098f4e: 9a37         	ldr	r2, [sp, #0xdc]
  7. 70098f50: 1c53         	adds	r3, r2, #0x1
  8. 70098f52: 9337         	str	r3, [sp, #0xdc]
  9. 70098f54: 9b3d         	ldr	r3, [sp, #0xf4]
  10. 70098f56: 47e0         	blx	r12

Sync: Idx:64850; ID:10;	BRANCH_ADDRESS : Branch address.; Addr=0x700A4A20 ~[0xA4A20];

P_HDR Event: Idx:64853 (Pattern: EEEEEEEN, Function: _out_char)
Executed Assembly Steps:
  1. 700a4a20: b580         	push	{r7, lr}
  2. 700a4a22: b084         	sub	sp, #0x10
  3. 700a4a24: f88d 000f    	strb.w	r0, [sp, #0xf]
  4. 700a4a28: 9102         	str	r1, [sp, #0x8]
  5. 700a4a2a: 9201         	str	r2, [sp, #0x4]
  6. 700a4a2c: 9300         	str	r3, [sp]
  7. 700a4a2e: f89d 000f    	ldrb.w	r0, [sp, #0xf]
  8. 700a4a32: b128         	cbz	r0, 0x700a4a40 <_out_char+0x20> @ imm = #0xa

P_HDR Event: Idx:64854 (Pattern: EEEEEE, Function: _out_char)
Executed Assembly Steps:
  1. 700a4a34: e7ff         	b	0x700a4a36 <_out_char+0x16> @ imm = #-0x2
  2. 700a4a36: f89d 000f    	ldrb.w	r0, [sp, #0xf]
  3. 700a4a3a: f000 fa21    	bl	0x700a4e80 <putchar_>   @ imm = #0x442
  4. 700a4e80: b510         	push	{r4, lr}
  5. 700a4e82: 4604         	mov	r4, r0
  6. 700a4e84: f000 e9ac    	blx	0x700a51e0 <putchar>    @ imm = #0x358

Sync: Idx:64855; ID:10;	BRANCH_ADDRESS : Branch address.; Addr=0x700A51E0 ~[0x700A51E0]; ISA=ARM(32);

P_HDR Event: Idx:64860 (Pattern: EEEEEEEEE, Function: putchar)
Executed Assembly Steps:
  1. 700a51e0: e59f1004     	ldr	r1, [pc, #0x4]          @ 0x700a51ec <putchar+0xc>
  2. 700a51e4: e2811018     	add	r1, r1, #24
  3. 700a51e8: eaffe5b1     	b	0x7009e8b4 <fputc>      @ imm = #-0x693c
  4. 7009e8b4: e92d483c     	push	{r2, r3, r4, r5, r11, lr}
  5. 7009e8b8: e59f20e0     	ldr	r2, [pc, #0xe0]         @ 0x7009e9a0 <fputc+0xec>
  6. 7009e8bc: e1a04001     	mov	r4, r1
  7. 7009e8c0: e1a05000     	mov	r5, r0
  8. 7009e8c4: e5922000     	ldr	r2, [r2]
  9. 7009e8c8: e12fff32     	blx	r2

Sync: Idx:64861; ID:10;	BRANCH_ADDRESS : Branch address.; Addr=0x7009A2DC ~[0x9A2DC];

P_HDR Event: Idx:64866 (Pattern: E, Function: _nop)
Executed Assembly Steps:
  1. 7009a2dc: e12fff1e     	bx	lr

Sync: Idx:64867; ID:10;	BRANCH_ADDRESS : Branch address.; Addr=0x7009E8CC ~[0x68CC];

P_HDR Event: Idx:64869 (Pattern: EEEEEEEN, Function: fputc)
Executed Assembly Steps:
  1. 7009e8cc: e1a00004     	mov	r0, r4
  2. 7009e8d0: eb000949     	bl	0x700a0dfc <__TI_wrt_ok> @ imm = #0x2524
  3. 700a0dfc: e92d4010     	push	{r4, lr}
  4. 700a0e00: e1a04000     	mov	r4, r0
  5. 700a0e04: e5901000     	ldr	r1, [r0]
  6. 700a0e08: e3a00000     	mov	r0, #0
  7. 700a0e0c: e3710001     	cmn	r1, #1
  8. 700a0e10: 0a00001c     	beq	0x700a0e88 <__TI_wrt_ok+0x8c> @ imm = #0x70

P_HDR Event: Idx:64870 (Pattern: EEN, Function: __TI_wrt_ok)
Executed Assembly Steps:
  1. 700a0e14: e5941014     	ldr	r1, [r4, #0x14]
  2. 700a0e18: e3110010     	tst	r1, #16
  3. 700a0e1c: 1a00001a     	bne	0x700a0e8c <__TI_wrt_ok+0x90> @ imm = #0x68

P_HDR Event: Idx:64871 (Pattern: EEEEEEEE, Function: __TI_wrt_ok)
Executed Assembly Steps:
  1. 700a0e20: e3110080     	tst	r1, #128
  2. 700a0e24: 0a000004     	beq	0x700a0e3c <__TI_wrt_ok+0x40> @ imm = #0x10
  3. 700a0e3c: e2010060     	and	r0, r1, #96
  4. 700a0e40: e3500040     	cmp	r0, #64
  5. 700a0e44: 1a000001     	bne	0x700a0e50 <__TI_wrt_ok+0x54> @ imm = #0x4
  6. 700a0e50: e5942004     	ldr	r2, [r4, #0x4]
  7. 700a0e54: e3a00001     	mov	r0, #1
  8. 700a0e58: e3520000     	cmp	r2, #0

P_HDR Event: Idx:64872 (Pattern: NE, Function: __TI_wrt_ok)
Executed Assembly Steps:
  1. 700a0e5c: 02112004     	andseq	r2, r1, #4
  2. 700a0e60: 1a000006     	bne	0x700a0e80 <__TI_wrt_ok+0x84> @ imm = #0x18

P_HDR Event: Idx:64873 (Pattern: EEE, Function: __TI_wrt_ok)
Executed Assembly Steps:
  1. 700a0e80: e594100c     	ldr	r1, [r4, #0xc]
  2. 700a0e84: e5841010     	str	r1, [r4, #0x10]
  3. 700a0e88: e8bd8010     	pop	{r4, pc}

Sync: Idx:64874; ID:10;	BRANCH_ADDRESS : Branch address.; Addr=0x7009E8D4 ~[0xD4];

P_HDR Event: Idx:64875 (Pattern: EN, Function: fputc)
Executed Assembly Steps:
  1. 7009e8d4: e3500000     	cmp	r0, #0
  2. 7009e8d8: 0a00000b     	beq	0x7009e90c <fputc+0x58> @ imm = #0x2c

P_HDR Event: Idx:64876 (Pattern: EEEEEEEEEEEEEEE, Function: fputc)
Executed Assembly Steps:
  1. 7009e8dc: e5940014     	ldr	r0, [r4, #0x14]
  2. 7009e8e0: e2000007     	and	r0, r0, #7
  3. 7009e8e4: e3500004     	cmp	r0, #4
  4. 7009e8e8: 1a00000a     	bne	0x7009e918 <fputc+0x64> @ imm = #0x28
  5. 7009e918: e5940008     	ldr	r0, [r4, #0x8]
  6. 7009e91c: e594100c     	ldr	r1, [r4, #0xc]
  7. 7009e920: e1500001     	cmp	r0, r1
  8. 7009e924: 3a000004     	blo	0x7009e93c <fputc+0x88> @ imm = #0x10
  9. 7009e93c: e2801001     	add	r1, r0, #1
  10. 7009e940: e355000a     	cmp	r5, #10
  11. 7009e944: e5841008     	str	r1, [r4, #0x8]
  12. 7009e948: e5c05000     	strb	r5, [r0]
  13. 7009e94c: 1a00000e     	bne	0x7009e98c <fputc+0xd8> @ imm = #0x38
  14. 7009e98c: e59f0010     	ldr	r0, [pc, #0x10]         @ 0x7009e9a4 <fputc+0xf0>
  15. 7009e990: e5900000     	ldr	r0, [r0]

P_HDR Event: Idx:64880 (Pattern: E, Function: fputc)
Executed Assembly Steps:
  1. 7009e994: e12fff30     	blx	r0

Sync: Idx:64881; ID:10;	BRANCH_ADDRESS : Branch address.; Addr=0x7009A2DC ~[0x22DC];

P_HDR Event: Idx:64883 (Pattern: E, Function: _nop)
Executed Assembly Steps:
  1. 7009a2dc: e12fff1e     	bx	lr

Sync: Idx:64884; ID:10;	BRANCH_ADDRESS : Branch address.; Addr=0x7009E998 ~[0x6998];

P_HDR Event: Idx:64886 (Pattern: EE, Function: fputc)
Executed Assembly Steps:
  1. 7009e998: e6ef0075     	uxtb	r0, r5
  2. 7009e99c: e8bd883c     	pop	{r2, r3, r4, r5, r11, pc}

Sync: Idx:64887; ID:10;	BRANCH_ADDRESS : Branch address.; Addr=0x700A4E88 ~[0x700A4E88]; ISA=Thumb2;

P_HDR Event: Idx:64892 (Pattern: EEEEEEEEEEEEEEE, Function: putchar_)
Executed Assembly Steps:
  1. 700a4e88: 4620         	mov	r0, r4
  2. 700a4e8a: f7f8 fa11    	bl	0x7009d2b0 <DebugP_memLogWriterPutChar> @ imm = #-0x7bde
  3. 7009d2b0: b580         	push	{r7, lr}
  4. 7009d2b2: b088         	sub	sp, #0x20
  5. 7009d2b4: f88d 001f    	strb.w	r0, [sp, #0x1f]
  6. 7009d2b8: f247 30cc    	movw	r0, #0x73cc
  7. 7009d2bc: f2c7 000a    	movt	r0, #0x700a
  8. 7009d2c0: 6800         	ldr	r0, [r0]
  9. 7009d2c2: bb40         	cbnz	r0, 0x7009d316 <DebugP_memLogWriterPutChar+0x66> @ imm = #0x50
  10. 7009d316: f89d 001f    	ldrb.w	r0, [sp, #0x1f]
  11. 7009d31a: f247 31cc    	movw	r1, #0x73cc
  12. 7009d31e: f2c7 010a    	movt	r1, #0x700a
  13. 7009d322: 680b         	ldr	r3, [r1]
  14. 7009d324: f644 42e0    	movw	r2, #0x4ce0
  15. 7009d328: f2c7 0208    	movt	r2, #0x7008

P_HDR Event: Idx:64893 (Pattern: EEEEEEN, Function: DebugP_memLogWriterPutChar)
Executed Assembly Steps:
  1. 7009d32c: 54d0         	strb	r0, [r2, r3]
  2. 7009d32e: 6808         	ldr	r0, [r1]
  3. 7009d330: 3001         	adds	r0, #0x1
  4. 7009d332: 6008         	str	r0, [r1]
  5. 7009d334: f89d 001f    	ldrb.w	r0, [sp, #0x1f]
  6. 7009d338: 280a         	cmp	r0, #0xa
  7. 7009d33a: d008         	beq	0x7009d34e <DebugP_memLogWriterPutChar+0x9e> @ imm = #0x10

P_HDR Event: Idx:64894 (Pattern: EEEEEEEE, Function: DebugP_memLogWriterPutChar)
Executed Assembly Steps:
  1. 7009d33c: e7ff         	b	0x7009d33e <DebugP_memLogWriterPutChar+0x8e> @ imm = #-0x2
  2. 7009d33e: f247 30cc    	movw	r0, #0x73cc
  3. 7009d342: f2c7 000a    	movt	r0, #0x700a
  4. 7009d346: 6800         	ldr	r0, [r0]
  5. 7009d348: 2878         	cmp	r0, #0x78
  6. 7009d34a: d350         	blo	0x7009d3ee <DebugP_memLogWriterPutChar+0x13e> @ imm = #0xa0
  7. 7009d3ee: b008         	add	sp, #0x20
  8. 7009d3f0: bd80         	pop	{r7, pc}

Sync: Idx:64896; ID:10;	BRANCH_ADDRESS : Branch address.; Addr=0x700A4E8E ~[0xE];

P_HDR Event: Idx:64897 (Pattern: EEEEEEEEEEEEEEE, Function: putchar_)
Executed Assembly Steps:
  1. 700a4e8e: 4620         	mov	r0, r4
  2. 700a4e90: e8bd 4010    	pop.w	{r4, lr}
  3. 700a4e94: f7fe bd2c    	b.w	0x700a38f0 <DebugP_uartLogWriterPutChar> @ imm = #-0x15a8
  4. 700a38f0: b580         	push	{r7, lr}
  5. 700a38f2: b088         	sub	sp, #0x20
  6. 700a38f4: f88d 001f    	strb.w	r0, [sp, #0x1f]
  7. 700a38f8: f89d 001f    	ldrb.w	r0, [sp, #0x1f]
  8. 700a38fc: f88d 001e    	strb.w	r0, [sp, #0x1e]
  9. 700a3900: f247 40e0    	movw	r0, #0x74e0
  10. 700a3904: f2c7 000a    	movt	r0, #0x700a
  11. 700a3908: 6800         	ldr	r0, [r0]
  12. 700a390a: f7ff fe41    	bl	0x700a3590 <UART_getHandle> @ imm = #-0x37e
  13. 700a3590: b083         	sub	sp, #0xc
  14. 700a3592: 9002         	str	r0, [sp, #0x8]
  15. 700a3594: 2000         	movs	r0, #0x0

P_HDR Event: Idx:64898 (Pattern: EEEEEEN, Function: UART_getHandle)
Executed Assembly Steps:
  1. 700a3596: 9001         	str	r0, [sp, #0x4]
  2. 700a3598: 9802         	ldr	r0, [sp, #0x8]
  3. 700a359a: f247 41e8    	movw	r1, #0x74e8
  4. 700a359e: f2c7 010a    	movt	r1, #0x700a
  5. 700a35a2: 6809         	ldr	r1, [r1]
  6. 700a35a4: 4288         	cmp	r0, r1
  7. 700a35a6: d217         	bhs	0x700a35d8 <UART_getHandle+0x48> @ imm = #0x2e

P_HDR Event: Idx:64899 (Pattern: EEEEEEEEN, Function: UART_getHandle)
Executed Assembly Steps:
  1. 700a35a8: e7ff         	b	0x700a35aa <UART_getHandle+0x1a> @ imm = #-0x2
  2. 700a35aa: 9902         	ldr	r1, [sp, #0x8]
  3. 700a35ac: f247 40a8    	movw	r0, #0x74a8
  4. 700a35b0: f2c7 000a    	movt	r0, #0x700a
  5. 700a35b4: eb00 00c1    	add.w	r0, r0, r1, lsl #3
  6. 700a35b8: 6840         	ldr	r0, [r0, #0x4]
  7. 700a35ba: 9000         	str	r0, [sp]
  8. 700a35bc: 9800         	ldr	r0, [sp]
  9. 700a35be: b150         	cbz	r0, 0x700a35d6 <UART_getHandle+0x46> @ imm = #0x14

P_HDR Event: Idx:64900 (Pattern: EEEEEEEEE, Function: UART_getHandle)
Executed Assembly Steps:
  1. 700a35c0: e7ff         	b	0x700a35c2 <UART_getHandle+0x32> @ imm = #-0x2
  2. 700a35c2: 9800         	ldr	r0, [sp]
  3. 700a35c4: f8d0 0084    	ldr.w	r0, [r0, #0x84]
  4. 700a35c8: 2801         	cmp	r0, #0x1
  5. 700a35ca: d104         	bne	0x700a35d6 <UART_getHandle+0x46> @ imm = #0x8
  6. 700a35d6: e7ff         	b	0x700a35d8 <UART_getHandle+0x48> @ imm = #-0x2
  7. 700a35d8: 9801         	ldr	r0, [sp, #0x4]
  8. 700a35da: b003         	add	sp, #0xc
  9. 700a35dc: 4770         	bx	lr

Sync: Idx:64901; ID:10;	BRANCH_ADDRESS : Branch address.; Addr=0x700A390E ~[0xA390E];

P_HDR Event: Idx:64904 (Pattern: EEEEE, Function: DebugP_uartLogWriterPutChar)
Executed Assembly Steps:
  1. 700a390e: 9006         	str	r0, [sp, #0x18]
  2. 700a3910: 9806         	ldr	r0, [sp, #0x18]
  3. 700a3912: b170         	cbz	r0, 0x700a3932 <DebugP_uartLogWriterPutChar+0x42> @ imm = #0x1c
  4. 700a3932: b008         	add	sp, #0x20
  5. 700a3934: bd80         	pop	{r7, pc}

Sync: Idx:64905; ID:10;	BRANCH_ADDRESS : Branch address.; Addr=0x700A4A3E ~[0xA4A3E];

P_HDR Event: Idx:64908 (Pattern: EEE, Function: _out_char)
Executed Assembly Steps:
  1. 700a4a3e: e7ff         	b	0x700a4a40 <_out_char+0x20> @ imm = #-0x2
  2. 700a4a40: b004         	add	sp, #0x10
  3. 700a4a42: bd80         	pop	{r7, pc}

Sync: Idx:64909; ID:10;	BRANCH_ADDRESS : Branch address.; Addr=0x70098F58 ~[0x98F58];

P_HDR Event: Idx:64913 (Pattern: EEEEEEEN, Function: _vsnprintf)
Executed Assembly Steps:
  1. 70098f58: 983c         	ldr	r0, [sp, #0xf0]
  2. 70098f5a: 3001         	adds	r0, #0x1
  3. 70098f5c: 903c         	str	r0, [sp, #0xf0]
  4. 70098f5e: e7e6         	b	0x70098f2e <_vsnprintf+0x2e> @ imm = #-0x34
  5. 70098f2e: 983c         	ldr	r0, [sp, #0xf0]
  6. 70098f30: 7800         	ldrb	r0, [r0]
  7. 70098f32: 2800         	cmp	r0, #0x0
  8. 70098f34: f000 84e3    	beq.w	0x700998fe <_vsnprintf+0x9fe> @ imm = #0x9c6

P_HDR Event: Idx:64914 (Pattern: EEEEN, Function: _vsnprintf)
Executed Assembly Steps:
  1. 70098f38: e7ff         	b	0x70098f3a <_vsnprintf+0x3a> @ imm = #-0x2
  2. 70098f3a: 983c         	ldr	r0, [sp, #0xf0]
  3. 70098f3c: 7800         	ldrb	r0, [r0]
  4. 70098f3e: 2825         	cmp	r0, #0x25
  5. 70098f40: d00e         	beq	0x70098f60 <_vsnprintf+0x60> @ imm = #0x1c

P_HDR Event: Idx:64915 (Pattern: EEEEEEEEEE, Function: _vsnprintf)
Executed Assembly Steps:
  1. 70098f42: e7ff         	b	0x70098f44 <_vsnprintf+0x44> @ imm = #-0x2
  2. 70098f44: f8dd c0fc    	ldr.w	r12, [sp, #0xfc]
  3. 70098f48: 983c         	ldr	r0, [sp, #0xf0]
  4. 70098f4a: 7800         	ldrb	r0, [r0]
  5. 70098f4c: 993e         	ldr	r1, [sp, #0xf8]
  6. 70098f4e: 9a37         	ldr	r2, [sp, #0xdc]
  7. 70098f50: 1c53         	adds	r3, r2, #0x1
  8. 70098f52: 9337         	str	r3, [sp, #0xdc]
  9. 70098f54: 9b3d         	ldr	r3, [sp, #0xf4]
  10. 70098f56: 47e0         	blx	r12

Sync: Idx:64916; ID:10;	BRANCH_ADDRESS : Branch address.; Addr=0x700A4A20 ~[0xA4A20];

P_HDR Event: Idx:64919 (Pattern: EEEEEEEN, Function: _out_char)
Executed Assembly Steps:
  1. 700a4a20: b580         	push	{r7, lr}
  2. 700a4a22: b084         	sub	sp, #0x10
  3. 700a4a24: f88d 000f    	strb.w	r0, [sp, #0xf]
  4. 700a4a28: 9102         	str	r1, [sp, #0x8]
  5. 700a4a2a: 9201         	str	r2, [sp, #0x4]
  6. 700a4a2c: 9300         	str	r3, [sp]
  7. 700a4a2e: f89d 000f    	ldrb.w	r0, [sp, #0xf]
  8. 700a4a32: b128         	cbz	r0, 0x700a4a40 <_out_char+0x20> @ imm = #0xa

P_HDR Event: Idx:64920 (Pattern: EEEEEE, Function: _out_char)
Executed Assembly Steps:
  1. 700a4a34: e7ff         	b	0x700a4a36 <_out_char+0x16> @ imm = #-0x2
  2. 700a4a36: f89d 000f    	ldrb.w	r0, [sp, #0xf]
  3. 700a4a3a: f000 fa21    	bl	0x700a4e80 <putchar_>   @ imm = #0x442
  4. 700a4e80: b510         	push	{r4, lr}
  5. 700a4e82: 4604         	mov	r4, r0
  6. 700a4e84: f000 e9ac    	blx	0x700a51e0 <putchar>    @ imm = #0x358

Sync: Idx:64921; ID:10;	BRANCH_ADDRESS : Branch address.; Addr=0x700A51E0 ~[0x700A51E0]; ISA=ARM(32);

P_HDR Event: Idx:64926 (Pattern: EEEEEEEEE, Function: putchar)
Executed Assembly Steps:
  1. 700a51e0: e59f1004     	ldr	r1, [pc, #0x4]          @ 0x700a51ec <putchar+0xc>
  2. 700a51e4: e2811018     	add	r1, r1, #24
  3. 700a51e8: eaffe5b1     	b	0x7009e8b4 <fputc>      @ imm = #-0x693c
  4. 7009e8b4: e92d483c     	push	{r2, r3, r4, r5, r11, lr}
  5. 7009e8b8: e59f20e0     	ldr	r2, [pc, #0xe0]         @ 0x7009e9a0 <fputc+0xec>
  6. 7009e8bc: e1a04001     	mov	r4, r1
  7. 7009e8c0: e1a05000     	mov	r5, r0
  8. 7009e8c4: e5922000     	ldr	r2, [r2]
  9. 7009e8c8: e12fff32     	blx	r2

Sync: Idx:64928; ID:10;	BRANCH_ADDRESS : Branch address.; Addr=0x7009A2DC ~[0x9A2DC];

P_HDR Event: Idx:64931 (Pattern: E, Function: _nop)
Executed Assembly Steps:
  1. 7009a2dc: e12fff1e     	bx	lr

Sync: Idx:64932; ID:10;	BRANCH_ADDRESS : Branch address.; Addr=0x7009E8CC ~[0x68CC];

P_HDR Event: Idx:64934 (Pattern: EEEEEEEN, Function: fputc)
Executed Assembly Steps:
  1. 7009e8cc: e1a00004     	mov	r0, r4
  2. 7009e8d0: eb000949     	bl	0x700a0dfc <__TI_wrt_ok> @ imm = #0x2524
  3. 700a0dfc: e92d4010     	push	{r4, lr}
  4. 700a0e00: e1a04000     	mov	r4, r0
  5. 700a0e04: e5901000     	ldr	r1, [r0]
  6. 700a0e08: e3a00000     	mov	r0, #0
  7. 700a0e0c: e3710001     	cmn	r1, #1
  8. 700a0e10: 0a00001c     	beq	0x700a0e88 <__TI_wrt_ok+0x8c> @ imm = #0x70

P_HDR Event: Idx:64935 (Pattern: EEN, Function: __TI_wrt_ok)
Executed Assembly Steps:
  1. 700a0e14: e5941014     	ldr	r1, [r4, #0x14]
  2. 700a0e18: e3110010     	tst	r1, #16
  3. 700a0e1c: 1a00001a     	bne	0x700a0e8c <__TI_wrt_ok+0x90> @ imm = #0x68

P_HDR Event: Idx:64936 (Pattern: EEEEEEEE, Function: __TI_wrt_ok)
Executed Assembly Steps:
  1. 700a0e20: e3110080     	tst	r1, #128
  2. 700a0e24: 0a000004     	beq	0x700a0e3c <__TI_wrt_ok+0x40> @ imm = #0x10
  3. 700a0e3c: e2010060     	and	r0, r1, #96
  4. 700a0e40: e3500040     	cmp	r0, #64
  5. 700a0e44: 1a000001     	bne	0x700a0e50 <__TI_wrt_ok+0x54> @ imm = #0x4
  6. 700a0e50: e5942004     	ldr	r2, [r4, #0x4]
  7. 700a0e54: e3a00001     	mov	r0, #1
  8. 700a0e58: e3520000     	cmp	r2, #0

P_HDR Event: Idx:64937 (Pattern: NE, Function: __TI_wrt_ok)
Executed Assembly Steps:
  1. 700a0e5c: 02112004     	andseq	r2, r1, #4
  2. 700a0e60: 1a000006     	bne	0x700a0e80 <__TI_wrt_ok+0x84> @ imm = #0x18

P_HDR Event: Idx:64938 (Pattern: EEE, Function: __TI_wrt_ok)
Executed Assembly Steps:
  1. 700a0e80: e594100c     	ldr	r1, [r4, #0xc]
  2. 700a0e84: e5841010     	str	r1, [r4, #0x10]
  3. 700a0e88: e8bd8010     	pop	{r4, pc}

Sync: Idx:64939; ID:10;	BRANCH_ADDRESS : Branch address.; Addr=0x7009E8D4 ~[0xD4];

P_HDR Event: Idx:64940 (Pattern: EN, Function: fputc)
Executed Assembly Steps:
  1. 7009e8d4: e3500000     	cmp	r0, #0
  2. 7009e8d8: 0a00000b     	beq	0x7009e90c <fputc+0x58> @ imm = #0x2c

P_HDR Event: Idx:64941 (Pattern: EEEEEEEEEEEEEEE, Function: fputc)
Executed Assembly Steps:
  1. 7009e8dc: e5940014     	ldr	r0, [r4, #0x14]
  2. 7009e8e0: e2000007     	and	r0, r0, #7
  3. 7009e8e4: e3500004     	cmp	r0, #4
  4. 7009e8e8: 1a00000a     	bne	0x7009e918 <fputc+0x64> @ imm = #0x28
  5. 7009e918: e5940008     	ldr	r0, [r4, #0x8]
  6. 7009e91c: e594100c     	ldr	r1, [r4, #0xc]
  7. 7009e920: e1500001     	cmp	r0, r1
  8. 7009e924: 3a000004     	blo	0x7009e93c <fputc+0x88> @ imm = #0x10
  9. 7009e93c: e2801001     	add	r1, r0, #1
  10. 7009e940: e355000a     	cmp	r5, #10
  11. 7009e944: e5841008     	str	r1, [r4, #0x8]
  12. 7009e948: e5c05000     	strb	r5, [r0]
  13. 7009e94c: 1a00000e     	bne	0x7009e98c <fputc+0xd8> @ imm = #0x38
  14. 7009e98c: e59f0010     	ldr	r0, [pc, #0x10]         @ 0x7009e9a4 <fputc+0xf0>
  15. 7009e990: e5900000     	ldr	r0, [r0]

P_HDR Event: Idx:64942 (Pattern: E, Function: fputc)
Executed Assembly Steps:
  1. 7009e994: e12fff30     	blx	r0

Sync: Idx:64944; ID:10;	BRANCH_ADDRESS : Branch address.; Addr=0x7009A2DC ~[0x22DC];

P_HDR Event: Idx:64946 (Pattern: E, Function: _nop)
Executed Assembly Steps:
  1. 7009a2dc: e12fff1e     	bx	lr

Sync: Idx:64947; ID:10;	BRANCH_ADDRESS : Branch address.; Addr=0x7009E998 ~[0x6998];

P_HDR Event: Idx:64949 (Pattern: EE, Function: fputc)
Executed Assembly Steps:
  1. 7009e998: e6ef0075     	uxtb	r0, r5
  2. 7009e99c: e8bd883c     	pop	{r2, r3, r4, r5, r11, pc}

Sync: Idx:64950; ID:10;	BRANCH_ADDRESS : Branch address.; Addr=0x700A4E88 ~[0x700A4E88]; ISA=Thumb2;

P_HDR Event: Idx:64955 (Pattern: EEEEEEEEEEEEEEE, Function: putchar_)
Executed Assembly Steps:
  1. 700a4e88: 4620         	mov	r0, r4
  2. 700a4e8a: f7f8 fa11    	bl	0x7009d2b0 <DebugP_memLogWriterPutChar> @ imm = #-0x7bde
  3. 7009d2b0: b580         	push	{r7, lr}
  4. 7009d2b2: b088         	sub	sp, #0x20
  5. 7009d2b4: f88d 001f    	strb.w	r0, [sp, #0x1f]
  6. 7009d2b8: f247 30cc    	movw	r0, #0x73cc
  7. 7009d2bc: f2c7 000a    	movt	r0, #0x700a
  8. 7009d2c0: 6800         	ldr	r0, [r0]
  9. 7009d2c2: bb40         	cbnz	r0, 0x7009d316 <DebugP_memLogWriterPutChar+0x66> @ imm = #0x50
  10. 7009d316: f89d 001f    	ldrb.w	r0, [sp, #0x1f]
  11. 7009d31a: f247 31cc    	movw	r1, #0x73cc
  12. 7009d31e: f2c7 010a    	movt	r1, #0x700a
  13. 7009d322: 680b         	ldr	r3, [r1]
  14. 7009d324: f644 42e0    	movw	r2, #0x4ce0
  15. 7009d328: f2c7 0208    	movt	r2, #0x7008

P_HDR Event: Idx:64956 (Pattern: EEEEEEN, Function: DebugP_memLogWriterPutChar)
Executed Assembly Steps:
  1. 7009d32c: 54d0         	strb	r0, [r2, r3]
  2. 7009d32e: 6808         	ldr	r0, [r1]
  3. 7009d330: 3001         	adds	r0, #0x1
  4. 7009d332: 6008         	str	r0, [r1]
  5. 7009d334: f89d 001f    	ldrb.w	r0, [sp, #0x1f]
  6. 7009d338: 280a         	cmp	r0, #0xa
  7. 7009d33a: d008         	beq	0x7009d34e <DebugP_memLogWriterPutChar+0x9e> @ imm = #0x10

P_HDR Event: Idx:64957 (Pattern: EEEEEEEE, Function: DebugP_memLogWriterPutChar)
Executed Assembly Steps:
  1. 7009d33c: e7ff         	b	0x7009d33e <DebugP_memLogWriterPutChar+0x8e> @ imm = #-0x2
  2. 7009d33e: f247 30cc    	movw	r0, #0x73cc
  3. 7009d342: f2c7 000a    	movt	r0, #0x700a
  4. 7009d346: 6800         	ldr	r0, [r0]
  5. 7009d348: 2878         	cmp	r0, #0x78
  6. 7009d34a: d350         	blo	0x7009d3ee <DebugP_memLogWriterPutChar+0x13e> @ imm = #0xa0
  7. 7009d3ee: b008         	add	sp, #0x20
  8. 7009d3f0: bd80         	pop	{r7, pc}

Sync: Idx:64958; ID:10;	BRANCH_ADDRESS : Branch address.; Addr=0x700A4E8E ~[0xE];

P_HDR Event: Idx:64960 (Pattern: EEEEEEEEEEEEEEE, Function: putchar_)
Executed Assembly Steps:
  1. 700a4e8e: 4620         	mov	r0, r4
  2. 700a4e90: e8bd 4010    	pop.w	{r4, lr}
  3. 700a4e94: f7fe bd2c    	b.w	0x700a38f0 <DebugP_uartLogWriterPutChar> @ imm = #-0x15a8
  4. 700a38f0: b580         	push	{r7, lr}
  5. 700a38f2: b088         	sub	sp, #0x20
  6. 700a38f4: f88d 001f    	strb.w	r0, [sp, #0x1f]
  7. 700a38f8: f89d 001f    	ldrb.w	r0, [sp, #0x1f]
  8. 700a38fc: f88d 001e    	strb.w	r0, [sp, #0x1e]
  9. 700a3900: f247 40e0    	movw	r0, #0x74e0
  10. 700a3904: f2c7 000a    	movt	r0, #0x700a
  11. 700a3908: 6800         	ldr	r0, [r0]
  12. 700a390a: f7ff fe41    	bl	0x700a3590 <UART_getHandle> @ imm = #-0x37e
  13. 700a3590: b083         	sub	sp, #0xc
  14. 700a3592: 9002         	str	r0, [sp, #0x8]
  15. 700a3594: 2000         	movs	r0, #0x0

P_HDR Event: Idx:64961 (Pattern: EEEEEEN, Function: UART_getHandle)
Executed Assembly Steps:
  1. 700a3596: 9001         	str	r0, [sp, #0x4]
  2. 700a3598: 9802         	ldr	r0, [sp, #0x8]
  3. 700a359a: f247 41e8    	movw	r1, #0x74e8
  4. 700a359e: f2c7 010a    	movt	r1, #0x700a
  5. 700a35a2: 6809         	ldr	r1, [r1]
  6. 700a35a4: 4288         	cmp	r0, r1
  7. 700a35a6: d217         	bhs	0x700a35d8 <UART_getHandle+0x48> @ imm = #0x2e

P_HDR Event: Idx:64962 (Pattern: EEEEEEEEN, Function: UART_getHandle)
Executed Assembly Steps:
  1. 700a35a8: e7ff         	b	0x700a35aa <UART_getHandle+0x1a> @ imm = #-0x2
  2. 700a35aa: 9902         	ldr	r1, [sp, #0x8]
  3. 700a35ac: f247 40a8    	movw	r0, #0x74a8
  4. 700a35b0: f2c7 000a    	movt	r0, #0x700a
  5. 700a35b4: eb00 00c1    	add.w	r0, r0, r1, lsl #3
  6. 700a35b8: 6840         	ldr	r0, [r0, #0x4]
  7. 700a35ba: 9000         	str	r0, [sp]
  8. 700a35bc: 9800         	ldr	r0, [sp]
  9. 700a35be: b150         	cbz	r0, 0x700a35d6 <UART_getHandle+0x46> @ imm = #0x14

P_HDR Event: Idx:64963 (Pattern: EEEEEEEEE, Function: UART_getHandle)
Executed Assembly Steps:
  1. 700a35c0: e7ff         	b	0x700a35c2 <UART_getHandle+0x32> @ imm = #-0x2
  2. 700a35c2: 9800         	ldr	r0, [sp]
  3. 700a35c4: f8d0 0084    	ldr.w	r0, [r0, #0x84]
  4. 700a35c8: 2801         	cmp	r0, #0x1
  5. 700a35ca: d104         	bne	0x700a35d6 <UART_getHandle+0x46> @ imm = #0x8
  6. 700a35d6: e7ff         	b	0x700a35d8 <UART_getHandle+0x48> @ imm = #-0x2
  7. 700a35d8: 9801         	ldr	r0, [sp, #0x4]
  8. 700a35da: b003         	add	sp, #0xc
  9. 700a35dc: 4770         	bx	lr

Sync: Idx:64964; ID:10;	BRANCH_ADDRESS : Branch address.; Addr=0x700A390E ~[0xA390E];

P_HDR Event: Idx:64967 (Pattern: EEEEE, Function: DebugP_uartLogWriterPutChar)
Executed Assembly Steps:
  1. 700a390e: 9006         	str	r0, [sp, #0x18]
  2. 700a3910: 9806         	ldr	r0, [sp, #0x18]
  3. 700a3912: b170         	cbz	r0, 0x700a3932 <DebugP_uartLogWriterPutChar+0x42> @ imm = #0x1c
  4. 700a3932: b008         	add	sp, #0x20
  5. 700a3934: bd80         	pop	{r7, pc}

Sync: Idx:64968; ID:10;	BRANCH_ADDRESS : Branch address.; Addr=0x700A4A3E ~[0xA4A3E];

P_HDR Event: Idx:64971 (Pattern: EEE, Function: _out_char)
Executed Assembly Steps:
  1. 700a4a3e: e7ff         	b	0x700a4a40 <_out_char+0x20> @ imm = #-0x2
  2. 700a4a40: b004         	add	sp, #0x10
  3. 700a4a42: bd80         	pop	{r7, pc}

Sync: Idx:64972; ID:10;	BRANCH_ADDRESS : Branch address.; Addr=0x70098F58 ~[0x98F58];

P_HDR Event: Idx:64976 (Pattern: EEEEEEEN, Function: _vsnprintf)
Executed Assembly Steps:
  1. 70098f58: 983c         	ldr	r0, [sp, #0xf0]
  2. 70098f5a: 3001         	adds	r0, #0x1
  3. 70098f5c: 903c         	str	r0, [sp, #0xf0]
  4. 70098f5e: e7e6         	b	0x70098f2e <_vsnprintf+0x2e> @ imm = #-0x34
  5. 70098f2e: 983c         	ldr	r0, [sp, #0xf0]
  6. 70098f30: 7800         	ldrb	r0, [r0]
  7. 70098f32: 2800         	cmp	r0, #0x0
  8. 70098f34: f000 84e3    	beq.w	0x700998fe <_vsnprintf+0x9fe> @ imm = #0x9c6

P_HDR Event: Idx:64977 (Pattern: EEEEN, Function: _vsnprintf)
Executed Assembly Steps:
  1. 70098f38: e7ff         	b	0x70098f3a <_vsnprintf+0x3a> @ imm = #-0x2
  2. 70098f3a: 983c         	ldr	r0, [sp, #0xf0]
  3. 70098f3c: 7800         	ldrb	r0, [r0]
  4. 70098f3e: 2825         	cmp	r0, #0x25
  5. 70098f40: d00e         	beq	0x70098f60 <_vsnprintf+0x60> @ imm = #0x1c

P_HDR Event: Idx:64978 (Pattern: EEEEEEEEEE, Function: _vsnprintf)
Executed Assembly Steps:
  1. 70098f42: e7ff         	b	0x70098f44 <_vsnprintf+0x44> @ imm = #-0x2
  2. 70098f44: f8dd c0fc    	ldr.w	r12, [sp, #0xfc]
  3. 70098f48: 983c         	ldr	r0, [sp, #0xf0]
  4. 70098f4a: 7800         	ldrb	r0, [r0]
  5. 70098f4c: 993e         	ldr	r1, [sp, #0xf8]
  6. 70098f4e: 9a37         	ldr	r2, [sp, #0xdc]
  7. 70098f50: 1c53         	adds	r3, r2, #0x1
  8. 70098f52: 9337         	str	r3, [sp, #0xdc]
  9. 70098f54: 9b3d         	ldr	r3, [sp, #0xf4]
  10. 70098f56: 47e0         	blx	r12

Sync: Idx:64979; ID:10;	BRANCH_ADDRESS : Branch address.; Addr=0x700A4A20 ~[0xA4A20];

P_HDR Event: Idx:64982 (Pattern: EEEEEEEN, Function: _out_char)
Executed Assembly Steps:
  1. 700a4a20: b580         	push	{r7, lr}
  2. 700a4a22: b084         	sub	sp, #0x10
  3. 700a4a24: f88d 000f    	strb.w	r0, [sp, #0xf]
  4. 700a4a28: 9102         	str	r1, [sp, #0x8]
  5. 700a4a2a: 9201         	str	r2, [sp, #0x4]
  6. 700a4a2c: 9300         	str	r3, [sp]
  7. 700a4a2e: f89d 000f    	ldrb.w	r0, [sp, #0xf]
  8. 700a4a32: b128         	cbz	r0, 0x700a4a40 <_out_char+0x20> @ imm = #0xa

P_HDR Event: Idx:64983 (Pattern: EEEEEE, Function: _out_char)
Executed Assembly Steps:
  1. 700a4a34: e7ff         	b	0x700a4a36 <_out_char+0x16> @ imm = #-0x2
  2. 700a4a36: f89d 000f    	ldrb.w	r0, [sp, #0xf]
  3. 700a4a3a: f000 fa21    	bl	0x700a4e80 <putchar_>   @ imm = #0x442
  4. 700a4e80: b510         	push	{r4, lr}
  5. 700a4e82: 4604         	mov	r4, r0
  6. 700a4e84: f000 e9ac    	blx	0x700a51e0 <putchar>    @ imm = #0x358

Sync: Idx:64984; ID:10;	BRANCH_ADDRESS : Branch address.; Addr=0x700A51E0 ~[0x700A51E0]; ISA=ARM(32);

P_HDR Event: Idx:64989 (Pattern: EEEEEEEEE, Function: putchar)
Executed Assembly Steps:
  1. 700a51e0: e59f1004     	ldr	r1, [pc, #0x4]          @ 0x700a51ec <putchar+0xc>
  2. 700a51e4: e2811018     	add	r1, r1, #24
  3. 700a51e8: eaffe5b1     	b	0x7009e8b4 <fputc>      @ imm = #-0x693c
  4. 7009e8b4: e92d483c     	push	{r2, r3, r4, r5, r11, lr}
  5. 7009e8b8: e59f20e0     	ldr	r2, [pc, #0xe0]         @ 0x7009e9a0 <fputc+0xec>
  6. 7009e8bc: e1a04001     	mov	r4, r1
  7. 7009e8c0: e1a05000     	mov	r5, r0
  8. 7009e8c4: e5922000     	ldr	r2, [r2]
  9. 7009e8c8: e12fff32     	blx	r2

Sync: Idx:64990; ID:10;	BRANCH_ADDRESS : Branch address.; Addr=0x7009A2DC ~[0x9A2DC];

P_HDR Event: Idx:65000 (Pattern: E, Function: _nop)
Executed Assembly Steps:
  1. 7009a2dc: e12fff1e     	bx	lr

Sync: Idx:65001; ID:10;	BRANCH_ADDRESS : Branch address.; Addr=0x7009E8CC ~[0x68CC];

P_HDR Event: Idx:65003 (Pattern: EEEEEEEN, Function: fputc)
Executed Assembly Steps:
  1. 7009e8cc: e1a00004     	mov	r0, r4
  2. 7009e8d0: eb000949     	bl	0x700a0dfc <__TI_wrt_ok> @ imm = #0x2524
  3. 700a0dfc: e92d4010     	push	{r4, lr}
  4. 700a0e00: e1a04000     	mov	r4, r0
  5. 700a0e04: e5901000     	ldr	r1, [r0]
  6. 700a0e08: e3a00000     	mov	r0, #0
  7. 700a0e0c: e3710001     	cmn	r1, #1
  8. 700a0e10: 0a00001c     	beq	0x700a0e88 <__TI_wrt_ok+0x8c> @ imm = #0x70

P_HDR Event: Idx:65004 (Pattern: EEN, Function: __TI_wrt_ok)
Executed Assembly Steps:
  1. 700a0e14: e5941014     	ldr	r1, [r4, #0x14]
  2. 700a0e18: e3110010     	tst	r1, #16
  3. 700a0e1c: 1a00001a     	bne	0x700a0e8c <__TI_wrt_ok+0x90> @ imm = #0x68

P_HDR Event: Idx:65005 (Pattern: EEEEEEEE, Function: __TI_wrt_ok)
Executed Assembly Steps:
  1. 700a0e20: e3110080     	tst	r1, #128
  2. 700a0e24: 0a000004     	beq	0x700a0e3c <__TI_wrt_ok+0x40> @ imm = #0x10
  3. 700a0e3c: e2010060     	and	r0, r1, #96
  4. 700a0e40: e3500040     	cmp	r0, #64
  5. 700a0e44: 1a000001     	bne	0x700a0e50 <__TI_wrt_ok+0x54> @ imm = #0x4
  6. 700a0e50: e5942004     	ldr	r2, [r4, #0x4]
  7. 700a0e54: e3a00001     	mov	r0, #1
  8. 700a0e58: e3520000     	cmp	r2, #0

P_HDR Event: Idx:65006 (Pattern: NE, Function: __TI_wrt_ok)
Executed Assembly Steps:
  1. 700a0e5c: 02112004     	andseq	r2, r1, #4
  2. 700a0e60: 1a000006     	bne	0x700a0e80 <__TI_wrt_ok+0x84> @ imm = #0x18

P_HDR Event: Idx:65008 (Pattern: EEE, Function: __TI_wrt_ok)
Executed Assembly Steps:
  1. 700a0e80: e594100c     	ldr	r1, [r4, #0xc]
  2. 700a0e84: e5841010     	str	r1, [r4, #0x10]
  3. 700a0e88: e8bd8010     	pop	{r4, pc}

Sync: Idx:65009; ID:10;	BRANCH_ADDRESS : Branch address.; Addr=0x7009E8D4 ~[0xD4];

P_HDR Event: Idx:65010 (Pattern: EN, Function: fputc)
Executed Assembly Steps:
  1. 7009e8d4: e3500000     	cmp	r0, #0
  2. 7009e8d8: 0a00000b     	beq	0x7009e90c <fputc+0x58> @ imm = #0x2c

P_HDR Event: Idx:65011 (Pattern: EEEEEEEEEEEEEEE, Function: fputc)
Executed Assembly Steps:
  1. 7009e8dc: e5940014     	ldr	r0, [r4, #0x14]
  2. 7009e8e0: e2000007     	and	r0, r0, #7
  3. 7009e8e4: e3500004     	cmp	r0, #4
  4. 7009e8e8: 1a00000a     	bne	0x7009e918 <fputc+0x64> @ imm = #0x28
  5. 7009e918: e5940008     	ldr	r0, [r4, #0x8]
  6. 7009e91c: e594100c     	ldr	r1, [r4, #0xc]
  7. 7009e920: e1500001     	cmp	r0, r1
  8. 7009e924: 3a000004     	blo	0x7009e93c <fputc+0x88> @ imm = #0x10
  9. 7009e93c: e2801001     	add	r1, r0, #1
  10. 7009e940: e355000a     	cmp	r5, #10
  11. 7009e944: e5841008     	str	r1, [r4, #0x8]
  12. 7009e948: e5c05000     	strb	r5, [r0]
  13. 7009e94c: 1a00000e     	bne	0x7009e98c <fputc+0xd8> @ imm = #0x38
  14. 7009e98c: e59f0010     	ldr	r0, [pc, #0x10]         @ 0x7009e9a4 <fputc+0xf0>
  15. 7009e990: e5900000     	ldr	r0, [r0]

P_HDR Event: Idx:65012 (Pattern: E, Function: fputc)
Executed Assembly Steps:
  1. 7009e994: e12fff30     	blx	r0

Sync: Idx:65013; ID:10;	BRANCH_ADDRESS : Branch address.; Addr=0x7009A2DC ~[0x22DC];

P_HDR Event: Idx:65015 (Pattern: E, Function: _nop)
Executed Assembly Steps:
  1. 7009a2dc: e12fff1e     	bx	lr

Sync: Idx:65016; ID:10;	BRANCH_ADDRESS : Branch address.; Addr=0x7009E998 ~[0x6998];

P_HDR Event: Idx:65018 (Pattern: EE, Function: fputc)
Executed Assembly Steps:
  1. 7009e998: e6ef0075     	uxtb	r0, r5
  2. 7009e99c: e8bd883c     	pop	{r2, r3, r4, r5, r11, pc}

Sync: Idx:65019; ID:10;	BRANCH_ADDRESS : Branch address.; Addr=0x700A4E88 ~[0x700A4E88]; ISA=Thumb2;

P_HDR Event: Idx:65025 (Pattern: EEEEEEEEEEEEEEE, Function: putchar_)
Executed Assembly Steps:
  1. 700a4e88: 4620         	mov	r0, r4
  2. 700a4e8a: f7f8 fa11    	bl	0x7009d2b0 <DebugP_memLogWriterPutChar> @ imm = #-0x7bde
  3. 7009d2b0: b580         	push	{r7, lr}
  4. 7009d2b2: b088         	sub	sp, #0x20
  5. 7009d2b4: f88d 001f    	strb.w	r0, [sp, #0x1f]
  6. 7009d2b8: f247 30cc    	movw	r0, #0x73cc
  7. 7009d2bc: f2c7 000a    	movt	r0, #0x700a
  8. 7009d2c0: 6800         	ldr	r0, [r0]
  9. 7009d2c2: bb40         	cbnz	r0, 0x7009d316 <DebugP_memLogWriterPutChar+0x66> @ imm = #0x50
  10. 7009d316: f89d 001f    	ldrb.w	r0, [sp, #0x1f]
  11. 7009d31a: f247 31cc    	movw	r1, #0x73cc
  12. 7009d31e: f2c7 010a    	movt	r1, #0x700a
  13. 7009d322: 680b         	ldr	r3, [r1]
  14. 7009d324: f644 42e0    	movw	r2, #0x4ce0
  15. 7009d328: f2c7 0208    	movt	r2, #0x7008

P_HDR Event: Idx:65026 (Pattern: EEEEEEN, Function: DebugP_memLogWriterPutChar)
Executed Assembly Steps:
  1. 7009d32c: 54d0         	strb	r0, [r2, r3]
  2. 7009d32e: 6808         	ldr	r0, [r1]
  3. 7009d330: 3001         	adds	r0, #0x1
  4. 7009d332: 6008         	str	r0, [r1]
  5. 7009d334: f89d 001f    	ldrb.w	r0, [sp, #0x1f]
  6. 7009d338: 280a         	cmp	r0, #0xa
  7. 7009d33a: d008         	beq	0x7009d34e <DebugP_memLogWriterPutChar+0x9e> @ imm = #0x10

P_HDR Event: Idx:65027 (Pattern: EEEEEEEE, Function: DebugP_memLogWriterPutChar)
Executed Assembly Steps:
  1. 7009d33c: e7ff         	b	0x7009d33e <DebugP_memLogWriterPutChar+0x8e> @ imm = #-0x2
  2. 7009d33e: f247 30cc    	movw	r0, #0x73cc
  3. 7009d342: f2c7 000a    	movt	r0, #0x700a
  4. 7009d346: 6800         	ldr	r0, [r0]
  5. 7009d348: 2878         	cmp	r0, #0x78
  6. 7009d34a: d350         	blo	0x7009d3ee <DebugP_memLogWriterPutChar+0x13e> @ imm = #0xa0
  7. 7009d3ee: b008         	add	sp, #0x20
  8. 7009d3f0: bd80         	pop	{r7, pc}

Sync: Idx:65028; ID:10;	BRANCH_ADDRESS : Branch address.; Addr=0x700A4E8E ~[0xE];

P_HDR Event: Idx:65029 (Pattern: EEEEEEEEEEEEEEE, Function: putchar_)
Executed Assembly Steps:
  1. 700a4e8e: 4620         	mov	r0, r4
  2. 700a4e90: e8bd 4010    	pop.w	{r4, lr}
  3. 700a4e94: f7fe bd2c    	b.w	0x700a38f0 <DebugP_uartLogWriterPutChar> @ imm = #-0x15a8
  4. 700a38f0: b580         	push	{r7, lr}
  5. 700a38f2: b088         	sub	sp, #0x20
  6. 700a38f4: f88d 001f    	strb.w	r0, [sp, #0x1f]
  7. 700a38f8: f89d 001f    	ldrb.w	r0, [sp, #0x1f]
  8. 700a38fc: f88d 001e    	strb.w	r0, [sp, #0x1e]
  9. 700a3900: f247 40e0    	movw	r0, #0x74e0
  10. 700a3904: f2c7 000a    	movt	r0, #0x700a
  11. 700a3908: 6800         	ldr	r0, [r0]
  12. 700a390a: f7ff fe41    	bl	0x700a3590 <UART_getHandle> @ imm = #-0x37e
  13. 700a3590: b083         	sub	sp, #0xc
  14. 700a3592: 9002         	str	r0, [sp, #0x8]
  15. 700a3594: 2000         	movs	r0, #0x0

P_HDR Event: Idx:65030 (Pattern: EEEEEEN, Function: UART_getHandle)
Executed Assembly Steps:
  1. 700a3596: 9001         	str	r0, [sp, #0x4]
  2. 700a3598: 9802         	ldr	r0, [sp, #0x8]
  3. 700a359a: f247 41e8    	movw	r1, #0x74e8
  4. 700a359e: f2c7 010a    	movt	r1, #0x700a
  5. 700a35a2: 6809         	ldr	r1, [r1]
  6. 700a35a4: 4288         	cmp	r0, r1
  7. 700a35a6: d217         	bhs	0x700a35d8 <UART_getHandle+0x48> @ imm = #0x2e

P_HDR Event: Idx:65031 (Pattern: EEEEEEEEN, Function: UART_getHandle)
Executed Assembly Steps:
  1. 700a35a8: e7ff         	b	0x700a35aa <UART_getHandle+0x1a> @ imm = #-0x2
  2. 700a35aa: 9902         	ldr	r1, [sp, #0x8]
  3. 700a35ac: f247 40a8    	movw	r0, #0x74a8
  4. 700a35b0: f2c7 000a    	movt	r0, #0x700a
  5. 700a35b4: eb00 00c1    	add.w	r0, r0, r1, lsl #3
  6. 700a35b8: 6840         	ldr	r0, [r0, #0x4]
  7. 700a35ba: 9000         	str	r0, [sp]
  8. 700a35bc: 9800         	ldr	r0, [sp]
  9. 700a35be: b150         	cbz	r0, 0x700a35d6 <UART_getHandle+0x46> @ imm = #0x14

P_HDR Event: Idx:65032 (Pattern: EEEEEEEEE, Function: UART_getHandle)
Executed Assembly Steps:
  1. 700a35c0: e7ff         	b	0x700a35c2 <UART_getHandle+0x32> @ imm = #-0x2
  2. 700a35c2: 9800         	ldr	r0, [sp]
  3. 700a35c4: f8d0 0084    	ldr.w	r0, [r0, #0x84]
  4. 700a35c8: 2801         	cmp	r0, #0x1
  5. 700a35ca: d104         	bne	0x700a35d6 <UART_getHandle+0x46> @ imm = #0x8
  6. 700a35d6: e7ff         	b	0x700a35d8 <UART_getHandle+0x48> @ imm = #-0x2
  7. 700a35d8: 9801         	ldr	r0, [sp, #0x4]
  8. 700a35da: b003         	add	sp, #0xc
  9. 700a35dc: 4770         	bx	lr

Sync: Idx:65033; ID:10;	BRANCH_ADDRESS : Branch address.; Addr=0x700A390E ~[0xA390E];

P_HDR Event: Idx:65036 (Pattern: EEEEE, Function: DebugP_uartLogWriterPutChar)
Executed Assembly Steps:
  1. 700a390e: 9006         	str	r0, [sp, #0x18]
  2. 700a3910: 9806         	ldr	r0, [sp, #0x18]
  3. 700a3912: b170         	cbz	r0, 0x700a3932 <DebugP_uartLogWriterPutChar+0x42> @ imm = #0x1c
  4. 700a3932: b008         	add	sp, #0x20
  5. 700a3934: bd80         	pop	{r7, pc}

Sync: Idx:65037; ID:10;	BRANCH_ADDRESS : Branch address.; Addr=0x700A4A3E ~[0xA4A3E];

P_HDR Event: Idx:65041 (Pattern: EEE, Function: _out_char)
Executed Assembly Steps:
  1. 700a4a3e: e7ff         	b	0x700a4a40 <_out_char+0x20> @ imm = #-0x2
  2. 700a4a40: b004         	add	sp, #0x10
  3. 700a4a42: bd80         	pop	{r7, pc}

Sync: Idx:65042; ID:10;	BRANCH_ADDRESS : Branch address.; Addr=0x70098F58 ~[0x98F58];

P_HDR Event: Idx:65045 (Pattern: EEEEEEEN, Function: _vsnprintf)
Executed Assembly Steps:
  1. 70098f58: 983c         	ldr	r0, [sp, #0xf0]
  2. 70098f5a: 3001         	adds	r0, #0x1
  3. 70098f5c: 903c         	str	r0, [sp, #0xf0]
  4. 70098f5e: e7e6         	b	0x70098f2e <_vsnprintf+0x2e> @ imm = #-0x34
  5. 70098f2e: 983c         	ldr	r0, [sp, #0xf0]
  6. 70098f30: 7800         	ldrb	r0, [r0]
  7. 70098f32: 2800         	cmp	r0, #0x0
  8. 70098f34: f000 84e3    	beq.w	0x700998fe <_vsnprintf+0x9fe> @ imm = #0x9c6

P_HDR Event: Idx:65046 (Pattern: EEEEN, Function: _vsnprintf)
Executed Assembly Steps:
  1. 70098f38: e7ff         	b	0x70098f3a <_vsnprintf+0x3a> @ imm = #-0x2
  2. 70098f3a: 983c         	ldr	r0, [sp, #0xf0]
  3. 70098f3c: 7800         	ldrb	r0, [r0]
  4. 70098f3e: 2825         	cmp	r0, #0x25
  5. 70098f40: d00e         	beq	0x70098f60 <_vsnprintf+0x60> @ imm = #0x1c

P_HDR Event: Idx:65047 (Pattern: EEEEEEEEEE, Function: _vsnprintf)
Executed Assembly Steps:
  1. 70098f42: e7ff         	b	0x70098f44 <_vsnprintf+0x44> @ imm = #-0x2
  2. 70098f44: f8dd c0fc    	ldr.w	r12, [sp, #0xfc]
  3. 70098f48: 983c         	ldr	r0, [sp, #0xf0]
  4. 70098f4a: 7800         	ldrb	r0, [r0]
  5. 70098f4c: 993e         	ldr	r1, [sp, #0xf8]
  6. 70098f4e: 9a37         	ldr	r2, [sp, #0xdc]
  7. 70098f50: 1c53         	adds	r3, r2, #0x1
  8. 70098f52: 9337         	str	r3, [sp, #0xdc]
  9. 70098f54: 9b3d         	ldr	r3, [sp, #0xf4]
  10. 70098f56: 47e0         	blx	r12

Sync: Idx:65048; ID:10;	BRANCH_ADDRESS : Branch address.; Addr=0x700A4A20 ~[0xA4A20];

P_HDR Event: Idx:65051 (Pattern: EEEEEEEN, Function: _out_char)
Executed Assembly Steps:
  1. 700a4a20: b580         	push	{r7, lr}
  2. 700a4a22: b084         	sub	sp, #0x10
  3. 700a4a24: f88d 000f    	strb.w	r0, [sp, #0xf]
  4. 700a4a28: 9102         	str	r1, [sp, #0x8]
  5. 700a4a2a: 9201         	str	r2, [sp, #0x4]
  6. 700a4a2c: 9300         	str	r3, [sp]
  7. 700a4a2e: f89d 000f    	ldrb.w	r0, [sp, #0xf]
  8. 700a4a32: b128         	cbz	r0, 0x700a4a40 <_out_char+0x20> @ imm = #0xa

P_HDR Event: Idx:65052 (Pattern: EEEEEE, Function: _out_char)
Executed Assembly Steps:
  1. 700a4a34: e7ff         	b	0x700a4a36 <_out_char+0x16> @ imm = #-0x2
  2. 700a4a36: f89d 000f    	ldrb.w	r0, [sp, #0xf]
  3. 700a4a3a: f000 fa21    	bl	0x700a4e80 <putchar_>   @ imm = #0x442
  4. 700a4e80: b510         	push	{r4, lr}
  5. 700a4e82: 4604         	mov	r4, r0
  6. 700a4e84: f000 e9ac    	blx	0x700a51e0 <putchar>    @ imm = #0x358

Sync: Idx:65053; ID:10;	BRANCH_ADDRESS : Branch address.; Addr=0x700A51E0 ~[0x700A51E0]; ISA=ARM(32);

P_HDR Event: Idx:65059 (Pattern: EEEEEEEEE, Function: putchar)
Executed Assembly Steps:
  1. 700a51e0: e59f1004     	ldr	r1, [pc, #0x4]          @ 0x700a51ec <putchar+0xc>
  2. 700a51e4: e2811018     	add	r1, r1, #24
  3. 700a51e8: eaffe5b1     	b	0x7009e8b4 <fputc>      @ imm = #-0x693c
  4. 7009e8b4: e92d483c     	push	{r2, r3, r4, r5, r11, lr}
  5. 7009e8b8: e59f20e0     	ldr	r2, [pc, #0xe0]         @ 0x7009e9a0 <fputc+0xec>
  6. 7009e8bc: e1a04001     	mov	r4, r1
  7. 7009e8c0: e1a05000     	mov	r5, r0
  8. 7009e8c4: e5922000     	ldr	r2, [r2]
  9. 7009e8c8: e12fff32     	blx	r2

Sync: Idx:65060; ID:10;	BRANCH_ADDRESS : Branch address.; Addr=0x7009A2DC ~[0x9A2DC];

P_HDR Event: Idx:65063 (Pattern: E, Function: _nop)
Executed Assembly Steps:
  1. 7009a2dc: e12fff1e     	bx	lr

Sync: Idx:65064; ID:10;	BRANCH_ADDRESS : Branch address.; Addr=0x7009E8CC ~[0x68CC];

P_HDR Event: Idx:65066 (Pattern: EEEEEEEN, Function: fputc)
Executed Assembly Steps:
  1. 7009e8cc: e1a00004     	mov	r0, r4
  2. 7009e8d0: eb000949     	bl	0x700a0dfc <__TI_wrt_ok> @ imm = #0x2524
  3. 700a0dfc: e92d4010     	push	{r4, lr}
  4. 700a0e00: e1a04000     	mov	r4, r0
  5. 700a0e04: e5901000     	ldr	r1, [r0]
  6. 700a0e08: e3a00000     	mov	r0, #0
  7. 700a0e0c: e3710001     	cmn	r1, #1
  8. 700a0e10: 0a00001c     	beq	0x700a0e88 <__TI_wrt_ok+0x8c> @ imm = #0x70

P_HDR Event: Idx:65067 (Pattern: EEN, Function: __TI_wrt_ok)
Executed Assembly Steps:
  1. 700a0e14: e5941014     	ldr	r1, [r4, #0x14]
  2. 700a0e18: e3110010     	tst	r1, #16
  3. 700a0e1c: 1a00001a     	bne	0x700a0e8c <__TI_wrt_ok+0x90> @ imm = #0x68

P_HDR Event: Idx:65068 (Pattern: EEEEEEEE, Function: __TI_wrt_ok)
Executed Assembly Steps:
  1. 700a0e20: e3110080     	tst	r1, #128
  2. 700a0e24: 0a000004     	beq	0x700a0e3c <__TI_wrt_ok+0x40> @ imm = #0x10
  3. 700a0e3c: e2010060     	and	r0, r1, #96
  4. 700a0e40: e3500040     	cmp	r0, #64
  5. 700a0e44: 1a000001     	bne	0x700a0e50 <__TI_wrt_ok+0x54> @ imm = #0x4
  6. 700a0e50: e5942004     	ldr	r2, [r4, #0x4]
  7. 700a0e54: e3a00001     	mov	r0, #1
  8. 700a0e58: e3520000     	cmp	r2, #0

P_HDR Event: Idx:65069 (Pattern: NE, Function: __TI_wrt_ok)
Executed Assembly Steps:
  1. 700a0e5c: 02112004     	andseq	r2, r1, #4
  2. 700a0e60: 1a000006     	bne	0x700a0e80 <__TI_wrt_ok+0x84> @ imm = #0x18

P_HDR Event: Idx:65070 (Pattern: EEE, Function: __TI_wrt_ok)
Executed Assembly Steps:
  1. 700a0e80: e594100c     	ldr	r1, [r4, #0xc]
  2. 700a0e84: e5841010     	str	r1, [r4, #0x10]
  3. 700a0e88: e8bd8010     	pop	{r4, pc}

Sync: Idx:65072; ID:10;	BRANCH_ADDRESS : Branch address.; Addr=0x7009E8D4 ~[0xD4];

P_HDR Event: Idx:65073 (Pattern: EN, Function: fputc)
Executed Assembly Steps:
  1. 7009e8d4: e3500000     	cmp	r0, #0
  2. 7009e8d8: 0a00000b     	beq	0x7009e90c <fputc+0x58> @ imm = #0x2c

P_HDR Event: Idx:65074 (Pattern: EEEEEEEEEEEEEEE, Function: fputc)
Executed Assembly Steps:
  1. 7009e8dc: e5940014     	ldr	r0, [r4, #0x14]
  2. 7009e8e0: e2000007     	and	r0, r0, #7
  3. 7009e8e4: e3500004     	cmp	r0, #4
  4. 7009e8e8: 1a00000a     	bne	0x7009e918 <fputc+0x64> @ imm = #0x28
  5. 7009e918: e5940008     	ldr	r0, [r4, #0x8]
  6. 7009e91c: e594100c     	ldr	r1, [r4, #0xc]
  7. 7009e920: e1500001     	cmp	r0, r1
  8. 7009e924: 3a000004     	blo	0x7009e93c <fputc+0x88> @ imm = #0x10
  9. 7009e93c: e2801001     	add	r1, r0, #1
  10. 7009e940: e355000a     	cmp	r5, #10
  11. 7009e944: e5841008     	str	r1, [r4, #0x8]
  12. 7009e948: e5c05000     	strb	r5, [r0]
  13. 7009e94c: 1a00000e     	bne	0x7009e98c <fputc+0xd8> @ imm = #0x38
  14. 7009e98c: e59f0010     	ldr	r0, [pc, #0x10]         @ 0x7009e9a4 <fputc+0xf0>
  15. 7009e990: e5900000     	ldr	r0, [r0]

P_HDR Event: Idx:65075 (Pattern: E, Function: fputc)
Executed Assembly Steps:
  1. 7009e994: e12fff30     	blx	r0

Sync: Idx:65076; ID:10;	BRANCH_ADDRESS : Branch address.; Addr=0x7009A2DC ~[0x22DC];

P_HDR Event: Idx:65078 (Pattern: E, Function: _nop)
Executed Assembly Steps:
  1. 7009a2dc: e12fff1e     	bx	lr

Sync: Idx:65079; ID:10;	BRANCH_ADDRESS : Branch address.; Addr=0x7009E998 ~[0x6998];

P_HDR Event: Idx:65081 (Pattern: EE, Function: fputc)
Executed Assembly Steps:
  1. 7009e998: e6ef0075     	uxtb	r0, r5
  2. 7009e99c: e8bd883c     	pop	{r2, r3, r4, r5, r11, pc}

Sync: Idx:65082; ID:10;	BRANCH_ADDRESS : Branch address.; Addr=0x700A4E88 ~[0x700A4E88]; ISA=Thumb2;

P_HDR Event: Idx:65088 (Pattern: EEEEEEEEEEEEEEE, Function: putchar_)
Executed Assembly Steps:
  1. 700a4e88: 4620         	mov	r0, r4
  2. 700a4e8a: f7f8 fa11    	bl	0x7009d2b0 <DebugP_memLogWriterPutChar> @ imm = #-0x7bde
  3. 7009d2b0: b580         	push	{r7, lr}
  4. 7009d2b2: b088         	sub	sp, #0x20
  5. 7009d2b4: f88d 001f    	strb.w	r0, [sp, #0x1f]
  6. 7009d2b8: f247 30cc    	movw	r0, #0x73cc
  7. 7009d2bc: f2c7 000a    	movt	r0, #0x700a
  8. 7009d2c0: 6800         	ldr	r0, [r0]
  9. 7009d2c2: bb40         	cbnz	r0, 0x7009d316 <DebugP_memLogWriterPutChar+0x66> @ imm = #0x50
  10. 7009d316: f89d 001f    	ldrb.w	r0, [sp, #0x1f]
  11. 7009d31a: f247 31cc    	movw	r1, #0x73cc
  12. 7009d31e: f2c7 010a    	movt	r1, #0x700a
  13. 7009d322: 680b         	ldr	r3, [r1]
  14. 7009d324: f644 42e0    	movw	r2, #0x4ce0
  15. 7009d328: f2c7 0208    	movt	r2, #0x7008

P_HDR Event: Idx:65089 (Pattern: EEEEEEN, Function: DebugP_memLogWriterPutChar)
Executed Assembly Steps:
  1. 7009d32c: 54d0         	strb	r0, [r2, r3]
  2. 7009d32e: 6808         	ldr	r0, [r1]
  3. 7009d330: 3001         	adds	r0, #0x1
  4. 7009d332: 6008         	str	r0, [r1]
  5. 7009d334: f89d 001f    	ldrb.w	r0, [sp, #0x1f]
  6. 7009d338: 280a         	cmp	r0, #0xa
  7. 7009d33a: d008         	beq	0x7009d34e <DebugP_memLogWriterPutChar+0x9e> @ imm = #0x10

P_HDR Event: Idx:65090 (Pattern: EEEEEEEE, Function: DebugP_memLogWriterPutChar)
Executed Assembly Steps:
  1. 7009d33c: e7ff         	b	0x7009d33e <DebugP_memLogWriterPutChar+0x8e> @ imm = #-0x2
  2. 7009d33e: f247 30cc    	movw	r0, #0x73cc
  3. 7009d342: f2c7 000a    	movt	r0, #0x700a
  4. 7009d346: 6800         	ldr	r0, [r0]
  5. 7009d348: 2878         	cmp	r0, #0x78
  6. 7009d34a: d350         	blo	0x7009d3ee <DebugP_memLogWriterPutChar+0x13e> @ imm = #0xa0
  7. 7009d3ee: b008         	add	sp, #0x20
  8. 7009d3f0: bd80         	pop	{r7, pc}

Sync: Idx:65091; ID:10;	BRANCH_ADDRESS : Branch address.; Addr=0x700A4E8E ~[0xE];

P_HDR Event: Idx:65092 (Pattern: EEEEEEEEEEEEEEE, Function: putchar_)
Executed Assembly Steps:
  1. 700a4e8e: 4620         	mov	r0, r4
  2. 700a4e90: e8bd 4010    	pop.w	{r4, lr}
  3. 700a4e94: f7fe bd2c    	b.w	0x700a38f0 <DebugP_uartLogWriterPutChar> @ imm = #-0x15a8
  4. 700a38f0: b580         	push	{r7, lr}
  5. 700a38f2: b088         	sub	sp, #0x20
  6. 700a38f4: f88d 001f    	strb.w	r0, [sp, #0x1f]
  7. 700a38f8: f89d 001f    	ldrb.w	r0, [sp, #0x1f]
  8. 700a38fc: f88d 001e    	strb.w	r0, [sp, #0x1e]
  9. 700a3900: f247 40e0    	movw	r0, #0x74e0
  10. 700a3904: f2c7 000a    	movt	r0, #0x700a
  11. 700a3908: 6800         	ldr	r0, [r0]
  12. 700a390a: f7ff fe41    	bl	0x700a3590 <UART_getHandle> @ imm = #-0x37e
  13. 700a3590: b083         	sub	sp, #0xc
  14. 700a3592: 9002         	str	r0, [sp, #0x8]
  15. 700a3594: 2000         	movs	r0, #0x0

P_HDR Event: Idx:65093 (Pattern: EEEEEEN, Function: UART_getHandle)
Executed Assembly Steps:
  1. 700a3596: 9001         	str	r0, [sp, #0x4]
  2. 700a3598: 9802         	ldr	r0, [sp, #0x8]
  3. 700a359a: f247 41e8    	movw	r1, #0x74e8
  4. 700a359e: f2c7 010a    	movt	r1, #0x700a
  5. 700a35a2: 6809         	ldr	r1, [r1]
  6. 700a35a4: 4288         	cmp	r0, r1
  7. 700a35a6: d217         	bhs	0x700a35d8 <UART_getHandle+0x48> @ imm = #0x2e

P_HDR Event: Idx:65094 (Pattern: EEEEEEEEN, Function: UART_getHandle)
Executed Assembly Steps:
  1. 700a35a8: e7ff         	b	0x700a35aa <UART_getHandle+0x1a> @ imm = #-0x2
  2. 700a35aa: 9902         	ldr	r1, [sp, #0x8]
  3. 700a35ac: f247 40a8    	movw	r0, #0x74a8
  4. 700a35b0: f2c7 000a    	movt	r0, #0x700a
  5. 700a35b4: eb00 00c1    	add.w	r0, r0, r1, lsl #3
  6. 700a35b8: 6840         	ldr	r0, [r0, #0x4]
  7. 700a35ba: 9000         	str	r0, [sp]
  8. 700a35bc: 9800         	ldr	r0, [sp]
  9. 700a35be: b150         	cbz	r0, 0x700a35d6 <UART_getHandle+0x46> @ imm = #0x14

P_HDR Event: Idx:65095 (Pattern: EEEEEEEEE, Function: UART_getHandle)
Executed Assembly Steps:
  1. 700a35c0: e7ff         	b	0x700a35c2 <UART_getHandle+0x32> @ imm = #-0x2
  2. 700a35c2: 9800         	ldr	r0, [sp]
  3. 700a35c4: f8d0 0084    	ldr.w	r0, [r0, #0x84]
  4. 700a35c8: 2801         	cmp	r0, #0x1
  5. 700a35ca: d104         	bne	0x700a35d6 <UART_getHandle+0x46> @ imm = #0x8
  6. 700a35d6: e7ff         	b	0x700a35d8 <UART_getHandle+0x48> @ imm = #-0x2
  7. 700a35d8: 9801         	ldr	r0, [sp, #0x4]
  8. 700a35da: b003         	add	sp, #0xc
  9. 700a35dc: 4770         	bx	lr

Sync: Idx:65096; ID:10;	BRANCH_ADDRESS : Branch address.; Addr=0x700A390E ~[0xA390E];

P_HDR Event: Idx:65099 (Pattern: EEEEE, Function: DebugP_uartLogWriterPutChar)
Executed Assembly Steps:
  1. 700a390e: 9006         	str	r0, [sp, #0x18]
  2. 700a3910: 9806         	ldr	r0, [sp, #0x18]
  3. 700a3912: b170         	cbz	r0, 0x700a3932 <DebugP_uartLogWriterPutChar+0x42> @ imm = #0x1c
  4. 700a3932: b008         	add	sp, #0x20
  5. 700a3934: bd80         	pop	{r7, pc}

Sync: Idx:65100; ID:10;	BRANCH_ADDRESS : Branch address.; Addr=0x700A4A3E ~[0xA4A3E];

P_HDR Event: Idx:65104 (Pattern: EEE, Function: _out_char)
Executed Assembly Steps:
  1. 700a4a3e: e7ff         	b	0x700a4a40 <_out_char+0x20> @ imm = #-0x2
  2. 700a4a40: b004         	add	sp, #0x10
  3. 700a4a42: bd80         	pop	{r7, pc}

Sync: Idx:65105; ID:10;	BRANCH_ADDRESS : Branch address.; Addr=0x70098F58 ~[0x98F58];

P_HDR Event: Idx:65108 (Pattern: EEEEEEEN, Function: _vsnprintf)
Executed Assembly Steps:
  1. 70098f58: 983c         	ldr	r0, [sp, #0xf0]
  2. 70098f5a: 3001         	adds	r0, #0x1
  3. 70098f5c: 903c         	str	r0, [sp, #0xf0]
  4. 70098f5e: e7e6         	b	0x70098f2e <_vsnprintf+0x2e> @ imm = #-0x34
  5. 70098f2e: 983c         	ldr	r0, [sp, #0xf0]
  6. 70098f30: 7800         	ldrb	r0, [r0]
  7. 70098f32: 2800         	cmp	r0, #0x0
  8. 70098f34: f000 84e3    	beq.w	0x700998fe <_vsnprintf+0x9fe> @ imm = #0x9c6

P_HDR Event: Idx:65109 (Pattern: EEEEN, Function: _vsnprintf)
Executed Assembly Steps:
  1. 70098f38: e7ff         	b	0x70098f3a <_vsnprintf+0x3a> @ imm = #-0x2
  2. 70098f3a: 983c         	ldr	r0, [sp, #0xf0]
  3. 70098f3c: 7800         	ldrb	r0, [r0]
  4. 70098f3e: 2825         	cmp	r0, #0x25
  5. 70098f40: d00e         	beq	0x70098f60 <_vsnprintf+0x60> @ imm = #0x1c

P_HDR Event: Idx:65110 (Pattern: EEEEEEEEEE, Function: _vsnprintf)
Executed Assembly Steps:
  1. 70098f42: e7ff         	b	0x70098f44 <_vsnprintf+0x44> @ imm = #-0x2
  2. 70098f44: f8dd c0fc    	ldr.w	r12, [sp, #0xfc]
  3. 70098f48: 983c         	ldr	r0, [sp, #0xf0]
  4. 70098f4a: 7800         	ldrb	r0, [r0]
  5. 70098f4c: 993e         	ldr	r1, [sp, #0xf8]
  6. 70098f4e: 9a37         	ldr	r2, [sp, #0xdc]
  7. 70098f50: 1c53         	adds	r3, r2, #0x1
  8. 70098f52: 9337         	str	r3, [sp, #0xdc]
  9. 70098f54: 9b3d         	ldr	r3, [sp, #0xf4]
  10. 70098f56: 47e0         	blx	r12

Sync: Idx:65111; ID:10;	BRANCH_ADDRESS : Branch address.; Addr=0x700A4A20 ~[0xA4A20];

P_HDR Event: Idx:65114 (Pattern: EEEEEEEN, Function: _out_char)
Executed Assembly Steps:
  1. 700a4a20: b580         	push	{r7, lr}
  2. 700a4a22: b084         	sub	sp, #0x10
  3. 700a4a24: f88d 000f    	strb.w	r0, [sp, #0xf]
  4. 700a4a28: 9102         	str	r1, [sp, #0x8]
  5. 700a4a2a: 9201         	str	r2, [sp, #0x4]
  6. 700a4a2c: 9300         	str	r3, [sp]
  7. 700a4a2e: f89d 000f    	ldrb.w	r0, [sp, #0xf]
  8. 700a4a32: b128         	cbz	r0, 0x700a4a40 <_out_char+0x20> @ imm = #0xa

P_HDR Event: Idx:65115 (Pattern: EEEEEE, Function: _out_char)
Executed Assembly Steps:
  1. 700a4a34: e7ff         	b	0x700a4a36 <_out_char+0x16> @ imm = #-0x2
  2. 700a4a36: f89d 000f    	ldrb.w	r0, [sp, #0xf]
  3. 700a4a3a: f000 fa21    	bl	0x700a4e80 <putchar_>   @ imm = #0x442
  4. 700a4e80: b510         	push	{r4, lr}
  5. 700a4e82: 4604         	mov	r4, r0
  6. 700a4e84: f000 e9ac    	blx	0x700a51e0 <putchar>    @ imm = #0x358

Sync: Idx:65116; ID:10;	BRANCH_ADDRESS : Branch address.; Addr=0x700A51E0 ~[0x700A51E0]; ISA=ARM(32);

P_HDR Event: Idx:65124 (Pattern: EEEEEEEEE, Function: putchar)
Executed Assembly Steps:
  1. 700a51e0: e59f1004     	ldr	r1, [pc, #0x4]          @ 0x700a51ec <putchar+0xc>
  2. 700a51e4: e2811018     	add	r1, r1, #24
  3. 700a51e8: eaffe5b1     	b	0x7009e8b4 <fputc>      @ imm = #-0x693c
  4. 7009e8b4: e92d483c     	push	{r2, r3, r4, r5, r11, lr}
  5. 7009e8b8: e59f20e0     	ldr	r2, [pc, #0xe0]         @ 0x7009e9a0 <fputc+0xec>
  6. 7009e8bc: e1a04001     	mov	r4, r1
  7. 7009e8c0: e1a05000     	mov	r5, r0
  8. 7009e8c4: e5922000     	ldr	r2, [r2]
  9. 7009e8c8: e12fff32     	blx	r2

Sync: Idx:65125; ID:10;	BRANCH_ADDRESS : Branch address.; Addr=0x7009A2DC ~[0x9A2DC];

P_HDR Event: Idx:65128 (Pattern: E, Function: _nop)
Executed Assembly Steps:
  1. 7009a2dc: e12fff1e     	bx	lr

Sync: Idx:65129; ID:10;	BRANCH_ADDRESS : Branch address.; Addr=0x7009E8CC ~[0x68CC];

P_HDR Event: Idx:65131 (Pattern: EEEEEEEN, Function: fputc)
Executed Assembly Steps:
  1. 7009e8cc: e1a00004     	mov	r0, r4
  2. 7009e8d0: eb000949     	bl	0x700a0dfc <__TI_wrt_ok> @ imm = #0x2524
  3. 700a0dfc: e92d4010     	push	{r4, lr}
  4. 700a0e00: e1a04000     	mov	r4, r0
  5. 700a0e04: e5901000     	ldr	r1, [r0]
  6. 700a0e08: e3a00000     	mov	r0, #0
  7. 700a0e0c: e3710001     	cmn	r1, #1
  8. 700a0e10: 0a00001c     	beq	0x700a0e88 <__TI_wrt_ok+0x8c> @ imm = #0x70

P_HDR Event: Idx:65132 (Pattern: EEN, Function: __TI_wrt_ok)
Executed Assembly Steps:
  1. 700a0e14: e5941014     	ldr	r1, [r4, #0x14]
  2. 700a0e18: e3110010     	tst	r1, #16
  3. 700a0e1c: 1a00001a     	bne	0x700a0e8c <__TI_wrt_ok+0x90> @ imm = #0x68

P_HDR Event: Idx:65133 (Pattern: EEEEEEEE, Function: __TI_wrt_ok)
Executed Assembly Steps:
  1. 700a0e20: e3110080     	tst	r1, #128
  2. 700a0e24: 0a000004     	beq	0x700a0e3c <__TI_wrt_ok+0x40> @ imm = #0x10
  3. 700a0e3c: e2010060     	and	r0, r1, #96
  4. 700a0e40: e3500040     	cmp	r0, #64
  5. 700a0e44: 1a000001     	bne	0x700a0e50 <__TI_wrt_ok+0x54> @ imm = #0x4
  6. 700a0e50: e5942004     	ldr	r2, [r4, #0x4]
  7. 700a0e54: e3a00001     	mov	r0, #1
  8. 700a0e58: e3520000     	cmp	r2, #0

P_HDR Event: Idx:65136 (Pattern: NE, Function: __TI_wrt_ok)
Executed Assembly Steps:
  1. 700a0e5c: 02112004     	andseq	r2, r1, #4
  2. 700a0e60: 1a000006     	bne	0x700a0e80 <__TI_wrt_ok+0x84> @ imm = #0x18

P_HDR Event: Idx:65137 (Pattern: EEE, Function: __TI_wrt_ok)
Executed Assembly Steps:
  1. 700a0e80: e594100c     	ldr	r1, [r4, #0xc]
  2. 700a0e84: e5841010     	str	r1, [r4, #0x10]
  3. 700a0e88: e8bd8010     	pop	{r4, pc}

Sync: Idx:65138; ID:10;	BRANCH_ADDRESS : Branch address.; Addr=0x7009E8D4 ~[0xD4];

P_HDR Event: Idx:65139 (Pattern: EN, Function: fputc)
Executed Assembly Steps:
  1. 7009e8d4: e3500000     	cmp	r0, #0
  2. 7009e8d8: 0a00000b     	beq	0x7009e90c <fputc+0x58> @ imm = #0x2c

P_HDR Event: Idx:65140 (Pattern: EEEEEEEEEEEEEEE, Function: fputc)
Executed Assembly Steps:
  1. 7009e8dc: e5940014     	ldr	r0, [r4, #0x14]
  2. 7009e8e0: e2000007     	and	r0, r0, #7
  3. 7009e8e4: e3500004     	cmp	r0, #4
  4. 7009e8e8: 1a00000a     	bne	0x7009e918 <fputc+0x64> @ imm = #0x28
  5. 7009e918: e5940008     	ldr	r0, [r4, #0x8]
  6. 7009e91c: e594100c     	ldr	r1, [r4, #0xc]
  7. 7009e920: e1500001     	cmp	r0, r1
  8. 7009e924: 3a000004     	blo	0x7009e93c <fputc+0x88> @ imm = #0x10
  9. 7009e93c: e2801001     	add	r1, r0, #1
  10. 7009e940: e355000a     	cmp	r5, #10
  11. 7009e944: e5841008     	str	r1, [r4, #0x8]
  12. 7009e948: e5c05000     	strb	r5, [r0]
  13. 7009e94c: 1a00000e     	bne	0x7009e98c <fputc+0xd8> @ imm = #0x38
  14. 7009e98c: e59f0010     	ldr	r0, [pc, #0x10]         @ 0x7009e9a4 <fputc+0xf0>
  15. 7009e990: e5900000     	ldr	r0, [r0]

P_HDR Event: Idx:65141 (Pattern: E, Function: fputc)
Executed Assembly Steps:
  1. 7009e994: e12fff30     	blx	r0

Sync: Idx:65142; ID:10;	BRANCH_ADDRESS : Branch address.; Addr=0x7009A2DC ~[0x22DC];

P_HDR Event: Idx:65144 (Pattern: E, Function: _nop)
Executed Assembly Steps:
  1. 7009a2dc: e12fff1e     	bx	lr

Sync: Idx:65145; ID:10;	BRANCH_ADDRESS : Branch address.; Addr=0x7009E998 ~[0x6998];

P_HDR Event: Idx:65147 (Pattern: EE, Function: fputc)
Executed Assembly Steps:
  1. 7009e998: e6ef0075     	uxtb	r0, r5
  2. 7009e99c: e8bd883c     	pop	{r2, r3, r4, r5, r11, pc}

Sync: Idx:65148; ID:10;	BRANCH_ADDRESS : Branch address.; Addr=0x700A4E88 ~[0x700A4E88]; ISA=Thumb2;

P_HDR Event: Idx:65154 (Pattern: EEEEEEEEEEEEEEE, Function: putchar_)
Executed Assembly Steps:
  1. 700a4e88: 4620         	mov	r0, r4
  2. 700a4e8a: f7f8 fa11    	bl	0x7009d2b0 <DebugP_memLogWriterPutChar> @ imm = #-0x7bde
  3. 7009d2b0: b580         	push	{r7, lr}
  4. 7009d2b2: b088         	sub	sp, #0x20
  5. 7009d2b4: f88d 001f    	strb.w	r0, [sp, #0x1f]
  6. 7009d2b8: f247 30cc    	movw	r0, #0x73cc
  7. 7009d2bc: f2c7 000a    	movt	r0, #0x700a
  8. 7009d2c0: 6800         	ldr	r0, [r0]
  9. 7009d2c2: bb40         	cbnz	r0, 0x7009d316 <DebugP_memLogWriterPutChar+0x66> @ imm = #0x50
  10. 7009d316: f89d 001f    	ldrb.w	r0, [sp, #0x1f]
  11. 7009d31a: f247 31cc    	movw	r1, #0x73cc
  12. 7009d31e: f2c7 010a    	movt	r1, #0x700a
  13. 7009d322: 680b         	ldr	r3, [r1]
  14. 7009d324: f644 42e0    	movw	r2, #0x4ce0
  15. 7009d328: f2c7 0208    	movt	r2, #0x7008

P_HDR Event: Idx:65155 (Pattern: EEEEEEN, Function: DebugP_memLogWriterPutChar)
Executed Assembly Steps:
  1. 7009d32c: 54d0         	strb	r0, [r2, r3]
  2. 7009d32e: 6808         	ldr	r0, [r1]
  3. 7009d330: 3001         	adds	r0, #0x1
  4. 7009d332: 6008         	str	r0, [r1]
  5. 7009d334: f89d 001f    	ldrb.w	r0, [sp, #0x1f]
  6. 7009d338: 280a         	cmp	r0, #0xa
  7. 7009d33a: d008         	beq	0x7009d34e <DebugP_memLogWriterPutChar+0x9e> @ imm = #0x10

P_HDR Event: Idx:65156 (Pattern: EEEEEEEE, Function: DebugP_memLogWriterPutChar)
Executed Assembly Steps:
  1. 7009d33c: e7ff         	b	0x7009d33e <DebugP_memLogWriterPutChar+0x8e> @ imm = #-0x2
  2. 7009d33e: f247 30cc    	movw	r0, #0x73cc
  3. 7009d342: f2c7 000a    	movt	r0, #0x700a
  4. 7009d346: 6800         	ldr	r0, [r0]
  5. 7009d348: 2878         	cmp	r0, #0x78
  6. 7009d34a: d350         	blo	0x7009d3ee <DebugP_memLogWriterPutChar+0x13e> @ imm = #0xa0
  7. 7009d3ee: b008         	add	sp, #0x20
  8. 7009d3f0: bd80         	pop	{r7, pc}

Sync: Idx:65157; ID:10;	BRANCH_ADDRESS : Branch address.; Addr=0x700A4E8E ~[0xE];

P_HDR Event: Idx:65158 (Pattern: EEEEEEEEEEEEEEE, Function: putchar_)
Executed Assembly Steps:
  1. 700a4e8e: 4620         	mov	r0, r4
  2. 700a4e90: e8bd 4010    	pop.w	{r4, lr}
  3. 700a4e94: f7fe bd2c    	b.w	0x700a38f0 <DebugP_uartLogWriterPutChar> @ imm = #-0x15a8
  4. 700a38f0: b580         	push	{r7, lr}
  5. 700a38f2: b088         	sub	sp, #0x20
  6. 700a38f4: f88d 001f    	strb.w	r0, [sp, #0x1f]
  7. 700a38f8: f89d 001f    	ldrb.w	r0, [sp, #0x1f]
  8. 700a38fc: f88d 001e    	strb.w	r0, [sp, #0x1e]
  9. 700a3900: f247 40e0    	movw	r0, #0x74e0
  10. 700a3904: f2c7 000a    	movt	r0, #0x700a
  11. 700a3908: 6800         	ldr	r0, [r0]
  12. 700a390a: f7ff fe41    	bl	0x700a3590 <UART_getHandle> @ imm = #-0x37e
  13. 700a3590: b083         	sub	sp, #0xc
  14. 700a3592: 9002         	str	r0, [sp, #0x8]
  15. 700a3594: 2000         	movs	r0, #0x0

P_HDR Event: Idx:65159 (Pattern: EEEEEEN, Function: UART_getHandle)
Executed Assembly Steps:
  1. 700a3596: 9001         	str	r0, [sp, #0x4]
  2. 700a3598: 9802         	ldr	r0, [sp, #0x8]
  3. 700a359a: f247 41e8    	movw	r1, #0x74e8
  4. 700a359e: f2c7 010a    	movt	r1, #0x700a
  5. 700a35a2: 6809         	ldr	r1, [r1]
  6. 700a35a4: 4288         	cmp	r0, r1
  7. 700a35a6: d217         	bhs	0x700a35d8 <UART_getHandle+0x48> @ imm = #0x2e

P_HDR Event: Idx:65160 (Pattern: EEEEEEEEN, Function: UART_getHandle)
Executed Assembly Steps:
  1. 700a35a8: e7ff         	b	0x700a35aa <UART_getHandle+0x1a> @ imm = #-0x2
  2. 700a35aa: 9902         	ldr	r1, [sp, #0x8]
  3. 700a35ac: f247 40a8    	movw	r0, #0x74a8
  4. 700a35b0: f2c7 000a    	movt	r0, #0x700a
  5. 700a35b4: eb00 00c1    	add.w	r0, r0, r1, lsl #3
  6. 700a35b8: 6840         	ldr	r0, [r0, #0x4]
  7. 700a35ba: 9000         	str	r0, [sp]
  8. 700a35bc: 9800         	ldr	r0, [sp]
  9. 700a35be: b150         	cbz	r0, 0x700a35d6 <UART_getHandle+0x46> @ imm = #0x14

P_HDR Event: Idx:65161 (Pattern: EEEEEEEEE, Function: UART_getHandle)
Executed Assembly Steps:
  1. 700a35c0: e7ff         	b	0x700a35c2 <UART_getHandle+0x32> @ imm = #-0x2
  2. 700a35c2: 9800         	ldr	r0, [sp]
  3. 700a35c4: f8d0 0084    	ldr.w	r0, [r0, #0x84]
  4. 700a35c8: 2801         	cmp	r0, #0x1
  5. 700a35ca: d104         	bne	0x700a35d6 <UART_getHandle+0x46> @ imm = #0x8
  6. 700a35d6: e7ff         	b	0x700a35d8 <UART_getHandle+0x48> @ imm = #-0x2
  7. 700a35d8: 9801         	ldr	r0, [sp, #0x4]
  8. 700a35da: b003         	add	sp, #0xc
  9. 700a35dc: 4770         	bx	lr

Sync: Idx:65162; ID:10;	BRANCH_ADDRESS : Branch address.; Addr=0x700A390E ~[0xA390E];

P_HDR Event: Idx:65165 (Pattern: EEEEE, Function: DebugP_uartLogWriterPutChar)
Executed Assembly Steps:
  1. 700a390e: 9006         	str	r0, [sp, #0x18]
  2. 700a3910: 9806         	ldr	r0, [sp, #0x18]
  3. 700a3912: b170         	cbz	r0, 0x700a3932 <DebugP_uartLogWriterPutChar+0x42> @ imm = #0x1c
  4. 700a3932: b008         	add	sp, #0x20
  5. 700a3934: bd80         	pop	{r7, pc}

Sync: Idx:65166; ID:10;	BRANCH_ADDRESS : Branch address.; Addr=0x700A4A3E ~[0xA4A3E];

P_HDR Event: Idx:65170 (Pattern: EEE, Function: _out_char)
Executed Assembly Steps:
  1. 700a4a3e: e7ff         	b	0x700a4a40 <_out_char+0x20> @ imm = #-0x2
  2. 700a4a40: b004         	add	sp, #0x10
  3. 700a4a42: bd80         	pop	{r7, pc}

Sync: Idx:65171; ID:10;	BRANCH_ADDRESS : Branch address.; Addr=0x70098F58 ~[0x98F58];

P_HDR Event: Idx:65174 (Pattern: EEEEEEEN, Function: _vsnprintf)
Executed Assembly Steps:
  1. 70098f58: 983c         	ldr	r0, [sp, #0xf0]
  2. 70098f5a: 3001         	adds	r0, #0x1
  3. 70098f5c: 903c         	str	r0, [sp, #0xf0]
  4. 70098f5e: e7e6         	b	0x70098f2e <_vsnprintf+0x2e> @ imm = #-0x34
  5. 70098f2e: 983c         	ldr	r0, [sp, #0xf0]
  6. 70098f30: 7800         	ldrb	r0, [r0]
  7. 70098f32: 2800         	cmp	r0, #0x0
  8. 70098f34: f000 84e3    	beq.w	0x700998fe <_vsnprintf+0x9fe> @ imm = #0x9c6

P_HDR Event: Idx:65175 (Pattern: EEEEN, Function: _vsnprintf)
Executed Assembly Steps:
  1. 70098f38: e7ff         	b	0x70098f3a <_vsnprintf+0x3a> @ imm = #-0x2
  2. 70098f3a: 983c         	ldr	r0, [sp, #0xf0]
  3. 70098f3c: 7800         	ldrb	r0, [r0]
  4. 70098f3e: 2825         	cmp	r0, #0x25
  5. 70098f40: d00e         	beq	0x70098f60 <_vsnprintf+0x60> @ imm = #0x1c

P_HDR Event: Idx:65176 (Pattern: EEEEEEEEEE, Function: _vsnprintf)
Executed Assembly Steps:
  1. 70098f42: e7ff         	b	0x70098f44 <_vsnprintf+0x44> @ imm = #-0x2
  2. 70098f44: f8dd c0fc    	ldr.w	r12, [sp, #0xfc]
  3. 70098f48: 983c         	ldr	r0, [sp, #0xf0]
  4. 70098f4a: 7800         	ldrb	r0, [r0]
  5. 70098f4c: 993e         	ldr	r1, [sp, #0xf8]
  6. 70098f4e: 9a37         	ldr	r2, [sp, #0xdc]
  7. 70098f50: 1c53         	adds	r3, r2, #0x1
  8. 70098f52: 9337         	str	r3, [sp, #0xdc]
  9. 70098f54: 9b3d         	ldr	r3, [sp, #0xf4]
  10. 70098f56: 47e0         	blx	r12

Sync: Idx:65177; ID:10;	BRANCH_ADDRESS : Branch address.; Addr=0x700A4A20 ~[0xA4A20];

P_HDR Event: Idx:65180 (Pattern: EEEEEEEN, Function: _out_char)
Executed Assembly Steps:
  1. 700a4a20: b580         	push	{r7, lr}
  2. 700a4a22: b084         	sub	sp, #0x10
  3. 700a4a24: f88d 000f    	strb.w	r0, [sp, #0xf]
  4. 700a4a28: 9102         	str	r1, [sp, #0x8]
  5. 700a4a2a: 9201         	str	r2, [sp, #0x4]
  6. 700a4a2c: 9300         	str	r3, [sp]
  7. 700a4a2e: f89d 000f    	ldrb.w	r0, [sp, #0xf]
  8. 700a4a32: b128         	cbz	r0, 0x700a4a40 <_out_char+0x20> @ imm = #0xa

P_HDR Event: Idx:65181 (Pattern: EEEEEE, Function: _out_char)
Executed Assembly Steps:
  1. 700a4a34: e7ff         	b	0x700a4a36 <_out_char+0x16> @ imm = #-0x2
  2. 700a4a36: f89d 000f    	ldrb.w	r0, [sp, #0xf]
  3. 700a4a3a: f000 fa21    	bl	0x700a4e80 <putchar_>   @ imm = #0x442
  4. 700a4e80: b510         	push	{r4, lr}
  5. 700a4e82: 4604         	mov	r4, r0
  6. 700a4e84: f000 e9ac    	blx	0x700a51e0 <putchar>    @ imm = #0x358

Sync: Idx:65182; ID:10;	BRANCH_ADDRESS : Branch address.; Addr=0x700A51E0 ~[0x700A51E0]; ISA=ARM(32);

P_HDR Event: Idx:65188 (Pattern: EEEEEEEEE, Function: putchar)
Executed Assembly Steps:
  1. 700a51e0: e59f1004     	ldr	r1, [pc, #0x4]          @ 0x700a51ec <putchar+0xc>
  2. 700a51e4: e2811018     	add	r1, r1, #24
  3. 700a51e8: eaffe5b1     	b	0x7009e8b4 <fputc>      @ imm = #-0x693c
  4. 7009e8b4: e92d483c     	push	{r2, r3, r4, r5, r11, lr}
  5. 7009e8b8: e59f20e0     	ldr	r2, [pc, #0xe0]         @ 0x7009e9a0 <fputc+0xec>
  6. 7009e8bc: e1a04001     	mov	r4, r1
  7. 7009e8c0: e1a05000     	mov	r5, r0
  8. 7009e8c4: e5922000     	ldr	r2, [r2]
  9. 7009e8c8: e12fff32     	blx	r2

Sync: Idx:65189; ID:10;	BRANCH_ADDRESS : Branch address.; Addr=0x7009A2DC ~[0x9A2DC];

P_HDR Event: Idx:65192 (Pattern: E, Function: _nop)
Executed Assembly Steps:
  1. 7009a2dc: e12fff1e     	bx	lr

Sync: Idx:65193; ID:10;	BRANCH_ADDRESS : Branch address.; Addr=0x7009E8CC ~[0x68CC];

P_HDR Event: Idx:65195 (Pattern: EEEEEEEN, Function: fputc)
Executed Assembly Steps:
  1. 7009e8cc: e1a00004     	mov	r0, r4
  2. 7009e8d0: eb000949     	bl	0x700a0dfc <__TI_wrt_ok> @ imm = #0x2524
  3. 700a0dfc: e92d4010     	push	{r4, lr}
  4. 700a0e00: e1a04000     	mov	r4, r0
  5. 700a0e04: e5901000     	ldr	r1, [r0]
  6. 700a0e08: e3a00000     	mov	r0, #0
  7. 700a0e0c: e3710001     	cmn	r1, #1
  8. 700a0e10: 0a00001c     	beq	0x700a0e88 <__TI_wrt_ok+0x8c> @ imm = #0x70

P_HDR Event: Idx:65196 (Pattern: EEN, Function: __TI_wrt_ok)
Executed Assembly Steps:
  1. 700a0e14: e5941014     	ldr	r1, [r4, #0x14]
  2. 700a0e18: e3110010     	tst	r1, #16
  3. 700a0e1c: 1a00001a     	bne	0x700a0e8c <__TI_wrt_ok+0x90> @ imm = #0x68

P_HDR Event: Idx:65197 (Pattern: EEEEEEEE, Function: __TI_wrt_ok)
Executed Assembly Steps:
  1. 700a0e20: e3110080     	tst	r1, #128
  2. 700a0e24: 0a000004     	beq	0x700a0e3c <__TI_wrt_ok+0x40> @ imm = #0x10
  3. 700a0e3c: e2010060     	and	r0, r1, #96
  4. 700a0e40: e3500040     	cmp	r0, #64
  5. 700a0e44: 1a000001     	bne	0x700a0e50 <__TI_wrt_ok+0x54> @ imm = #0x4
  6. 700a0e50: e5942004     	ldr	r2, [r4, #0x4]
  7. 700a0e54: e3a00001     	mov	r0, #1
  8. 700a0e58: e3520000     	cmp	r2, #0

P_HDR Event: Idx:65198 (Pattern: NE, Function: __TI_wrt_ok)
Executed Assembly Steps:
  1. 700a0e5c: 02112004     	andseq	r2, r1, #4
  2. 700a0e60: 1a000006     	bne	0x700a0e80 <__TI_wrt_ok+0x84> @ imm = #0x18

P_HDR Event: Idx:65200 (Pattern: EEE, Function: __TI_wrt_ok)
Executed Assembly Steps:
  1. 700a0e80: e594100c     	ldr	r1, [r4, #0xc]
  2. 700a0e84: e5841010     	str	r1, [r4, #0x10]
  3. 700a0e88: e8bd8010     	pop	{r4, pc}

Sync: Idx:65201; ID:10;	BRANCH_ADDRESS : Branch address.; Addr=0x7009E8D4 ~[0xD4];

P_HDR Event: Idx:65202 (Pattern: EN, Function: fputc)
Executed Assembly Steps:
  1. 7009e8d4: e3500000     	cmp	r0, #0
  2. 7009e8d8: 0a00000b     	beq	0x7009e90c <fputc+0x58> @ imm = #0x2c

P_HDR Event: Idx:65203 (Pattern: EEEEEEEEEEEEEEE, Function: fputc)
Executed Assembly Steps:
  1. 7009e8dc: e5940014     	ldr	r0, [r4, #0x14]
  2. 7009e8e0: e2000007     	and	r0, r0, #7
  3. 7009e8e4: e3500004     	cmp	r0, #4
  4. 7009e8e8: 1a00000a     	bne	0x7009e918 <fputc+0x64> @ imm = #0x28
  5. 7009e918: e5940008     	ldr	r0, [r4, #0x8]
  6. 7009e91c: e594100c     	ldr	r1, [r4, #0xc]
  7. 7009e920: e1500001     	cmp	r0, r1
  8. 7009e924: 3a000004     	blo	0x7009e93c <fputc+0x88> @ imm = #0x10
  9. 7009e93c: e2801001     	add	r1, r0, #1
  10. 7009e940: e355000a     	cmp	r5, #10
  11. 7009e944: e5841008     	str	r1, [r4, #0x8]
  12. 7009e948: e5c05000     	strb	r5, [r0]
  13. 7009e94c: 1a00000e     	bne	0x7009e98c <fputc+0xd8> @ imm = #0x38
  14. 7009e98c: e59f0010     	ldr	r0, [pc, #0x10]         @ 0x7009e9a4 <fputc+0xf0>
  15. 7009e990: e5900000     	ldr	r0, [r0]

P_HDR Event: Idx:65204 (Pattern: E, Function: fputc)
Executed Assembly Steps:
  1. 7009e994: e12fff30     	blx	r0

Sync: Idx:65205; ID:10;	BRANCH_ADDRESS : Branch address.; Addr=0x7009A2DC ~[0x22DC];

P_HDR Event: Idx:65207 (Pattern: E, Function: _nop)
Executed Assembly Steps:
  1. 7009a2dc: e12fff1e     	bx	lr

Sync: Idx:65208; ID:10;	BRANCH_ADDRESS : Branch address.; Addr=0x7009E998 ~[0x6998];

P_HDR Event: Idx:65210 (Pattern: EE, Function: fputc)
Executed Assembly Steps:
  1. 7009e998: e6ef0075     	uxtb	r0, r5
  2. 7009e99c: e8bd883c     	pop	{r2, r3, r4, r5, r11, pc}

Sync: Idx:65211; ID:10;	BRANCH_ADDRESS : Branch address.; Addr=0x700A4E88 ~[0x700A4E88]; ISA=Thumb2;

P_HDR Event: Idx:65217 (Pattern: EEEEEEEEEEEEEEE, Function: putchar_)
Executed Assembly Steps:
  1. 700a4e88: 4620         	mov	r0, r4
  2. 700a4e8a: f7f8 fa11    	bl	0x7009d2b0 <DebugP_memLogWriterPutChar> @ imm = #-0x7bde
  3. 7009d2b0: b580         	push	{r7, lr}
  4. 7009d2b2: b088         	sub	sp, #0x20
  5. 7009d2b4: f88d 001f    	strb.w	r0, [sp, #0x1f]
  6. 7009d2b8: f247 30cc    	movw	r0, #0x73cc
  7. 7009d2bc: f2c7 000a    	movt	r0, #0x700a
  8. 7009d2c0: 6800         	ldr	r0, [r0]
  9. 7009d2c2: bb40         	cbnz	r0, 0x7009d316 <DebugP_memLogWriterPutChar+0x66> @ imm = #0x50
  10. 7009d316: f89d 001f    	ldrb.w	r0, [sp, #0x1f]
  11. 7009d31a: f247 31cc    	movw	r1, #0x73cc
  12. 7009d31e: f2c7 010a    	movt	r1, #0x700a
  13. 7009d322: 680b         	ldr	r3, [r1]
  14. 7009d324: f644 42e0    	movw	r2, #0x4ce0
  15. 7009d328: f2c7 0208    	movt	r2, #0x7008

P_HDR Event: Idx:65218 (Pattern: EEEEEEN, Function: DebugP_memLogWriterPutChar)
Executed Assembly Steps:
  1. 7009d32c: 54d0         	strb	r0, [r2, r3]
  2. 7009d32e: 6808         	ldr	r0, [r1]
  3. 7009d330: 3001         	adds	r0, #0x1
  4. 7009d332: 6008         	str	r0, [r1]
  5. 7009d334: f89d 001f    	ldrb.w	r0, [sp, #0x1f]
  6. 7009d338: 280a         	cmp	r0, #0xa
  7. 7009d33a: d008         	beq	0x7009d34e <DebugP_memLogWriterPutChar+0x9e> @ imm = #0x10

P_HDR Event: Idx:65219 (Pattern: EEEEEEEE, Function: DebugP_memLogWriterPutChar)
Executed Assembly Steps:
  1. 7009d33c: e7ff         	b	0x7009d33e <DebugP_memLogWriterPutChar+0x8e> @ imm = #-0x2
  2. 7009d33e: f247 30cc    	movw	r0, #0x73cc
  3. 7009d342: f2c7 000a    	movt	r0, #0x700a
  4. 7009d346: 6800         	ldr	r0, [r0]
  5. 7009d348: 2878         	cmp	r0, #0x78
  6. 7009d34a: d350         	blo	0x7009d3ee <DebugP_memLogWriterPutChar+0x13e> @ imm = #0xa0
  7. 7009d3ee: b008         	add	sp, #0x20
  8. 7009d3f0: bd80         	pop	{r7, pc}

Sync: Idx:65220; ID:10;	BRANCH_ADDRESS : Branch address.; Addr=0x700A4E8E ~[0xE];

P_HDR Event: Idx:65221 (Pattern: EEEEEEEEEEEEEEE, Function: putchar_)
Executed Assembly Steps:
  1. 700a4e8e: 4620         	mov	r0, r4
  2. 700a4e90: e8bd 4010    	pop.w	{r4, lr}
  3. 700a4e94: f7fe bd2c    	b.w	0x700a38f0 <DebugP_uartLogWriterPutChar> @ imm = #-0x15a8
  4. 700a38f0: b580         	push	{r7, lr}
  5. 700a38f2: b088         	sub	sp, #0x20
  6. 700a38f4: f88d 001f    	strb.w	r0, [sp, #0x1f]
  7. 700a38f8: f89d 001f    	ldrb.w	r0, [sp, #0x1f]
  8. 700a38fc: f88d 001e    	strb.w	r0, [sp, #0x1e]
  9. 700a3900: f247 40e0    	movw	r0, #0x74e0
  10. 700a3904: f2c7 000a    	movt	r0, #0x700a
  11. 700a3908: 6800         	ldr	r0, [r0]
  12. 700a390a: f7ff fe41    	bl	0x700a3590 <UART_getHandle> @ imm = #-0x37e
  13. 700a3590: b083         	sub	sp, #0xc
  14. 700a3592: 9002         	str	r0, [sp, #0x8]
  15. 700a3594: 2000         	movs	r0, #0x0

P_HDR Event: Idx:65222 (Pattern: EEEEEEN, Function: UART_getHandle)
Executed Assembly Steps:
  1. 700a3596: 9001         	str	r0, [sp, #0x4]
  2. 700a3598: 9802         	ldr	r0, [sp, #0x8]
  3. 700a359a: f247 41e8    	movw	r1, #0x74e8
  4. 700a359e: f2c7 010a    	movt	r1, #0x700a
  5. 700a35a2: 6809         	ldr	r1, [r1]
  6. 700a35a4: 4288         	cmp	r0, r1
  7. 700a35a6: d217         	bhs	0x700a35d8 <UART_getHandle+0x48> @ imm = #0x2e

P_HDR Event: Idx:65223 (Pattern: EEEEEEEEN, Function: UART_getHandle)
Executed Assembly Steps:
  1. 700a35a8: e7ff         	b	0x700a35aa <UART_getHandle+0x1a> @ imm = #-0x2
  2. 700a35aa: 9902         	ldr	r1, [sp, #0x8]
  3. 700a35ac: f247 40a8    	movw	r0, #0x74a8
  4. 700a35b0: f2c7 000a    	movt	r0, #0x700a
  5. 700a35b4: eb00 00c1    	add.w	r0, r0, r1, lsl #3
  6. 700a35b8: 6840         	ldr	r0, [r0, #0x4]
  7. 700a35ba: 9000         	str	r0, [sp]
  8. 700a35bc: 9800         	ldr	r0, [sp]
  9. 700a35be: b150         	cbz	r0, 0x700a35d6 <UART_getHandle+0x46> @ imm = #0x14

P_HDR Event: Idx:65224 (Pattern: EEEEEEEEE, Function: UART_getHandle)
Executed Assembly Steps:
  1. 700a35c0: e7ff         	b	0x700a35c2 <UART_getHandle+0x32> @ imm = #-0x2
  2. 700a35c2: 9800         	ldr	r0, [sp]
  3. 700a35c4: f8d0 0084    	ldr.w	r0, [r0, #0x84]
  4. 700a35c8: 2801         	cmp	r0, #0x1
  5. 700a35ca: d104         	bne	0x700a35d6 <UART_getHandle+0x46> @ imm = #0x8
  6. 700a35d6: e7ff         	b	0x700a35d8 <UART_getHandle+0x48> @ imm = #-0x2
  7. 700a35d8: 9801         	ldr	r0, [sp, #0x4]
  8. 700a35da: b003         	add	sp, #0xc
  9. 700a35dc: 4770         	bx	lr

Sync: Idx:65225; ID:10;	BRANCH_ADDRESS : Branch address.; Addr=0x700A390E ~[0xA390E];

P_HDR Event: Idx:65228 (Pattern: EEEEE, Function: DebugP_uartLogWriterPutChar)
Executed Assembly Steps:
  1. 700a390e: 9006         	str	r0, [sp, #0x18]
  2. 700a3910: 9806         	ldr	r0, [sp, #0x18]
  3. 700a3912: b170         	cbz	r0, 0x700a3932 <DebugP_uartLogWriterPutChar+0x42> @ imm = #0x1c
  4. 700a3932: b008         	add	sp, #0x20
  5. 700a3934: bd80         	pop	{r7, pc}

Sync: Idx:65229; ID:10;	BRANCH_ADDRESS : Branch address.; Addr=0x700A4A3E ~[0xA4A3E];

P_HDR Event: Idx:65233 (Pattern: EEE, Function: _out_char)
Executed Assembly Steps:
  1. 700a4a3e: e7ff         	b	0x700a4a40 <_out_char+0x20> @ imm = #-0x2
  2. 700a4a40: b004         	add	sp, #0x10
  3. 700a4a42: bd80         	pop	{r7, pc}

Sync: Idx:65234; ID:10;	BRANCH_ADDRESS : Branch address.; Addr=0x70098F58 ~[0x98F58];

P_HDR Event: Idx:65237 (Pattern: EEEEEEEN, Function: _vsnprintf)
Executed Assembly Steps:
  1. 70098f58: 983c         	ldr	r0, [sp, #0xf0]
  2. 70098f5a: 3001         	adds	r0, #0x1
  3. 70098f5c: 903c         	str	r0, [sp, #0xf0]
  4. 70098f5e: e7e6         	b	0x70098f2e <_vsnprintf+0x2e> @ imm = #-0x34
  5. 70098f2e: 983c         	ldr	r0, [sp, #0xf0]
  6. 70098f30: 7800         	ldrb	r0, [r0]
  7. 70098f32: 2800         	cmp	r0, #0x0
  8. 70098f34: f000 84e3    	beq.w	0x700998fe <_vsnprintf+0x9fe> @ imm = #0x9c6

P_HDR Event: Idx:65238 (Pattern: EEEEN, Function: _vsnprintf)
Executed Assembly Steps:
  1. 70098f38: e7ff         	b	0x70098f3a <_vsnprintf+0x3a> @ imm = #-0x2
  2. 70098f3a: 983c         	ldr	r0, [sp, #0xf0]
  3. 70098f3c: 7800         	ldrb	r0, [r0]
  4. 70098f3e: 2825         	cmp	r0, #0x25
  5. 70098f40: d00e         	beq	0x70098f60 <_vsnprintf+0x60> @ imm = #0x1c

P_HDR Event: Idx:65239 (Pattern: EEEEEEEEEE, Function: _vsnprintf)
Executed Assembly Steps:
  1. 70098f42: e7ff         	b	0x70098f44 <_vsnprintf+0x44> @ imm = #-0x2
  2. 70098f44: f8dd c0fc    	ldr.w	r12, [sp, #0xfc]
  3. 70098f48: 983c         	ldr	r0, [sp, #0xf0]
  4. 70098f4a: 7800         	ldrb	r0, [r0]
  5. 70098f4c: 993e         	ldr	r1, [sp, #0xf8]
  6. 70098f4e: 9a37         	ldr	r2, [sp, #0xdc]
  7. 70098f50: 1c53         	adds	r3, r2, #0x1
  8. 70098f52: 9337         	str	r3, [sp, #0xdc]
  9. 70098f54: 9b3d         	ldr	r3, [sp, #0xf4]
  10. 70098f56: 47e0         	blx	r12

Sync: Idx:65240; ID:10;	BRANCH_ADDRESS : Branch address.; Addr=0x700A4A20 ~[0xA4A20];

P_HDR Event: Idx:65243 (Pattern: EEEEEEEN, Function: _out_char)
Executed Assembly Steps:
  1. 700a4a20: b580         	push	{r7, lr}
  2. 700a4a22: b084         	sub	sp, #0x10
  3. 700a4a24: f88d 000f    	strb.w	r0, [sp, #0xf]
  4. 700a4a28: 9102         	str	r1, [sp, #0x8]
  5. 700a4a2a: 9201         	str	r2, [sp, #0x4]
  6. 700a4a2c: 9300         	str	r3, [sp]
  7. 700a4a2e: f89d 000f    	ldrb.w	r0, [sp, #0xf]
  8. 700a4a32: b128         	cbz	r0, 0x700a4a40 <_out_char+0x20> @ imm = #0xa

P_HDR Event: Idx:65244 (Pattern: EEEEEE, Function: _out_char)
Executed Assembly Steps:
  1. 700a4a34: e7ff         	b	0x700a4a36 <_out_char+0x16> @ imm = #-0x2
  2. 700a4a36: f89d 000f    	ldrb.w	r0, [sp, #0xf]
  3. 700a4a3a: f000 fa21    	bl	0x700a4e80 <putchar_>   @ imm = #0x442
  4. 700a4e80: b510         	push	{r4, lr}
  5. 700a4e82: 4604         	mov	r4, r0
  6. 700a4e84: f000 e9ac    	blx	0x700a51e0 <putchar>    @ imm = #0x358

Sync: Idx:65245; ID:10;	BRANCH_ADDRESS : Branch address.; Addr=0x700A51E0 ~[0x700A51E0]; ISA=ARM(32);

P_HDR Event: Idx:65251 (Pattern: EEEEEEEEE, Function: putchar)
Executed Assembly Steps:
  1. 700a51e0: e59f1004     	ldr	r1, [pc, #0x4]          @ 0x700a51ec <putchar+0xc>
  2. 700a51e4: e2811018     	add	r1, r1, #24
  3. 700a51e8: eaffe5b1     	b	0x7009e8b4 <fputc>      @ imm = #-0x693c
  4. 7009e8b4: e92d483c     	push	{r2, r3, r4, r5, r11, lr}
  5. 7009e8b8: e59f20e0     	ldr	r2, [pc, #0xe0]         @ 0x7009e9a0 <fputc+0xec>
  6. 7009e8bc: e1a04001     	mov	r4, r1
  7. 7009e8c0: e1a05000     	mov	r5, r0
  8. 7009e8c4: e5922000     	ldr	r2, [r2]
  9. 7009e8c8: e12fff32     	blx	r2

Sync: Idx:65252; ID:10;	BRANCH_ADDRESS : Branch address.; Addr=0x7009A2DC ~[0x9A2DC];

P_HDR Event: Idx:65255 (Pattern: E, Function: _nop)
Executed Assembly Steps:
  1. 7009a2dc: e12fff1e     	bx	lr

Sync: Idx:65256; ID:10;	BRANCH_ADDRESS : Branch address.; Addr=0x7009E8CC ~[0x68CC];

P_HDR Event: Idx:65258 (Pattern: EEEEEEEN, Function: fputc)
Executed Assembly Steps:
  1. 7009e8cc: e1a00004     	mov	r0, r4
  2. 7009e8d0: eb000949     	bl	0x700a0dfc <__TI_wrt_ok> @ imm = #0x2524
  3. 700a0dfc: e92d4010     	push	{r4, lr}
  4. 700a0e00: e1a04000     	mov	r4, r0
  5. 700a0e04: e5901000     	ldr	r1, [r0]
  6. 700a0e08: e3a00000     	mov	r0, #0
  7. 700a0e0c: e3710001     	cmn	r1, #1
  8. 700a0e10: 0a00001c     	beq	0x700a0e88 <__TI_wrt_ok+0x8c> @ imm = #0x70

P_HDR Event: Idx:65259 (Pattern: EEN, Function: __TI_wrt_ok)
Executed Assembly Steps:
  1. 700a0e14: e5941014     	ldr	r1, [r4, #0x14]
  2. 700a0e18: e3110010     	tst	r1, #16
  3. 700a0e1c: 1a00001a     	bne	0x700a0e8c <__TI_wrt_ok+0x90> @ imm = #0x68

P_HDR Event: Idx:65260 (Pattern: EEEEEEEE, Function: __TI_wrt_ok)
Executed Assembly Steps:
  1. 700a0e20: e3110080     	tst	r1, #128
  2. 700a0e24: 0a000004     	beq	0x700a0e3c <__TI_wrt_ok+0x40> @ imm = #0x10
  3. 700a0e3c: e2010060     	and	r0, r1, #96
  4. 700a0e40: e3500040     	cmp	r0, #64
  5. 700a0e44: 1a000001     	bne	0x700a0e50 <__TI_wrt_ok+0x54> @ imm = #0x4
  6. 700a0e50: e5942004     	ldr	r2, [r4, #0x4]
  7. 700a0e54: e3a00001     	mov	r0, #1
  8. 700a0e58: e3520000     	cmp	r2, #0

P_HDR Event: Idx:65261 (Pattern: NE, Function: __TI_wrt_ok)
Executed Assembly Steps:
  1. 700a0e5c: 02112004     	andseq	r2, r1, #4
  2. 700a0e60: 1a000006     	bne	0x700a0e80 <__TI_wrt_ok+0x84> @ imm = #0x18

P_HDR Event: Idx:65262 (Pattern: EEE, Function: __TI_wrt_ok)
Executed Assembly Steps:
  1. 700a0e80: e594100c     	ldr	r1, [r4, #0xc]
  2. 700a0e84: e5841010     	str	r1, [r4, #0x10]
  3. 700a0e88: e8bd8010     	pop	{r4, pc}

Sync: Idx:65264; ID:10;	BRANCH_ADDRESS : Branch address.; Addr=0x7009E8D4 ~[0xD4];

P_HDR Event: Idx:65265 (Pattern: EN, Function: fputc)
Executed Assembly Steps:
  1. 7009e8d4: e3500000     	cmp	r0, #0
  2. 7009e8d8: 0a00000b     	beq	0x7009e90c <fputc+0x58> @ imm = #0x2c

P_HDR Event: Idx:65266 (Pattern: EEEEEEEEEEEEEEE, Function: fputc)
Executed Assembly Steps:
  1. 7009e8dc: e5940014     	ldr	r0, [r4, #0x14]
  2. 7009e8e0: e2000007     	and	r0, r0, #7
  3. 7009e8e4: e3500004     	cmp	r0, #4
  4. 7009e8e8: 1a00000a     	bne	0x7009e918 <fputc+0x64> @ imm = #0x28
  5. 7009e918: e5940008     	ldr	r0, [r4, #0x8]
  6. 7009e91c: e594100c     	ldr	r1, [r4, #0xc]
  7. 7009e920: e1500001     	cmp	r0, r1
  8. 7009e924: 3a000004     	blo	0x7009e93c <fputc+0x88> @ imm = #0x10
  9. 7009e93c: e2801001     	add	r1, r0, #1
  10. 7009e940: e355000a     	cmp	r5, #10
  11. 7009e944: e5841008     	str	r1, [r4, #0x8]
  12. 7009e948: e5c05000     	strb	r5, [r0]
  13. 7009e94c: 1a00000e     	bne	0x7009e98c <fputc+0xd8> @ imm = #0x38
  14. 7009e98c: e59f0010     	ldr	r0, [pc, #0x10]         @ 0x7009e9a4 <fputc+0xf0>
  15. 7009e990: e5900000     	ldr	r0, [r0]

P_HDR Event: Idx:65267 (Pattern: E, Function: fputc)
Executed Assembly Steps:
  1. 7009e994: e12fff30     	blx	r0

Sync: Idx:65268; ID:10;	BRANCH_ADDRESS : Branch address.; Addr=0x7009A2DC ~[0x22DC];

P_HDR Event: Idx:65270 (Pattern: E, Function: _nop)
Executed Assembly Steps:
  1. 7009a2dc: e12fff1e     	bx	lr

Sync: Idx:65271; ID:10;	BRANCH_ADDRESS : Branch address.; Addr=0x7009E998 ~[0x6998];

P_HDR Event: Idx:65273 (Pattern: EE, Function: fputc)
Executed Assembly Steps:
  1. 7009e998: e6ef0075     	uxtb	r0, r5
  2. 7009e99c: e8bd883c     	pop	{r2, r3, r4, r5, r11, pc}

Sync: Idx:65274; ID:10;	BRANCH_ADDRESS : Branch address.; Addr=0x700A4E88 ~[0x700A4E88]; ISA=Thumb2;

P_HDR Event: Idx:65280 (Pattern: EEEEEEEEEEEEEEE, Function: putchar_)
Executed Assembly Steps:
  1. 700a4e88: 4620         	mov	r0, r4
  2. 700a4e8a: f7f8 fa11    	bl	0x7009d2b0 <DebugP_memLogWriterPutChar> @ imm = #-0x7bde
  3. 7009d2b0: b580         	push	{r7, lr}
  4. 7009d2b2: b088         	sub	sp, #0x20
  5. 7009d2b4: f88d 001f    	strb.w	r0, [sp, #0x1f]
  6. 7009d2b8: f247 30cc    	movw	r0, #0x73cc
  7. 7009d2bc: f2c7 000a    	movt	r0, #0x700a
  8. 7009d2c0: 6800         	ldr	r0, [r0]
  9. 7009d2c2: bb40         	cbnz	r0, 0x7009d316 <DebugP_memLogWriterPutChar+0x66> @ imm = #0x50
  10. 7009d316: f89d 001f    	ldrb.w	r0, [sp, #0x1f]
  11. 7009d31a: f247 31cc    	movw	r1, #0x73cc
  12. 7009d31e: f2c7 010a    	movt	r1, #0x700a
  13. 7009d322: 680b         	ldr	r3, [r1]
  14. 7009d324: f644 42e0    	movw	r2, #0x4ce0
  15. 7009d328: f2c7 0208    	movt	r2, #0x7008

P_HDR Event: Idx:65281 (Pattern: EEEEEEN, Function: DebugP_memLogWriterPutChar)
Executed Assembly Steps:
  1. 7009d32c: 54d0         	strb	r0, [r2, r3]
  2. 7009d32e: 6808         	ldr	r0, [r1]
  3. 7009d330: 3001         	adds	r0, #0x1
  4. 7009d332: 6008         	str	r0, [r1]
  5. 7009d334: f89d 001f    	ldrb.w	r0, [sp, #0x1f]
  6. 7009d338: 280a         	cmp	r0, #0xa
  7. 7009d33a: d008         	beq	0x7009d34e <DebugP_memLogWriterPutChar+0x9e> @ imm = #0x10

P_HDR Event: Idx:65282 (Pattern: EEEEEEEE, Function: DebugP_memLogWriterPutChar)
Executed Assembly Steps:
  1. 7009d33c: e7ff         	b	0x7009d33e <DebugP_memLogWriterPutChar+0x8e> @ imm = #-0x2
  2. 7009d33e: f247 30cc    	movw	r0, #0x73cc
  3. 7009d342: f2c7 000a    	movt	r0, #0x700a
  4. 7009d346: 6800         	ldr	r0, [r0]
  5. 7009d348: 2878         	cmp	r0, #0x78
  6. 7009d34a: d350         	blo	0x7009d3ee <DebugP_memLogWriterPutChar+0x13e> @ imm = #0xa0
  7. 7009d3ee: b008         	add	sp, #0x20
  8. 7009d3f0: bd80         	pop	{r7, pc}

Sync: Idx:65283; ID:10;	BRANCH_ADDRESS : Branch address.; Addr=0x700A4E8E ~[0xE];

P_HDR Event: Idx:65284 (Pattern: EEEEEEEEEEEEEEE, Function: putchar_)
Executed Assembly Steps:
  1. 700a4e8e: 4620         	mov	r0, r4
  2. 700a4e90: e8bd 4010    	pop.w	{r4, lr}
  3. 700a4e94: f7fe bd2c    	b.w	0x700a38f0 <DebugP_uartLogWriterPutChar> @ imm = #-0x15a8
  4. 700a38f0: b580         	push	{r7, lr}
  5. 700a38f2: b088         	sub	sp, #0x20
  6. 700a38f4: f88d 001f    	strb.w	r0, [sp, #0x1f]
  7. 700a38f8: f89d 001f    	ldrb.w	r0, [sp, #0x1f]
  8. 700a38fc: f88d 001e    	strb.w	r0, [sp, #0x1e]
  9. 700a3900: f247 40e0    	movw	r0, #0x74e0
  10. 700a3904: f2c7 000a    	movt	r0, #0x700a
  11. 700a3908: 6800         	ldr	r0, [r0]
  12. 700a390a: f7ff fe41    	bl	0x700a3590 <UART_getHandle> @ imm = #-0x37e
  13. 700a3590: b083         	sub	sp, #0xc
  14. 700a3592: 9002         	str	r0, [sp, #0x8]
  15. 700a3594: 2000         	movs	r0, #0x0

P_HDR Event: Idx:65285 (Pattern: EEEEEEN, Function: UART_getHandle)
Executed Assembly Steps:
  1. 700a3596: 9001         	str	r0, [sp, #0x4]
  2. 700a3598: 9802         	ldr	r0, [sp, #0x8]
  3. 700a359a: f247 41e8    	movw	r1, #0x74e8
  4. 700a359e: f2c7 010a    	movt	r1, #0x700a
  5. 700a35a2: 6809         	ldr	r1, [r1]
  6. 700a35a4: 4288         	cmp	r0, r1
  7. 700a35a6: d217         	bhs	0x700a35d8 <UART_getHandle+0x48> @ imm = #0x2e

P_HDR Event: Idx:65286 (Pattern: EEEEEEEEN, Function: UART_getHandle)
Executed Assembly Steps:
  1. 700a35a8: e7ff         	b	0x700a35aa <UART_getHandle+0x1a> @ imm = #-0x2
  2. 700a35aa: 9902         	ldr	r1, [sp, #0x8]
  3. 700a35ac: f247 40a8    	movw	r0, #0x74a8
  4. 700a35b0: f2c7 000a    	movt	r0, #0x700a
  5. 700a35b4: eb00 00c1    	add.w	r0, r0, r1, lsl #3
  6. 700a35b8: 6840         	ldr	r0, [r0, #0x4]
  7. 700a35ba: 9000         	str	r0, [sp]
  8. 700a35bc: 9800         	ldr	r0, [sp]
  9. 700a35be: b150         	cbz	r0, 0x700a35d6 <UART_getHandle+0x46> @ imm = #0x14

P_HDR Event: Idx:65287 (Pattern: EEEEEEEEE, Function: UART_getHandle)
Executed Assembly Steps:
  1. 700a35c0: e7ff         	b	0x700a35c2 <UART_getHandle+0x32> @ imm = #-0x2
  2. 700a35c2: 9800         	ldr	r0, [sp]
  3. 700a35c4: f8d0 0084    	ldr.w	r0, [r0, #0x84]
  4. 700a35c8: 2801         	cmp	r0, #0x1
  5. 700a35ca: d104         	bne	0x700a35d6 <UART_getHandle+0x46> @ imm = #0x8
  6. 700a35d6: e7ff         	b	0x700a35d8 <UART_getHandle+0x48> @ imm = #-0x2
  7. 700a35d8: 9801         	ldr	r0, [sp, #0x4]
  8. 700a35da: b003         	add	sp, #0xc
  9. 700a35dc: 4770         	bx	lr

Sync: Idx:65288; ID:10;	BRANCH_ADDRESS : Branch address.; Addr=0x700A390E ~[0xA390E];

P_HDR Event: Idx:65291 (Pattern: EEEEE, Function: DebugP_uartLogWriterPutChar)
Executed Assembly Steps:
  1. 700a390e: 9006         	str	r0, [sp, #0x18]
  2. 700a3910: 9806         	ldr	r0, [sp, #0x18]
  3. 700a3912: b170         	cbz	r0, 0x700a3932 <DebugP_uartLogWriterPutChar+0x42> @ imm = #0x1c
  4. 700a3932: b008         	add	sp, #0x20
  5. 700a3934: bd80         	pop	{r7, pc}

Sync: Idx:65292; ID:10;	BRANCH_ADDRESS : Branch address.; Addr=0x700A4A3E ~[0xA4A3E];

P_HDR Event: Idx:65296 (Pattern: EEE, Function: _out_char)
Executed Assembly Steps:
  1. 700a4a3e: e7ff         	b	0x700a4a40 <_out_char+0x20> @ imm = #-0x2
  2. 700a4a40: b004         	add	sp, #0x10
  3. 700a4a42: bd80         	pop	{r7, pc}

Sync: Idx:65297; ID:10;	BRANCH_ADDRESS : Branch address.; Addr=0x70098F58 ~[0x98F58];

P_HDR Event: Idx:65300 (Pattern: EEEEEEEN, Function: _vsnprintf)
Executed Assembly Steps:
  1. 70098f58: 983c         	ldr	r0, [sp, #0xf0]
  2. 70098f5a: 3001         	adds	r0, #0x1
  3. 70098f5c: 903c         	str	r0, [sp, #0xf0]
  4. 70098f5e: e7e6         	b	0x70098f2e <_vsnprintf+0x2e> @ imm = #-0x34
  5. 70098f2e: 983c         	ldr	r0, [sp, #0xf0]
  6. 70098f30: 7800         	ldrb	r0, [r0]
  7. 70098f32: 2800         	cmp	r0, #0x0
  8. 70098f34: f000 84e3    	beq.w	0x700998fe <_vsnprintf+0x9fe> @ imm = #0x9c6

P_HDR Event: Idx:65301 (Pattern: EEEEN, Function: _vsnprintf)
Executed Assembly Steps:
  1. 70098f38: e7ff         	b	0x70098f3a <_vsnprintf+0x3a> @ imm = #-0x2
  2. 70098f3a: 983c         	ldr	r0, [sp, #0xf0]
  3. 70098f3c: 7800         	ldrb	r0, [r0]
  4. 70098f3e: 2825         	cmp	r0, #0x25
  5. 70098f40: d00e         	beq	0x70098f60 <_vsnprintf+0x60> @ imm = #0x1c

P_HDR Event: Idx:65302 (Pattern: EEEEEEEEEE, Function: _vsnprintf)
Executed Assembly Steps:
  1. 70098f42: e7ff         	b	0x70098f44 <_vsnprintf+0x44> @ imm = #-0x2
  2. 70098f44: f8dd c0fc    	ldr.w	r12, [sp, #0xfc]
  3. 70098f48: 983c         	ldr	r0, [sp, #0xf0]
  4. 70098f4a: 7800         	ldrb	r0, [r0]
  5. 70098f4c: 993e         	ldr	r1, [sp, #0xf8]
  6. 70098f4e: 9a37         	ldr	r2, [sp, #0xdc]
  7. 70098f50: 1c53         	adds	r3, r2, #0x1
  8. 70098f52: 9337         	str	r3, [sp, #0xdc]
  9. 70098f54: 9b3d         	ldr	r3, [sp, #0xf4]
  10. 70098f56: 47e0         	blx	r12

Sync: Idx:65303; ID:10;	BRANCH_ADDRESS : Branch address.; Addr=0x700A4A20 ~[0xA4A20];

P_HDR Event: Idx:65306 (Pattern: EEEEEEEN, Function: _out_char)
Executed Assembly Steps:
  1. 700a4a20: b580         	push	{r7, lr}
  2. 700a4a22: b084         	sub	sp, #0x10
  3. 700a4a24: f88d 000f    	strb.w	r0, [sp, #0xf]
  4. 700a4a28: 9102         	str	r1, [sp, #0x8]
  5. 700a4a2a: 9201         	str	r2, [sp, #0x4]
  6. 700a4a2c: 9300         	str	r3, [sp]
  7. 700a4a2e: f89d 000f    	ldrb.w	r0, [sp, #0xf]
  8. 700a4a32: b128         	cbz	r0, 0x700a4a40 <_out_char+0x20> @ imm = #0xa

P_HDR Event: Idx:65307 (Pattern: EEEEEE, Function: _out_char)
Executed Assembly Steps:
  1. 700a4a34: e7ff         	b	0x700a4a36 <_out_char+0x16> @ imm = #-0x2
  2. 700a4a36: f89d 000f    	ldrb.w	r0, [sp, #0xf]
  3. 700a4a3a: f000 fa21    	bl	0x700a4e80 <putchar_>   @ imm = #0x442
  4. 700a4e80: b510         	push	{r4, lr}
  5. 700a4e82: 4604         	mov	r4, r0
  6. 700a4e84: f000 e9ac    	blx	0x700a51e0 <putchar>    @ imm = #0x358

Sync: Idx:65308; ID:10;	BRANCH_ADDRESS : Branch address.; Addr=0x700A51E0 ~[0x700A51E0]; ISA=ARM(32);

P_HDR Event: Idx:65314 (Pattern: EEEEEEEEE, Function: putchar)
Executed Assembly Steps:
  1. 700a51e0: e59f1004     	ldr	r1, [pc, #0x4]          @ 0x700a51ec <putchar+0xc>
  2. 700a51e4: e2811018     	add	r1, r1, #24
  3. 700a51e8: eaffe5b1     	b	0x7009e8b4 <fputc>      @ imm = #-0x693c
  4. 7009e8b4: e92d483c     	push	{r2, r3, r4, r5, r11, lr}
  5. 7009e8b8: e59f20e0     	ldr	r2, [pc, #0xe0]         @ 0x7009e9a0 <fputc+0xec>
  6. 7009e8bc: e1a04001     	mov	r4, r1
  7. 7009e8c0: e1a05000     	mov	r5, r0
  8. 7009e8c4: e5922000     	ldr	r2, [r2]
  9. 7009e8c8: e12fff32     	blx	r2

Sync: Idx:65315; ID:10;	BRANCH_ADDRESS : Branch address.; Addr=0x7009A2DC ~[0x9A2DC];

P_HDR Event: Idx:65318 (Pattern: E, Function: _nop)
Executed Assembly Steps:
  1. 7009a2dc: e12fff1e     	bx	lr

Sync: Idx:65319; ID:10;	BRANCH_ADDRESS : Branch address.; Addr=0x7009E8CC ~[0x68CC];

P_HDR Event: Idx:65321 (Pattern: EEEEEEEN, Function: fputc)
Executed Assembly Steps:
  1. 7009e8cc: e1a00004     	mov	r0, r4
  2. 7009e8d0: eb000949     	bl	0x700a0dfc <__TI_wrt_ok> @ imm = #0x2524
  3. 700a0dfc: e92d4010     	push	{r4, lr}
  4. 700a0e00: e1a04000     	mov	r4, r0
  5. 700a0e04: e5901000     	ldr	r1, [r0]
  6. 700a0e08: e3a00000     	mov	r0, #0
  7. 700a0e0c: e3710001     	cmn	r1, #1
  8. 700a0e10: 0a00001c     	beq	0x700a0e88 <__TI_wrt_ok+0x8c> @ imm = #0x70

P_HDR Event: Idx:65322 (Pattern: EEN, Function: __TI_wrt_ok)
Executed Assembly Steps:
  1. 700a0e14: e5941014     	ldr	r1, [r4, #0x14]
  2. 700a0e18: e3110010     	tst	r1, #16
  3. 700a0e1c: 1a00001a     	bne	0x700a0e8c <__TI_wrt_ok+0x90> @ imm = #0x68

P_HDR Event: Idx:65323 (Pattern: EEEEEEEE, Function: __TI_wrt_ok)
Executed Assembly Steps:
  1. 700a0e20: e3110080     	tst	r1, #128
  2. 700a0e24: 0a000004     	beq	0x700a0e3c <__TI_wrt_ok+0x40> @ imm = #0x10
  3. 700a0e3c: e2010060     	and	r0, r1, #96
  4. 700a0e40: e3500040     	cmp	r0, #64
  5. 700a0e44: 1a000001     	bne	0x700a0e50 <__TI_wrt_ok+0x54> @ imm = #0x4
  6. 700a0e50: e5942004     	ldr	r2, [r4, #0x4]
  7. 700a0e54: e3a00001     	mov	r0, #1
  8. 700a0e58: e3520000     	cmp	r2, #0

P_HDR Event: Idx:65324 (Pattern: NE, Function: __TI_wrt_ok)
Executed Assembly Steps:
  1. 700a0e5c: 02112004     	andseq	r2, r1, #4
  2. 700a0e60: 1a000006     	bne	0x700a0e80 <__TI_wrt_ok+0x84> @ imm = #0x18

P_HDR Event: Idx:65325 (Pattern: EEE, Function: __TI_wrt_ok)
Executed Assembly Steps:
  1. 700a0e80: e594100c     	ldr	r1, [r4, #0xc]
  2. 700a0e84: e5841010     	str	r1, [r4, #0x10]
  3. 700a0e88: e8bd8010     	pop	{r4, pc}

Sync: Idx:65326; ID:10;	BRANCH_ADDRESS : Branch address.; Addr=0x7009E8D4 ~[0xD4];

P_HDR Event: Idx:65328 (Pattern: EN, Function: fputc)
Executed Assembly Steps:
  1. 7009e8d4: e3500000     	cmp	r0, #0
  2. 7009e8d8: 0a00000b     	beq	0x7009e90c <fputc+0x58> @ imm = #0x2c

P_HDR Event: Idx:65329 (Pattern: EEEEEEEEEEEEEEE, Function: fputc)
Executed Assembly Steps:
  1. 7009e8dc: e5940014     	ldr	r0, [r4, #0x14]
  2. 7009e8e0: e2000007     	and	r0, r0, #7
  3. 7009e8e4: e3500004     	cmp	r0, #4
  4. 7009e8e8: 1a00000a     	bne	0x7009e918 <fputc+0x64> @ imm = #0x28
  5. 7009e918: e5940008     	ldr	r0, [r4, #0x8]
  6. 7009e91c: e594100c     	ldr	r1, [r4, #0xc]
  7. 7009e920: e1500001     	cmp	r0, r1
  8. 7009e924: 3a000004     	blo	0x7009e93c <fputc+0x88> @ imm = #0x10
  9. 7009e93c: e2801001     	add	r1, r0, #1
  10. 7009e940: e355000a     	cmp	r5, #10
  11. 7009e944: e5841008     	str	r1, [r4, #0x8]
  12. 7009e948: e5c05000     	strb	r5, [r0]
  13. 7009e94c: 1a00000e     	bne	0x7009e98c <fputc+0xd8> @ imm = #0x38
  14. 7009e98c: e59f0010     	ldr	r0, [pc, #0x10]         @ 0x7009e9a4 <fputc+0xf0>
  15. 7009e990: e5900000     	ldr	r0, [r0]

P_HDR Event: Idx:65330 (Pattern: E, Function: fputc)
Executed Assembly Steps:
  1. 7009e994: e12fff30     	blx	r0

Sync: Idx:65331; ID:10;	BRANCH_ADDRESS : Branch address.; Addr=0x7009A2DC ~[0x22DC];

P_HDR Event: Idx:65333 (Pattern: E, Function: _nop)
Executed Assembly Steps:
  1. 7009a2dc: e12fff1e     	bx	lr

Sync: Idx:65334; ID:10;	BRANCH_ADDRESS : Branch address.; Addr=0x7009E998 ~[0x6998];

P_HDR Event: Idx:65336 (Pattern: EE, Function: fputc)
Executed Assembly Steps:
  1. 7009e998: e6ef0075     	uxtb	r0, r5
  2. 7009e99c: e8bd883c     	pop	{r2, r3, r4, r5, r11, pc}

Sync: Idx:65337; ID:10;	BRANCH_ADDRESS : Branch address.; Addr=0x700A4E88 ~[0x700A4E88]; ISA=Thumb2;

P_HDR Event: Idx:65342 (Pattern: EEEEEEEEEEEEEEE, Function: putchar_)
Executed Assembly Steps:
  1. 700a4e88: 4620         	mov	r0, r4
  2. 700a4e8a: f7f8 fa11    	bl	0x7009d2b0 <DebugP_memLogWriterPutChar> @ imm = #-0x7bde
  3. 7009d2b0: b580         	push	{r7, lr}
  4. 7009d2b2: b088         	sub	sp, #0x20
  5. 7009d2b4: f88d 001f    	strb.w	r0, [sp, #0x1f]
  6. 7009d2b8: f247 30cc    	movw	r0, #0x73cc
  7. 7009d2bc: f2c7 000a    	movt	r0, #0x700a
  8. 7009d2c0: 6800         	ldr	r0, [r0]
  9. 7009d2c2: bb40         	cbnz	r0, 0x7009d316 <DebugP_memLogWriterPutChar+0x66> @ imm = #0x50
  10. 7009d316: f89d 001f    	ldrb.w	r0, [sp, #0x1f]
  11. 7009d31a: f247 31cc    	movw	r1, #0x73cc
  12. 7009d31e: f2c7 010a    	movt	r1, #0x700a
  13. 7009d322: 680b         	ldr	r3, [r1]
  14. 7009d324: f644 42e0    	movw	r2, #0x4ce0
  15. 7009d328: f2c7 0208    	movt	r2, #0x7008

P_HDR Event: Idx:65344 (Pattern: EEEEEEN, Function: DebugP_memLogWriterPutChar)
Executed Assembly Steps:
  1. 7009d32c: 54d0         	strb	r0, [r2, r3]
  2. 7009d32e: 6808         	ldr	r0, [r1]
  3. 7009d330: 3001         	adds	r0, #0x1
  4. 7009d332: 6008         	str	r0, [r1]
  5. 7009d334: f89d 001f    	ldrb.w	r0, [sp, #0x1f]
  6. 7009d338: 280a         	cmp	r0, #0xa
  7. 7009d33a: d008         	beq	0x7009d34e <DebugP_memLogWriterPutChar+0x9e> @ imm = #0x10

P_HDR Event: Idx:65345 (Pattern: EEEEEEEE, Function: DebugP_memLogWriterPutChar)
Executed Assembly Steps:
  1. 7009d33c: e7ff         	b	0x7009d33e <DebugP_memLogWriterPutChar+0x8e> @ imm = #-0x2
  2. 7009d33e: f247 30cc    	movw	r0, #0x73cc
  3. 7009d342: f2c7 000a    	movt	r0, #0x700a
  4. 7009d346: 6800         	ldr	r0, [r0]
  5. 7009d348: 2878         	cmp	r0, #0x78
  6. 7009d34a: d350         	blo	0x7009d3ee <DebugP_memLogWriterPutChar+0x13e> @ imm = #0xa0
  7. 7009d3ee: b008         	add	sp, #0x20
  8. 7009d3f0: bd80         	pop	{r7, pc}

Sync: Idx:65346; ID:10;	BRANCH_ADDRESS : Branch address.; Addr=0x700A4E8E ~[0xE];

P_HDR Event: Idx:65347 (Pattern: EEEEEEEEEEEEEEE, Function: putchar_)
Executed Assembly Steps:
  1. 700a4e8e: 4620         	mov	r0, r4
  2. 700a4e90: e8bd 4010    	pop.w	{r4, lr}
  3. 700a4e94: f7fe bd2c    	b.w	0x700a38f0 <DebugP_uartLogWriterPutChar> @ imm = #-0x15a8
  4. 700a38f0: b580         	push	{r7, lr}
  5. 700a38f2: b088         	sub	sp, #0x20
  6. 700a38f4: f88d 001f    	strb.w	r0, [sp, #0x1f]
  7. 700a38f8: f89d 001f    	ldrb.w	r0, [sp, #0x1f]
  8. 700a38fc: f88d 001e    	strb.w	r0, [sp, #0x1e]
  9. 700a3900: f247 40e0    	movw	r0, #0x74e0
  10. 700a3904: f2c7 000a    	movt	r0, #0x700a
  11. 700a3908: 6800         	ldr	r0, [r0]
  12. 700a390a: f7ff fe41    	bl	0x700a3590 <UART_getHandle> @ imm = #-0x37e
  13. 700a3590: b083         	sub	sp, #0xc
  14. 700a3592: 9002         	str	r0, [sp, #0x8]
  15. 700a3594: 2000         	movs	r0, #0x0

P_HDR Event: Idx:65348 (Pattern: EEEEEEN, Function: UART_getHandle)
Executed Assembly Steps:
  1. 700a3596: 9001         	str	r0, [sp, #0x4]
  2. 700a3598: 9802         	ldr	r0, [sp, #0x8]
  3. 700a359a: f247 41e8    	movw	r1, #0x74e8
  4. 700a359e: f2c7 010a    	movt	r1, #0x700a
  5. 700a35a2: 6809         	ldr	r1, [r1]
  6. 700a35a4: 4288         	cmp	r0, r1
  7. 700a35a6: d217         	bhs	0x700a35d8 <UART_getHandle+0x48> @ imm = #0x2e

P_HDR Event: Idx:65349 (Pattern: EEEEEEEEN, Function: UART_getHandle)
Executed Assembly Steps:
  1. 700a35a8: e7ff         	b	0x700a35aa <UART_getHandle+0x1a> @ imm = #-0x2
  2. 700a35aa: 9902         	ldr	r1, [sp, #0x8]
  3. 700a35ac: f247 40a8    	movw	r0, #0x74a8
  4. 700a35b0: f2c7 000a    	movt	r0, #0x700a
  5. 700a35b4: eb00 00c1    	add.w	r0, r0, r1, lsl #3
  6. 700a35b8: 6840         	ldr	r0, [r0, #0x4]
  7. 700a35ba: 9000         	str	r0, [sp]
  8. 700a35bc: 9800         	ldr	r0, [sp]
  9. 700a35be: b150         	cbz	r0, 0x700a35d6 <UART_getHandle+0x46> @ imm = #0x14

P_HDR Event: Idx:65350 (Pattern: EEEEEEEEE, Function: UART_getHandle)
Executed Assembly Steps:
  1. 700a35c0: e7ff         	b	0x700a35c2 <UART_getHandle+0x32> @ imm = #-0x2
  2. 700a35c2: 9800         	ldr	r0, [sp]
  3. 700a35c4: f8d0 0084    	ldr.w	r0, [r0, #0x84]
  4. 700a35c8: 2801         	cmp	r0, #0x1
  5. 700a35ca: d104         	bne	0x700a35d6 <UART_getHandle+0x46> @ imm = #0x8
  6. 700a35d6: e7ff         	b	0x700a35d8 <UART_getHandle+0x48> @ imm = #-0x2
  7. 700a35d8: 9801         	ldr	r0, [sp, #0x4]
  8. 700a35da: b003         	add	sp, #0xc
  9. 700a35dc: 4770         	bx	lr

Sync: Idx:65351; ID:10;	BRANCH_ADDRESS : Branch address.; Addr=0x700A390E ~[0xA390E];

P_HDR Event: Idx:65354 (Pattern: EEEEE, Function: DebugP_uartLogWriterPutChar)
Executed Assembly Steps:
  1. 700a390e: 9006         	str	r0, [sp, #0x18]
  2. 700a3910: 9806         	ldr	r0, [sp, #0x18]
  3. 700a3912: b170         	cbz	r0, 0x700a3932 <DebugP_uartLogWriterPutChar+0x42> @ imm = #0x1c
  4. 700a3932: b008         	add	sp, #0x20
  5. 700a3934: bd80         	pop	{r7, pc}

Sync: Idx:65355; ID:10;	BRANCH_ADDRESS : Branch address.; Addr=0x700A4A3E ~[0xA4A3E];

P_HDR Event: Idx:65358 (Pattern: EEE, Function: _out_char)
Executed Assembly Steps:
  1. 700a4a3e: e7ff         	b	0x700a4a40 <_out_char+0x20> @ imm = #-0x2
  2. 700a4a40: b004         	add	sp, #0x10
  3. 700a4a42: bd80         	pop	{r7, pc}

Sync: Idx:65360; ID:10;	BRANCH_ADDRESS : Branch address.; Addr=0x70098F58 ~[0x98F58];

P_HDR Event: Idx:65363 (Pattern: EEEEEEEN, Function: _vsnprintf)
Executed Assembly Steps:
  1. 70098f58: 983c         	ldr	r0, [sp, #0xf0]
  2. 70098f5a: 3001         	adds	r0, #0x1
  3. 70098f5c: 903c         	str	r0, [sp, #0xf0]
  4. 70098f5e: e7e6         	b	0x70098f2e <_vsnprintf+0x2e> @ imm = #-0x34
  5. 70098f2e: 983c         	ldr	r0, [sp, #0xf0]
  6. 70098f30: 7800         	ldrb	r0, [r0]
  7. 70098f32: 2800         	cmp	r0, #0x0
  8. 70098f34: f000 84e3    	beq.w	0x700998fe <_vsnprintf+0x9fe> @ imm = #0x9c6

P_HDR Event: Idx:65364 (Pattern: EEEEN, Function: _vsnprintf)
Executed Assembly Steps:
  1. 70098f38: e7ff         	b	0x70098f3a <_vsnprintf+0x3a> @ imm = #-0x2
  2. 70098f3a: 983c         	ldr	r0, [sp, #0xf0]
  3. 70098f3c: 7800         	ldrb	r0, [r0]
  4. 70098f3e: 2825         	cmp	r0, #0x25
  5. 70098f40: d00e         	beq	0x70098f60 <_vsnprintf+0x60> @ imm = #0x1c

P_HDR Event: Idx:65365 (Pattern: EEEEEEEEEE, Function: _vsnprintf)
Executed Assembly Steps:
  1. 70098f42: e7ff         	b	0x70098f44 <_vsnprintf+0x44> @ imm = #-0x2
  2. 70098f44: f8dd c0fc    	ldr.w	r12, [sp, #0xfc]
  3. 70098f48: 983c         	ldr	r0, [sp, #0xf0]
  4. 70098f4a: 7800         	ldrb	r0, [r0]
  5. 70098f4c: 993e         	ldr	r1, [sp, #0xf8]
  6. 70098f4e: 9a37         	ldr	r2, [sp, #0xdc]
  7. 70098f50: 1c53         	adds	r3, r2, #0x1
  8. 70098f52: 9337         	str	r3, [sp, #0xdc]
  9. 70098f54: 9b3d         	ldr	r3, [sp, #0xf4]
  10. 70098f56: 47e0         	blx	r12

Sync: Idx:65366; ID:10;	BRANCH_ADDRESS : Branch address.; Addr=0x700A4A20 ~[0xA4A20];

P_HDR Event: Idx:65369 (Pattern: EEEEEEEN, Function: _out_char)
Executed Assembly Steps:
  1. 700a4a20: b580         	push	{r7, lr}
  2. 700a4a22: b084         	sub	sp, #0x10
  3. 700a4a24: f88d 000f    	strb.w	r0, [sp, #0xf]
  4. 700a4a28: 9102         	str	r1, [sp, #0x8]
  5. 700a4a2a: 9201         	str	r2, [sp, #0x4]
  6. 700a4a2c: 9300         	str	r3, [sp]
  7. 700a4a2e: f89d 000f    	ldrb.w	r0, [sp, #0xf]
  8. 700a4a32: b128         	cbz	r0, 0x700a4a40 <_out_char+0x20> @ imm = #0xa

P_HDR Event: Idx:65370 (Pattern: EEEEEE, Function: _out_char)
Executed Assembly Steps:
  1. 700a4a34: e7ff         	b	0x700a4a36 <_out_char+0x16> @ imm = #-0x2
  2. 700a4a36: f89d 000f    	ldrb.w	r0, [sp, #0xf]
  3. 700a4a3a: f000 fa21    	bl	0x700a4e80 <putchar_>   @ imm = #0x442
  4. 700a4e80: b510         	push	{r4, lr}
  5. 700a4e82: 4604         	mov	r4, r0
  6. 700a4e84: f000 e9ac    	blx	0x700a51e0 <putchar>    @ imm = #0x358

Sync: Idx:65371; ID:10;	BRANCH_ADDRESS : Branch address.; Addr=0x700A51E0 ~[0x700A51E0]; ISA=ARM(32);

P_HDR Event: Idx:65377 (Pattern: EEEEEEEEE, Function: putchar)
Executed Assembly Steps:
  1. 700a51e0: e59f1004     	ldr	r1, [pc, #0x4]          @ 0x700a51ec <putchar+0xc>
  2. 700a51e4: e2811018     	add	r1, r1, #24
  3. 700a51e8: eaffe5b1     	b	0x7009e8b4 <fputc>      @ imm = #-0x693c
  4. 7009e8b4: e92d483c     	push	{r2, r3, r4, r5, r11, lr}
  5. 7009e8b8: e59f20e0     	ldr	r2, [pc, #0xe0]         @ 0x7009e9a0 <fputc+0xec>
  6. 7009e8bc: e1a04001     	mov	r4, r1
  7. 7009e8c0: e1a05000     	mov	r5, r0
  8. 7009e8c4: e5922000     	ldr	r2, [r2]
  9. 7009e8c8: e12fff32     	blx	r2

Sync: Idx:65378; ID:10;	BRANCH_ADDRESS : Branch address.; Addr=0x7009A2DC ~[0x9A2DC];

P_HDR Event: Idx:65382 (Pattern: E, Function: _nop)
Executed Assembly Steps:
  1. 7009a2dc: e12fff1e     	bx	lr

Sync: Idx:65383; ID:10;	BRANCH_ADDRESS : Branch address.; Addr=0x7009E8CC ~[0x68CC];

P_HDR Event: Idx:65385 (Pattern: EEEEEEEN, Function: fputc)
Executed Assembly Steps:
  1. 7009e8cc: e1a00004     	mov	r0, r4
  2. 7009e8d0: eb000949     	bl	0x700a0dfc <__TI_wrt_ok> @ imm = #0x2524
  3. 700a0dfc: e92d4010     	push	{r4, lr}
  4. 700a0e00: e1a04000     	mov	r4, r0
  5. 700a0e04: e5901000     	ldr	r1, [r0]
  6. 700a0e08: e3a00000     	mov	r0, #0
  7. 700a0e0c: e3710001     	cmn	r1, #1
  8. 700a0e10: 0a00001c     	beq	0x700a0e88 <__TI_wrt_ok+0x8c> @ imm = #0x70

P_HDR Event: Idx:65386 (Pattern: EEN, Function: __TI_wrt_ok)
Executed Assembly Steps:
  1. 700a0e14: e5941014     	ldr	r1, [r4, #0x14]
  2. 700a0e18: e3110010     	tst	r1, #16
  3. 700a0e1c: 1a00001a     	bne	0x700a0e8c <__TI_wrt_ok+0x90> @ imm = #0x68

P_HDR Event: Idx:65387 (Pattern: EEEEEEEE, Function: __TI_wrt_ok)
Executed Assembly Steps:
  1. 700a0e20: e3110080     	tst	r1, #128
  2. 700a0e24: 0a000004     	beq	0x700a0e3c <__TI_wrt_ok+0x40> @ imm = #0x10
  3. 700a0e3c: e2010060     	and	r0, r1, #96
  4. 700a0e40: e3500040     	cmp	r0, #64
  5. 700a0e44: 1a000001     	bne	0x700a0e50 <__TI_wrt_ok+0x54> @ imm = #0x4
  6. 700a0e50: e5942004     	ldr	r2, [r4, #0x4]
  7. 700a0e54: e3a00001     	mov	r0, #1
  8. 700a0e58: e3520000     	cmp	r2, #0

P_HDR Event: Idx:65388 (Pattern: NE, Function: __TI_wrt_ok)
Executed Assembly Steps:
  1. 700a0e5c: 02112004     	andseq	r2, r1, #4
  2. 700a0e60: 1a000006     	bne	0x700a0e80 <__TI_wrt_ok+0x84> @ imm = #0x18

P_HDR Event: Idx:65392 (Pattern: EEE, Function: __TI_wrt_ok)
Executed Assembly Steps:
  1. 700a0e80: e594100c     	ldr	r1, [r4, #0xc]
  2. 700a0e84: e5841010     	str	r1, [r4, #0x10]
  3. 700a0e88: e8bd8010     	pop	{r4, pc}

Sync: Idx:65393; ID:10;	BRANCH_ADDRESS : Branch address.; Addr=0x7009E8D4 ~[0xD4];

P_HDR Event: Idx:65394 (Pattern: EN, Function: fputc)
Executed Assembly Steps:
  1. 7009e8d4: e3500000     	cmp	r0, #0
  2. 7009e8d8: 0a00000b     	beq	0x7009e90c <fputc+0x58> @ imm = #0x2c

P_HDR Event: Idx:65395 (Pattern: EEEEEEEEEEEEN, Function: fputc)
Executed Assembly Steps:
  1. 7009e8dc: e5940014     	ldr	r0, [r4, #0x14]
  2. 7009e8e0: e2000007     	and	r0, r0, #7
  3. 7009e8e4: e3500004     	cmp	r0, #4
  4. 7009e8e8: 1a00000a     	bne	0x7009e918 <fputc+0x64> @ imm = #0x28
  5. 7009e918: e5940008     	ldr	r0, [r4, #0x8]
  6. 7009e91c: e594100c     	ldr	r1, [r4, #0xc]
  7. 7009e920: e1500001     	cmp	r0, r1
  8. 7009e924: 3a000004     	blo	0x7009e93c <fputc+0x88> @ imm = #0x10
  9. 7009e93c: e2801001     	add	r1, r0, #1
  10. 7009e940: e355000a     	cmp	r5, #10
  11. 7009e944: e5841008     	str	r1, [r4, #0x8]
  12. 7009e948: e5c05000     	strb	r5, [r0]
  13. 7009e94c: 1a00000e     	bne	0x7009e98c <fputc+0xd8> @ imm = #0x38

P_HDR Event: Idx:65396 (Pattern: EEN, Function: fputc)
Executed Assembly Steps:
  1. 7009e950: e5940014     	ldr	r0, [r4, #0x14]
  2. 7009e954: e2100002     	ands	r0, r0, #2
  3. 7009e958: 0a00000b     	beq	0x7009e98c <fputc+0xd8> @ imm = #0x2c

P_HDR Event: Idx:65397 (Pattern: EEEEEEN, Function: fputc)
Executed Assembly Steps:
  1. 7009e95c: e1a00004     	mov	r0, r4
  2. 7009e960: eb000cf1     	bl	0x700a1d2c <__TI_doflush> @ imm = #0x33c4
  3. 700a1d2c: e92d4010     	push	{r4, lr}
  4. 700a1d30: e1a04000     	mov	r4, r0
  5. 700a1d34: e5900000     	ldr	r0, [r0]
  6. 700a1d38: e3700001     	cmn	r0, #1
  7. 700a1d3c: 0a00000d     	beq	0x700a1d78 <__TI_doflush+0x4c> @ imm = #0x34

P_HDR Event: Idx:65398 (Pattern: EEEEEEEN, Function: __TI_doflush)
Executed Assembly Steps:
  1. 700a1d40: e5942014     	ldr	r2, [r4, #0x14]
  2. 700a1d44: e5941004     	ldr	r1, [r4, #0x4]
  3. 700a1d48: e3120020     	tst	r2, #32
  4. 700a1d4c: 13510000     	cmpne	r1, #0
  5. 700a1d50: 1a00000a     	bne	0x700a1d80 <__TI_doflush+0x54> @ imm = #0x28
  6. 700a1d80: e5943008     	ldr	r3, [r4, #0x8]
  7. 700a1d84: e1530001     	cmp	r3, r1
  8. 700a1d88: 0afffff1     	beq	0x700a1d54 <__TI_doflush+0x28> @ imm = #-0x3c

P_HDR Event: Idx:65399 (Pattern: EEEN, Function: __TI_doflush)
Executed Assembly Steps:
  1. 700a1d8c: e0432001     	sub	r2, r3, r1
  2. 700a1d90: eb00093f     	bl	0x700a4294 <write>      @ imm = #0x24fc
  3. 700a4294: e3500009     	cmp	r0, #9
  4. 700a4298: 8a000007     	bhi	0x700a42bc <write+0x28> @ imm = #0x1c

P_HDR Event: Idx:65400 (Pattern: EEEN, Function: write)
Executed Assembly Steps:
  1. 700a429c: e59fc020     	ldr	r12, [pc, #0x20]        @ 0x700a42c4 <write+0x30>
  2. 700a42a0: e79c3180     	ldr	r3, [r12, r0, lsl #3]
  3. 700a42a4: e3530000     	cmp	r3, #0
  4. 700a42a8: 0a000003     	beq	0x700a42bc <write+0x28> @ imm = #0xc

P_HDR Event: Idx:65401 (Pattern: EEEE, Function: write)
Executed Assembly Steps:
  1. 700a42ac: e08c0180     	add	r0, r12, r0, lsl #3
  2. 700a42b0: e5933018     	ldr	r3, [r3, #0x18]
  3. 700a42b4: e5900004     	ldr	r0, [r0, #0x4]
  4. 700a42b8: e12fff13     	bx	r3

Sync: Idx:65402; ID:10;	BRANCH_ADDRESS : Branch address.; Addr=0x700A222C ~[0xA222C];

P_HDR Event: Idx:65405 (Pattern: EEEEEEE, Function: HOSTwrite)
Executed Assembly Steps:
  1. 700a222c: e92d48f0     	push	{r4, r5, r6, r7, r11, lr}
  2. 700a2230: e59f306c     	ldr	r3, [pc, #0x6c]         @ 0x700a22a4 <HOSTwrite+0x78>
  3. 700a2234: e1a04002     	mov	r4, r2
  4. 700a2238: e1a05001     	mov	r5, r1
  5. 700a223c: e1a06000     	mov	r6, r0
  6. 700a2240: e5932000     	ldr	r2, [r3]
  7. 700a2244: e12fff32     	blx	r2

Sync: Idx:65406; ID:10;	BRANCH_ADDRESS : Branch address.; Addr=0x7009A2DC ~[0x9A2DC];

P_HDR Event: Idx:65410 (Pattern: E, Function: _nop)
Executed Assembly Steps:
  1. 7009a2dc: e12fff1e     	bx	lr

Sync: Idx:65411; ID:10;	BRANCH_ADDRESS : Branch address.; Addr=0x700A2248 ~[0xA2248];

P_HDR Event: Idx:65414 (Pattern: EN, Function: HOSTwrite)
Executed Assembly Steps:
  1. 700a2248: e3540c01     	cmp	r4, #256
  2. 700a224c: 23a04c01     	movhs	r4, #256

P_HDR Event: Idx:65415 (Pattern: EEEEEEEEEEEEEEE, Function: HOSTwrite)
Executed Assembly Steps:
  1. 700a2250: e59f7050     	ldr	r7, [pc, #0x50]         @ 0x700a22a8 <HOSTwrite+0x7c>
  2. 700a2254: e1a00426     	lsr	r0, r6, #8
  3. 700a2258: e1a02005     	mov	r2, r5
  4. 700a225c: e5c70001     	strb	r0, [r7, #0x1]
  5. 700a2260: e1a00424     	lsr	r0, r4, #8
  6. 700a2264: e1a03004     	mov	r3, r4
  7. 700a2268: e5c76000     	strb	r6, [r7]
  8. 700a226c: e5c70003     	strb	r0, [r7, #0x3]
  9. 700a2270: e3a000f3     	mov	r0, #243
  10. 700a2274: e1a01007     	mov	r1, r7
  11. 700a2278: e5c74002     	strb	r4, [r7, #0x2]
  12. 700a227c: eb0003ce     	bl	0x700a31bc <__TI_writemsg> @ imm = #0xf38
  13. 700a31bc: e92d4010     	push	{r4, lr}
  14. 700a31c0: e59fc048     	ldr	r12, [pc, #0x48]        @ 0x700a3210 <C$$IO$$+0x8>
  15. 700a31c4: e3a0e000     	mov	lr, #0

P_HDR Event: Idx:65416 (Pattern: EEEN, Function: __TI_writemsg)
Executed Assembly Steps:
  1. 700a31c8: e58c3000     	str	r3, [r12]
  2. 700a31cc: e5cc0004     	strb	r0, [r12, #0x4]
  3. 700a31d0: e35e0008     	cmp	lr, #8
  4. 700a31d4: 0a000004     	beq	0x700a31ec <__TI_writemsg+0x30> @ imm = #0x10

P_HDR Event: Idx:65417 (Pattern: EEEEEEN, Function: __TI_writemsg)
Executed Assembly Steps:
  1. 700a31d8: e7d1000e     	ldrb	r0, [r1, lr]
  2. 700a31dc: e08c400e     	add	r4, r12, lr
  3. 700a31e0: e28ee001     	add	lr, lr, #1
  4. 700a31e4: e5c40005     	strb	r0, [r4, #0x5]
  5. 700a31e8: eafffff8     	b	0x700a31d0 <__TI_writemsg+0x14> @ imm = #-0x20
  6. 700a31d0: e35e0008     	cmp	lr, #8
  7. 700a31d4: 0a000004     	beq	0x700a31ec <__TI_writemsg+0x30> @ imm = #0x10

P_HDR Event: Idx:65418 (Pattern: EEEEEEN, Function: __TI_writemsg)
Executed Assembly Steps:
  1. 700a31d8: e7d1000e     	ldrb	r0, [r1, lr]
  2. 700a31dc: e08c400e     	add	r4, r12, lr
  3. 700a31e0: e28ee001     	add	lr, lr, #1
  4. 700a31e4: e5c40005     	strb	r0, [r4, #0x5]
  5. 700a31e8: eafffff8     	b	0x700a31d0 <__TI_writemsg+0x14> @ imm = #-0x20
  6. 700a31d0: e35e0008     	cmp	lr, #8
  7. 700a31d4: 0a000004     	beq	0x700a31ec <__TI_writemsg+0x30> @ imm = #0x10

P_HDR Event: Idx:65419 (Pattern: EEEEEEN, Function: __TI_writemsg)
Executed Assembly Steps:
  1. 700a31d8: e7d1000e     	ldrb	r0, [r1, lr]
  2. 700a31dc: e08c400e     	add	r4, r12, lr
  3. 700a31e0: e28ee001     	add	lr, lr, #1
  4. 700a31e4: e5c40005     	strb	r0, [r4, #0x5]
  5. 700a31e8: eafffff8     	b	0x700a31d0 <__TI_writemsg+0x14> @ imm = #-0x20
  6. 700a31d0: e35e0008     	cmp	lr, #8
  7. 700a31d4: 0a000004     	beq	0x700a31ec <__TI_writemsg+0x30> @ imm = #0x10

P_HDR Event: Idx:65420 (Pattern: EEEEEEN, Function: __TI_writemsg)
Executed Assembly Steps:
  1. 700a31d8: e7d1000e     	ldrb	r0, [r1, lr]
  2. 700a31dc: e08c400e     	add	r4, r12, lr
  3. 700a31e0: e28ee001     	add	lr, lr, #1
  4. 700a31e4: e5c40005     	strb	r0, [r4, #0x5]
  5. 700a31e8: eafffff8     	b	0x700a31d0 <__TI_writemsg+0x14> @ imm = #-0x20
  6. 700a31d0: e35e0008     	cmp	lr, #8
  7. 700a31d4: 0a000004     	beq	0x700a31ec <__TI_writemsg+0x30> @ imm = #0x10

P_HDR Event: Idx:65421 (Pattern: EEEEEEN, Function: __TI_writemsg)
Executed Assembly Steps:
  1. 700a31d8: e7d1000e     	ldrb	r0, [r1, lr]
  2. 700a31dc: e08c400e     	add	r4, r12, lr
  3. 700a31e0: e28ee001     	add	lr, lr, #1
  4. 700a31e4: e5c40005     	strb	r0, [r4, #0x5]
  5. 700a31e8: eafffff8     	b	0x700a31d0 <__TI_writemsg+0x14> @ imm = #-0x20
  6. 700a31d0: e35e0008     	cmp	lr, #8
  7. 700a31d4: 0a000004     	beq	0x700a31ec <__TI_writemsg+0x30> @ imm = #0x10

P_HDR Event: Idx:65422 (Pattern: EEEEEEN, Function: __TI_writemsg)
Executed Assembly Steps:
  1. 700a31d8: e7d1000e     	ldrb	r0, [r1, lr]
  2. 700a31dc: e08c400e     	add	r4, r12, lr
  3. 700a31e0: e28ee001     	add	lr, lr, #1
  4. 700a31e4: e5c40005     	strb	r0, [r4, #0x5]
  5. 700a31e8: eafffff8     	b	0x700a31d0 <__TI_writemsg+0x14> @ imm = #-0x20
  6. 700a31d0: e35e0008     	cmp	lr, #8
  7. 700a31d4: 0a000004     	beq	0x700a31ec <__TI_writemsg+0x30> @ imm = #0x10

P_HDR Event: Idx:65424 (Pattern: EEEEEEN, Function: __TI_writemsg)
Executed Assembly Steps:
  1. 700a31d8: e7d1000e     	ldrb	r0, [r1, lr]
  2. 700a31dc: e08c400e     	add	r4, r12, lr
  3. 700a31e0: e28ee001     	add	lr, lr, #1
  4. 700a31e4: e5c40005     	strb	r0, [r4, #0x5]
  5. 700a31e8: eafffff8     	b	0x700a31d0 <__TI_writemsg+0x14> @ imm = #-0x20
  6. 700a31d0: e35e0008     	cmp	lr, #8
  7. 700a31d4: 0a000004     	beq	0x700a31ec <__TI_writemsg+0x30> @ imm = #0x10

P_HDR Event: Idx:65425 (Pattern: EEEEEEEEEN, Function: __TI_writemsg)
Executed Assembly Steps:
  1. 700a31d8: e7d1000e     	ldrb	r0, [r1, lr]
  2. 700a31dc: e08c400e     	add	r4, r12, lr
  3. 700a31e0: e28ee001     	add	lr, lr, #1
  4. 700a31e4: e5c40005     	strb	r0, [r4, #0x5]
  5. 700a31e8: eafffff8     	b	0x700a31d0 <__TI_writemsg+0x14> @ imm = #-0x20
  6. 700a31d0: e35e0008     	cmp	lr, #8
  7. 700a31d4: 0a000004     	beq	0x700a31ec <__TI_writemsg+0x30> @ imm = #0x10
  8. 700a31ec: e28c000d     	add	r0, r12, #13
  9. 700a31f0: e3530000     	cmp	r3, #0
  10. 700a31f4: 0a000003     	beq	0x700a3208 <C$$IO$$>    @ imm = #0xc

P_HDR Event: Idx:65426 (Pattern: EEEEEN, Function: __TI_writemsg)
Executed Assembly Steps:
  1. 700a31f8: e4d21001     	ldrb	r1, [r2], #1
  2. 700a31fc: e2433001     	sub	r3, r3, #1
  3. 700a3200: e4c01001     	strb	r1, [r0], #1
  4. 700a3204: eafffff9     	b	0x700a31f0 <__TI_writemsg+0x34> @ imm = #-0x1c
  5. 700a31f0: e3530000     	cmp	r3, #0
  6. 700a31f4: 0a000003     	beq	0x700a3208 <C$$IO$$>    @ imm = #0xc

P_HDR Event: Idx:65427 (Pattern: EEEEEN, Function: __TI_writemsg)
Executed Assembly Steps:
  1. 700a31f8: e4d21001     	ldrb	r1, [r2], #1
  2. 700a31fc: e2433001     	sub	r3, r3, #1
  3. 700a3200: e4c01001     	strb	r1, [r0], #1
  4. 700a3204: eafffff9     	b	0x700a31f0 <__TI_writemsg+0x34> @ imm = #-0x1c
  5. 700a31f0: e3530000     	cmp	r3, #0
  6. 700a31f4: 0a000003     	beq	0x700a3208 <C$$IO$$>    @ imm = #0xc

P_HDR Event: Idx:65428 (Pattern: EEEEEN, Function: __TI_writemsg)
Executed Assembly Steps:
  1. 700a31f8: e4d21001     	ldrb	r1, [r2], #1
  2. 700a31fc: e2433001     	sub	r3, r3, #1
  3. 700a3200: e4c01001     	strb	r1, [r0], #1
  4. 700a3204: eafffff9     	b	0x700a31f0 <__TI_writemsg+0x34> @ imm = #-0x1c
  5. 700a31f0: e3530000     	cmp	r3, #0
  6. 700a31f4: 0a000003     	beq	0x700a3208 <C$$IO$$>    @ imm = #0xc

P_HDR Event: Idx:65429 (Pattern: EEEEEN, Function: __TI_writemsg)
Executed Assembly Steps:
  1. 700a31f8: e4d21001     	ldrb	r1, [r2], #1
  2. 700a31fc: e2433001     	sub	r3, r3, #1
  3. 700a3200: e4c01001     	strb	r1, [r0], #1
  4. 700a3204: eafffff9     	b	0x700a31f0 <__TI_writemsg+0x34> @ imm = #-0x1c
  5. 700a31f0: e3530000     	cmp	r3, #0
  6. 700a31f4: 0a000003     	beq	0x700a3208 <C$$IO$$>    @ imm = #0xc

P_HDR Event: Idx:65430 (Pattern: EEEEEN, Function: __TI_writemsg)
Executed Assembly Steps:
  1. 700a31f8: e4d21001     	ldrb	r1, [r2], #1
  2. 700a31fc: e2433001     	sub	r3, r3, #1
  3. 700a3200: e4c01001     	strb	r1, [r0], #1
  4. 700a3204: eafffff9     	b	0x700a31f0 <__TI_writemsg+0x34> @ imm = #-0x1c
  5. 700a31f0: e3530000     	cmp	r3, #0
  6. 700a31f4: 0a000003     	beq	0x700a3208 <C$$IO$$>    @ imm = #0xc

P_HDR Event: Idx:65431 (Pattern: EEEEEN, Function: __TI_writemsg)
Executed Assembly Steps:
  1. 700a31f8: e4d21001     	ldrb	r1, [r2], #1
  2. 700a31fc: e2433001     	sub	r3, r3, #1
  3. 700a3200: e4c01001     	strb	r1, [r0], #1
  4. 700a3204: eafffff9     	b	0x700a31f0 <__TI_writemsg+0x34> @ imm = #-0x1c
  5. 700a31f0: e3530000     	cmp	r3, #0
  6. 700a31f4: 0a000003     	beq	0x700a3208 <C$$IO$$>    @ imm = #0xc

P_HDR Event: Idx:65432 (Pattern: EEEEEN, Function: __TI_writemsg)
Executed Assembly Steps:
  1. 700a31f8: e4d21001     	ldrb	r1, [r2], #1
  2. 700a31fc: e2433001     	sub	r3, r3, #1
  3. 700a3200: e4c01001     	strb	r1, [r0], #1
  4. 700a3204: eafffff9     	b	0x700a31f0 <__TI_writemsg+0x34> @ imm = #-0x1c
  5. 700a31f0: e3530000     	cmp	r3, #0
  6. 700a31f4: 0a000003     	beq	0x700a3208 <C$$IO$$>    @ imm = #0xc

P_HDR Event: Idx:65433 (Pattern: EEEEEN, Function: __TI_writemsg)
Executed Assembly Steps:
  1. 700a31f8: e4d21001     	ldrb	r1, [r2], #1
  2. 700a31fc: e2433001     	sub	r3, r3, #1
  3. 700a3200: e4c01001     	strb	r1, [r0], #1
  4. 700a3204: eafffff9     	b	0x700a31f0 <__TI_writemsg+0x34> @ imm = #-0x1c
  5. 700a31f0: e3530000     	cmp	r3, #0
  6. 700a31f4: 0a000003     	beq	0x700a3208 <C$$IO$$>    @ imm = #0xc

P_HDR Event: Idx:65434 (Pattern: EEEEEN, Function: __TI_writemsg)
Executed Assembly Steps:
  1. 700a31f8: e4d21001     	ldrb	r1, [r2], #1
  2. 700a31fc: e2433001     	sub	r3, r3, #1
  3. 700a3200: e4c01001     	strb	r1, [r0], #1
  4. 700a3204: eafffff9     	b	0x700a31f0 <__TI_writemsg+0x34> @ imm = #-0x1c
  5. 700a31f0: e3530000     	cmp	r3, #0
  6. 700a31f4: 0a000003     	beq	0x700a3208 <C$$IO$$>    @ imm = #0xc

P_HDR Event: Idx:65435 (Pattern: EEEEEN, Function: __TI_writemsg)
Executed Assembly Steps:
  1. 700a31f8: e4d21001     	ldrb	r1, [r2], #1
  2. 700a31fc: e2433001     	sub	r3, r3, #1
  3. 700a3200: e4c01001     	strb	r1, [r0], #1
  4. 700a3204: eafffff9     	b	0x700a31f0 <__TI_writemsg+0x34> @ imm = #-0x1c
  5. 700a31f0: e3530000     	cmp	r3, #0
  6. 700a31f4: 0a000003     	beq	0x700a3208 <C$$IO$$>    @ imm = #0xc

P_HDR Event: Idx:65436 (Pattern: EEEEEN, Function: __TI_writemsg)
Executed Assembly Steps:
  1. 700a31f8: e4d21001     	ldrb	r1, [r2], #1
  2. 700a31fc: e2433001     	sub	r3, r3, #1
  3. 700a3200: e4c01001     	strb	r1, [r0], #1
  4. 700a3204: eafffff9     	b	0x700a31f0 <__TI_writemsg+0x34> @ imm = #-0x1c
  5. 700a31f0: e3530000     	cmp	r3, #0
  6. 700a31f4: 0a000003     	beq	0x700a3208 <C$$IO$$>    @ imm = #0xc

P_HDR Event: Idx:65437 (Pattern: EEEEEN, Function: __TI_writemsg)
Executed Assembly Steps:
  1. 700a31f8: e4d21001     	ldrb	r1, [r2], #1
  2. 700a31fc: e2433001     	sub	r3, r3, #1
  3. 700a3200: e4c01001     	strb	r1, [r0], #1
  4. 700a3204: eafffff9     	b	0x700a31f0 <__TI_writemsg+0x34> @ imm = #-0x1c
  5. 700a31f0: e3530000     	cmp	r3, #0
  6. 700a31f4: 0a000003     	beq	0x700a3208 <C$$IO$$>    @ imm = #0xc

P_HDR Event: Idx:65438 (Pattern: EEEEEN, Function: __TI_writemsg)
Executed Assembly Steps:
  1. 700a31f8: e4d21001     	ldrb	r1, [r2], #1
  2. 700a31fc: e2433001     	sub	r3, r3, #1
  3. 700a3200: e4c01001     	strb	r1, [r0], #1
  4. 700a3204: eafffff9     	b	0x700a31f0 <__TI_writemsg+0x34> @ imm = #-0x1c
  5. 700a31f0: e3530000     	cmp	r3, #0
  6. 700a31f4: 0a000003     	beq	0x700a3208 <C$$IO$$>    @ imm = #0xc

P_HDR Event: Idx:65440 (Pattern: EEEEEN, Function: __TI_writemsg)
Executed Assembly Steps:
  1. 700a31f8: e4d21001     	ldrb	r1, [r2], #1
  2. 700a31fc: e2433001     	sub	r3, r3, #1
  3. 700a3200: e4c01001     	strb	r1, [r0], #1
  4. 700a3204: eafffff9     	b	0x700a31f0 <__TI_writemsg+0x34> @ imm = #-0x1c
  5. 700a31f0: e3530000     	cmp	r3, #0
  6. 700a31f4: 0a000003     	beq	0x700a3208 <C$$IO$$>    @ imm = #0xc

P_HDR Event: Idx:65441 (Pattern: EEEEEN, Function: __TI_writemsg)
Executed Assembly Steps:
  1. 700a31f8: e4d21001     	ldrb	r1, [r2], #1
  2. 700a31fc: e2433001     	sub	r3, r3, #1
  3. 700a3200: e4c01001     	strb	r1, [r0], #1
  4. 700a3204: eafffff9     	b	0x700a31f0 <__TI_writemsg+0x34> @ imm = #-0x1c
  5. 700a31f0: e3530000     	cmp	r3, #0
  6. 700a31f4: 0a000003     	beq	0x700a3208 <C$$IO$$>    @ imm = #0xc

P_HDR Event: Idx:65442 (Pattern: EEEEEN, Function: __TI_writemsg)
Executed Assembly Steps:
  1. 700a31f8: e4d21001     	ldrb	r1, [r2], #1
  2. 700a31fc: e2433001     	sub	r3, r3, #1
  3. 700a3200: e4c01001     	strb	r1, [r0], #1
  4. 700a3204: eafffff9     	b	0x700a31f0 <__TI_writemsg+0x34> @ imm = #-0x1c
  5. 700a31f0: e3530000     	cmp	r3, #0
  6. 700a31f4: 0a000003     	beq	0x700a3208 <C$$IO$$>    @ imm = #0xc

P_HDR Event: Idx:65443 (Pattern: EEEEEN, Function: __TI_writemsg)
Executed Assembly Steps:
  1. 700a31f8: e4d21001     	ldrb	r1, [r2], #1
  2. 700a31fc: e2433001     	sub	r3, r3, #1
  3. 700a3200: e4c01001     	strb	r1, [r0], #1
  4. 700a3204: eafffff9     	b	0x700a31f0 <__TI_writemsg+0x34> @ imm = #-0x1c
  5. 700a31f0: e3530000     	cmp	r3, #0
  6. 700a31f4: 0a000003     	beq	0x700a3208 <C$$IO$$>    @ imm = #0xc

P_HDR Event: Idx:65444 (Pattern: EEEEEN, Function: __TI_writemsg)
Executed Assembly Steps:
  1. 700a31f8: e4d21001     	ldrb	r1, [r2], #1
  2. 700a31fc: e2433001     	sub	r3, r3, #1
  3. 700a3200: e4c01001     	strb	r1, [r0], #1
  4. 700a3204: eafffff9     	b	0x700a31f0 <__TI_writemsg+0x34> @ imm = #-0x1c
  5. 700a31f0: e3530000     	cmp	r3, #0
  6. 700a31f4: 0a000003     	beq	0x700a3208 <C$$IO$$>    @ imm = #0xc

P_HDR Event: Idx:65445 (Pattern: EEEEEN, Function: __TI_writemsg)
Executed Assembly Steps:
  1. 700a31f8: e4d21001     	ldrb	r1, [r2], #1
  2. 700a31fc: e2433001     	sub	r3, r3, #1
  3. 700a3200: e4c01001     	strb	r1, [r0], #1
  4. 700a3204: eafffff9     	b	0x700a31f0 <__TI_writemsg+0x34> @ imm = #-0x1c
  5. 700a31f0: e3530000     	cmp	r3, #0
  6. 700a31f4: 0a000003     	beq	0x700a3208 <C$$IO$$>    @ imm = #0xc

P_HDR Event: Idx:65446 (Pattern: EEEEEN, Function: __TI_writemsg)
Executed Assembly Steps:
  1. 700a31f8: e4d21001     	ldrb	r1, [r2], #1
  2. 700a31fc: e2433001     	sub	r3, r3, #1
  3. 700a3200: e4c01001     	strb	r1, [r0], #1
  4. 700a3204: eafffff9     	b	0x700a31f0 <__TI_writemsg+0x34> @ imm = #-0x1c
  5. 700a31f0: e3530000     	cmp	r3, #0
  6. 700a31f4: 0a000003     	beq	0x700a3208 <C$$IO$$>    @ imm = #0xc

P_HDR Event: Idx:65447 (Pattern: EEEEEN, Function: __TI_writemsg)
Executed Assembly Steps:
  1. 700a31f8: e4d21001     	ldrb	r1, [r2], #1
  2. 700a31fc: e2433001     	sub	r3, r3, #1
  3. 700a3200: e4c01001     	strb	r1, [r0], #1
  4. 700a3204: eafffff9     	b	0x700a31f0 <__TI_writemsg+0x34> @ imm = #-0x1c
  5. 700a31f0: e3530000     	cmp	r3, #0
  6. 700a31f4: 0a000003     	beq	0x700a3208 <C$$IO$$>    @ imm = #0xc

P_HDR Event: Idx:65448 (Pattern: EEEEEN, Function: __TI_writemsg)
Executed Assembly Steps:
  1. 700a31f8: e4d21001     	ldrb	r1, [r2], #1
  2. 700a31fc: e2433001     	sub	r3, r3, #1
  3. 700a3200: e4c01001     	strb	r1, [r0], #1
  4. 700a3204: eafffff9     	b	0x700a31f0 <__TI_writemsg+0x34> @ imm = #-0x1c
  5. 700a31f0: e3530000     	cmp	r3, #0
  6. 700a31f4: 0a000003     	beq	0x700a3208 <C$$IO$$>    @ imm = #0xc

P_HDR Event: Idx:65449 (Pattern: EEEEEN, Function: __TI_writemsg)
Executed Assembly Steps:
  1. 700a31f8: e4d21001     	ldrb	r1, [r2], #1
  2. 700a31fc: e2433001     	sub	r3, r3, #1
  3. 700a3200: e4c01001     	strb	r1, [r0], #1
  4. 700a3204: eafffff9     	b	0x700a31f0 <__TI_writemsg+0x34> @ imm = #-0x1c
  5. 700a31f0: e3530000     	cmp	r3, #0
  6. 700a31f4: 0a000003     	beq	0x700a3208 <C$$IO$$>    @ imm = #0xc

P_HDR Event: Idx:65450 (Pattern: EEEEEN, Function: __TI_writemsg)
Executed Assembly Steps:
  1. 700a31f8: e4d21001     	ldrb	r1, [r2], #1
  2. 700a31fc: e2433001     	sub	r3, r3, #1
  3. 700a3200: e4c01001     	strb	r1, [r0], #1
  4. 700a3204: eafffff9     	b	0x700a31f0 <__TI_writemsg+0x34> @ imm = #-0x1c
  5. 700a31f0: e3530000     	cmp	r3, #0
  6. 700a31f4: 0a000003     	beq	0x700a3208 <C$$IO$$>    @ imm = #0xc

P_HDR Event: Idx:65451 (Pattern: EEEEEN, Function: __TI_writemsg)
Executed Assembly Steps:
  1. 700a31f8: e4d21001     	ldrb	r1, [r2], #1
  2. 700a31fc: e2433001     	sub	r3, r3, #1
  3. 700a3200: e4c01001     	strb	r1, [r0], #1
  4. 700a3204: eafffff9     	b	0x700a31f0 <__TI_writemsg+0x34> @ imm = #-0x1c
  5. 700a31f0: e3530000     	cmp	r3, #0
  6. 700a31f4: 0a000003     	beq	0x700a3208 <C$$IO$$>    @ imm = #0xc

P_HDR Event: Idx:65452 (Pattern: EEEEEN, Function: __TI_writemsg)
Executed Assembly Steps:
  1. 700a31f8: e4d21001     	ldrb	r1, [r2], #1
  2. 700a31fc: e2433001     	sub	r3, r3, #1
  3. 700a3200: e4c01001     	strb	r1, [r0], #1
  4. 700a3204: eafffff9     	b	0x700a31f0 <__TI_writemsg+0x34> @ imm = #-0x1c
  5. 700a31f0: e3530000     	cmp	r3, #0
  6. 700a31f4: 0a000003     	beq	0x700a3208 <C$$IO$$>    @ imm = #0xc

P_HDR Event: Idx:65453 (Pattern: EEEEEN, Function: __TI_writemsg)
Executed Assembly Steps:
  1. 700a31f8: e4d21001     	ldrb	r1, [r2], #1
  2. 700a31fc: e2433001     	sub	r3, r3, #1
  3. 700a3200: e4c01001     	strb	r1, [r0], #1
  4. 700a3204: eafffff9     	b	0x700a31f0 <__TI_writemsg+0x34> @ imm = #-0x1c
  5. 700a31f0: e3530000     	cmp	r3, #0
  6. 700a31f4: 0a000003     	beq	0x700a3208 <C$$IO$$>    @ imm = #0xc

P_HDR Event: Idx:65454 (Pattern: EEEEEN, Function: __TI_writemsg)
Executed Assembly Steps:
  1. 700a31f8: e4d21001     	ldrb	r1, [r2], #1
  2. 700a31fc: e2433001     	sub	r3, r3, #1
  3. 700a3200: e4c01001     	strb	r1, [r0], #1
  4. 700a3204: eafffff9     	b	0x700a31f0 <__TI_writemsg+0x34> @ imm = #-0x1c
  5. 700a31f0: e3530000     	cmp	r3, #0
  6. 700a31f4: 0a000003     	beq	0x700a3208 <C$$IO$$>    @ imm = #0xc

P_HDR Event: Idx:65456 (Pattern: EEEEEN, Function: __TI_writemsg)
Executed Assembly Steps:
  1. 700a31f8: e4d21001     	ldrb	r1, [r2], #1
  2. 700a31fc: e2433001     	sub	r3, r3, #1
  3. 700a3200: e4c01001     	strb	r1, [r0], #1
  4. 700a3204: eafffff9     	b	0x700a31f0 <__TI_writemsg+0x34> @ imm = #-0x1c
  5. 700a31f0: e3530000     	cmp	r3, #0
  6. 700a31f4: 0a000003     	beq	0x700a3208 <C$$IO$$>    @ imm = #0xc

P_HDR Event: Idx:65457 (Pattern: EEEEEN, Function: __TI_writemsg)
Executed Assembly Steps:
  1. 700a31f8: e4d21001     	ldrb	r1, [r2], #1
  2. 700a31fc: e2433001     	sub	r3, r3, #1
  3. 700a3200: e4c01001     	strb	r1, [r0], #1
  4. 700a3204: eafffff9     	b	0x700a31f0 <__TI_writemsg+0x34> @ imm = #-0x1c
  5. 700a31f0: e3530000     	cmp	r3, #0
  6. 700a31f4: 0a000003     	beq	0x700a3208 <C$$IO$$>    @ imm = #0xc

P_HDR Event: Idx:65458 (Pattern: EEEEEN, Function: __TI_writemsg)
Executed Assembly Steps:
  1. 700a31f8: e4d21001     	ldrb	r1, [r2], #1
  2. 700a31fc: e2433001     	sub	r3, r3, #1
  3. 700a3200: e4c01001     	strb	r1, [r0], #1
  4. 700a3204: eafffff9     	b	0x700a31f0 <__TI_writemsg+0x34> @ imm = #-0x1c
  5. 700a31f0: e3530000     	cmp	r3, #0
  6. 700a31f4: 0a000003     	beq	0x700a3208 <C$$IO$$>    @ imm = #0xc

P_HDR Event: Idx:65459 (Pattern: EEEEEN, Function: __TI_writemsg)
Executed Assembly Steps:
  1. 700a31f8: e4d21001     	ldrb	r1, [r2], #1
  2. 700a31fc: e2433001     	sub	r3, r3, #1
  3. 700a3200: e4c01001     	strb	r1, [r0], #1
  4. 700a3204: eafffff9     	b	0x700a31f0 <__TI_writemsg+0x34> @ imm = #-0x1c
  5. 700a31f0: e3530000     	cmp	r3, #0
  6. 700a31f4: 0a000003     	beq	0x700a3208 <C$$IO$$>    @ imm = #0xc

P_HDR Event: Idx:65460 (Pattern: EEEEEN, Function: __TI_writemsg)
Executed Assembly Steps:
  1. 700a31f8: e4d21001     	ldrb	r1, [r2], #1
  2. 700a31fc: e2433001     	sub	r3, r3, #1
  3. 700a3200: e4c01001     	strb	r1, [r0], #1
  4. 700a3204: eafffff9     	b	0x700a31f0 <__TI_writemsg+0x34> @ imm = #-0x1c
  5. 700a31f0: e3530000     	cmp	r3, #0
  6. 700a31f4: 0a000003     	beq	0x700a3208 <C$$IO$$>    @ imm = #0xc

P_HDR Event: Idx:65461 (Pattern: EEEEEN, Function: __TI_writemsg)
Executed Assembly Steps:
  1. 700a31f8: e4d21001     	ldrb	r1, [r2], #1
  2. 700a31fc: e2433001     	sub	r3, r3, #1
  3. 700a3200: e4c01001     	strb	r1, [r0], #1
  4. 700a3204: eafffff9     	b	0x700a31f0 <__TI_writemsg+0x34> @ imm = #-0x1c
  5. 700a31f0: e3530000     	cmp	r3, #0
  6. 700a31f4: 0a000003     	beq	0x700a3208 <C$$IO$$>    @ imm = #0xc

P_HDR Event: Idx:65462 (Pattern: EEEEEN, Function: __TI_writemsg)
Executed Assembly Steps:
  1. 700a31f8: e4d21001     	ldrb	r1, [r2], #1
  2. 700a31fc: e2433001     	sub	r3, r3, #1
  3. 700a3200: e4c01001     	strb	r1, [r0], #1
  4. 700a3204: eafffff9     	b	0x700a31f0 <__TI_writemsg+0x34> @ imm = #-0x1c
  5. 700a31f0: e3530000     	cmp	r3, #0
  6. 700a31f4: 0a000003     	beq	0x700a3208 <C$$IO$$>    @ imm = #0xc

P_HDR Event: Idx:65463 (Pattern: EEEEEN, Function: __TI_writemsg)
Executed Assembly Steps:
  1. 700a31f8: e4d21001     	ldrb	r1, [r2], #1
  2. 700a31fc: e2433001     	sub	r3, r3, #1
  3. 700a3200: e4c01001     	strb	r1, [r0], #1
  4. 700a3204: eafffff9     	b	0x700a31f0 <__TI_writemsg+0x34> @ imm = #-0x1c
  5. 700a31f0: e3530000     	cmp	r3, #0
  6. 700a31f4: 0a000003     	beq	0x700a3208 <C$$IO$$>    @ imm = #0xc

P_HDR Event: Idx:65464 (Pattern: EEEEEN, Function: __TI_writemsg)
Executed Assembly Steps:
  1. 700a31f8: e4d21001     	ldrb	r1, [r2], #1
  2. 700a31fc: e2433001     	sub	r3, r3, #1
  3. 700a3200: e4c01001     	strb	r1, [r0], #1
  4. 700a3204: eafffff9     	b	0x700a31f0 <__TI_writemsg+0x34> @ imm = #-0x1c
  5. 700a31f0: e3530000     	cmp	r3, #0
  6. 700a31f4: 0a000003     	beq	0x700a3208 <C$$IO$$>    @ imm = #0xc

P_HDR Event: Idx:65465 (Pattern: EEEEEN, Function: __TI_writemsg)
Executed Assembly Steps:
  1. 700a31f8: e4d21001     	ldrb	r1, [r2], #1
  2. 700a31fc: e2433001     	sub	r3, r3, #1
  3. 700a3200: e4c01001     	strb	r1, [r0], #1
  4. 700a3204: eafffff9     	b	0x700a31f0 <__TI_writemsg+0x34> @ imm = #-0x1c
  5. 700a31f0: e3530000     	cmp	r3, #0
  6. 700a31f4: 0a000003     	beq	0x700a3208 <C$$IO$$>    @ imm = #0xc

P_HDR Event: Idx:65466 (Pattern: E, Function: __TI_writemsg)
Executed Assembly Steps:
  1. 700a31f8: e4d21001     	ldrb	r1, [r2], #1

Sync: Idx:65467; ID:10;	I_SYNC : Instruction Packet synchronisation.; (Periodic); Addr=0x700a31fc; S;  ISA=ARM(32);

P_HDR Event: Idx:65474 (Pattern: EEEEN, Function: __TI_writemsg)
Executed Assembly Steps:
  1. 700a31fc: e2433001     	sub	r3, r3, #1
  2. 700a3200: e4c01001     	strb	r1, [r0], #1
  3. 700a3204: eafffff9     	b	0x700a31f0 <__TI_writemsg+0x34> @ imm = #-0x1c
  4. 700a31f0: e3530000     	cmp	r3, #0
  5. 700a31f4: 0a000003     	beq	0x700a3208 <C$$IO$$>    @ imm = #0xc

P_HDR Event: Idx:65475 (Pattern: EEEEEN, Function: __TI_writemsg)
Executed Assembly Steps:
  1. 700a31f8: e4d21001     	ldrb	r1, [r2], #1
  2. 700a31fc: e2433001     	sub	r3, r3, #1
  3. 700a3200: e4c01001     	strb	r1, [r0], #1
  4. 700a3204: eafffff9     	b	0x700a31f0 <__TI_writemsg+0x34> @ imm = #-0x1c
  5. 700a31f0: e3530000     	cmp	r3, #0
  6. 700a31f4: 0a000003     	beq	0x700a3208 <C$$IO$$>    @ imm = #0xc

P_HDR Event: Idx:65476 (Pattern: EEEEEN, Function: __TI_writemsg)
Executed Assembly Steps:
  1. 700a31f8: e4d21001     	ldrb	r1, [r2], #1
  2. 700a31fc: e2433001     	sub	r3, r3, #1
  3. 700a3200: e4c01001     	strb	r1, [r0], #1
  4. 700a3204: eafffff9     	b	0x700a31f0 <__TI_writemsg+0x34> @ imm = #-0x1c
  5. 700a31f0: e3530000     	cmp	r3, #0
  6. 700a31f4: 0a000003     	beq	0x700a3208 <C$$IO$$>    @ imm = #0xc

P_HDR Event: Idx:65477 (Pattern: EEEEEN, Function: __TI_writemsg)
Executed Assembly Steps:
  1. 700a31f8: e4d21001     	ldrb	r1, [r2], #1
  2. 700a31fc: e2433001     	sub	r3, r3, #1
  3. 700a3200: e4c01001     	strb	r1, [r0], #1
  4. 700a3204: eafffff9     	b	0x700a31f0 <__TI_writemsg+0x34> @ imm = #-0x1c
  5. 700a31f0: e3530000     	cmp	r3, #0
  6. 700a31f4: 0a000003     	beq	0x700a3208 <C$$IO$$>    @ imm = #0xc

P_HDR Event: Idx:65478 (Pattern: EEEEEN, Function: __TI_writemsg)
Executed Assembly Steps:
  1. 700a31f8: e4d21001     	ldrb	r1, [r2], #1
  2. 700a31fc: e2433001     	sub	r3, r3, #1
  3. 700a3200: e4c01001     	strb	r1, [r0], #1
  4. 700a3204: eafffff9     	b	0x700a31f0 <__TI_writemsg+0x34> @ imm = #-0x1c
  5. 700a31f0: e3530000     	cmp	r3, #0
  6. 700a31f4: 0a000003     	beq	0x700a3208 <C$$IO$$>    @ imm = #0xc

P_HDR Event: Idx:65479 (Pattern: EEEEEN, Function: __TI_writemsg)
Executed Assembly Steps:
  1. 700a31f8: e4d21001     	ldrb	r1, [r2], #1
  2. 700a31fc: e2433001     	sub	r3, r3, #1
  3. 700a3200: e4c01001     	strb	r1, [r0], #1
  4. 700a3204: eafffff9     	b	0x700a31f0 <__TI_writemsg+0x34> @ imm = #-0x1c
  5. 700a31f0: e3530000     	cmp	r3, #0
  6. 700a31f4: 0a000003     	beq	0x700a3208 <C$$IO$$>    @ imm = #0xc

P_HDR Event: Idx:65480 (Pattern: EEEEEN, Function: __TI_writemsg)
Executed Assembly Steps:
  1. 700a31f8: e4d21001     	ldrb	r1, [r2], #1
  2. 700a31fc: e2433001     	sub	r3, r3, #1
  3. 700a3200: e4c01001     	strb	r1, [r0], #1
  4. 700a3204: eafffff9     	b	0x700a31f0 <__TI_writemsg+0x34> @ imm = #-0x1c
  5. 700a31f0: e3530000     	cmp	r3, #0
  6. 700a31f4: 0a000003     	beq	0x700a3208 <C$$IO$$>    @ imm = #0xc

P_HDR Event: Idx:65481 (Pattern: EEEEEN, Function: __TI_writemsg)
Executed Assembly Steps:
  1. 700a31f8: e4d21001     	ldrb	r1, [r2], #1
  2. 700a31fc: e2433001     	sub	r3, r3, #1
  3. 700a3200: e4c01001     	strb	r1, [r0], #1
  4. 700a3204: eafffff9     	b	0x700a31f0 <__TI_writemsg+0x34> @ imm = #-0x1c
  5. 700a31f0: e3530000     	cmp	r3, #0
  6. 700a31f4: 0a000003     	beq	0x700a3208 <C$$IO$$>    @ imm = #0xc

P_HDR Event: Idx:65482 (Pattern: EEEEEN, Function: __TI_writemsg)
Executed Assembly Steps:
  1. 700a31f8: e4d21001     	ldrb	r1, [r2], #1
  2. 700a31fc: e2433001     	sub	r3, r3, #1
  3. 700a3200: e4c01001     	strb	r1, [r0], #1
  4. 700a3204: eafffff9     	b	0x700a31f0 <__TI_writemsg+0x34> @ imm = #-0x1c
  5. 700a31f0: e3530000     	cmp	r3, #0
  6. 700a31f4: 0a000003     	beq	0x700a3208 <C$$IO$$>    @ imm = #0xc

P_HDR Event: Idx:65483 (Pattern: EEEEEN, Function: __TI_writemsg)
Executed Assembly Steps:
  1. 700a31f8: e4d21001     	ldrb	r1, [r2], #1
  2. 700a31fc: e2433001     	sub	r3, r3, #1
  3. 700a3200: e4c01001     	strb	r1, [r0], #1
  4. 700a3204: eafffff9     	b	0x700a31f0 <__TI_writemsg+0x34> @ imm = #-0x1c
  5. 700a31f0: e3530000     	cmp	r3, #0
  6. 700a31f4: 0a000003     	beq	0x700a3208 <C$$IO$$>    @ imm = #0xc

P_HDR Event: Idx:65484 (Pattern: EEEEEN, Function: __TI_writemsg)
Executed Assembly Steps:
  1. 700a31f8: e4d21001     	ldrb	r1, [r2], #1
  2. 700a31fc: e2433001     	sub	r3, r3, #1
  3. 700a3200: e4c01001     	strb	r1, [r0], #1
  4. 700a3204: eafffff9     	b	0x700a31f0 <__TI_writemsg+0x34> @ imm = #-0x1c
  5. 700a31f0: e3530000     	cmp	r3, #0
  6. 700a31f4: 0a000003     	beq	0x700a3208 <C$$IO$$>    @ imm = #0xc

P_HDR Event: Idx:65485 (Pattern: EEEEEN, Function: __TI_writemsg)
Executed Assembly Steps:
  1. 700a31f8: e4d21001     	ldrb	r1, [r2], #1
  2. 700a31fc: e2433001     	sub	r3, r3, #1
  3. 700a3200: e4c01001     	strb	r1, [r0], #1
  4. 700a3204: eafffff9     	b	0x700a31f0 <__TI_writemsg+0x34> @ imm = #-0x1c
  5. 700a31f0: e3530000     	cmp	r3, #0
  6. 700a31f4: 0a000003     	beq	0x700a3208 <C$$IO$$>    @ imm = #0xc

P_HDR Event: Idx:65486 (Pattern: EEEEEN, Function: __TI_writemsg)
Executed Assembly Steps:
  1. 700a31f8: e4d21001     	ldrb	r1, [r2], #1
  2. 700a31fc: e2433001     	sub	r3, r3, #1
  3. 700a3200: e4c01001     	strb	r1, [r0], #1
  4. 700a3204: eafffff9     	b	0x700a31f0 <__TI_writemsg+0x34> @ imm = #-0x1c
  5. 700a31f0: e3530000     	cmp	r3, #0
  6. 700a31f4: 0a000003     	beq	0x700a3208 <C$$IO$$>    @ imm = #0xc

P_HDR Event: Idx:65488 (Pattern: EEEEEEE, Function: __TI_writemsg)
Executed Assembly Steps:
  1. 700a31f8: e4d21001     	ldrb	r1, [r2], #1
  2. 700a31fc: e2433001     	sub	r3, r3, #1
  3. 700a3200: e4c01001     	strb	r1, [r0], #1
  4. 700a3204: eafffff9     	b	0x700a31f0 <__TI_writemsg+0x34> @ imm = #-0x1c
  5. 700a31f0: e3530000     	cmp	r3, #0
  6. 700a31f4: 0a000003     	beq	0x700a3208 <C$$IO$$>    @ imm = #0xc
  7. 700a3208: e320f000     	nop

Sync: Idx:65489; ID:10;	BRANCH_ADDRESS : Branch address.; Addr=0x700A320C ~[0x700A320C]; S; Exception=Debug Halt; ; Cancel prev instr

